
fir_benchmark.riscv:     file format elf32-littleriscv


Disassembly of section .text.init:

80000000 <_start>:
80000000:	4081                	li	ra,0
80000002:	4101                	li	sp,0
80000004:	4181                	li	gp,0
80000006:	4201                	li	tp,0
80000008:	4281                	li	t0,0
8000000a:	4301                	li	t1,0
8000000c:	4381                	li	t2,0
8000000e:	4401                	li	s0,0
80000010:	4481                	li	s1,0
80000012:	4501                	li	a0,0
80000014:	4581                	li	a1,0
80000016:	4601                	li	a2,0
80000018:	4681                	li	a3,0
8000001a:	4701                	li	a4,0
8000001c:	4781                	li	a5,0
8000001e:	4801                	li	a6,0
80000020:	4881                	li	a7,0
80000022:	4901                	li	s2,0
80000024:	4981                	li	s3,0
80000026:	4a01                	li	s4,0
80000028:	4a81                	li	s5,0
8000002a:	4b01                	li	s6,0
8000002c:	4b81                	li	s7,0
8000002e:	4c01                	li	s8,0
80000030:	4c81                	li	s9,0
80000032:	4d01                	li	s10,0
80000034:	4d81                	li	s11,0
80000036:	4e01                	li	t3,0
80000038:	4e81                	li	t4,0
8000003a:	4f01                	li	t5,0
8000003c:	4f81                	li	t6,0
8000003e:	62f9                	lui	t0,0x1e
80000040:	3002a073          	csrs	mstatus,t0
80000044:	4285                	li	t0,1
80000046:	02fe                	slli	t0,t0,0x1f
80000048:	0002c863          	bltz	t0,80000058 <_start+0x58>
8000004c:	4505                	li	a0,1
8000004e:	00001297          	auipc	t0,0x1
80000052:	faa2a923          	sw	a0,-78(t0) # 80001000 <tohost>
80000056:	bfdd                	j	8000004c <_start+0x4c>
80000058:	00000297          	auipc	t0,0x0
8000005c:	09028293          	addi	t0,t0,144 # 800000e8 <_start+0xe8>
80000060:	30529073          	csrw	mtvec,t0
80000064:	00301073          	fscsr	zero
80000068:	f0000053          	fmv.w.x	ft0,zero
8000006c:	f00000d3          	fmv.w.x	ft1,zero
80000070:	f0000153          	fmv.w.x	ft2,zero
80000074:	f00001d3          	fmv.w.x	ft3,zero
80000078:	f0000253          	fmv.w.x	ft4,zero
8000007c:	f00002d3          	fmv.w.x	ft5,zero
80000080:	f0000353          	fmv.w.x	ft6,zero
80000084:	f00003d3          	fmv.w.x	ft7,zero
80000088:	f0000453          	fmv.w.x	fs0,zero
8000008c:	f00004d3          	fmv.w.x	fs1,zero
80000090:	f0000553          	fmv.w.x	fa0,zero
80000094:	f00005d3          	fmv.w.x	fa1,zero
80000098:	f0000653          	fmv.w.x	fa2,zero
8000009c:	f00006d3          	fmv.w.x	fa3,zero
800000a0:	f0000753          	fmv.w.x	fa4,zero
800000a4:	f00007d3          	fmv.w.x	fa5,zero
800000a8:	f0000853          	fmv.w.x	fa6,zero
800000ac:	f00008d3          	fmv.w.x	fa7,zero
800000b0:	f0000953          	fmv.w.x	fs2,zero
800000b4:	f00009d3          	fmv.w.x	fs3,zero
800000b8:	f0000a53          	fmv.w.x	fs4,zero
800000bc:	f0000ad3          	fmv.w.x	fs5,zero
800000c0:	f0000b53          	fmv.w.x	fs6,zero
800000c4:	f0000bd3          	fmv.w.x	fs7,zero
800000c8:	f0000c53          	fmv.w.x	fs8,zero
800000cc:	f0000cd3          	fmv.w.x	fs9,zero
800000d0:	f0000d53          	fmv.w.x	fs10,zero
800000d4:	f0000dd3          	fmv.w.x	fs11,zero
800000d8:	f0000e53          	fmv.w.x	ft8,zero
800000dc:	f0000ed3          	fmv.w.x	ft9,zero
800000e0:	f0000f53          	fmv.w.x	ft10,zero
800000e4:	f0000fd3          	fmv.w.x	ft11,zero
800000e8:	00000297          	auipc	t0,0x0
800000ec:	03828293          	addi	t0,t0,56 # 80000120 <trap_entry>
800000f0:	30529073          	csrw	mtvec,t0
800000f4:	00006197          	auipc	gp,0x6
800000f8:	49418193          	addi	gp,gp,1172 # 80006588 <__global_pointer$>
800000fc:	87718213          	addi	tp,gp,-1929 # 80005dff <_end+0x3f>
80000100:	fc027213          	andi	tp,tp,-64
80000104:	f1402573          	csrr	a0,mhartid
80000108:	4585                	li	a1,1
8000010a:	00b57063          	bgeu	a0,a1,8000010a <_start+0x10a>
8000010e:	00150113          	addi	sp,a0,1
80000112:	0146                	slli	sp,sp,0x11
80000114:	9112                	add	sp,sp,tp
80000116:	01151613          	slli	a2,a0,0x11
8000011a:	9232                	add	tp,tp,a2
8000011c:	6ea0106f          	j	80001806 <_init>

80000120 <trap_entry>:
80000120:	716d                	addi	sp,sp,-272
80000122:	c206                	sw	ra,4(sp)
80000124:	c40a                	sw	sp,8(sp)
80000126:	c60e                	sw	gp,12(sp)
80000128:	c812                	sw	tp,16(sp)
8000012a:	ca16                	sw	t0,20(sp)
8000012c:	cc1a                	sw	t1,24(sp)
8000012e:	ce1e                	sw	t2,28(sp)
80000130:	d022                	sw	s0,32(sp)
80000132:	d226                	sw	s1,36(sp)
80000134:	d42a                	sw	a0,40(sp)
80000136:	d62e                	sw	a1,44(sp)
80000138:	d832                	sw	a2,48(sp)
8000013a:	da36                	sw	a3,52(sp)
8000013c:	dc3a                	sw	a4,56(sp)
8000013e:	de3e                	sw	a5,60(sp)
80000140:	c0c2                	sw	a6,64(sp)
80000142:	c2c6                	sw	a7,68(sp)
80000144:	c4ca                	sw	s2,72(sp)
80000146:	c6ce                	sw	s3,76(sp)
80000148:	c8d2                	sw	s4,80(sp)
8000014a:	cad6                	sw	s5,84(sp)
8000014c:	ccda                	sw	s6,88(sp)
8000014e:	cede                	sw	s7,92(sp)
80000150:	d0e2                	sw	s8,96(sp)
80000152:	d2e6                	sw	s9,100(sp)
80000154:	d4ea                	sw	s10,104(sp)
80000156:	d6ee                	sw	s11,108(sp)
80000158:	d8f2                	sw	t3,112(sp)
8000015a:	daf6                	sw	t4,116(sp)
8000015c:	dcfa                	sw	t5,120(sp)
8000015e:	defe                	sw	t6,124(sp)
80000160:	34202573          	csrr	a0,mcause
80000164:	341025f3          	csrr	a1,mepc
80000168:	860a                	mv	a2,sp
8000016a:	566010ef          	jal	ra,800016d0 <handle_trap>
8000016e:	34151073          	csrw	mepc,a0
80000172:	6289                	lui	t0,0x2
80000174:	80028293          	addi	t0,t0,-2048 # 1800 <buflen.3+0x1780>
80000178:	3002a073          	csrs	mstatus,t0
8000017c:	4092                	lw	ra,4(sp)
8000017e:	4122                	lw	sp,8(sp)
80000180:	41b2                	lw	gp,12(sp)
80000182:	4242                	lw	tp,16(sp)
80000184:	42d2                	lw	t0,20(sp)
80000186:	4362                	lw	t1,24(sp)
80000188:	43f2                	lw	t2,28(sp)
8000018a:	5402                	lw	s0,32(sp)
8000018c:	5492                	lw	s1,36(sp)
8000018e:	5522                	lw	a0,40(sp)
80000190:	55b2                	lw	a1,44(sp)
80000192:	5642                	lw	a2,48(sp)
80000194:	56d2                	lw	a3,52(sp)
80000196:	5762                	lw	a4,56(sp)
80000198:	57f2                	lw	a5,60(sp)
8000019a:	4806                	lw	a6,64(sp)
8000019c:	4896                	lw	a7,68(sp)
8000019e:	4926                	lw	s2,72(sp)
800001a0:	49b6                	lw	s3,76(sp)
800001a2:	4a46                	lw	s4,80(sp)
800001a4:	4ad6                	lw	s5,84(sp)
800001a6:	4b66                	lw	s6,88(sp)
800001a8:	4bf6                	lw	s7,92(sp)
800001aa:	5c06                	lw	s8,96(sp)
800001ac:	5c96                	lw	s9,100(sp)
800001ae:	5d26                	lw	s10,104(sp)
800001b0:	5db6                	lw	s11,108(sp)
800001b2:	5e46                	lw	t3,112(sp)
800001b4:	5ed6                	lw	t4,116(sp)
800001b6:	5f66                	lw	t5,120(sp)
800001b8:	5ff6                	lw	t6,124(sp)
800001ba:	6151                	addi	sp,sp,272
800001bc:	30200073          	mret
800001c0:	0000                	unimp

Disassembly of section .text:

80001048 <main>:
80001048:	7179                	addi	sp,sp,-48
8000104a:	d606                	sw	ra,44(sp)
8000104c:	d422                	sw	s0,40(sp)
8000104e:	1800                	addi	s0,sp,48
80001050:	fca42e23          	sw	a0,-36(s0)
80001054:	fcb42c23          	sw	a1,-40(s0)
80001058:	b8002773          	csrr	a4,mcycleh
8000105c:	00005797          	auipc	a5,0x5
80001060:	d2c78793          	addi	a5,a5,-724 # 80005d88 <start_time_h.6>
80001064:	c398                	sw	a4,0(a5)
80001066:	b0002773          	csrr	a4,mcycle
8000106a:	00005797          	auipc	a5,0x5
8000106e:	d2278793          	addi	a5,a5,-734 # 80005d8c <start_time_l.5>
80001072:	c398                	sw	a4,0(a5)
80001074:	fe042623          	sw	zero,-20(s0)
80001078:	a805                	j	800010a8 <main+0x60>
8000107a:	00004717          	auipc	a4,0x4
8000107e:	d6e70713          	addi	a4,a4,-658 # 80004de8 <coeffs>
80001082:	fec42783          	lw	a5,-20(s0)
80001086:	078a                	slli	a5,a5,0x2
80001088:	97ba                	add	a5,a5,a4
8000108a:	439c                	lw	a5,0(a5)
8000108c:	fec42703          	lw	a4,-20(s0)
80001090:	00e7870b          	fir_coeff_st	a4,a5,a4
80001094:	00005797          	auipc	a5,0x5
80001098:	cfc78793          	addi	a5,a5,-772 # 80005d90 <res.4>
8000109c:	c398                	sw	a4,0(a5)
8000109e:	fec42783          	lw	a5,-20(s0)
800010a2:	0785                	addi	a5,a5,1
800010a4:	fef42623          	sw	a5,-20(s0)
800010a8:	fec42703          	lw	a4,-20(s0)
800010ac:	47a5                	li	a5,9
800010ae:	fce7d6e3          	bge	a5,a4,8000107a <main+0x32>
800010b2:	fe042423          	sw	zero,-24(s0)
800010b6:	a82d                	j	800010f0 <main+0xa8>
800010b8:	00002717          	auipc	a4,0x2
800010bc:	df070713          	addi	a4,a4,-528 # 80002ea8 <data>
800010c0:	fe842783          	lw	a5,-24(s0)
800010c4:	078a                	slli	a5,a5,0x2
800010c6:	97ba                	add	a5,a5,a4
800010c8:	439c                	lw	a5,0(a5)
800010ca:	0007872b          	fir_data_st	a4,a5
800010ce:	00005797          	auipc	a5,0x5
800010d2:	cc278793          	addi	a5,a5,-830 # 80005d90 <res.4>
800010d6:	c398                	sw	a4,0(a5)
800010d8:	0000073b          	fir_exec	a4
800010dc:	00005797          	auipc	a5,0x5
800010e0:	cb478793          	addi	a5,a5,-844 # 80005d90 <res.4>
800010e4:	c398                	sw	a4,0(a5)
800010e6:	fe842783          	lw	a5,-24(s0)
800010ea:	0785                	addi	a5,a5,1
800010ec:	fef42423          	sw	a5,-24(s0)
800010f0:	fe842703          	lw	a4,-24(s0)
800010f4:	47a5                	li	a5,9
800010f6:	fce7d1e3          	bge	a5,a4,800010b8 <main+0x70>
800010fa:	b8002773          	csrr	a4,mcycleh
800010fe:	00005797          	auipc	a5,0x5
80001102:	c9678793          	addi	a5,a5,-874 # 80005d94 <finish_time_h.3>
80001106:	c398                	sw	a4,0(a5)
80001108:	b0002773          	csrr	a4,mcycle
8000110c:	00005797          	auipc	a5,0x5
80001110:	c8c78793          	addi	a5,a5,-884 # 80005d98 <finish_time_l.2>
80001114:	c398                	sw	a4,0(a5)
80001116:	00005797          	auipc	a5,0x5
8000111a:	c7e78793          	addi	a5,a5,-898 # 80005d94 <finish_time_h.3>
8000111e:	4398                	lw	a4,0(a5)
80001120:	00005797          	auipc	a5,0x5
80001124:	c6878793          	addi	a5,a5,-920 # 80005d88 <start_time_h.6>
80001128:	439c                	lw	a5,0(a5)
8000112a:	8f1d                	sub	a4,a4,a5
8000112c:	00005797          	auipc	a5,0x5
80001130:	c7078793          	addi	a5,a5,-912 # 80005d9c <total_time_h.1>
80001134:	c398                	sw	a4,0(a5)
80001136:	00005797          	auipc	a5,0x5
8000113a:	c6278793          	addi	a5,a5,-926 # 80005d98 <finish_time_l.2>
8000113e:	4398                	lw	a4,0(a5)
80001140:	00005797          	auipc	a5,0x5
80001144:	c4c78793          	addi	a5,a5,-948 # 80005d8c <start_time_l.5>
80001148:	439c                	lw	a5,0(a5)
8000114a:	8f1d                	sub	a4,a4,a5
8000114c:	00005797          	auipc	a5,0x5
80001150:	c5478793          	addi	a5,a5,-940 # 80005da0 <total_time_l.0>
80001154:	c398                	sw	a4,0(a5)
80001156:	00005797          	auipc	a5,0x5
8000115a:	c4a78793          	addi	a5,a5,-950 # 80005da0 <total_time_l.0>
8000115e:	439c                	lw	a5,0(a5)
80001160:	85be                	mv	a1,a5
80001162:	00002517          	auipc	a0,0x2
80001166:	a6e50513          	addi	a0,a0,-1426 # 80002bd0 <__eqdf2+0xa6>
8000116a:	61b000ef          	jal	ra,80001f84 <printf>
8000116e:	4781                	li	a5,0
80001170:	853e                	mv	a0,a5
80001172:	50b2                	lw	ra,44(sp)
80001174:	5422                	lw	s0,40(sp)
80001176:	6145                	addi	sp,sp,48
80001178:	8082                	ret

8000117a <verify>:
8000117a:	7139                	addi	sp,sp,-64
8000117c:	de22                	sw	s0,60(sp)
8000117e:	0080                	addi	s0,sp,64
80001180:	fca42623          	sw	a0,-52(s0)
80001184:	fcb42423          	sw	a1,-56(s0)
80001188:	fcc42223          	sw	a2,-60(s0)
8000118c:	fe042623          	sw	zero,-20(s0)
80001190:	a041                	j	80001210 <verify+0x96>
80001192:	fec42783          	lw	a5,-20(s0)
80001196:	078a                	slli	a5,a5,0x2
80001198:	fc842703          	lw	a4,-56(s0)
8000119c:	97ba                	add	a5,a5,a4
8000119e:	439c                	lw	a5,0(a5)
800011a0:	fef42423          	sw	a5,-24(s0)
800011a4:	fec42783          	lw	a5,-20(s0)
800011a8:	0785                	addi	a5,a5,1
800011aa:	078a                	slli	a5,a5,0x2
800011ac:	fc842703          	lw	a4,-56(s0)
800011b0:	97ba                	add	a5,a5,a4
800011b2:	439c                	lw	a5,0(a5)
800011b4:	fef42223          	sw	a5,-28(s0)
800011b8:	fec42783          	lw	a5,-20(s0)
800011bc:	078a                	slli	a5,a5,0x2
800011be:	fc442703          	lw	a4,-60(s0)
800011c2:	97ba                	add	a5,a5,a4
800011c4:	439c                	lw	a5,0(a5)
800011c6:	fef42023          	sw	a5,-32(s0)
800011ca:	fec42783          	lw	a5,-20(s0)
800011ce:	0785                	addi	a5,a5,1
800011d0:	078a                	slli	a5,a5,0x2
800011d2:	fc442703          	lw	a4,-60(s0)
800011d6:	97ba                	add	a5,a5,a4
800011d8:	439c                	lw	a5,0(a5)
800011da:	fcf42e23          	sw	a5,-36(s0)
800011de:	fe842703          	lw	a4,-24(s0)
800011e2:	fe042783          	lw	a5,-32(s0)
800011e6:	00f70663          	beq	a4,a5,800011f2 <verify+0x78>
800011ea:	fec42783          	lw	a5,-20(s0)
800011ee:	0785                	addi	a5,a5,1
800011f0:	a89d                	j	80001266 <verify+0xec>
800011f2:	fe442703          	lw	a4,-28(s0)
800011f6:	fdc42783          	lw	a5,-36(s0)
800011fa:	00f70663          	beq	a4,a5,80001206 <verify+0x8c>
800011fe:	fec42783          	lw	a5,-20(s0)
80001202:	0789                	addi	a5,a5,2
80001204:	a08d                	j	80001266 <verify+0xec>
80001206:	fec42783          	lw	a5,-20(s0)
8000120a:	0789                	addi	a5,a5,2
8000120c:	fef42623          	sw	a5,-20(s0)
80001210:	fcc42783          	lw	a5,-52(s0)
80001214:	01f7d713          	srli	a4,a5,0x1f
80001218:	97ba                	add	a5,a5,a4
8000121a:	8785                	srai	a5,a5,0x1
8000121c:	0786                	slli	a5,a5,0x1
8000121e:	fec42703          	lw	a4,-20(s0)
80001222:	f6f748e3          	blt	a4,a5,80001192 <verify+0x18>
80001226:	fcc42783          	lw	a5,-52(s0)
8000122a:	8b85                	andi	a5,a5,1
8000122c:	cf85                	beqz	a5,80001264 <verify+0xea>
8000122e:	fcc42703          	lw	a4,-52(s0)
80001232:	400007b7          	lui	a5,0x40000
80001236:	17fd                	addi	a5,a5,-1 # 3fffffff <buflen.3+0x3fffff7f>
80001238:	97ba                	add	a5,a5,a4
8000123a:	078a                	slli	a5,a5,0x2
8000123c:	fc842703          	lw	a4,-56(s0)
80001240:	97ba                	add	a5,a5,a4
80001242:	4398                	lw	a4,0(a5)
80001244:	fcc42683          	lw	a3,-52(s0)
80001248:	400007b7          	lui	a5,0x40000
8000124c:	17fd                	addi	a5,a5,-1 # 3fffffff <buflen.3+0x3fffff7f>
8000124e:	97b6                	add	a5,a5,a3
80001250:	078a                	slli	a5,a5,0x2
80001252:	fc442683          	lw	a3,-60(s0)
80001256:	97b6                	add	a5,a5,a3
80001258:	439c                	lw	a5,0(a5)
8000125a:	00f70563          	beq	a4,a5,80001264 <verify+0xea>
8000125e:	fcc42783          	lw	a5,-52(s0)
80001262:	a011                	j	80001266 <verify+0xec>
80001264:	4781                	li	a5,0
80001266:	853e                	mv	a0,a5
80001268:	5472                	lw	s0,60(sp)
8000126a:	6121                	addi	sp,sp,64
8000126c:	8082                	ret

8000126e <verifyDouble>:
8000126e:	715d                	addi	sp,sp,-80
80001270:	c686                	sw	ra,76(sp)
80001272:	c4a2                	sw	s0,72(sp)
80001274:	c2a6                	sw	s1,68(sp)
80001276:	0880                	addi	s0,sp,80
80001278:	faa42e23          	sw	a0,-68(s0)
8000127c:	fab42c23          	sw	a1,-72(s0)
80001280:	fac42a23          	sw	a2,-76(s0)
80001284:	fe042623          	sw	zero,-20(s0)
80001288:	a8d1                	j	8000135c <verifyDouble+0xee>
8000128a:	fec42783          	lw	a5,-20(s0)
8000128e:	078e                	slli	a5,a5,0x3
80001290:	fb842703          	lw	a4,-72(s0)
80001294:	97ba                	add	a5,a5,a4
80001296:	4398                	lw	a4,0(a5)
80001298:	43dc                	lw	a5,4(a5)
8000129a:	fee42023          	sw	a4,-32(s0)
8000129e:	fef42223          	sw	a5,-28(s0)
800012a2:	fec42783          	lw	a5,-20(s0)
800012a6:	0785                	addi	a5,a5,1
800012a8:	078e                	slli	a5,a5,0x3
800012aa:	fb842703          	lw	a4,-72(s0)
800012ae:	97ba                	add	a5,a5,a4
800012b0:	4398                	lw	a4,0(a5)
800012b2:	43dc                	lw	a5,4(a5)
800012b4:	fce42c23          	sw	a4,-40(s0)
800012b8:	fcf42e23          	sw	a5,-36(s0)
800012bc:	fec42783          	lw	a5,-20(s0)
800012c0:	078e                	slli	a5,a5,0x3
800012c2:	fb442703          	lw	a4,-76(s0)
800012c6:	97ba                	add	a5,a5,a4
800012c8:	4398                	lw	a4,0(a5)
800012ca:	43dc                	lw	a5,4(a5)
800012cc:	fce42823          	sw	a4,-48(s0)
800012d0:	fcf42a23          	sw	a5,-44(s0)
800012d4:	fec42783          	lw	a5,-20(s0)
800012d8:	0785                	addi	a5,a5,1
800012da:	078e                	slli	a5,a5,0x3
800012dc:	fb442703          	lw	a4,-76(s0)
800012e0:	97ba                	add	a5,a5,a4
800012e2:	4398                	lw	a4,0(a5)
800012e4:	43dc                	lw	a5,4(a5)
800012e6:	fce42423          	sw	a4,-56(s0)
800012ea:	fcf42623          	sw	a5,-52(s0)
800012ee:	4485                	li	s1,1
800012f0:	fd042603          	lw	a2,-48(s0)
800012f4:	fd442683          	lw	a3,-44(s0)
800012f8:	fe042503          	lw	a0,-32(s0)
800012fc:	fe442583          	lw	a1,-28(s0)
80001300:	02b010ef          	jal	ra,80002b2a <__eqdf2>
80001304:	87aa                	mv	a5,a0
80001306:	c391                	beqz	a5,8000130a <verifyDouble+0x9c>
80001308:	4481                	li	s1,0
8000130a:	0ff4f793          	zext.b	a5,s1
8000130e:	fcf42223          	sw	a5,-60(s0)
80001312:	4485                	li	s1,1
80001314:	fc842603          	lw	a2,-56(s0)
80001318:	fcc42683          	lw	a3,-52(s0)
8000131c:	fd842503          	lw	a0,-40(s0)
80001320:	fdc42583          	lw	a1,-36(s0)
80001324:	007010ef          	jal	ra,80002b2a <__eqdf2>
80001328:	87aa                	mv	a5,a0
8000132a:	c391                	beqz	a5,8000132e <verifyDouble+0xc0>
8000132c:	4481                	li	s1,0
8000132e:	0ff4f793          	zext.b	a5,s1
80001332:	fcf42023          	sw	a5,-64(s0)
80001336:	fc442703          	lw	a4,-60(s0)
8000133a:	fc042783          	lw	a5,-64(s0)
8000133e:	8ff9                	and	a5,a5,a4
80001340:	eb89                	bnez	a5,80001352 <verifyDouble+0xe4>
80001342:	fec42783          	lw	a5,-20(s0)
80001346:	00178713          	addi	a4,a5,1
8000134a:	fc442783          	lw	a5,-60(s0)
8000134e:	97ba                	add	a5,a5,a4
80001350:	a0bd                	j	800013be <verifyDouble+0x150>
80001352:	fec42783          	lw	a5,-20(s0)
80001356:	0789                	addi	a5,a5,2
80001358:	fef42623          	sw	a5,-20(s0)
8000135c:	fbc42783          	lw	a5,-68(s0)
80001360:	01f7d713          	srli	a4,a5,0x1f
80001364:	97ba                	add	a5,a5,a4
80001366:	8785                	srai	a5,a5,0x1
80001368:	0786                	slli	a5,a5,0x1
8000136a:	fec42703          	lw	a4,-20(s0)
8000136e:	f0f74ee3          	blt	a4,a5,8000128a <verifyDouble+0x1c>
80001372:	fbc42783          	lw	a5,-68(s0)
80001376:	8b85                	andi	a5,a5,1
80001378:	c3b1                	beqz	a5,800013bc <verifyDouble+0x14e>
8000137a:	fbc42703          	lw	a4,-68(s0)
8000137e:	200007b7          	lui	a5,0x20000
80001382:	17fd                	addi	a5,a5,-1 # 1fffffff <buflen.3+0x1fffff7f>
80001384:	97ba                	add	a5,a5,a4
80001386:	078e                	slli	a5,a5,0x3
80001388:	fb842703          	lw	a4,-72(s0)
8000138c:	97ba                	add	a5,a5,a4
8000138e:	4398                	lw	a4,0(a5)
80001390:	43dc                	lw	a5,4(a5)
80001392:	fbc42603          	lw	a2,-68(s0)
80001396:	200006b7          	lui	a3,0x20000
8000139a:	16fd                	addi	a3,a3,-1 # 1fffffff <buflen.3+0x1fffff7f>
8000139c:	96b2                	add	a3,a3,a2
8000139e:	068e                	slli	a3,a3,0x3
800013a0:	fb442603          	lw	a2,-76(s0)
800013a4:	96b2                	add	a3,a3,a2
800013a6:	4290                	lw	a2,0(a3)
800013a8:	42d4                	lw	a3,4(a3)
800013aa:	853a                	mv	a0,a4
800013ac:	85be                	mv	a1,a5
800013ae:	77c010ef          	jal	ra,80002b2a <__eqdf2>
800013b2:	87aa                	mv	a5,a0
800013b4:	c781                	beqz	a5,800013bc <verifyDouble+0x14e>
800013b6:	fbc42783          	lw	a5,-68(s0)
800013ba:	a011                	j	800013be <verifyDouble+0x150>
800013bc:	4781                	li	a5,0
800013be:	853e                	mv	a0,a5
800013c0:	40b6                	lw	ra,76(sp)
800013c2:	4426                	lw	s0,72(sp)
800013c4:	4496                	lw	s1,68(sp)
800013c6:	6161                	addi	sp,sp,80
800013c8:	8082                	ret

800013ca <barrier>:
800013ca:	1101                	addi	sp,sp,-32
800013cc:	ce22                	sw	s0,28(sp)
800013ce:	1000                	addi	s0,sp,32
800013d0:	fea42623          	sw	a0,-20(s0)
800013d4:	0ff0000f          	fence
800013d8:	00022783          	lw	a5,0(tp) # 0 <threadsense.5>
800013dc:	0017b793          	seqz	a5,a5
800013e0:	0ff7f793          	zext.b	a5,a5
800013e4:	873e                	mv	a4,a5
800013e6:	00e22023          	sw	a4,0(tp) # 0 <threadsense.5>
800013ea:	00005797          	auipc	a5,0x5
800013ee:	9ca78793          	addi	a5,a5,-1590 # 80005db4 <count.2>
800013f2:	4705                	li	a4,1
800013f4:	0f50000f          	fence	iorw,ow
800013f8:	04e7a6af          	amoadd.w.aq	a3,a4,(a5)
800013fc:	8736                	mv	a4,a3
800013fe:	fec42783          	lw	a5,-20(s0)
80001402:	17fd                	addi	a5,a5,-1
80001404:	02f71063          	bne	a4,a5,80001424 <barrier+0x5a>
80001408:	00005797          	auipc	a5,0x5
8000140c:	9ac78793          	addi	a5,a5,-1620 # 80005db4 <count.2>
80001410:	0007a023          	sw	zero,0(a5)
80001414:	00022703          	lw	a4,0(tp) # 0 <threadsense.5>
80001418:	00005797          	auipc	a5,0x5
8000141c:	9a078793          	addi	a5,a5,-1632 # 80005db8 <sense.1>
80001420:	c398                	sw	a4,0(a5)
80001422:	a819                	j	80001438 <barrier+0x6e>
80001424:	0001                	nop
80001426:	00005797          	auipc	a5,0x5
8000142a:	99278793          	addi	a5,a5,-1646 # 80005db8 <sense.1>
8000142e:	4398                	lw	a4,0(a5)
80001430:	00022783          	lw	a5,0(tp) # 0 <threadsense.5>
80001434:	fef719e3          	bne	a4,a5,80001426 <barrier+0x5c>
80001438:	0ff0000f          	fence
8000143c:	0001                	nop
8000143e:	4472                	lw	s0,28(sp)
80001440:	6105                	addi	sp,sp,32
80001442:	8082                	ret

80001444 <lfsr>:
80001444:	7179                	addi	sp,sp,-48
80001446:	d622                	sw	s0,44(sp)
80001448:	1800                	addi	s0,sp,48
8000144a:	fca42c23          	sw	a0,-40(s0)
8000144e:	fcb42e23          	sw	a1,-36(s0)
80001452:	fdc42583          	lw	a1,-36(s0)
80001456:	05fe                	slli	a1,a1,0x1f
80001458:	fd842503          	lw	a0,-40(s0)
8000145c:	00155613          	srli	a2,a0,0x1
80001460:	8e4d                	or	a2,a2,a1
80001462:	fdc42583          	lw	a1,-36(s0)
80001466:	0015d693          	srli	a3,a1,0x1
8000146a:	fd842583          	lw	a1,-40(s0)
8000146e:	00c5c833          	xor	a6,a1,a2
80001472:	fdc42583          	lw	a1,-36(s0)
80001476:	00d5c8b3          	xor	a7,a1,a3
8000147a:	00187693          	andi	a3,a6,1
8000147e:	fed42423          	sw	a3,-24(s0)
80001482:	0008f693          	andi	a3,a7,0
80001486:	fed42623          	sw	a3,-20(s0)
8000148a:	fdc42683          	lw	a3,-36(s0)
8000148e:	06fe                	slli	a3,a3,0x1f
80001490:	fd842603          	lw	a2,-40(s0)
80001494:	00165713          	srli	a4,a2,0x1
80001498:	8f55                	or	a4,a4,a3
8000149a:	fdc42683          	lw	a3,-36(s0)
8000149e:	0016d793          	srli	a5,a3,0x1
800014a2:	fe842683          	lw	a3,-24(s0)
800014a6:	01e69393          	slli	t2,a3,0x1e
800014aa:	4301                	li	t1,0
800014ac:	00676e33          	or	t3,a4,t1
800014b0:	0077eeb3          	or	t4,a5,t2
800014b4:	8772                	mv	a4,t3
800014b6:	87f6                	mv	a5,t4
800014b8:	853a                	mv	a0,a4
800014ba:	85be                	mv	a1,a5
800014bc:	5432                	lw	s0,44(sp)
800014be:	6145                	addi	sp,sp,48
800014c0:	8082                	ret

800014c2 <insn_len>:
800014c2:	1101                	addi	sp,sp,-32
800014c4:	ce22                	sw	s0,28(sp)
800014c6:	1000                	addi	s0,sp,32
800014c8:	fea42623          	sw	a0,-20(s0)
800014cc:	fec42783          	lw	a5,-20(s0)
800014d0:	0007d783          	lhu	a5,0(a5)
800014d4:	8b8d                	andi	a5,a5,3
800014d6:	c399                	beqz	a5,800014dc <insn_len+0x1a>
800014d8:	4791                	li	a5,4
800014da:	a011                	j	800014de <insn_len+0x1c>
800014dc:	4789                	li	a5,2
800014de:	853e                	mv	a0,a5
800014e0:	4472                	lw	s0,28(sp)
800014e2:	6105                	addi	sp,sp,32
800014e4:	8082                	ret

800014e6 <syscall>:
800014e6:	7171                	addi	sp,sp,-176
800014e8:	d722                	sw	s0,172(sp)
800014ea:	1900                	addi	s0,sp,176
800014ec:	f6a42623          	sw	a0,-148(s0)
800014f0:	f6b42023          	sw	a1,-160(s0)
800014f4:	f6c42223          	sw	a2,-156(s0)
800014f8:	f4d42c23          	sw	a3,-168(s0)
800014fc:	f4e42e23          	sw	a4,-164(s0)
80001500:	f4f42823          	sw	a5,-176(s0)
80001504:	f5042a23          	sw	a6,-172(s0)
80001508:	ff040793          	addi	a5,s0,-16
8000150c:	f6f42423          	sw	a5,-152(s0)
80001510:	f6842783          	lw	a5,-152(s0)
80001514:	f8078793          	addi	a5,a5,-128
80001518:	03f78793          	addi	a5,a5,63
8000151c:	8399                	srli	a5,a5,0x6
8000151e:	079a                	slli	a5,a5,0x6
80001520:	f6c42703          	lw	a4,-148(s0)
80001524:	8e3a                	mv	t3,a4
80001526:	4e81                	li	t4,0
80001528:	01c7a023          	sw	t3,0(a5)
8000152c:	01d7a223          	sw	t4,4(a5)
80001530:	f6042603          	lw	a2,-160(s0)
80001534:	f6442683          	lw	a3,-156(s0)
80001538:	c790                	sw	a2,8(a5)
8000153a:	c7d4                	sw	a3,12(a5)
8000153c:	f5842603          	lw	a2,-168(s0)
80001540:	f5c42683          	lw	a3,-164(s0)
80001544:	cb90                	sw	a2,16(a5)
80001546:	cbd4                	sw	a3,20(a5)
80001548:	f5042603          	lw	a2,-176(s0)
8000154c:	f5442683          	lw	a3,-172(s0)
80001550:	cf90                	sw	a2,24(a5)
80001552:	cfd4                	sw	a3,28(a5)
80001554:	0ff0000f          	fence
80001558:	873e                	mv	a4,a5
8000155a:	833a                	mv	t1,a4
8000155c:	4381                	li	t2,0
8000155e:	00000717          	auipc	a4,0x0
80001562:	aa270713          	addi	a4,a4,-1374 # 80001000 <tohost>
80001566:	00672023          	sw	t1,0(a4)
8000156a:	00772223          	sw	t2,4(a4)
8000156e:	0001                	nop
80001570:	00000717          	auipc	a4,0x0
80001574:	ad070713          	addi	a4,a4,-1328 # 80001040 <fromhost>
80001578:	4310                	lw	a2,0(a4)
8000157a:	4354                	lw	a3,4(a4)
8000157c:	8732                	mv	a4,a2
8000157e:	8f55                	or	a4,a4,a3
80001580:	db65                	beqz	a4,80001570 <syscall+0x8a>
80001582:	00000717          	auipc	a4,0x0
80001586:	abe70713          	addi	a4,a4,-1346 # 80001040 <fromhost>
8000158a:	4601                	li	a2,0
8000158c:	4681                	li	a3,0
8000158e:	c310                	sw	a2,0(a4)
80001590:	c354                	sw	a3,4(a4)
80001592:	0ff0000f          	fence
80001596:	4398                	lw	a4,0(a5)
80001598:	43dc                	lw	a5,4(a5)
8000159a:	87ba                	mv	a5,a4
8000159c:	853e                	mv	a0,a5
8000159e:	543a                	lw	s0,172(sp)
800015a0:	614d                	addi	sp,sp,176
800015a2:	8082                	ret

800015a4 <setStats>:
800015a4:	7139                	addi	sp,sp,-64
800015a6:	de22                	sw	s0,60(sp)
800015a8:	0080                	addi	s0,sp,64
800015aa:	fca42623          	sw	a0,-52(s0)
800015ae:	fe042223          	sw	zero,-28(s0)
800015b2:	0001                	nop
800015b4:	fe442703          	lw	a4,-28(s0)
800015b8:	4785                	li	a5,1
800015ba:	fee7cde3          	blt	a5,a4,800015b4 <setStats+0x10>
800015be:	b00027f3          	csrr	a5,mcycle
800015c2:	fef42023          	sw	a5,-32(s0)
800015c6:	fe042783          	lw	a5,-32(s0)
800015ca:	fef42623          	sw	a5,-20(s0)
800015ce:	fcc42783          	lw	a5,-52(s0)
800015d2:	ef8d                	bnez	a5,8000160c <setStats+0x68>
800015d4:	00004717          	auipc	a4,0x4
800015d8:	7d070713          	addi	a4,a4,2000 # 80005da4 <counters>
800015dc:	fe442783          	lw	a5,-28(s0)
800015e0:	078a                	slli	a5,a5,0x2
800015e2:	97ba                	add	a5,a5,a4
800015e4:	439c                	lw	a5,0(a5)
800015e6:	fec42703          	lw	a4,-20(s0)
800015ea:	40f707b3          	sub	a5,a4,a5
800015ee:	fef42623          	sw	a5,-20(s0)
800015f2:	00004717          	auipc	a4,0x4
800015f6:	7ba70713          	addi	a4,a4,1978 # 80005dac <counter_names>
800015fa:	fe442783          	lw	a5,-28(s0)
800015fe:	078a                	slli	a5,a5,0x2
80001600:	97ba                	add	a5,a5,a4
80001602:	00001717          	auipc	a4,0x1
80001606:	5d270713          	addi	a4,a4,1490 # 80002bd4 <__eqdf2+0xaa>
8000160a:	c398                	sw	a4,0(a5)
8000160c:	fe442783          	lw	a5,-28(s0)
80001610:	00178713          	addi	a4,a5,1
80001614:	fee42223          	sw	a4,-28(s0)
80001618:	00004717          	auipc	a4,0x4
8000161c:	78c70713          	addi	a4,a4,1932 # 80005da4 <counters>
80001620:	078a                	slli	a5,a5,0x2
80001622:	97ba                	add	a5,a5,a4
80001624:	fec42703          	lw	a4,-20(s0)
80001628:	c398                	sw	a4,0(a5)
8000162a:	0001                	nop
8000162c:	fe442703          	lw	a4,-28(s0)
80001630:	4785                	li	a5,1
80001632:	fee7cde3          	blt	a5,a4,8000162c <setStats+0x88>
80001636:	b02027f3          	csrr	a5,minstret
8000163a:	fcf42e23          	sw	a5,-36(s0)
8000163e:	fdc42783          	lw	a5,-36(s0)
80001642:	fef42423          	sw	a5,-24(s0)
80001646:	fcc42783          	lw	a5,-52(s0)
8000164a:	ef8d                	bnez	a5,80001684 <setStats+0xe0>
8000164c:	00004717          	auipc	a4,0x4
80001650:	75870713          	addi	a4,a4,1880 # 80005da4 <counters>
80001654:	fe442783          	lw	a5,-28(s0)
80001658:	078a                	slli	a5,a5,0x2
8000165a:	97ba                	add	a5,a5,a4
8000165c:	439c                	lw	a5,0(a5)
8000165e:	fe842703          	lw	a4,-24(s0)
80001662:	40f707b3          	sub	a5,a4,a5
80001666:	fef42423          	sw	a5,-24(s0)
8000166a:	00004717          	auipc	a4,0x4
8000166e:	74270713          	addi	a4,a4,1858 # 80005dac <counter_names>
80001672:	fe442783          	lw	a5,-28(s0)
80001676:	078a                	slli	a5,a5,0x2
80001678:	97ba                	add	a5,a5,a4
8000167a:	00001717          	auipc	a4,0x1
8000167e:	56270713          	addi	a4,a4,1378 # 80002bdc <__eqdf2+0xb2>
80001682:	c398                	sw	a4,0(a5)
80001684:	fe442783          	lw	a5,-28(s0)
80001688:	00178713          	addi	a4,a5,1
8000168c:	fee42223          	sw	a4,-28(s0)
80001690:	00004717          	auipc	a4,0x4
80001694:	71470713          	addi	a4,a4,1812 # 80005da4 <counters>
80001698:	078a                	slli	a5,a5,0x2
8000169a:	97ba                	add	a5,a5,a4
8000169c:	fe842703          	lw	a4,-24(s0)
800016a0:	c398                	sw	a4,0(a5)
800016a2:	0001                	nop
800016a4:	5472                	lw	s0,60(sp)
800016a6:	6121                	addi	sp,sp,64
800016a8:	8082                	ret

800016aa <tohost_exit>:
800016aa:	1101                	addi	sp,sp,-32
800016ac:	ce22                	sw	s0,28(sp)
800016ae:	1000                	addi	s0,sp,32
800016b0:	fea42623          	sw	a0,-20(s0)
800016b4:	fec42683          	lw	a3,-20(s0)
800016b8:	0686                	slli	a3,a3,0x1
800016ba:	0016e693          	ori	a3,a3,1
800016be:	8736                	mv	a4,a3
800016c0:	4781                	li	a5,0
800016c2:	00000697          	auipc	a3,0x0
800016c6:	93e68693          	addi	a3,a3,-1730 # 80001000 <tohost>
800016ca:	c298                	sw	a4,0(a3)
800016cc:	c2dc                	sw	a5,4(a3)
800016ce:	a001                	j	800016ce <tohost_exit+0x24>

800016d0 <handle_trap>:
800016d0:	1101                	addi	sp,sp,-32
800016d2:	ce06                	sw	ra,28(sp)
800016d4:	cc22                	sw	s0,24(sp)
800016d6:	1000                	addi	s0,sp,32
800016d8:	fea42623          	sw	a0,-20(s0)
800016dc:	feb42423          	sw	a1,-24(s0)
800016e0:	fec42223          	sw	a2,-28(s0)
800016e4:	53900513          	li	a0,1337
800016e8:	37c9                	jal	800016aa <tohost_exit>

800016ea <exit>:
800016ea:	1101                	addi	sp,sp,-32
800016ec:	ce06                	sw	ra,28(sp)
800016ee:	cc22                	sw	s0,24(sp)
800016f0:	1000                	addi	s0,sp,32
800016f2:	fea42623          	sw	a0,-20(s0)
800016f6:	fec42783          	lw	a5,-20(s0)
800016fa:	853e                	mv	a0,a5
800016fc:	377d                	jal	800016aa <tohost_exit>

800016fe <abort>:
800016fe:	1141                	addi	sp,sp,-16
80001700:	c606                	sw	ra,12(sp)
80001702:	c422                	sw	s0,8(sp)
80001704:	0800                	addi	s0,sp,16
80001706:	08600513          	li	a0,134
8000170a:	37c5                	jal	800016ea <exit>

8000170c <printstr>:
8000170c:	7179                	addi	sp,sp,-48
8000170e:	d606                	sw	ra,44(sp)
80001710:	d422                	sw	s0,40(sp)
80001712:	d24a                	sw	s2,36(sp)
80001714:	d04e                	sw	s3,32(sp)
80001716:	ce52                	sw	s4,28(sp)
80001718:	cc56                	sw	s5,24(sp)
8000171a:	1800                	addi	s0,sp,48
8000171c:	fca42e23          	sw	a0,-36(s0)
80001720:	fdc42783          	lw	a5,-36(s0)
80001724:	893e                	mv	s2,a5
80001726:	4981                	li	s3,0
80001728:	fdc42503          	lw	a0,-36(s0)
8000172c:	345000ef          	jal	ra,80002270 <strlen>
80001730:	87aa                	mv	a5,a0
80001732:	8a3e                	mv	s4,a5
80001734:	4a81                	li	s5,0
80001736:	87d2                	mv	a5,s4
80001738:	8856                	mv	a6,s5
8000173a:	86ca                	mv	a3,s2
8000173c:	874e                	mv	a4,s3
8000173e:	4585                	li	a1,1
80001740:	4601                	li	a2,0
80001742:	04000513          	li	a0,64
80001746:	3345                	jal	800014e6 <syscall>
80001748:	0001                	nop
8000174a:	50b2                	lw	ra,44(sp)
8000174c:	5422                	lw	s0,40(sp)
8000174e:	5912                	lw	s2,36(sp)
80001750:	5982                	lw	s3,32(sp)
80001752:	4a72                	lw	s4,28(sp)
80001754:	4ae2                	lw	s5,24(sp)
80001756:	6145                	addi	sp,sp,48
80001758:	8082                	ret

8000175a <thread_entry>:
8000175a:	1101                	addi	sp,sp,-32
8000175c:	ce22                	sw	s0,28(sp)
8000175e:	1000                	addi	s0,sp,32
80001760:	fea42623          	sw	a0,-20(s0)
80001764:	feb42423          	sw	a1,-24(s0)
80001768:	0001                	nop
8000176a:	fec42783          	lw	a5,-20(s0)
8000176e:	fff5                	bnez	a5,8000176a <thread_entry+0x10>
80001770:	0001                	nop
80001772:	0001                	nop
80001774:	4472                	lw	s0,28(sp)
80001776:	6105                	addi	sp,sp,32
80001778:	8082                	ret
8000177a:	1101                	addi	sp,sp,-32
8000177c:	ce06                	sw	ra,28(sp)
8000177e:	cc22                	sw	s0,24(sp)
80001780:	1000                	addi	s0,sp,32
80001782:	fea42623          	sw	a0,-20(s0)
80001786:	feb42423          	sw	a1,-24(s0)
8000178a:	00001517          	auipc	a0,0x1
8000178e:	45e50513          	addi	a0,a0,1118 # 80002be8 <__eqdf2+0xbe>
80001792:	3fad                	jal	8000170c <printstr>
80001794:	57fd                	li	a5,-1
80001796:	853e                	mv	a0,a5
80001798:	40f2                	lw	ra,28(sp)
8000179a:	4462                	lw	s0,24(sp)
8000179c:	6105                	addi	sp,sp,32
8000179e:	8082                	ret

800017a0 <init_tls>:
800017a0:	1101                	addi	sp,sp,-32
800017a2:	ce06                	sw	ra,28(sp)
800017a4:	cc22                	sw	s0,24(sp)
800017a6:	1000                	addi	s0,sp,32
800017a8:	00004717          	auipc	a4,0x4
800017ac:	61470713          	addi	a4,a4,1556 # 80005dbc <_tdata_begin>
800017b0:	00004797          	auipc	a5,0x4
800017b4:	60c78793          	addi	a5,a5,1548 # 80005dbc <_tdata_begin>
800017b8:	40f707b3          	sub	a5,a4,a5
800017bc:	fef42623          	sw	a5,-20(s0)
800017c0:	8792                	mv	a5,tp
800017c2:	fec42603          	lw	a2,-20(s0)
800017c6:	00004597          	auipc	a1,0x4
800017ca:	5f658593          	addi	a1,a1,1526 # 80005dbc <_tdata_begin>
800017ce:	853e                	mv	a0,a5
800017d0:	12d000ef          	jal	ra,800020fc <memcpy>
800017d4:	8bc18713          	addi	a4,gp,-1860 # 80005e44 <_tbss_end>
800017d8:	00004797          	auipc	a5,0x4
800017dc:	5e478793          	addi	a5,a5,1508 # 80005dbc <_tdata_begin>
800017e0:	40f707b3          	sub	a5,a4,a5
800017e4:	fef42423          	sw	a5,-24(s0)
800017e8:	8712                	mv	a4,tp
800017ea:	fec42783          	lw	a5,-20(s0)
800017ee:	97ba                	add	a5,a5,a4
800017f0:	fe842603          	lw	a2,-24(s0)
800017f4:	4581                	li	a1,0
800017f6:	853e                	mv	a0,a5
800017f8:	1bd000ef          	jal	ra,800021b4 <memset>
800017fc:	0001                	nop
800017fe:	40f2                	lw	ra,28(sp)
80001800:	4462                	lw	s0,24(sp)
80001802:	6105                	addi	sp,sp,32
80001804:	8082                	ret

80001806 <_init>:
80001806:	7171                	addi	sp,sp,-176
80001808:	d706                	sw	ra,172(sp)
8000180a:	d522                	sw	s0,168(sp)
8000180c:	d326                	sw	s1,164(sp)
8000180e:	1900                	addi	s0,sp,176
80001810:	f4a42e23          	sw	a0,-164(s0)
80001814:	f4b42c23          	sw	a1,-168(s0)
80001818:	ff040793          	addi	a5,s0,-16
8000181c:	f4f42a23          	sw	a5,-172(s0)
80001820:	f5442783          	lw	a5,-172(s0)
80001824:	f7078793          	addi	a5,a5,-144
80001828:	03f78793          	addi	a5,a5,63
8000182c:	8399                	srli	a5,a5,0x6
8000182e:	00679493          	slli	s1,a5,0x6
80001832:	37bd                	jal	800017a0 <init_tls>
80001834:	f5842583          	lw	a1,-168(s0)
80001838:	f5c42503          	lw	a0,-164(s0)
8000183c:	3f39                	jal	8000175a <thread_entry>
8000183e:	4581                	li	a1,0
80001840:	4501                	li	a0,0
80001842:	807ff0ef          	jal	ra,80001048 <main>
80001846:	fea42223          	sw	a0,-28(s0)
8000184a:	fe942623          	sw	s1,-20(s0)
8000184e:	fe042423          	sw	zero,-24(s0)
80001852:	a08d                	j	800018b4 <_init+0xae>
80001854:	00004717          	auipc	a4,0x4
80001858:	55070713          	addi	a4,a4,1360 # 80005da4 <counters>
8000185c:	fe842783          	lw	a5,-24(s0)
80001860:	078a                	slli	a5,a5,0x2
80001862:	97ba                	add	a5,a5,a4
80001864:	439c                	lw	a5,0(a5)
80001866:	c3b1                	beqz	a5,800018aa <_init+0xa4>
80001868:	00004717          	auipc	a4,0x4
8000186c:	54470713          	addi	a4,a4,1348 # 80005dac <counter_names>
80001870:	fe842783          	lw	a5,-24(s0)
80001874:	078a                	slli	a5,a5,0x2
80001876:	97ba                	add	a5,a5,a4
80001878:	4390                	lw	a2,0(a5)
8000187a:	00004717          	auipc	a4,0x4
8000187e:	52a70713          	addi	a4,a4,1322 # 80005da4 <counters>
80001882:	fe842783          	lw	a5,-24(s0)
80001886:	078a                	slli	a5,a5,0x2
80001888:	97ba                	add	a5,a5,a4
8000188a:	439c                	lw	a5,0(a5)
8000188c:	86be                	mv	a3,a5
8000188e:	00001597          	auipc	a1,0x1
80001892:	37258593          	addi	a1,a1,882 # 80002c00 <__eqdf2+0xd6>
80001896:	fec42503          	lw	a0,-20(s0)
8000189a:	2741                	jal	8000201a <sprintf>
8000189c:	87aa                	mv	a5,a0
8000189e:	873e                	mv	a4,a5
800018a0:	fec42783          	lw	a5,-20(s0)
800018a4:	97ba                	add	a5,a5,a4
800018a6:	fef42623          	sw	a5,-20(s0)
800018aa:	fe842783          	lw	a5,-24(s0)
800018ae:	0785                	addi	a5,a5,1
800018b0:	fef42423          	sw	a5,-24(s0)
800018b4:	fe842703          	lw	a4,-24(s0)
800018b8:	4785                	li	a5,1
800018ba:	f8e7dde3          	bge	a5,a4,80001854 <_init+0x4e>
800018be:	fec42783          	lw	a5,-20(s0)
800018c2:	00f48463          	beq	s1,a5,800018ca <_init+0xc4>
800018c6:	8526                	mv	a0,s1
800018c8:	3591                	jal	8000170c <printstr>
800018ca:	fe442503          	lw	a0,-28(s0)
800018ce:	3d31                	jal	800016ea <exit>

800018d0 <putchar>:
800018d0:	1101                	addi	sp,sp,-32
800018d2:	ce06                	sw	ra,28(sp)
800018d4:	cc22                	sw	s0,24(sp)
800018d6:	1000                	addi	s0,sp,32
800018d8:	fea42623          	sw	a0,-20(s0)
800018dc:	08022783          	lw	a5,128(tp) # 80 <buflen.3>
800018e0:	00178593          	addi	a1,a5,1
800018e4:	08b22023          	sw	a1,128(tp) # 80 <buflen.3>
800018e8:	fec42703          	lw	a4,-20(s0)
800018ec:	0ff77713          	zext.b	a4,a4
800018f0:	04020593          	addi	a1,tp,64 # 40 <buf.4>
800018f4:	97ae                	add	a5,a5,a1
800018f6:	00e78023          	sb	a4,0(a5)
800018fa:	fec42703          	lw	a4,-20(s0)
800018fe:	47a9                	li	a5,10
80001900:	00f70863          	beq	a4,a5,80001910 <putchar+0x40>
80001904:	08022703          	lw	a4,128(tp) # 80 <buflen.3>
80001908:	04000793          	li	a5,64
8000190c:	02f71663          	bne	a4,a5,80001938 <putchar+0x68>
80001910:	04020793          	addi	a5,tp,64 # 40 <buf.4>
80001914:	863e                	mv	a2,a5
80001916:	4681                	li	a3,0
80001918:	08022783          	lw	a5,128(tp) # 80 <buflen.3>
8000191c:	883e                	mv	a6,a5
8000191e:	87fd                	srai	a5,a5,0x1f
80001920:	88be                	mv	a7,a5
80001922:	87c2                	mv	a5,a6
80001924:	8846                	mv	a6,a7
80001926:	8736                	mv	a4,a3
80001928:	86b2                	mv	a3,a2
8000192a:	4585                	li	a1,1
8000192c:	4601                	li	a2,0
8000192e:	04000513          	li	a0,64
80001932:	3e55                	jal	800014e6 <syscall>
80001934:	08022023          	sw	zero,128(tp) # 80 <buflen.3>
80001938:	4781                	li	a5,0
8000193a:	853e                	mv	a0,a5
8000193c:	40f2                	lw	ra,28(sp)
8000193e:	4462                	lw	s0,24(sp)
80001940:	6105                	addi	sp,sp,32
80001942:	8082                	ret

80001944 <printhex>:
80001944:	7139                	addi	sp,sp,-64
80001946:	de06                	sw	ra,60(sp)
80001948:	dc22                	sw	s0,56(sp)
8000194a:	0080                	addi	s0,sp,64
8000194c:	fca42423          	sw	a0,-56(s0)
80001950:	fcb42623          	sw	a1,-52(s0)
80001954:	fe042623          	sw	zero,-20(s0)
80001958:	a8ad                	j	800019d2 <printhex+0x8e>
8000195a:	fc844583          	lbu	a1,-56(s0)
8000195e:	89bd                	andi	a1,a1,15
80001960:	0ff5f513          	zext.b	a0,a1
80001964:	fc842583          	lw	a1,-56(s0)
80001968:	00f5f613          	andi	a2,a1,15
8000196c:	fcc42583          	lw	a1,-52(s0)
80001970:	0005f693          	andi	a3,a1,0
80001974:	85b6                	mv	a1,a3
80001976:	e991                	bnez	a1,8000198a <printhex+0x46>
80001978:	85b6                	mv	a1,a3
8000197a:	e589                	bnez	a1,80001984 <printhex+0x40>
8000197c:	8832                	mv	a6,a2
8000197e:	45a5                	li	a1,9
80001980:	0105e563          	bltu	a1,a6,8000198a <printhex+0x46>
80001984:	03000593          	li	a1,48
80001988:	a019                	j	8000198e <printhex+0x4a>
8000198a:	05700593          	li	a1,87
8000198e:	48bd                	li	a7,15
80001990:	fec42803          	lw	a6,-20(s0)
80001994:	41088833          	sub	a6,a7,a6
80001998:	95aa                	add	a1,a1,a0
8000199a:	0ff5f513          	zext.b	a0,a1
8000199e:	ff080593          	addi	a1,a6,-16
800019a2:	95a2                	add	a1,a1,s0
800019a4:	fea58423          	sb	a0,-24(a1)
800019a8:	fcc42583          	lw	a1,-52(s0)
800019ac:	05f2                	slli	a1,a1,0x1c
800019ae:	fc842503          	lw	a0,-56(s0)
800019b2:	00455713          	srli	a4,a0,0x4
800019b6:	8f4d                	or	a4,a4,a1
800019b8:	fcc42583          	lw	a1,-52(s0)
800019bc:	0045d793          	srli	a5,a1,0x4
800019c0:	fce42423          	sw	a4,-56(s0)
800019c4:	fcf42623          	sw	a5,-52(s0)
800019c8:	fec42583          	lw	a1,-20(s0)
800019cc:	0585                	addi	a1,a1,1
800019ce:	feb42623          	sw	a1,-20(s0)
800019d2:	fec42503          	lw	a0,-20(s0)
800019d6:	45bd                	li	a1,15
800019d8:	f8a5d1e3          	bge	a1,a0,8000195a <printhex+0x16>
800019dc:	fe040423          	sb	zero,-24(s0)
800019e0:	fd840793          	addi	a5,s0,-40
800019e4:	853e                	mv	a0,a5
800019e6:	331d                	jal	8000170c <printstr>
800019e8:	0001                	nop
800019ea:	50f2                	lw	ra,60(sp)
800019ec:	5462                	lw	s0,56(sp)
800019ee:	6121                	addi	sp,sp,64
800019f0:	8082                	ret

800019f2 <printnum>:
800019f2:	714d                	addi	sp,sp,-336
800019f4:	14112623          	sw	ra,332(sp)
800019f8:	14812423          	sw	s0,328(sp)
800019fc:	15212223          	sw	s2,324(sp)
80001a00:	15312023          	sw	s3,320(sp)
80001a04:	13412e23          	sw	s4,316(sp)
80001a08:	13512c23          	sw	s5,312(sp)
80001a0c:	13612a23          	sw	s6,308(sp)
80001a10:	13712823          	sw	s7,304(sp)
80001a14:	0a80                	addi	s0,sp,336
80001a16:	eca42623          	sw	a0,-308(s0)
80001a1a:	ecb42423          	sw	a1,-312(s0)
80001a1e:	ecc42023          	sw	a2,-320(s0)
80001a22:	ecd42223          	sw	a3,-316(s0)
80001a26:	eae42e23          	sw	a4,-324(s0)
80001a2a:	eaf42c23          	sw	a5,-328(s0)
80001a2e:	eb042a23          	sw	a6,-332(s0)
80001a32:	fc042e23          	sw	zero,-36(s0)
80001a36:	ebc42783          	lw	a5,-324(s0)
80001a3a:	8b3e                	mv	s6,a5
80001a3c:	4b81                	li	s7,0
80001a3e:	ec042703          	lw	a4,-320(s0)
80001a42:	ec442783          	lw	a5,-316(s0)
80001a46:	865a                	mv	a2,s6
80001a48:	86de                	mv	a3,s7
80001a4a:	853a                	mv	a0,a4
80001a4c:	85be                	mv	a1,a5
80001a4e:	5bf000ef          	jal	ra,8000280c <__umoddi3>
80001a52:	872a                	mv	a4,a0
80001a54:	87ae                	mv	a5,a1
80001a56:	863a                	mv	a2,a4
80001a58:	86be                	mv	a3,a5
80001a5a:	fdc42783          	lw	a5,-36(s0)
80001a5e:	00178713          	addi	a4,a5,1
80001a62:	fce42e23          	sw	a4,-36(s0)
80001a66:	8732                	mv	a4,a2
80001a68:	078a                	slli	a5,a5,0x2
80001a6a:	1781                	addi	a5,a5,-32
80001a6c:	97a2                	add	a5,a5,s0
80001a6e:	eee7ae23          	sw	a4,-260(a5)
80001a72:	ebc42783          	lw	a5,-324(s0)
80001a76:	893e                	mv	s2,a5
80001a78:	4981                	li	s3,0
80001a7a:	ec442783          	lw	a5,-316(s0)
80001a7e:	874e                	mv	a4,s3
80001a80:	02e7ef63          	bltu	a5,a4,80001abe <printnum+0xcc>
80001a84:	ec442783          	lw	a5,-316(s0)
80001a88:	874e                	mv	a4,s3
80001a8a:	00e79763          	bne	a5,a4,80001a98 <printnum+0xa6>
80001a8e:	ec042783          	lw	a5,-320(s0)
80001a92:	874a                	mv	a4,s2
80001a94:	02e7e563          	bltu	a5,a4,80001abe <printnum+0xcc>
80001a98:	ebc42783          	lw	a5,-324(s0)
80001a9c:	8a3e                	mv	s4,a5
80001a9e:	4a81                	li	s5,0
80001aa0:	8652                	mv	a2,s4
80001aa2:	86d6                	mv	a3,s5
80001aa4:	ec042503          	lw	a0,-320(s0)
80001aa8:	ec442583          	lw	a1,-316(s0)
80001aac:	203000ef          	jal	ra,800024ae <__udivdi3>
80001ab0:	872a                	mv	a4,a0
80001ab2:	87ae                	mv	a5,a1
80001ab4:	ece42023          	sw	a4,-320(s0)
80001ab8:	ecf42223          	sw	a5,-316(s0)
80001abc:	bfad                	j	80001a36 <printnum+0x44>
80001abe:	0001                	nop
80001ac0:	a801                	j	80001ad0 <printnum+0xde>
80001ac2:	ecc42783          	lw	a5,-308(s0)
80001ac6:	ec842583          	lw	a1,-312(s0)
80001aca:	eb442503          	lw	a0,-332(s0)
80001ace:	9782                	jalr	a5
80001ad0:	eb842783          	lw	a5,-328(s0)
80001ad4:	fff78713          	addi	a4,a5,-1
80001ad8:	eae42c23          	sw	a4,-328(s0)
80001adc:	fdc42703          	lw	a4,-36(s0)
80001ae0:	fef741e3          	blt	a4,a5,80001ac2 <printnum+0xd0>
80001ae4:	a835                	j	80001b20 <printnum+0x12e>
80001ae6:	fdc42783          	lw	a5,-36(s0)
80001aea:	078a                	slli	a5,a5,0x2
80001aec:	1781                	addi	a5,a5,-32
80001aee:	97a2                	add	a5,a5,s0
80001af0:	efc7a703          	lw	a4,-260(a5)
80001af4:	fdc42783          	lw	a5,-36(s0)
80001af8:	078a                	slli	a5,a5,0x2
80001afa:	1781                	addi	a5,a5,-32
80001afc:	97a2                	add	a5,a5,s0
80001afe:	efc7a683          	lw	a3,-260(a5)
80001b02:	47a5                	li	a5,9
80001b04:	00d7f563          	bgeu	a5,a3,80001b0e <printnum+0x11c>
80001b08:	05700793          	li	a5,87
80001b0c:	a019                	j	80001b12 <printnum+0x120>
80001b0e:	03000793          	li	a5,48
80001b12:	97ba                	add	a5,a5,a4
80001b14:	ecc42703          	lw	a4,-308(s0)
80001b18:	ec842583          	lw	a1,-312(s0)
80001b1c:	853e                	mv	a0,a5
80001b1e:	9702                	jalr	a4
80001b20:	fdc42783          	lw	a5,-36(s0)
80001b24:	fff78713          	addi	a4,a5,-1
80001b28:	fce42e23          	sw	a4,-36(s0)
80001b2c:	faf04de3          	bgtz	a5,80001ae6 <printnum+0xf4>
80001b30:	0001                	nop
80001b32:	0001                	nop
80001b34:	14c12083          	lw	ra,332(sp)
80001b38:	14812403          	lw	s0,328(sp)
80001b3c:	14412903          	lw	s2,324(sp)
80001b40:	14012983          	lw	s3,320(sp)
80001b44:	13c12a03          	lw	s4,316(sp)
80001b48:	13812a83          	lw	s5,312(sp)
80001b4c:	13412b03          	lw	s6,308(sp)
80001b50:	13012b83          	lw	s7,304(sp)
80001b54:	6171                	addi	sp,sp,336
80001b56:	8082                	ret

80001b58 <getuint>:
80001b58:	1101                	addi	sp,sp,-32
80001b5a:	ce22                	sw	s0,28(sp)
80001b5c:	1000                	addi	s0,sp,32
80001b5e:	fea42623          	sw	a0,-20(s0)
80001b62:	feb42423          	sw	a1,-24(s0)
80001b66:	fe842603          	lw	a2,-24(s0)
80001b6a:	4685                	li	a3,1
80001b6c:	00c6df63          	bge	a3,a2,80001b8a <getuint+0x32>
80001b70:	fec42783          	lw	a5,-20(s0)
80001b74:	439c                	lw	a5,0(a5)
80001b76:	079d                	addi	a5,a5,7
80001b78:	9be1                	andi	a5,a5,-8
80001b7a:	00878693          	addi	a3,a5,8
80001b7e:	fec42703          	lw	a4,-20(s0)
80001b82:	c314                	sw	a3,0(a4)
80001b84:	4398                	lw	a4,0(a5)
80001b86:	43dc                	lw	a5,4(a5)
80001b88:	a81d                	j	80001bbe <getuint+0x66>
80001b8a:	fe842683          	lw	a3,-24(s0)
80001b8e:	ce89                	beqz	a3,80001ba8 <getuint+0x50>
80001b90:	fec42683          	lw	a3,-20(s0)
80001b94:	4294                	lw	a3,0(a3)
80001b96:	00468593          	addi	a1,a3,4
80001b9a:	fec42603          	lw	a2,-20(s0)
80001b9e:	c20c                	sw	a1,0(a2)
80001ba0:	4294                	lw	a3,0(a3)
80001ba2:	8736                	mv	a4,a3
80001ba4:	4781                	li	a5,0
80001ba6:	a821                	j	80001bbe <getuint+0x66>
80001ba8:	fec42683          	lw	a3,-20(s0)
80001bac:	4294                	lw	a3,0(a3)
80001bae:	00468593          	addi	a1,a3,4
80001bb2:	fec42603          	lw	a2,-20(s0)
80001bb6:	c20c                	sw	a1,0(a2)
80001bb8:	4294                	lw	a3,0(a3)
80001bba:	8736                	mv	a4,a3
80001bbc:	4781                	li	a5,0
80001bbe:	853a                	mv	a0,a4
80001bc0:	85be                	mv	a1,a5
80001bc2:	4472                	lw	s0,28(sp)
80001bc4:	6105                	addi	sp,sp,32
80001bc6:	8082                	ret

80001bc8 <getint>:
80001bc8:	1101                	addi	sp,sp,-32
80001bca:	ce22                	sw	s0,28(sp)
80001bcc:	1000                	addi	s0,sp,32
80001bce:	fea42623          	sw	a0,-20(s0)
80001bd2:	feb42423          	sw	a1,-24(s0)
80001bd6:	fe842603          	lw	a2,-24(s0)
80001bda:	4685                	li	a3,1
80001bdc:	00c6df63          	bge	a3,a2,80001bfa <getint+0x32>
80001be0:	fec42783          	lw	a5,-20(s0)
80001be4:	439c                	lw	a5,0(a5)
80001be6:	079d                	addi	a5,a5,7
80001be8:	9be1                	andi	a5,a5,-8
80001bea:	00878693          	addi	a3,a5,8
80001bee:	fec42703          	lw	a4,-20(s0)
80001bf2:	c314                	sw	a3,0(a4)
80001bf4:	4398                	lw	a4,0(a5)
80001bf6:	43dc                	lw	a5,4(a5)
80001bf8:	a82d                	j	80001c32 <getint+0x6a>
80001bfa:	fe842683          	lw	a3,-24(s0)
80001bfe:	ce91                	beqz	a3,80001c1a <getint+0x52>
80001c00:	fec42683          	lw	a3,-20(s0)
80001c04:	4294                	lw	a3,0(a3)
80001c06:	00468593          	addi	a1,a3,4
80001c0a:	fec42603          	lw	a2,-20(s0)
80001c0e:	c20c                	sw	a1,0(a2)
80001c10:	4294                	lw	a3,0(a3)
80001c12:	8736                	mv	a4,a3
80001c14:	86fd                	srai	a3,a3,0x1f
80001c16:	87b6                	mv	a5,a3
80001c18:	a829                	j	80001c32 <getint+0x6a>
80001c1a:	fec42683          	lw	a3,-20(s0)
80001c1e:	4294                	lw	a3,0(a3)
80001c20:	00468593          	addi	a1,a3,4
80001c24:	fec42603          	lw	a2,-20(s0)
80001c28:	c20c                	sw	a1,0(a2)
80001c2a:	4294                	lw	a3,0(a3)
80001c2c:	8736                	mv	a4,a3
80001c2e:	86fd                	srai	a3,a3,0x1f
80001c30:	87b6                	mv	a5,a3
80001c32:	853a                	mv	a0,a4
80001c34:	85be                	mv	a1,a5
80001c36:	4472                	lw	s0,28(sp)
80001c38:	6105                	addi	sp,sp,32
80001c3a:	8082                	ret

80001c3c <vprintfmt>:
80001c3c:	715d                	addi	sp,sp,-80
80001c3e:	c686                	sw	ra,76(sp)
80001c40:	c4a2                	sw	s0,72(sp)
80001c42:	c2a6                	sw	s1,68(sp)
80001c44:	c0ca                	sw	s2,64(sp)
80001c46:	0880                	addi	s0,sp,80
80001c48:	faa42e23          	sw	a0,-68(s0)
80001c4c:	fab42c23          	sw	a1,-72(s0)
80001c50:	fac42a23          	sw	a2,-76(s0)
80001c54:	fad42823          	sw	a3,-80(s0)
80001c58:	a831                	j	80001c74 <vprintfmt+0x38>
80001c5a:	30048e63          	beqz	s1,80001f76 <vprintfmt+0x33a>
80001c5e:	fb442783          	lw	a5,-76(s0)
80001c62:	0785                	addi	a5,a5,1
80001c64:	faf42a23          	sw	a5,-76(s0)
80001c68:	fbc42783          	lw	a5,-68(s0)
80001c6c:	fb842583          	lw	a1,-72(s0)
80001c70:	8526                	mv	a0,s1
80001c72:	9782                	jalr	a5
80001c74:	fb442783          	lw	a5,-76(s0)
80001c78:	0007c783          	lbu	a5,0(a5)
80001c7c:	84be                	mv	s1,a5
80001c7e:	02500793          	li	a5,37
80001c82:	fcf49ce3          	bne	s1,a5,80001c5a <vprintfmt+0x1e>
80001c86:	fb442783          	lw	a5,-76(s0)
80001c8a:	0785                	addi	a5,a5,1
80001c8c:	faf42a23          	sw	a5,-76(s0)
80001c90:	fb442783          	lw	a5,-76(s0)
80001c94:	fcf42823          	sw	a5,-48(s0)
80001c98:	02000793          	li	a5,32
80001c9c:	fcf40ba3          	sb	a5,-41(s0)
80001ca0:	57fd                	li	a5,-1
80001ca2:	fcf42e23          	sw	a5,-36(s0)
80001ca6:	57fd                	li	a5,-1
80001ca8:	fcf42c23          	sw	a5,-40(s0)
80001cac:	fe042023          	sw	zero,-32(s0)
80001cb0:	fc042623          	sw	zero,-52(s0)
80001cb4:	fb442783          	lw	a5,-76(s0)
80001cb8:	00178713          	addi	a4,a5,1
80001cbc:	fae42a23          	sw	a4,-76(s0)
80001cc0:	0007c783          	lbu	a5,0(a5)
80001cc4:	84be                	mv	s1,a5
80001cc6:	fdd48793          	addi	a5,s1,-35
80001cca:	05500713          	li	a4,85
80001cce:	28f76763          	bltu	a4,a5,80001f5c <vprintfmt+0x320>
80001cd2:	00279713          	slli	a4,a5,0x2
80001cd6:	00001797          	auipc	a5,0x1
80001cda:	f3e78793          	addi	a5,a5,-194 # 80002c14 <__eqdf2+0xea>
80001cde:	97ba                	add	a5,a5,a4
80001ce0:	4398                	lw	a4,0(a5)
80001ce2:	00001797          	auipc	a5,0x1
80001ce6:	f3278793          	addi	a5,a5,-206 # 80002c14 <__eqdf2+0xea>
80001cea:	97ba                	add	a5,a5,a4
80001cec:	8782                	jr	a5
80001cee:	02d00793          	li	a5,45
80001cf2:	fcf40ba3          	sb	a5,-41(s0)
80001cf6:	bf7d                	j	80001cb4 <vprintfmt+0x78>
80001cf8:	03000793          	li	a5,48
80001cfc:	fcf40ba3          	sb	a5,-41(s0)
80001d00:	bf55                	j	80001cb4 <vprintfmt+0x78>
80001d02:	fc042c23          	sw	zero,-40(s0)
80001d06:	fd842703          	lw	a4,-40(s0)
80001d0a:	87ba                	mv	a5,a4
80001d0c:	078a                	slli	a5,a5,0x2
80001d0e:	97ba                	add	a5,a5,a4
80001d10:	0786                	slli	a5,a5,0x1
80001d12:	97a6                	add	a5,a5,s1
80001d14:	fd078793          	addi	a5,a5,-48
80001d18:	fcf42c23          	sw	a5,-40(s0)
80001d1c:	fb442783          	lw	a5,-76(s0)
80001d20:	0007c783          	lbu	a5,0(a5)
80001d24:	84be                	mv	s1,a5
80001d26:	02f00793          	li	a5,47
80001d2a:	0497d163          	bge	a5,s1,80001d6c <vprintfmt+0x130>
80001d2e:	03900793          	li	a5,57
80001d32:	0297cd63          	blt	a5,s1,80001d6c <vprintfmt+0x130>
80001d36:	fb442783          	lw	a5,-76(s0)
80001d3a:	0785                	addi	a5,a5,1
80001d3c:	faf42a23          	sw	a5,-76(s0)
80001d40:	b7d9                	j	80001d06 <vprintfmt+0xca>
80001d42:	fb042783          	lw	a5,-80(s0)
80001d46:	00478713          	addi	a4,a5,4
80001d4a:	fae42823          	sw	a4,-80(s0)
80001d4e:	439c                	lw	a5,0(a5)
80001d50:	fcf42c23          	sw	a5,-40(s0)
80001d54:	a829                	j	80001d6e <vprintfmt+0x132>
80001d56:	fdc42783          	lw	a5,-36(s0)
80001d5a:	f407dde3          	bgez	a5,80001cb4 <vprintfmt+0x78>
80001d5e:	fc042e23          	sw	zero,-36(s0)
80001d62:	bf89                	j	80001cb4 <vprintfmt+0x78>
80001d64:	4785                	li	a5,1
80001d66:	fcf42623          	sw	a5,-52(s0)
80001d6a:	b7a9                	j	80001cb4 <vprintfmt+0x78>
80001d6c:	0001                	nop
80001d6e:	fdc42783          	lw	a5,-36(s0)
80001d72:	f407d1e3          	bgez	a5,80001cb4 <vprintfmt+0x78>
80001d76:	fd842783          	lw	a5,-40(s0)
80001d7a:	fcf42e23          	sw	a5,-36(s0)
80001d7e:	57fd                	li	a5,-1
80001d80:	fcf42c23          	sw	a5,-40(s0)
80001d84:	bf05                	j	80001cb4 <vprintfmt+0x78>
80001d86:	fe042783          	lw	a5,-32(s0)
80001d8a:	0785                	addi	a5,a5,1
80001d8c:	fef42023          	sw	a5,-32(s0)
80001d90:	b715                	j	80001cb4 <vprintfmt+0x78>
80001d92:	fb042783          	lw	a5,-80(s0)
80001d96:	00478713          	addi	a4,a5,4
80001d9a:	fae42823          	sw	a4,-80(s0)
80001d9e:	439c                	lw	a5,0(a5)
80001da0:	fbc42703          	lw	a4,-68(s0)
80001da4:	fb842583          	lw	a1,-72(s0)
80001da8:	853e                	mv	a0,a5
80001daa:	9702                	jalr	a4
80001dac:	a2e1                	j	80001f74 <vprintfmt+0x338>
80001dae:	fb042783          	lw	a5,-80(s0)
80001db2:	00478713          	addi	a4,a5,4
80001db6:	fae42823          	sw	a4,-80(s0)
80001dba:	0007a903          	lw	s2,0(a5)
80001dbe:	00091663          	bnez	s2,80001dca <vprintfmt+0x18e>
80001dc2:	00001917          	auipc	s2,0x1
80001dc6:	e4a90913          	addi	s2,s2,-438 # 80002c0c <__eqdf2+0xe2>
80001dca:	fdc42783          	lw	a5,-36(s0)
80001dce:	06f05363          	blez	a5,80001e34 <vprintfmt+0x1f8>
80001dd2:	fd744703          	lbu	a4,-41(s0)
80001dd6:	02d00793          	li	a5,45
80001dda:	04f70d63          	beq	a4,a5,80001e34 <vprintfmt+0x1f8>
80001dde:	fdc42483          	lw	s1,-36(s0)
80001de2:	fd842783          	lw	a5,-40(s0)
80001de6:	85be                	mv	a1,a5
80001de8:	854a                	mv	a0,s2
80001dea:	21c9                	jal	800022ac <strnlen>
80001dec:	87aa                	mv	a5,a0
80001dee:	40f487b3          	sub	a5,s1,a5
80001df2:	fcf42e23          	sw	a5,-36(s0)
80001df6:	a831                	j	80001e12 <vprintfmt+0x1d6>
80001df8:	fd744783          	lbu	a5,-41(s0)
80001dfc:	fbc42703          	lw	a4,-68(s0)
80001e00:	fb842583          	lw	a1,-72(s0)
80001e04:	853e                	mv	a0,a5
80001e06:	9702                	jalr	a4
80001e08:	fdc42783          	lw	a5,-36(s0)
80001e0c:	17fd                	addi	a5,a5,-1
80001e0e:	fcf42e23          	sw	a5,-36(s0)
80001e12:	fdc42783          	lw	a5,-36(s0)
80001e16:	fef041e3          	bgtz	a5,80001df8 <vprintfmt+0x1bc>
80001e1a:	a829                	j	80001e34 <vprintfmt+0x1f8>
80001e1c:	fbc42783          	lw	a5,-68(s0)
80001e20:	fb842583          	lw	a1,-72(s0)
80001e24:	8526                	mv	a0,s1
80001e26:	9782                	jalr	a5
80001e28:	0905                	addi	s2,s2,1
80001e2a:	fdc42783          	lw	a5,-36(s0)
80001e2e:	17fd                	addi	a5,a5,-1
80001e30:	fcf42e23          	sw	a5,-36(s0)
80001e34:	00094783          	lbu	a5,0(s2)
80001e38:	84be                	mv	s1,a5
80001e3a:	c89d                	beqz	s1,80001e70 <vprintfmt+0x234>
80001e3c:	fd842783          	lw	a5,-40(s0)
80001e40:	fc07cee3          	bltz	a5,80001e1c <vprintfmt+0x1e0>
80001e44:	fd842783          	lw	a5,-40(s0)
80001e48:	17fd                	addi	a5,a5,-1
80001e4a:	fcf42c23          	sw	a5,-40(s0)
80001e4e:	fd842783          	lw	a5,-40(s0)
80001e52:	fc07d5e3          	bgez	a5,80001e1c <vprintfmt+0x1e0>
80001e56:	a829                	j	80001e70 <vprintfmt+0x234>
80001e58:	fbc42783          	lw	a5,-68(s0)
80001e5c:	fb842583          	lw	a1,-72(s0)
80001e60:	02000513          	li	a0,32
80001e64:	9782                	jalr	a5
80001e66:	fdc42783          	lw	a5,-36(s0)
80001e6a:	17fd                	addi	a5,a5,-1
80001e6c:	fcf42e23          	sw	a5,-36(s0)
80001e70:	fdc42783          	lw	a5,-36(s0)
80001e74:	fef042e3          	bgtz	a5,80001e58 <vprintfmt+0x21c>
80001e78:	a8f5                	j	80001f74 <vprintfmt+0x338>
80001e7a:	fb040793          	addi	a5,s0,-80
80001e7e:	fe042583          	lw	a1,-32(s0)
80001e82:	853e                	mv	a0,a5
80001e84:	3391                	jal	80001bc8 <getint>
80001e86:	872a                	mv	a4,a0
80001e88:	87ae                	mv	a5,a1
80001e8a:	fee42423          	sw	a4,-24(s0)
80001e8e:	fef42623          	sw	a5,-20(s0)
80001e92:	fe842703          	lw	a4,-24(s0)
80001e96:	fec42783          	lw	a5,-20(s0)
80001e9a:	0207df63          	bgez	a5,80001ed8 <vprintfmt+0x29c>
80001e9e:	fbc42783          	lw	a5,-68(s0)
80001ea2:	fb842583          	lw	a1,-72(s0)
80001ea6:	02d00513          	li	a0,45
80001eaa:	9782                	jalr	a5
80001eac:	fe842503          	lw	a0,-24(s0)
80001eb0:	fec42583          	lw	a1,-20(s0)
80001eb4:	4701                	li	a4,0
80001eb6:	4781                	li	a5,0
80001eb8:	40a70633          	sub	a2,a4,a0
80001ebc:	8832                	mv	a6,a2
80001ebe:	01073833          	sltu	a6,a4,a6
80001ec2:	40b786b3          	sub	a3,a5,a1
80001ec6:	410687b3          	sub	a5,a3,a6
80001eca:	86be                	mv	a3,a5
80001ecc:	8732                	mv	a4,a2
80001ece:	87b6                	mv	a5,a3
80001ed0:	fee42423          	sw	a4,-24(s0)
80001ed4:	fef42623          	sw	a5,-20(s0)
80001ed8:	47a9                	li	a5,10
80001eda:	fef42223          	sw	a5,-28(s0)
80001ede:	a0b9                	j	80001f2c <vprintfmt+0x2f0>
80001ee0:	47a9                	li	a5,10
80001ee2:	fef42223          	sw	a5,-28(s0)
80001ee6:	a80d                	j	80001f18 <vprintfmt+0x2dc>
80001ee8:	47a1                	li	a5,8
80001eea:	fef42223          	sw	a5,-28(s0)
80001eee:	a02d                	j	80001f18 <vprintfmt+0x2dc>
80001ef0:	4785                	li	a5,1
80001ef2:	fef42023          	sw	a5,-32(s0)
80001ef6:	fbc42783          	lw	a5,-68(s0)
80001efa:	fb842583          	lw	a1,-72(s0)
80001efe:	03000513          	li	a0,48
80001f02:	9782                	jalr	a5
80001f04:	fbc42783          	lw	a5,-68(s0)
80001f08:	fb842583          	lw	a1,-72(s0)
80001f0c:	07800513          	li	a0,120
80001f10:	9782                	jalr	a5
80001f12:	47c1                	li	a5,16
80001f14:	fef42223          	sw	a5,-28(s0)
80001f18:	fb040793          	addi	a5,s0,-80
80001f1c:	fe042583          	lw	a1,-32(s0)
80001f20:	853e                	mv	a0,a5
80001f22:	391d                	jal	80001b58 <getuint>
80001f24:	fea42423          	sw	a0,-24(s0)
80001f28:	feb42623          	sw	a1,-20(s0)
80001f2c:	fe442703          	lw	a4,-28(s0)
80001f30:	fd744783          	lbu	a5,-41(s0)
80001f34:	883e                	mv	a6,a5
80001f36:	fdc42783          	lw	a5,-36(s0)
80001f3a:	fe842603          	lw	a2,-24(s0)
80001f3e:	fec42683          	lw	a3,-20(s0)
80001f42:	fb842583          	lw	a1,-72(s0)
80001f46:	fbc42503          	lw	a0,-68(s0)
80001f4a:	3465                	jal	800019f2 <printnum>
80001f4c:	a025                	j	80001f74 <vprintfmt+0x338>
80001f4e:	fbc42783          	lw	a5,-68(s0)
80001f52:	fb842583          	lw	a1,-72(s0)
80001f56:	8526                	mv	a0,s1
80001f58:	9782                	jalr	a5
80001f5a:	a829                	j	80001f74 <vprintfmt+0x338>
80001f5c:	fbc42783          	lw	a5,-68(s0)
80001f60:	fb842583          	lw	a1,-72(s0)
80001f64:	02500513          	li	a0,37
80001f68:	9782                	jalr	a5
80001f6a:	fd042783          	lw	a5,-48(s0)
80001f6e:	faf42a23          	sw	a5,-76(s0)
80001f72:	0001                	nop
80001f74:	b301                	j	80001c74 <vprintfmt+0x38>
80001f76:	0001                	nop
80001f78:	40b6                	lw	ra,76(sp)
80001f7a:	4426                	lw	s0,72(sp)
80001f7c:	4496                	lw	s1,68(sp)
80001f7e:	4906                	lw	s2,64(sp)
80001f80:	6161                	addi	sp,sp,80
80001f82:	8082                	ret

80001f84 <printf>:
80001f84:	715d                	addi	sp,sp,-80
80001f86:	d606                	sw	ra,44(sp)
80001f88:	d422                	sw	s0,40(sp)
80001f8a:	1800                	addi	s0,sp,48
80001f8c:	fca42e23          	sw	a0,-36(s0)
80001f90:	c04c                	sw	a1,4(s0)
80001f92:	c410                	sw	a2,8(s0)
80001f94:	c454                	sw	a3,12(s0)
80001f96:	c818                	sw	a4,16(s0)
80001f98:	c85c                	sw	a5,20(s0)
80001f9a:	01042c23          	sw	a6,24(s0)
80001f9e:	01142e23          	sw	a7,28(s0)
80001fa2:	02040793          	addi	a5,s0,32
80001fa6:	fcf42c23          	sw	a5,-40(s0)
80001faa:	fd842783          	lw	a5,-40(s0)
80001fae:	1791                	addi	a5,a5,-28
80001fb0:	fef42623          	sw	a5,-20(s0)
80001fb4:	fec42783          	lw	a5,-20(s0)
80001fb8:	86be                	mv	a3,a5
80001fba:	fdc42603          	lw	a2,-36(s0)
80001fbe:	4581                	li	a1,0
80001fc0:	00000517          	auipc	a0,0x0
80001fc4:	91050513          	addi	a0,a0,-1776 # 800018d0 <putchar>
80001fc8:	3995                	jal	80001c3c <vprintfmt>
80001fca:	4781                	li	a5,0
80001fcc:	853e                	mv	a0,a5
80001fce:	50b2                	lw	ra,44(sp)
80001fd0:	5422                	lw	s0,40(sp)
80001fd2:	6161                	addi	sp,sp,80
80001fd4:	8082                	ret

80001fd6 <sprintf_putch.0>:
80001fd6:	7179                	addi	sp,sp,-48
80001fd8:	d622                	sw	s0,44(sp)
80001fda:	1800                	addi	s0,sp,48
80001fdc:	fca42e23          	sw	a0,-36(s0)
80001fe0:	fcb42c23          	sw	a1,-40(s0)
80001fe4:	fc742a23          	sw	t2,-44(s0)
80001fe8:	fd842783          	lw	a5,-40(s0)
80001fec:	fef42623          	sw	a5,-20(s0)
80001ff0:	fec42783          	lw	a5,-20(s0)
80001ff4:	439c                	lw	a5,0(a5)
80001ff6:	fdc42703          	lw	a4,-36(s0)
80001ffa:	0ff77713          	zext.b	a4,a4
80001ffe:	00e78023          	sb	a4,0(a5)
80002002:	fec42783          	lw	a5,-20(s0)
80002006:	439c                	lw	a5,0(a5)
80002008:	00178713          	addi	a4,a5,1
8000200c:	fec42783          	lw	a5,-20(s0)
80002010:	c398                	sw	a4,0(a5)
80002012:	0001                	nop
80002014:	5432                	lw	s0,44(sp)
80002016:	6145                	addi	sp,sp,48
80002018:	8082                	ret

8000201a <sprintf>:
8000201a:	711d                	addi	sp,sp,-96
8000201c:	de06                	sw	ra,60(sp)
8000201e:	dc22                	sw	s0,56(sp)
80002020:	0080                	addi	s0,sp,64
80002022:	fca42623          	sw	a0,-52(s0)
80002026:	fcb42423          	sw	a1,-56(s0)
8000202a:	c410                	sw	a2,8(s0)
8000202c:	c454                	sw	a3,12(s0)
8000202e:	c818                	sw	a4,16(s0)
80002030:	c85c                	sw	a5,20(s0)
80002032:	01042c23          	sw	a6,24(s0)
80002036:	01142e23          	sw	a7,28(s0)
8000203a:	02040793          	addi	a5,s0,32
8000203e:	fcf42223          	sw	a5,-60(s0)
80002042:	fc442783          	lw	a5,-60(s0)
80002046:	fef42223          	sw	a5,-28(s0)
8000204a:	fd440793          	addi	a5,s0,-44
8000204e:	fd440593          	addi	a1,s0,-44
80002052:	00000617          	auipc	a2,0x0
80002056:	f8460613          	addi	a2,a2,-124 # 80001fd6 <sprintf_putch.0>
8000205a:	777d                	lui	a4,0xfffff
8000205c:	fff74693          	not	a3,a4
80002060:	6505                	lui	a0,0x1
80002062:	80050513          	addi	a0,a0,-2048 # 800 <buflen.3+0x780>
80002066:	00a58833          	add	a6,a1,a0
8000206a:	00e87833          	and	a6,a6,a4
8000206e:	3b786813          	ori	a6,a6,951
80002072:	0107a023          	sw	a6,0(a5)
80002076:	9532                	add	a0,a0,a2
80002078:	8f69                	and	a4,a4,a0
8000207a:	2b776713          	ori	a4,a4,695
8000207e:	c3d8                	sw	a4,4(a5)
80002080:	00d5f733          	and	a4,a1,a3
80002084:	01471593          	slli	a1,a4,0x14
80002088:	00038737          	lui	a4,0x38
8000208c:	39370713          	addi	a4,a4,915 # 38393 <buflen.3+0x38313>
80002090:	8f4d                	or	a4,a4,a1
80002092:	c798                	sw	a4,8(a5)
80002094:	00d67733          	and	a4,a2,a3
80002098:	01471693          	slli	a3,a4,0x14
8000209c:	00028737          	lui	a4,0x28
800020a0:	06770713          	addi	a4,a4,103 # 28067 <buflen.3+0x27fe7>
800020a4:	8f55                	or	a4,a4,a3
800020a6:	c7d8                	sw	a4,12(a5)
800020a8:	0000100f          	fence.i
800020ac:	fcc42783          	lw	a5,-52(s0)
800020b0:	fef42623          	sw	a5,-20(s0)
800020b4:	02040793          	addi	a5,s0,32
800020b8:	fcf42223          	sw	a5,-60(s0)
800020bc:	fc442783          	lw	a5,-60(s0)
800020c0:	17a1                	addi	a5,a5,-24
800020c2:	fef42423          	sw	a5,-24(s0)
800020c6:	fe842703          	lw	a4,-24(s0)
800020ca:	fd440793          	addi	a5,s0,-44
800020ce:	853e                	mv	a0,a5
800020d0:	fcc40793          	addi	a5,s0,-52
800020d4:	86ba                	mv	a3,a4
800020d6:	fc842603          	lw	a2,-56(s0)
800020da:	85be                	mv	a1,a5
800020dc:	3685                	jal	80001c3c <vprintfmt>
800020de:	fcc42783          	lw	a5,-52(s0)
800020e2:	00078023          	sb	zero,0(a5)
800020e6:	fcc42703          	lw	a4,-52(s0)
800020ea:	fec42783          	lw	a5,-20(s0)
800020ee:	40f707b3          	sub	a5,a4,a5
800020f2:	853e                	mv	a0,a5
800020f4:	50f2                	lw	ra,60(sp)
800020f6:	5462                	lw	s0,56(sp)
800020f8:	6125                	addi	sp,sp,96
800020fa:	8082                	ret

800020fc <memcpy>:
800020fc:	7179                	addi	sp,sp,-48
800020fe:	d622                	sw	s0,44(sp)
80002100:	1800                	addi	s0,sp,48
80002102:	fca42e23          	sw	a0,-36(s0)
80002106:	fcb42c23          	sw	a1,-40(s0)
8000210a:	fcc42a23          	sw	a2,-44(s0)
8000210e:	fdc42703          	lw	a4,-36(s0)
80002112:	fd842783          	lw	a5,-40(s0)
80002116:	8f5d                	or	a4,a4,a5
80002118:	fd442783          	lw	a5,-44(s0)
8000211c:	8fd9                	or	a5,a5,a4
8000211e:	8b8d                	andi	a5,a5,3
80002120:	e3b1                	bnez	a5,80002164 <memcpy+0x68>
80002122:	fd842783          	lw	a5,-40(s0)
80002126:	fef42623          	sw	a5,-20(s0)
8000212a:	fdc42783          	lw	a5,-36(s0)
8000212e:	fef42423          	sw	a5,-24(s0)
80002132:	a839                	j	80002150 <memcpy+0x54>
80002134:	fec42703          	lw	a4,-20(s0)
80002138:	00470793          	addi	a5,a4,4
8000213c:	fef42623          	sw	a5,-20(s0)
80002140:	fe842783          	lw	a5,-24(s0)
80002144:	00478693          	addi	a3,a5,4
80002148:	fed42423          	sw	a3,-24(s0)
8000214c:	4318                	lw	a4,0(a4)
8000214e:	c398                	sw	a4,0(a5)
80002150:	fdc42703          	lw	a4,-36(s0)
80002154:	fd442783          	lw	a5,-44(s0)
80002158:	97ba                	add	a5,a5,a4
8000215a:	fe842703          	lw	a4,-24(s0)
8000215e:	fcf76be3          	bltu	a4,a5,80002134 <memcpy+0x38>
80002162:	a099                	j	800021a8 <memcpy+0xac>
80002164:	fd842783          	lw	a5,-40(s0)
80002168:	fef42223          	sw	a5,-28(s0)
8000216c:	fdc42783          	lw	a5,-36(s0)
80002170:	fef42023          	sw	a5,-32(s0)
80002174:	a00d                	j	80002196 <memcpy+0x9a>
80002176:	fe442703          	lw	a4,-28(s0)
8000217a:	00170793          	addi	a5,a4,1
8000217e:	fef42223          	sw	a5,-28(s0)
80002182:	fe042783          	lw	a5,-32(s0)
80002186:	00178693          	addi	a3,a5,1
8000218a:	fed42023          	sw	a3,-32(s0)
8000218e:	00074703          	lbu	a4,0(a4)
80002192:	00e78023          	sb	a4,0(a5)
80002196:	fdc42703          	lw	a4,-36(s0)
8000219a:	fd442783          	lw	a5,-44(s0)
8000219e:	97ba                	add	a5,a5,a4
800021a0:	fe042703          	lw	a4,-32(s0)
800021a4:	fcf769e3          	bltu	a4,a5,80002176 <memcpy+0x7a>
800021a8:	fdc42783          	lw	a5,-36(s0)
800021ac:	853e                	mv	a0,a5
800021ae:	5432                	lw	s0,44(sp)
800021b0:	6145                	addi	sp,sp,48
800021b2:	8082                	ret

800021b4 <memset>:
800021b4:	7179                	addi	sp,sp,-48
800021b6:	d622                	sw	s0,44(sp)
800021b8:	1800                	addi	s0,sp,48
800021ba:	fca42e23          	sw	a0,-36(s0)
800021be:	fcb42c23          	sw	a1,-40(s0)
800021c2:	fcc42a23          	sw	a2,-44(s0)
800021c6:	fdc42703          	lw	a4,-36(s0)
800021ca:	fd442783          	lw	a5,-44(s0)
800021ce:	8fd9                	or	a5,a5,a4
800021d0:	8b8d                	andi	a5,a5,3
800021d2:	efb9                	bnez	a5,80002230 <memset+0x7c>
800021d4:	fd842783          	lw	a5,-40(s0)
800021d8:	0ff7f793          	zext.b	a5,a5
800021dc:	fef42223          	sw	a5,-28(s0)
800021e0:	fe442783          	lw	a5,-28(s0)
800021e4:	07a2                	slli	a5,a5,0x8
800021e6:	fe442703          	lw	a4,-28(s0)
800021ea:	8fd9                	or	a5,a5,a4
800021ec:	fef42223          	sw	a5,-28(s0)
800021f0:	fe442783          	lw	a5,-28(s0)
800021f4:	07c2                	slli	a5,a5,0x10
800021f6:	fe442703          	lw	a4,-28(s0)
800021fa:	8fd9                	or	a5,a5,a4
800021fc:	fef42223          	sw	a5,-28(s0)
80002200:	fdc42783          	lw	a5,-36(s0)
80002204:	fef42623          	sw	a5,-20(s0)
80002208:	a811                	j	8000221c <memset+0x68>
8000220a:	fec42783          	lw	a5,-20(s0)
8000220e:	00478713          	addi	a4,a5,4
80002212:	fee42623          	sw	a4,-20(s0)
80002216:	fe442703          	lw	a4,-28(s0)
8000221a:	c398                	sw	a4,0(a5)
8000221c:	fdc42703          	lw	a4,-36(s0)
80002220:	fd442783          	lw	a5,-44(s0)
80002224:	97ba                	add	a5,a5,a4
80002226:	fec42703          	lw	a4,-20(s0)
8000222a:	fef760e3          	bltu	a4,a5,8000220a <memset+0x56>
8000222e:	a81d                	j	80002264 <memset+0xb0>
80002230:	fdc42783          	lw	a5,-36(s0)
80002234:	fef42423          	sw	a5,-24(s0)
80002238:	a829                	j	80002252 <memset+0x9e>
8000223a:	fe842783          	lw	a5,-24(s0)
8000223e:	00178713          	addi	a4,a5,1
80002242:	fee42423          	sw	a4,-24(s0)
80002246:	fd842703          	lw	a4,-40(s0)
8000224a:	0ff77713          	zext.b	a4,a4
8000224e:	00e78023          	sb	a4,0(a5)
80002252:	fdc42703          	lw	a4,-36(s0)
80002256:	fd442783          	lw	a5,-44(s0)
8000225a:	97ba                	add	a5,a5,a4
8000225c:	fe842703          	lw	a4,-24(s0)
80002260:	fcf76de3          	bltu	a4,a5,8000223a <memset+0x86>
80002264:	fdc42783          	lw	a5,-36(s0)
80002268:	853e                	mv	a0,a5
8000226a:	5432                	lw	s0,44(sp)
8000226c:	6145                	addi	sp,sp,48
8000226e:	8082                	ret

80002270 <strlen>:
80002270:	7179                	addi	sp,sp,-48
80002272:	d622                	sw	s0,44(sp)
80002274:	1800                	addi	s0,sp,48
80002276:	fca42e23          	sw	a0,-36(s0)
8000227a:	fdc42783          	lw	a5,-36(s0)
8000227e:	fef42623          	sw	a5,-20(s0)
80002282:	a031                	j	8000228e <strlen+0x1e>
80002284:	fec42783          	lw	a5,-20(s0)
80002288:	0785                	addi	a5,a5,1
8000228a:	fef42623          	sw	a5,-20(s0)
8000228e:	fec42783          	lw	a5,-20(s0)
80002292:	0007c783          	lbu	a5,0(a5)
80002296:	f7fd                	bnez	a5,80002284 <strlen+0x14>
80002298:	fec42703          	lw	a4,-20(s0)
8000229c:	fdc42783          	lw	a5,-36(s0)
800022a0:	40f707b3          	sub	a5,a4,a5
800022a4:	853e                	mv	a0,a5
800022a6:	5432                	lw	s0,44(sp)
800022a8:	6145                	addi	sp,sp,48
800022aa:	8082                	ret

800022ac <strnlen>:
800022ac:	7179                	addi	sp,sp,-48
800022ae:	d622                	sw	s0,44(sp)
800022b0:	1800                	addi	s0,sp,48
800022b2:	fca42e23          	sw	a0,-36(s0)
800022b6:	fcb42c23          	sw	a1,-40(s0)
800022ba:	fdc42783          	lw	a5,-36(s0)
800022be:	fef42623          	sw	a5,-20(s0)
800022c2:	a031                	j	800022ce <strnlen+0x22>
800022c4:	fec42783          	lw	a5,-20(s0)
800022c8:	0785                	addi	a5,a5,1
800022ca:	fef42623          	sw	a5,-20(s0)
800022ce:	fd842783          	lw	a5,-40(s0)
800022d2:	fff78713          	addi	a4,a5,-1
800022d6:	fce42c23          	sw	a4,-40(s0)
800022da:	c791                	beqz	a5,800022e6 <strnlen+0x3a>
800022dc:	fec42783          	lw	a5,-20(s0)
800022e0:	0007c783          	lbu	a5,0(a5)
800022e4:	f3e5                	bnez	a5,800022c4 <strnlen+0x18>
800022e6:	fec42703          	lw	a4,-20(s0)
800022ea:	fdc42783          	lw	a5,-36(s0)
800022ee:	40f707b3          	sub	a5,a4,a5
800022f2:	853e                	mv	a0,a5
800022f4:	5432                	lw	s0,44(sp)
800022f6:	6145                	addi	sp,sp,48
800022f8:	8082                	ret

800022fa <strcmp>:
800022fa:	7179                	addi	sp,sp,-48
800022fc:	d622                	sw	s0,44(sp)
800022fe:	1800                	addi	s0,sp,48
80002300:	fca42e23          	sw	a0,-36(s0)
80002304:	fcb42c23          	sw	a1,-40(s0)
80002308:	fdc42783          	lw	a5,-36(s0)
8000230c:	00178713          	addi	a4,a5,1
80002310:	fce42e23          	sw	a4,-36(s0)
80002314:	0007c783          	lbu	a5,0(a5)
80002318:	fef407a3          	sb	a5,-17(s0)
8000231c:	fd842783          	lw	a5,-40(s0)
80002320:	00178713          	addi	a4,a5,1
80002324:	fce42c23          	sw	a4,-40(s0)
80002328:	0007c783          	lbu	a5,0(a5)
8000232c:	fef40723          	sb	a5,-18(s0)
80002330:	fef44783          	lbu	a5,-17(s0)
80002334:	c799                	beqz	a5,80002342 <strcmp+0x48>
80002336:	fef44703          	lbu	a4,-17(s0)
8000233a:	fee44783          	lbu	a5,-18(s0)
8000233e:	fcf705e3          	beq	a4,a5,80002308 <strcmp+0xe>
80002342:	fef44703          	lbu	a4,-17(s0)
80002346:	fee44783          	lbu	a5,-18(s0)
8000234a:	40f707b3          	sub	a5,a4,a5
8000234e:	853e                	mv	a0,a5
80002350:	5432                	lw	s0,44(sp)
80002352:	6145                	addi	sp,sp,48
80002354:	8082                	ret

80002356 <strcpy>:
80002356:	7179                	addi	sp,sp,-48
80002358:	d622                	sw	s0,44(sp)
8000235a:	1800                	addi	s0,sp,48
8000235c:	fca42e23          	sw	a0,-36(s0)
80002360:	fcb42c23          	sw	a1,-40(s0)
80002364:	fdc42783          	lw	a5,-36(s0)
80002368:	fef42623          	sw	a5,-20(s0)
8000236c:	0001                	nop
8000236e:	fd842703          	lw	a4,-40(s0)
80002372:	00170793          	addi	a5,a4,1
80002376:	fcf42c23          	sw	a5,-40(s0)
8000237a:	fec42783          	lw	a5,-20(s0)
8000237e:	00178693          	addi	a3,a5,1
80002382:	fed42623          	sw	a3,-20(s0)
80002386:	00074703          	lbu	a4,0(a4)
8000238a:	00e78023          	sb	a4,0(a5)
8000238e:	0007c783          	lbu	a5,0(a5)
80002392:	fff1                	bnez	a5,8000236e <strcpy+0x18>
80002394:	fdc42783          	lw	a5,-36(s0)
80002398:	853e                	mv	a0,a5
8000239a:	5432                	lw	s0,44(sp)
8000239c:	6145                	addi	sp,sp,48
8000239e:	8082                	ret

800023a0 <atol>:
800023a0:	7179                	addi	sp,sp,-48
800023a2:	d622                	sw	s0,44(sp)
800023a4:	1800                	addi	s0,sp,48
800023a6:	fca42e23          	sw	a0,-36(s0)
800023aa:	fe042623          	sw	zero,-20(s0)
800023ae:	fe042423          	sw	zero,-24(s0)
800023b2:	a031                	j	800023be <atol+0x1e>
800023b4:	fdc42783          	lw	a5,-36(s0)
800023b8:	0785                	addi	a5,a5,1
800023ba:	fcf42e23          	sw	a5,-36(s0)
800023be:	fdc42783          	lw	a5,-36(s0)
800023c2:	0007c703          	lbu	a4,0(a5)
800023c6:	02000793          	li	a5,32
800023ca:	fef705e3          	beq	a4,a5,800023b4 <atol+0x14>
800023ce:	fdc42783          	lw	a5,-36(s0)
800023d2:	0007c703          	lbu	a4,0(a5)
800023d6:	02d00793          	li	a5,45
800023da:	00f70a63          	beq	a4,a5,800023ee <atol+0x4e>
800023de:	fdc42783          	lw	a5,-36(s0)
800023e2:	0007c703          	lbu	a4,0(a5)
800023e6:	02b00793          	li	a5,43
800023ea:	04f71b63          	bne	a4,a5,80002440 <atol+0xa0>
800023ee:	fdc42783          	lw	a5,-36(s0)
800023f2:	0007c783          	lbu	a5,0(a5)
800023f6:	fd378793          	addi	a5,a5,-45
800023fa:	0017b793          	seqz	a5,a5
800023fe:	0ff7f793          	zext.b	a5,a5
80002402:	fef42423          	sw	a5,-24(s0)
80002406:	fdc42783          	lw	a5,-36(s0)
8000240a:	0785                	addi	a5,a5,1
8000240c:	fcf42e23          	sw	a5,-36(s0)
80002410:	a805                	j	80002440 <atol+0xa0>
80002412:	fec42703          	lw	a4,-20(s0)
80002416:	87ba                	mv	a5,a4
80002418:	078a                	slli	a5,a5,0x2
8000241a:	97ba                	add	a5,a5,a4
8000241c:	0786                	slli	a5,a5,0x1
8000241e:	fef42623          	sw	a5,-20(s0)
80002422:	fdc42783          	lw	a5,-36(s0)
80002426:	00178713          	addi	a4,a5,1
8000242a:	fce42e23          	sw	a4,-36(s0)
8000242e:	0007c783          	lbu	a5,0(a5)
80002432:	fd078793          	addi	a5,a5,-48
80002436:	fec42703          	lw	a4,-20(s0)
8000243a:	97ba                	add	a5,a5,a4
8000243c:	fef42623          	sw	a5,-20(s0)
80002440:	fdc42783          	lw	a5,-36(s0)
80002444:	0007c783          	lbu	a5,0(a5)
80002448:	f7e9                	bnez	a5,80002412 <atol+0x72>
8000244a:	fe842783          	lw	a5,-24(s0)
8000244e:	c791                	beqz	a5,8000245a <atol+0xba>
80002450:	fec42783          	lw	a5,-20(s0)
80002454:	40f007b3          	neg	a5,a5
80002458:	a019                	j	8000245e <atol+0xbe>
8000245a:	fec42783          	lw	a5,-20(s0)
8000245e:	853e                	mv	a0,a5
80002460:	5432                	lw	s0,44(sp)
80002462:	6145                	addi	sp,sp,48
80002464:	8082                	ret

80002466 <random>:
80002466:	1101                	addi	sp,sp,-32
80002468:	ce22                	sw	s0,28(sp)
8000246a:	1000                	addi	s0,sp,32
8000246c:	fea42623          	sw	a0,-20(s0)
80002470:	fec42703          	lw	a4,-20(s0)
80002474:	41c657b7          	lui	a5,0x41c65
80002478:	e6d78793          	addi	a5,a5,-403 # 41c64e6d <buflen.3+0x41c64ded>
8000247c:	02f70733          	mul	a4,a4,a5
80002480:	678d                	lui	a5,0x3
80002482:	03978793          	addi	a5,a5,57 # 3039 <buflen.3+0x2fb9>
80002486:	97ba                	add	a5,a5,a4
80002488:	fef42623          	sw	a5,-20(s0)
8000248c:	fec42783          	lw	a5,-20(s0)
80002490:	41f7d693          	srai	a3,a5,0x1f
80002494:	6741                	lui	a4,0x10
80002496:	177d                	addi	a4,a4,-1 # ffff <buflen.3+0xff7f>
80002498:	8f75                	and	a4,a4,a3
8000249a:	97ba                	add	a5,a5,a4
8000249c:	87c1                	srai	a5,a5,0x10
8000249e:	873e                	mv	a4,a5
800024a0:	67a1                	lui	a5,0x8
800024a2:	17fd                	addi	a5,a5,-1 # 7fff <buflen.3+0x7f7f>
800024a4:	8ff9                	and	a5,a5,a4
800024a6:	853e                	mv	a0,a5
800024a8:	4472                	lw	s0,28(sp)
800024aa:	6105                	addi	sp,sp,32
800024ac:	8082                	ret

800024ae <__udivdi3>:
800024ae:	832a                	mv	t1,a0
800024b0:	88ae                	mv	a7,a1
800024b2:	8732                	mv	a4,a2
800024b4:	882a                	mv	a6,a0
800024b6:	87ae                	mv	a5,a1
800024b8:	20069663          	bnez	a3,800026c4 <__udivdi3+0x216>
800024bc:	800035b7          	lui	a1,0x80003
800024c0:	d6c58593          	addi	a1,a1,-660 # 80002d6c <__global_pointer$+0xffffc7e4>
800024c4:	0cc8f163          	bgeu	a7,a2,80002586 <__udivdi3+0xd8>
800024c8:	66c1                	lui	a3,0x10
800024ca:	0ad67763          	bgeu	a2,a3,80002578 <__udivdi3+0xca>
800024ce:	10063693          	sltiu	a3,a2,256
800024d2:	0016c693          	xori	a3,a3,1
800024d6:	068e                	slli	a3,a3,0x3
800024d8:	00d65533          	srl	a0,a2,a3
800024dc:	95aa                	add	a1,a1,a0
800024de:	0005c583          	lbu	a1,0(a1)
800024e2:	02000513          	li	a0,32
800024e6:	96ae                	add	a3,a3,a1
800024e8:	40d505b3          	sub	a1,a0,a3
800024ec:	00d50b63          	beq	a0,a3,80002502 <__udivdi3+0x54>
800024f0:	00b897b3          	sll	a5,a7,a1
800024f4:	00d356b3          	srl	a3,t1,a3
800024f8:	00b61733          	sll	a4,a2,a1
800024fc:	8fd5                	or	a5,a5,a3
800024fe:	00b31833          	sll	a6,t1,a1
80002502:	01075593          	srli	a1,a4,0x10
80002506:	02b7d333          	divu	t1,a5,a1
8000250a:	01071613          	slli	a2,a4,0x10
8000250e:	8241                	srli	a2,a2,0x10
80002510:	02b7f7b3          	remu	a5,a5,a1
80002514:	851a                	mv	a0,t1
80002516:	026608b3          	mul	a7,a2,t1
8000251a:	01079693          	slli	a3,a5,0x10
8000251e:	01085793          	srli	a5,a6,0x10
80002522:	8fd5                	or	a5,a5,a3
80002524:	0117fc63          	bgeu	a5,a7,8000253c <__udivdi3+0x8e>
80002528:	97ba                	add	a5,a5,a4
8000252a:	fff30513          	addi	a0,t1,-1
8000252e:	00e7e763          	bltu	a5,a4,8000253c <__udivdi3+0x8e>
80002532:	0117f563          	bgeu	a5,a7,8000253c <__udivdi3+0x8e>
80002536:	ffe30513          	addi	a0,t1,-2
8000253a:	97ba                	add	a5,a5,a4
8000253c:	411787b3          	sub	a5,a5,a7
80002540:	02b7d8b3          	divu	a7,a5,a1
80002544:	0842                	slli	a6,a6,0x10
80002546:	01085813          	srli	a6,a6,0x10
8000254a:	02b7f7b3          	remu	a5,a5,a1
8000254e:	031606b3          	mul	a3,a2,a7
80002552:	07c2                	slli	a5,a5,0x10
80002554:	00f86833          	or	a6,a6,a5
80002558:	87c6                	mv	a5,a7
8000255a:	00d87b63          	bgeu	a6,a3,80002570 <__udivdi3+0xc2>
8000255e:	983a                	add	a6,a6,a4
80002560:	fff88793          	addi	a5,a7,-1
80002564:	00e86663          	bltu	a6,a4,80002570 <__udivdi3+0xc2>
80002568:	00d87463          	bgeu	a6,a3,80002570 <__udivdi3+0xc2>
8000256c:	ffe88793          	addi	a5,a7,-2
80002570:	0542                	slli	a0,a0,0x10
80002572:	8d5d                	or	a0,a0,a5
80002574:	4581                	li	a1,0
80002576:	8082                	ret
80002578:	01000537          	lui	a0,0x1000
8000257c:	46c1                	li	a3,16
8000257e:	f4a66de3          	bltu	a2,a0,800024d8 <__udivdi3+0x2a>
80002582:	46e1                	li	a3,24
80002584:	bf91                	j	800024d8 <__udivdi3+0x2a>
80002586:	e211                	bnez	a2,8000258a <__udivdi3+0xdc>
80002588:	9002                	ebreak
8000258a:	67c1                	lui	a5,0x10
8000258c:	08f67f63          	bgeu	a2,a5,8000262a <__udivdi3+0x17c>
80002590:	10063693          	sltiu	a3,a2,256
80002594:	0016c693          	xori	a3,a3,1
80002598:	068e                	slli	a3,a3,0x3
8000259a:	00d657b3          	srl	a5,a2,a3
8000259e:	95be                	add	a1,a1,a5
800025a0:	0005c783          	lbu	a5,0(a1)
800025a4:	97b6                	add	a5,a5,a3
800025a6:	02000693          	li	a3,32
800025aa:	40f685b3          	sub	a1,a3,a5
800025ae:	08f69563          	bne	a3,a5,80002638 <__udivdi3+0x18a>
800025b2:	40c887b3          	sub	a5,a7,a2
800025b6:	4585                	li	a1,1
800025b8:	01075893          	srli	a7,a4,0x10
800025bc:	0317de33          	divu	t3,a5,a7
800025c0:	01071613          	slli	a2,a4,0x10
800025c4:	8241                	srli	a2,a2,0x10
800025c6:	01085693          	srli	a3,a6,0x10
800025ca:	0317f7b3          	remu	a5,a5,a7
800025ce:	8572                	mv	a0,t3
800025d0:	03c60333          	mul	t1,a2,t3
800025d4:	07c2                	slli	a5,a5,0x10
800025d6:	8fd5                	or	a5,a5,a3
800025d8:	0067fc63          	bgeu	a5,t1,800025f0 <__udivdi3+0x142>
800025dc:	97ba                	add	a5,a5,a4
800025de:	fffe0513          	addi	a0,t3,-1
800025e2:	00e7e763          	bltu	a5,a4,800025f0 <__udivdi3+0x142>
800025e6:	0067f563          	bgeu	a5,t1,800025f0 <__udivdi3+0x142>
800025ea:	ffee0513          	addi	a0,t3,-2
800025ee:	97ba                	add	a5,a5,a4
800025f0:	406787b3          	sub	a5,a5,t1
800025f4:	0317d333          	divu	t1,a5,a7
800025f8:	0842                	slli	a6,a6,0x10
800025fa:	01085813          	srli	a6,a6,0x10
800025fe:	0317f7b3          	remu	a5,a5,a7
80002602:	026606b3          	mul	a3,a2,t1
80002606:	07c2                	slli	a5,a5,0x10
80002608:	00f86833          	or	a6,a6,a5
8000260c:	879a                	mv	a5,t1
8000260e:	00d87b63          	bgeu	a6,a3,80002624 <__udivdi3+0x176>
80002612:	983a                	add	a6,a6,a4
80002614:	fff30793          	addi	a5,t1,-1
80002618:	00e86663          	bltu	a6,a4,80002624 <__udivdi3+0x176>
8000261c:	00d87463          	bgeu	a6,a3,80002624 <__udivdi3+0x176>
80002620:	ffe30793          	addi	a5,t1,-2
80002624:	0542                	slli	a0,a0,0x10
80002626:	8d5d                	or	a0,a0,a5
80002628:	8082                	ret
8000262a:	010007b7          	lui	a5,0x1000
8000262e:	46c1                	li	a3,16
80002630:	f6f665e3          	bltu	a2,a5,8000259a <__udivdi3+0xec>
80002634:	46e1                	li	a3,24
80002636:	b795                	j	8000259a <__udivdi3+0xec>
80002638:	00b61733          	sll	a4,a2,a1
8000263c:	00f8d6b3          	srl	a3,a7,a5
80002640:	01075513          	srli	a0,a4,0x10
80002644:	00f357b3          	srl	a5,t1,a5
80002648:	00b31833          	sll	a6,t1,a1
8000264c:	02a6d333          	divu	t1,a3,a0
80002650:	01071613          	slli	a2,a4,0x10
80002654:	00b898b3          	sll	a7,a7,a1
80002658:	8241                	srli	a2,a2,0x10
8000265a:	0117e7b3          	or	a5,a5,a7
8000265e:	02a6f6b3          	remu	a3,a3,a0
80002662:	026608b3          	mul	a7,a2,t1
80002666:	01069593          	slli	a1,a3,0x10
8000266a:	0107d693          	srli	a3,a5,0x10
8000266e:	8ecd                	or	a3,a3,a1
80002670:	859a                	mv	a1,t1
80002672:	0116fc63          	bgeu	a3,a7,8000268a <__udivdi3+0x1dc>
80002676:	96ba                	add	a3,a3,a4
80002678:	fff30593          	addi	a1,t1,-1
8000267c:	00e6e763          	bltu	a3,a4,8000268a <__udivdi3+0x1dc>
80002680:	0116f563          	bgeu	a3,a7,8000268a <__udivdi3+0x1dc>
80002684:	ffe30593          	addi	a1,t1,-2
80002688:	96ba                	add	a3,a3,a4
8000268a:	411686b3          	sub	a3,a3,a7
8000268e:	02a6d8b3          	divu	a7,a3,a0
80002692:	07c2                	slli	a5,a5,0x10
80002694:	83c1                	srli	a5,a5,0x10
80002696:	02a6f6b3          	remu	a3,a3,a0
8000269a:	03160633          	mul	a2,a2,a7
8000269e:	06c2                	slli	a3,a3,0x10
800026a0:	8fd5                	or	a5,a5,a3
800026a2:	86c6                	mv	a3,a7
800026a4:	00c7fc63          	bgeu	a5,a2,800026bc <__udivdi3+0x20e>
800026a8:	97ba                	add	a5,a5,a4
800026aa:	fff88693          	addi	a3,a7,-1
800026ae:	00e7e763          	bltu	a5,a4,800026bc <__udivdi3+0x20e>
800026b2:	00c7f563          	bgeu	a5,a2,800026bc <__udivdi3+0x20e>
800026b6:	ffe88693          	addi	a3,a7,-2
800026ba:	97ba                	add	a5,a5,a4
800026bc:	05c2                	slli	a1,a1,0x10
800026be:	8f91                	sub	a5,a5,a2
800026c0:	8dd5                	or	a1,a1,a3
800026c2:	bddd                	j	800025b8 <__udivdi3+0x10a>
800026c4:	14d5e163          	bltu	a1,a3,80002806 <__udivdi3+0x358>
800026c8:	67c1                	lui	a5,0x10
800026ca:	02f6ff63          	bgeu	a3,a5,80002708 <__udivdi3+0x25a>
800026ce:	1006b713          	sltiu	a4,a3,256
800026d2:	00174713          	xori	a4,a4,1
800026d6:	070e                	slli	a4,a4,0x3
800026d8:	800037b7          	lui	a5,0x80003
800026dc:	00e6d5b3          	srl	a1,a3,a4
800026e0:	d6c78793          	addi	a5,a5,-660 # 80002d6c <__global_pointer$+0xffffc7e4>
800026e4:	97ae                	add	a5,a5,a1
800026e6:	0007c783          	lbu	a5,0(a5)
800026ea:	97ba                	add	a5,a5,a4
800026ec:	02000713          	li	a4,32
800026f0:	40f705b3          	sub	a1,a4,a5
800026f4:	02f71163          	bne	a4,a5,80002716 <__udivdi3+0x268>
800026f8:	4505                	li	a0,1
800026fa:	e716eee3          	bltu	a3,a7,80002576 <__udivdi3+0xc8>
800026fe:	00c33533          	sltu	a0,t1,a2
80002702:	00154513          	xori	a0,a0,1
80002706:	8082                	ret
80002708:	010007b7          	lui	a5,0x1000
8000270c:	4741                	li	a4,16
8000270e:	fcf6e5e3          	bltu	a3,a5,800026d8 <__udivdi3+0x22a>
80002712:	4761                	li	a4,24
80002714:	b7d1                	j	800026d8 <__udivdi3+0x22a>
80002716:	00f65733          	srl	a4,a2,a5
8000271a:	00b696b3          	sll	a3,a3,a1
8000271e:	8ed9                	or	a3,a3,a4
80002720:	00f8d733          	srl	a4,a7,a5
80002724:	00b898b3          	sll	a7,a7,a1
80002728:	00f357b3          	srl	a5,t1,a5
8000272c:	0117e7b3          	or	a5,a5,a7
80002730:	0106d893          	srli	a7,a3,0x10
80002734:	03175eb3          	divu	t4,a4,a7
80002738:	01069813          	slli	a6,a3,0x10
8000273c:	01085813          	srli	a6,a6,0x10
80002740:	00b61633          	sll	a2,a2,a1
80002744:	03177733          	remu	a4,a4,a7
80002748:	03d80e33          	mul	t3,a6,t4
8000274c:	01071513          	slli	a0,a4,0x10
80002750:	0107d713          	srli	a4,a5,0x10
80002754:	8f49                	or	a4,a4,a0
80002756:	8576                	mv	a0,t4
80002758:	01c77c63          	bgeu	a4,t3,80002770 <__udivdi3+0x2c2>
8000275c:	9736                	add	a4,a4,a3
8000275e:	fffe8513          	addi	a0,t4,-1
80002762:	00d76763          	bltu	a4,a3,80002770 <__udivdi3+0x2c2>
80002766:	01c77563          	bgeu	a4,t3,80002770 <__udivdi3+0x2c2>
8000276a:	ffee8513          	addi	a0,t4,-2
8000276e:	9736                	add	a4,a4,a3
80002770:	41c70733          	sub	a4,a4,t3
80002774:	03175e33          	divu	t3,a4,a7
80002778:	07c2                	slli	a5,a5,0x10
8000277a:	83c1                	srli	a5,a5,0x10
8000277c:	03177733          	remu	a4,a4,a7
80002780:	03c80833          	mul	a6,a6,t3
80002784:	0742                	slli	a4,a4,0x10
80002786:	8fd9                	or	a5,a5,a4
80002788:	8772                	mv	a4,t3
8000278a:	0107fc63          	bgeu	a5,a6,800027a2 <__udivdi3+0x2f4>
8000278e:	97b6                	add	a5,a5,a3
80002790:	fffe0713          	addi	a4,t3,-1
80002794:	00d7e763          	bltu	a5,a3,800027a2 <__udivdi3+0x2f4>
80002798:	0107f563          	bgeu	a5,a6,800027a2 <__udivdi3+0x2f4>
8000279c:	ffee0713          	addi	a4,t3,-2
800027a0:	97b6                	add	a5,a5,a3
800027a2:	0542                	slli	a0,a0,0x10
800027a4:	6e41                	lui	t3,0x10
800027a6:	8d59                	or	a0,a0,a4
800027a8:	fffe0693          	addi	a3,t3,-1 # ffff <buflen.3+0xff7f>
800027ac:	00d57733          	and	a4,a0,a3
800027b0:	410787b3          	sub	a5,a5,a6
800027b4:	8ef1                	and	a3,a3,a2
800027b6:	01055813          	srli	a6,a0,0x10
800027ba:	8241                	srli	a2,a2,0x10
800027bc:	02d708b3          	mul	a7,a4,a3
800027c0:	02d806b3          	mul	a3,a6,a3
800027c4:	02c70733          	mul	a4,a4,a2
800027c8:	02c80833          	mul	a6,a6,a2
800027cc:	00d70633          	add	a2,a4,a3
800027d0:	0108d713          	srli	a4,a7,0x10
800027d4:	9732                	add	a4,a4,a2
800027d6:	00d77363          	bgeu	a4,a3,800027dc <__udivdi3+0x32e>
800027da:	9872                	add	a6,a6,t3
800027dc:	01075693          	srli	a3,a4,0x10
800027e0:	96c2                	add	a3,a3,a6
800027e2:	02d7e063          	bltu	a5,a3,80002802 <__udivdi3+0x354>
800027e6:	d8d797e3          	bne	a5,a3,80002574 <__udivdi3+0xc6>
800027ea:	67c1                	lui	a5,0x10
800027ec:	17fd                	addi	a5,a5,-1 # ffff <buflen.3+0xff7f>
800027ee:	8f7d                	and	a4,a4,a5
800027f0:	0742                	slli	a4,a4,0x10
800027f2:	00f8f8b3          	and	a7,a7,a5
800027f6:	00b31333          	sll	t1,t1,a1
800027fa:	9746                	add	a4,a4,a7
800027fc:	4581                	li	a1,0
800027fe:	d6e37ce3          	bgeu	t1,a4,80002576 <__udivdi3+0xc8>
80002802:	157d                	addi	a0,a0,-1 # ffffff <buflen.3+0xffff7f>
80002804:	bb85                	j	80002574 <__udivdi3+0xc6>
80002806:	4581                	li	a1,0
80002808:	4501                	li	a0,0
8000280a:	8082                	ret

8000280c <__umoddi3>:
8000280c:	8832                	mv	a6,a2
8000280e:	87aa                	mv	a5,a0
80002810:	872e                	mv	a4,a1
80002812:	1a069363          	bnez	a3,800029b8 <__umoddi3+0x1ac>
80002816:	800038b7          	lui	a7,0x80003
8000281a:	d6c88893          	addi	a7,a7,-660 # 80002d6c <__global_pointer$+0xffffc7e4>
8000281e:	0ac5f663          	bgeu	a1,a2,800028ca <__umoddi3+0xbe>
80002822:	66c1                	lui	a3,0x10
80002824:	08d67c63          	bgeu	a2,a3,800028bc <__umoddi3+0xb0>
80002828:	10063693          	sltiu	a3,a2,256
8000282c:	0016c693          	xori	a3,a3,1
80002830:	068e                	slli	a3,a3,0x3
80002832:	00d65333          	srl	t1,a2,a3
80002836:	989a                	add	a7,a7,t1
80002838:	0008c883          	lbu	a7,0(a7)
8000283c:	02000313          	li	t1,32
80002840:	96c6                	add	a3,a3,a7
80002842:	40d308b3          	sub	a7,t1,a3
80002846:	00d30b63          	beq	t1,a3,8000285c <__umoddi3+0x50>
8000284a:	01159733          	sll	a4,a1,a7
8000284e:	00d556b3          	srl	a3,a0,a3
80002852:	01161833          	sll	a6,a2,a7
80002856:	8f55                	or	a4,a4,a3
80002858:	011517b3          	sll	a5,a0,a7
8000285c:	01085613          	srli	a2,a6,0x10
80002860:	02c756b3          	divu	a3,a4,a2
80002864:	01081513          	slli	a0,a6,0x10
80002868:	8141                	srli	a0,a0,0x10
8000286a:	02c77733          	remu	a4,a4,a2
8000286e:	02a686b3          	mul	a3,a3,a0
80002872:	01071593          	slli	a1,a4,0x10
80002876:	0107d713          	srli	a4,a5,0x10
8000287a:	8f4d                	or	a4,a4,a1
8000287c:	00d77863          	bgeu	a4,a3,8000288c <__umoddi3+0x80>
80002880:	9742                	add	a4,a4,a6
80002882:	01076563          	bltu	a4,a6,8000288c <__umoddi3+0x80>
80002886:	00d77363          	bgeu	a4,a3,8000288c <__umoddi3+0x80>
8000288a:	9742                	add	a4,a4,a6
8000288c:	8f15                	sub	a4,a4,a3
8000288e:	02c756b3          	divu	a3,a4,a2
80002892:	02c77733          	remu	a4,a4,a2
80002896:	02a686b3          	mul	a3,a3,a0
8000289a:	07c2                	slli	a5,a5,0x10
8000289c:	0742                	slli	a4,a4,0x10
8000289e:	83c1                	srli	a5,a5,0x10
800028a0:	8fd9                	or	a5,a5,a4
800028a2:	00d7f863          	bgeu	a5,a3,800028b2 <__umoddi3+0xa6>
800028a6:	97c2                	add	a5,a5,a6
800028a8:	0107e563          	bltu	a5,a6,800028b2 <__umoddi3+0xa6>
800028ac:	00d7f363          	bgeu	a5,a3,800028b2 <__umoddi3+0xa6>
800028b0:	97c2                	add	a5,a5,a6
800028b2:	8f95                	sub	a5,a5,a3
800028b4:	0117d533          	srl	a0,a5,a7
800028b8:	4581                	li	a1,0
800028ba:	8082                	ret
800028bc:	01000337          	lui	t1,0x1000
800028c0:	46c1                	li	a3,16
800028c2:	f66668e3          	bltu	a2,t1,80002832 <__umoddi3+0x26>
800028c6:	46e1                	li	a3,24
800028c8:	b7ad                	j	80002832 <__umoddi3+0x26>
800028ca:	e211                	bnez	a2,800028ce <__umoddi3+0xc2>
800028cc:	9002                	ebreak
800028ce:	6741                	lui	a4,0x10
800028d0:	06e67463          	bgeu	a2,a4,80002938 <__umoddi3+0x12c>
800028d4:	10063693          	sltiu	a3,a2,256
800028d8:	0016c693          	xori	a3,a3,1
800028dc:	068e                	slli	a3,a3,0x3
800028de:	00d65733          	srl	a4,a2,a3
800028e2:	98ba                	add	a7,a7,a4
800028e4:	0008c703          	lbu	a4,0(a7)
800028e8:	9736                	add	a4,a4,a3
800028ea:	02000693          	li	a3,32
800028ee:	40e688b3          	sub	a7,a3,a4
800028f2:	04e69a63          	bne	a3,a4,80002946 <__umoddi3+0x13a>
800028f6:	40c58733          	sub	a4,a1,a2
800028fa:	01085593          	srli	a1,a6,0x10
800028fe:	02b75633          	divu	a2,a4,a1
80002902:	01081513          	slli	a0,a6,0x10
80002906:	8141                	srli	a0,a0,0x10
80002908:	0107d693          	srli	a3,a5,0x10
8000290c:	02b77733          	remu	a4,a4,a1
80002910:	02a60633          	mul	a2,a2,a0
80002914:	0742                	slli	a4,a4,0x10
80002916:	8f55                	or	a4,a4,a3
80002918:	00c77863          	bgeu	a4,a2,80002928 <__umoddi3+0x11c>
8000291c:	9742                	add	a4,a4,a6
8000291e:	01076563          	bltu	a4,a6,80002928 <__umoddi3+0x11c>
80002922:	00c77363          	bgeu	a4,a2,80002928 <__umoddi3+0x11c>
80002926:	9742                	add	a4,a4,a6
80002928:	8f11                	sub	a4,a4,a2
8000292a:	02b756b3          	divu	a3,a4,a1
8000292e:	02b77733          	remu	a4,a4,a1
80002932:	02a686b3          	mul	a3,a3,a0
80002936:	b795                	j	8000289a <__umoddi3+0x8e>
80002938:	01000737          	lui	a4,0x1000
8000293c:	46c1                	li	a3,16
8000293e:	fae660e3          	bltu	a2,a4,800028de <__umoddi3+0xd2>
80002942:	46e1                	li	a3,24
80002944:	bf69                	j	800028de <__umoddi3+0xd2>
80002946:	01161833          	sll	a6,a2,a7
8000294a:	00e5d6b3          	srl	a3,a1,a4
8000294e:	011517b3          	sll	a5,a0,a7
80002952:	011595b3          	sll	a1,a1,a7
80002956:	00e55733          	srl	a4,a0,a4
8000295a:	01085513          	srli	a0,a6,0x10
8000295e:	8f4d                	or	a4,a4,a1
80002960:	02a6d5b3          	divu	a1,a3,a0
80002964:	01081313          	slli	t1,a6,0x10
80002968:	01035313          	srli	t1,t1,0x10
8000296c:	02a6f6b3          	remu	a3,a3,a0
80002970:	026585b3          	mul	a1,a1,t1
80002974:	01069613          	slli	a2,a3,0x10
80002978:	01075693          	srli	a3,a4,0x10
8000297c:	8ed1                	or	a3,a3,a2
8000297e:	00b6f863          	bgeu	a3,a1,8000298e <__umoddi3+0x182>
80002982:	96c2                	add	a3,a3,a6
80002984:	0106e563          	bltu	a3,a6,8000298e <__umoddi3+0x182>
80002988:	00b6f363          	bgeu	a3,a1,8000298e <__umoddi3+0x182>
8000298c:	96c2                	add	a3,a3,a6
8000298e:	8e8d                	sub	a3,a3,a1
80002990:	02a6d633          	divu	a2,a3,a0
80002994:	0742                	slli	a4,a4,0x10
80002996:	8341                	srli	a4,a4,0x10
80002998:	02a6f6b3          	remu	a3,a3,a0
8000299c:	02660633          	mul	a2,a2,t1
800029a0:	06c2                	slli	a3,a3,0x10
800029a2:	8f55                	or	a4,a4,a3
800029a4:	00c77863          	bgeu	a4,a2,800029b4 <__umoddi3+0x1a8>
800029a8:	9742                	add	a4,a4,a6
800029aa:	01076563          	bltu	a4,a6,800029b4 <__umoddi3+0x1a8>
800029ae:	00c77363          	bgeu	a4,a2,800029b4 <__umoddi3+0x1a8>
800029b2:	9742                	add	a4,a4,a6
800029b4:	8f11                	sub	a4,a4,a2
800029b6:	b791                	j	800028fa <__umoddi3+0xee>
800029b8:	16d5e863          	bltu	a1,a3,80002b28 <__umoddi3+0x31c>
800029bc:	6841                	lui	a6,0x10
800029be:	0506f763          	bgeu	a3,a6,80002a0c <__umoddi3+0x200>
800029c2:	1006b813          	sltiu	a6,a3,256
800029c6:	00184813          	xori	a6,a6,1
800029ca:	080e                	slli	a6,a6,0x3
800029cc:	800038b7          	lui	a7,0x80003
800029d0:	0106d333          	srl	t1,a3,a6
800029d4:	d6c88893          	addi	a7,a7,-660 # 80002d6c <__global_pointer$+0xffffc7e4>
800029d8:	989a                	add	a7,a7,t1
800029da:	0008c883          	lbu	a7,0(a7)
800029de:	02000313          	li	t1,32
800029e2:	98c2                	add	a7,a7,a6
800029e4:	41130833          	sub	a6,t1,a7
800029e8:	03131963          	bne	t1,a7,80002a1a <__umoddi3+0x20e>
800029ec:	00b6e463          	bltu	a3,a1,800029f4 <__umoddi3+0x1e8>
800029f0:	00c56b63          	bltu	a0,a2,80002a06 <__umoddi3+0x1fa>
800029f4:	40c50633          	sub	a2,a0,a2
800029f8:	40d586b3          	sub	a3,a1,a3
800029fc:	00c53733          	sltu	a4,a0,a2
80002a00:	40e68733          	sub	a4,a3,a4
80002a04:	87b2                	mv	a5,a2
80002a06:	853e                	mv	a0,a5
80002a08:	85ba                	mv	a1,a4
80002a0a:	8082                	ret
80002a0c:	010008b7          	lui	a7,0x1000
80002a10:	4841                	li	a6,16
80002a12:	fb16ede3          	bltu	a3,a7,800029cc <__umoddi3+0x1c0>
80002a16:	4861                	li	a6,24
80002a18:	bf55                	j	800029cc <__umoddi3+0x1c0>
80002a1a:	010696b3          	sll	a3,a3,a6
80002a1e:	01165333          	srl	t1,a2,a7
80002a22:	00d36333          	or	t1,t1,a3
80002a26:	01035e13          	srli	t3,t1,0x10
80002a2a:	0115d6b3          	srl	a3,a1,a7
80002a2e:	03c6df33          	divu	t5,a3,t3
80002a32:	01031713          	slli	a4,t1,0x10
80002a36:	8341                	srli	a4,a4,0x10
80002a38:	010597b3          	sll	a5,a1,a6
80002a3c:	011555b3          	srl	a1,a0,a7
80002a40:	8ddd                	or	a1,a1,a5
80002a42:	0105d793          	srli	a5,a1,0x10
80002a46:	01061633          	sll	a2,a2,a6
80002a4a:	01051533          	sll	a0,a0,a6
80002a4e:	03c6f6b3          	remu	a3,a3,t3
80002a52:	03e70eb3          	mul	t4,a4,t5
80002a56:	06c2                	slli	a3,a3,0x10
80002a58:	8fd5                	or	a5,a5,a3
80002a5a:	86fa                	mv	a3,t5
80002a5c:	01d7fc63          	bgeu	a5,t4,80002a74 <__umoddi3+0x268>
80002a60:	979a                	add	a5,a5,t1
80002a62:	ffff0693          	addi	a3,t5,-1
80002a66:	0067e763          	bltu	a5,t1,80002a74 <__umoddi3+0x268>
80002a6a:	01d7f563          	bgeu	a5,t4,80002a74 <__umoddi3+0x268>
80002a6e:	ffef0693          	addi	a3,t5,-2
80002a72:	979a                	add	a5,a5,t1
80002a74:	41d787b3          	sub	a5,a5,t4
80002a78:	03c7deb3          	divu	t4,a5,t3
80002a7c:	05c2                	slli	a1,a1,0x10
80002a7e:	81c1                	srli	a1,a1,0x10
80002a80:	03c7f7b3          	remu	a5,a5,t3
80002a84:	03d70733          	mul	a4,a4,t4
80002a88:	07c2                	slli	a5,a5,0x10
80002a8a:	8ddd                	or	a1,a1,a5
80002a8c:	87f6                	mv	a5,t4
80002a8e:	00e5fc63          	bgeu	a1,a4,80002aa6 <__umoddi3+0x29a>
80002a92:	959a                	add	a1,a1,t1
80002a94:	fffe8793          	addi	a5,t4,-1
80002a98:	0065e763          	bltu	a1,t1,80002aa6 <__umoddi3+0x29a>
80002a9c:	00e5f563          	bgeu	a1,a4,80002aa6 <__umoddi3+0x29a>
80002aa0:	ffee8793          	addi	a5,t4,-2
80002aa4:	959a                	add	a1,a1,t1
80002aa6:	06c2                	slli	a3,a3,0x10
80002aa8:	6f41                	lui	t5,0x10
80002aaa:	8edd                	or	a3,a3,a5
80002aac:	ffff0793          	addi	a5,t5,-1 # ffff <buflen.3+0xff7f>
80002ab0:	01065e13          	srli	t3,a2,0x10
80002ab4:	8d99                	sub	a1,a1,a4
80002ab6:	00f6f733          	and	a4,a3,a5
80002aba:	82c1                	srli	a3,a3,0x10
80002abc:	8ff1                	and	a5,a5,a2
80002abe:	02f70eb3          	mul	t4,a4,a5
80002ac2:	02f687b3          	mul	a5,a3,a5
80002ac6:	03c70733          	mul	a4,a4,t3
80002aca:	03c686b3          	mul	a3,a3,t3
80002ace:	00f70e33          	add	t3,a4,a5
80002ad2:	010ed713          	srli	a4,t4,0x10
80002ad6:	9772                	add	a4,a4,t3
80002ad8:	00f77363          	bgeu	a4,a5,80002ade <__umoddi3+0x2d2>
80002adc:	96fa                	add	a3,a3,t5
80002ade:	01075793          	srli	a5,a4,0x10
80002ae2:	97b6                	add	a5,a5,a3
80002ae4:	66c1                	lui	a3,0x10
80002ae6:	16fd                	addi	a3,a3,-1 # ffff <buflen.3+0xff7f>
80002ae8:	8f75                	and	a4,a4,a3
80002aea:	0742                	slli	a4,a4,0x10
80002aec:	00defeb3          	and	t4,t4,a3
80002af0:	9776                	add	a4,a4,t4
80002af2:	00f5e663          	bltu	a1,a5,80002afe <__umoddi3+0x2f2>
80002af6:	00f59b63          	bne	a1,a5,80002b0c <__umoddi3+0x300>
80002afa:	00e57963          	bgeu	a0,a4,80002b0c <__umoddi3+0x300>
80002afe:	40c70633          	sub	a2,a4,a2
80002b02:	00c73733          	sltu	a4,a4,a2
80002b06:	971a                	add	a4,a4,t1
80002b08:	8f99                	sub	a5,a5,a4
80002b0a:	8732                	mv	a4,a2
80002b0c:	40e50733          	sub	a4,a0,a4
80002b10:	00e53533          	sltu	a0,a0,a4
80002b14:	8d9d                	sub	a1,a1,a5
80002b16:	8d89                	sub	a1,a1,a0
80002b18:	011598b3          	sll	a7,a1,a7
80002b1c:	01075733          	srl	a4,a4,a6
80002b20:	00e8e533          	or	a0,a7,a4
80002b24:	0105d5b3          	srl	a1,a1,a6
80002b28:	8082                	ret

80002b2a <__eqdf2>:
80002b2a:	882a                	mv	a6,a0
80002b2c:	002027f3          	frrm	a5
80002b30:	001007b7          	lui	a5,0x100
80002b34:	0145d893          	srli	a7,a1,0x14
80002b38:	17fd                	addi	a5,a5,-1 # fffff <buflen.3+0xfff7f>
80002b3a:	0146d313          	srli	t1,a3,0x14
80002b3e:	8e2a                	mv	t3,a0
80002b40:	7ff8f893          	andi	a7,a7,2047
80002b44:	7ff00513          	li	a0,2047
80002b48:	00b7f733          	and	a4,a5,a1
80002b4c:	8eb2                	mv	t4,a2
80002b4e:	8ff5                	and	a5,a5,a3
80002b50:	81fd                	srli	a1,a1,0x1f
80002b52:	7ff37313          	andi	t1,t1,2047
80002b56:	82fd                	srli	a3,a3,0x1f
80002b58:	00a89863          	bne	a7,a0,80002b68 <__eqdf2+0x3e>
80002b5c:	01076533          	or	a0,a4,a6
80002b60:	e531                	bnez	a0,80002bac <__eqdf2+0x82>
80002b62:	07131463          	bne	t1,a7,80002bca <__eqdf2+0xa0>
80002b66:	a019                	j	80002b6c <__eqdf2+0x42>
80002b68:	00a31563          	bne	t1,a0,80002b72 <__eqdf2+0x48>
80002b6c:	00c7e533          	or	a0,a5,a2
80002b70:	e515                	bnez	a0,80002b9c <__eqdf2+0x72>
80002b72:	4505                	li	a0,1
80002b74:	04689c63          	bne	a7,t1,80002bcc <__eqdf2+0xa2>
80002b78:	04f71a63          	bne	a4,a5,80002bcc <__eqdf2+0xa2>
80002b7c:	05de1863          	bne	t3,t4,80002bcc <__eqdf2+0xa2>
80002b80:	00d58c63          	beq	a1,a3,80002b98 <__eqdf2+0x6e>
80002b84:	04089463          	bnez	a7,80002bcc <__eqdf2+0xa2>
80002b88:	01076733          	or	a4,a4,a6
80002b8c:	00e03533          	snez	a0,a4
80002b90:	8082                	ret
80002b92:	00186073          	csrsi	fflags,16
80002b96:	a815                	j	80002bca <__eqdf2+0xa0>
80002b98:	4501                	li	a0,0
80002b9a:	8082                	ret
80002b9c:	7ff00693          	li	a3,2047
80002ba0:	02d89163          	bne	a7,a3,80002bc2 <__eqdf2+0x98>
80002ba4:	01076833          	or	a6,a4,a6
80002ba8:	00080d63          	beqz	a6,80002bc2 <__eqdf2+0x98>
80002bac:	000806b7          	lui	a3,0x80
80002bb0:	8f75                	and	a4,a4,a3
80002bb2:	d365                	beqz	a4,80002b92 <__eqdf2+0x68>
80002bb4:	7ff00713          	li	a4,2047
80002bb8:	4505                	li	a0,1
80002bba:	00e31963          	bne	t1,a4,80002bcc <__eqdf2+0xa2>
80002bbe:	8e5d                	or	a2,a2,a5
80002bc0:	c611                	beqz	a2,80002bcc <__eqdf2+0xa2>
80002bc2:	00080737          	lui	a4,0x80
80002bc6:	8ff9                	and	a5,a5,a4
80002bc8:	d7e9                	beqz	a5,80002b92 <__eqdf2+0x68>
80002bca:	4505                	li	a0,1
80002bcc:	8082                	ret

Disassembly of section .data:

80002ea8 <data>:
80002ea8:	0004                	.2byte	0x4
80002eaa:	0000                	unimp
80002eac:	0015                	c.nop	5
80002eae:	0000                	unimp
80002eb0:	0004                	.2byte	0x4
80002eb2:	0000                	unimp
80002eb4:	003e                	c.slli	zero,0xf
80002eb6:	0000                	unimp
80002eb8:	0054                	addi	a3,sp,4
80002eba:	0000                	unimp
80002ebc:	004e                	c.slli	zero,0x13
80002ebe:	0000                	unimp
80002ec0:	005f 0000 000c      	.byte	0x5f, 0x00, 0x00, 0x00, 0x0c, 0x00
80002ec6:	0000                	unimp
80002ec8:	00000033          	add	zero,zero,zero
80002ecc:	0012                	c.slli	zero,0x4
80002ece:	0000                	unimp
80002ed0:	00000017          	auipc	zero,0x0
80002ed4:	00000057          	.4byte	0x57
80002ed8:	000d                	c.nop	3
80002eda:	0000                	unimp
80002edc:	002c                	addi	a1,sp,8
80002ede:	0000                	unimp
80002ee0:	0021                	c.nop	8
80002ee2:	0000                	unimp
80002ee4:	002e                	c.slli	zero,0xb
80002ee6:	0000                	unimp
80002ee8:	0044                	addi	s1,sp,4
80002eea:	0000                	unimp
80002eec:	005a                	c.slli	zero,0x16
80002eee:	0000                	unimp
80002ef0:	003c                	addi	a5,sp,8
80002ef2:	0000                	unimp
80002ef4:	002d                	c.nop	11
80002ef6:	0000                	unimp
80002ef8:	0000004b          	fnmsub.s	ft0,ft0,ft0,ft0,rne
80002efc:	004d                	c.nop	19
80002efe:	0000                	unimp
80002f00:	000e                	c.slli	zero,0x3
80002f02:	0000                	unimp
80002f04:	0028                	addi	a0,sp,8
80002f06:	0000                	unimp
80002f08:	00000017          	auipc	zero,0x0
80002f0c:	000a                	c.slli	zero,0x2
80002f0e:	0000                	unimp
80002f10:	0039                	c.nop	14
80002f12:	0000                	unimp
80002f14:	0025                	c.nop	9
80002f16:	0000                	unimp
80002f18:	0031                	c.nop	12
80002f1a:	0000                	unimp
80002f1c:	0006                	c.slli	zero,0x1
80002f1e:	0000                	unimp
80002f20:	0046                	c.slli	zero,0x11
80002f22:	0000                	unimp
80002f24:	0034                	addi	a3,sp,8
80002f26:	0000                	unimp
80002f28:	004e                	c.slli	zero,0x13
80002f2a:	0000                	unimp
80002f2c:	0019                	c.nop	6
80002f2e:	0000                	unimp
80002f30:	0042                	c.slli	zero,0x10
80002f32:	0000                	unimp
80002f34:	003d                	c.nop	15
80002f36:	0000                	unimp
80002f38:	00000003          	lb	zero,0(zero) # 0 <threadsense.5>
80002f3c:	000c                	.2byte	0xc
80002f3e:	0000                	unimp
80002f40:	0018                	.2byte	0x18
80002f42:	0000                	unimp
80002f44:	0005                	c.nop	1
80002f46:	0000                	unimp
80002f48:	0051                	c.nop	20
80002f4a:	0000                	unimp
80002f4c:	00000063          	beqz	zero,80002f4c <data+0xa4>
80002f50:	005c                	addi	a5,sp,4
80002f52:	0000                	unimp
80002f54:	002d                	c.nop	11
80002f56:	0000                	unimp
80002f58:	005e                	c.slli	zero,0x17
80002f5a:	0000                	unimp
80002f5c:	004c                	addi	a1,sp,4
80002f5e:	0000                	unimp
80002f60:	005a                	c.slli	zero,0x16
80002f62:	0000                	unimp
80002f64:	000e                	c.slli	zero,0x3
80002f66:	0000                	unimp
80002f68:	0041                	c.nop	16
80002f6a:	0000                	unimp
80002f6c:	0001                	nop
80002f6e:	0000                	unimp
80002f70:	003a                	c.slli	zero,0xe
80002f72:	0000                	unimp
80002f74:	0028                	addi	a0,sp,8
80002f76:	0000                	unimp
80002f78:	001e                	c.slli	zero,0x7
80002f7a:	0000                	unimp
80002f7c:	00000017          	auipc	zero,0x0
80002f80:	001f 0000 0034      	.byte	0x1f, 0x00, 0x00, 0x00, 0x34, 0x00
80002f86:	0000                	unimp
80002f88:	0054                	addi	a3,sp,4
80002f8a:	0000                	unimp
80002f8c:	0058                	addi	a4,sp,4
80002f8e:	0000                	unimp
80002f90:	0028                	addi	a0,sp,8
80002f92:	0000                	unimp
80002f94:	0020                	addi	s0,sp,8
80002f96:	0000                	unimp
80002f98:	002d                	c.nop	11
80002f9a:	0000                	unimp
80002f9c:	0009                	c.nop	2
80002f9e:	0000                	unimp
80002fa0:	00000023          	sb	zero,0(zero) # 0 <threadsense.5>
80002fa4:	0016                	c.slli	zero,0x5
80002fa6:	0000                	unimp
80002fa8:	0022                	c.slli	zero,0x8
80002faa:	0000                	unimp
80002fac:	0034                	addi	a3,sp,8
80002fae:	0000                	unimp
80002fb0:	00000023          	sb	zero,0(zero) # 0 <threadsense.5>
80002fb4:	0058                	addi	a4,sp,4
80002fb6:	0000                	unimp
80002fb8:	0000000f          	fence	unknown,unknown
80002fbc:	003a                	c.slli	zero,0xe
80002fbe:	0000                	unimp
80002fc0:	005c                	addi	a5,sp,4
80002fc2:	0000                	unimp
80002fc4:	0000002f          	.4byte	0x2f
80002fc8:	0038                	addi	a4,sp,8
80002fca:	0000                	unimp
80002fcc:	00000023          	sb	zero,0(zero) # 0 <threadsense.5>
80002fd0:	0000005b          	.4byte	0x5b
80002fd4:	0002                	c.slli64	zero
80002fd6:	0000                	unimp
80002fd8:	000a                	c.slli	zero,0x2
80002fda:	0000                	unimp
80002fdc:	0050                	addi	a2,sp,4
80002fde:	0000                	unimp
80002fe0:	0000000f          	fence	unknown,unknown
80002fe4:	0000001b          	.4byte	0x1b
80002fe8:	0051                	c.nop	20
80002fea:	0000                	unimp
80002fec:	0048                	addi	a0,sp,4
80002fee:	0000                	unimp
80002ff0:	0012                	c.slli	zero,0x4
80002ff2:	0000                	unimp
80002ff4:	003e                	c.slli	zero,0xf
80002ff6:	0000                	unimp
80002ff8:	002e                	c.slli	zero,0xb
80002ffa:	0000                	unimp
80002ffc:	0030                	addi	a2,sp,8
80002ffe:	0000                	unimp
80003000:	000d                	c.nop	3
80003002:	0000                	unimp
80003004:	001d                	c.nop	7
80003006:	0000                	unimp
80003008:	00000023          	sb	zero,0(zero) # 0 <threadsense.5>
8000300c:	0005                	c.nop	1
8000300e:	0000                	unimp
80003010:	000c                	.2byte	0xc
80003012:	0000                	unimp
80003014:	001f 0000 0041      	.byte	0x1f, 0x00, 0x00, 0x00, 0x41, 0x00
8000301a:	0000                	unimp
8000301c:	0062                	c.slli	zero,0x18
8000301e:	0000                	unimp
80003020:	0035                	c.nop	13
80003022:	0000                	unimp
80003024:	0062                	c.slli	zero,0x18
80003026:	0000                	unimp
80003028:	0032                	c.slli	zero,0xc
8000302a:	0000                	unimp
8000302c:	00000057          	.4byte	0x57
80003030:	0025                	c.nop	9
80003032:	0000                	unimp
80003034:	0010                	.2byte	0x10
80003036:	0000                	unimp
80003038:	0060                	addi	s0,sp,12
8000303a:	0000                	unimp
8000303c:	0051                	c.nop	20
8000303e:	0000                	unimp
80003040:	0000003f 00000034 	.8byte	0x340000003f
80003048:	00000043          	fmadd.s	ft0,ft0,ft0,ft0,rne
8000304c:	0035                	c.nop	13
8000304e:	0000                	unimp
80003050:	0005                	c.nop	1
80003052:	0000                	unimp
80003054:	004d                	c.nop	19
80003056:	0000                	unimp
80003058:	0055                	c.nop	21
8000305a:	0000                	unimp
8000305c:	00000013          	nop
80003060:	00000003          	lb	zero,0(zero) # 0 <threadsense.5>
80003064:	0011                	c.nop	4
80003066:	0000                	unimp
80003068:	002a                	c.slli	zero,0xa
8000306a:	0000                	unimp
8000306c:	0014                	.2byte	0x14
8000306e:	0000                	unimp
80003070:	004e                	c.slli	zero,0x13
80003072:	0000                	unimp
80003074:	00000057          	.4byte	0x57
80003078:	00000013          	nop
8000307c:	002a                	c.slli	zero,0xa
8000307e:	0000                	unimp
80003080:	00000043          	fmadd.s	ft0,ft0,ft0,ft0,rne
80003084:	0006                	c.slli	zero,0x1
80003086:	0000                	unimp
80003088:	002e                	c.slli	zero,0xb
8000308a:	0000                	unimp
8000308c:	001e                	c.slli	zero,0x7
8000308e:	0000                	unimp
80003090:	0024                	addi	s1,sp,8
80003092:	0000                	unimp
80003094:	0000000b          	fir_coeff_st	zero,zero,zero
80003098:	0000001b          	.4byte	0x1b
8000309c:	0058                	addi	a4,sp,4
8000309e:	0000                	unimp
800030a0:	003c                	addi	a5,sp,8
800030a2:	0000                	unimp
800030a4:	001c                	.2byte	0x1c
800030a6:	0000                	unimp
800030a8:	001a                	c.slli	zero,0x6
800030aa:	0000                	unimp
800030ac:	0061                	c.nop	24
800030ae:	0000                	unimp
800030b0:	002c                	addi	a1,sp,8
800030b2:	0000                	unimp
800030b4:	0016                	c.slli	zero,0x5
800030b6:	0000                	unimp
800030b8:	004d                	c.nop	19
800030ba:	0000                	unimp
800030bc:	0006                	c.slli	zero,0x1
800030be:	0000                	unimp
800030c0:	0019                	c.nop	6
800030c2:	0000                	unimp
800030c4:	0000002b          	fir_data_st	zero,zero
800030c8:	003a                	c.slli	zero,0xe
800030ca:	0000                	unimp
800030cc:	001d                	c.nop	7
800030ce:	0000                	unimp
800030d0:	00000047          	fmsub.s	ft0,ft0,ft0,ft0,rne
800030d4:	005e                	c.slli	zero,0x17
800030d6:	0000                	unimp
800030d8:	0000002f          	.4byte	0x2f
800030dc:	0019                	c.nop	6
800030de:	0000                	unimp
800030e0:	000a                	c.slli	zero,0x2
800030e2:	0000                	unimp
800030e4:	0028                	addi	a0,sp,8
800030e6:	0000                	unimp
800030e8:	0060                	addi	s0,sp,12
800030ea:	0000                	unimp
800030ec:	00000057          	.4byte	0x57
800030f0:	004e                	c.slli	zero,0x13
800030f2:	0000                	unimp
800030f4:	0000000f          	fence	unknown,unknown
800030f8:	0051                	c.nop	20
800030fa:	0000                	unimp
800030fc:	002c                	addi	a1,sp,8
800030fe:	0000                	unimp
80003100:	0014                	.2byte	0x14
80003102:	0000                	unimp
80003104:	001a                	c.slli	zero,0x6
80003106:	0000                	unimp
80003108:	0049                	c.nop	18
8000310a:	0000                	unimp
8000310c:	00000007          	.4byte	0x7
80003110:	0024                	addi	s1,sp,8
80003112:	0000                	unimp
80003114:	00000063          	beqz	zero,80003114 <data+0x26c>
80003118:	005f 0000 0060      	.byte	0x5f, 0x00, 0x00, 0x00, 0x60, 0x00
8000311e:	0000                	unimp
80003120:	0000004f          	fnmadd.s	ft0,ft0,ft0,ft0,rne
80003124:	0014                	.2byte	0x14
80003126:	0000                	unimp
80003128:	002c                	addi	a1,sp,8
8000312a:	0000                	unimp
8000312c:	0016                	c.slli	zero,0x5
8000312e:	0000                	unimp
80003130:	005d                	c.nop	23
80003132:	0000                	unimp
80003134:	0048                	addi	a0,sp,4
80003136:	0000                	unimp
80003138:	0000001b          	.4byte	0x1b
8000313c:	0011                	c.nop	4
8000313e:	0000                	unimp
80003140:	0042                	c.slli	zero,0x10
80003142:	0000                	unimp
80003144:	0024                	addi	s1,sp,8
80003146:	0000                	unimp
80003148:	002d                	c.nop	11
8000314a:	0000                	unimp
8000314c:	0059                	c.nop	22
8000314e:	0000                	unimp
80003150:	0052                	c.slli	zero,0x14
80003152:	0000                	unimp
80003154:	0000002b          	fir_data_st	zero,zero
80003158:	000d                	c.nop	3
8000315a:	0000                	unimp
8000315c:	0000005b          	.4byte	0x5b
80003160:	0052                	c.slli	zero,0x14
80003162:	0000                	unimp
80003164:	003d                	c.nop	15
80003166:	0000                	unimp
80003168:	001e                	c.slli	zero,0x7
8000316a:	0000                	unimp
8000316c:	0000003b          	fir_exec	zero
80003170:	0000001b          	.4byte	0x1b
80003174:	000a                	c.slli	zero,0x2
80003176:	0000                	unimp
80003178:	0002                	c.slli64	zero
8000317a:	0000                	unimp
8000317c:	0062                	c.slli	zero,0x18
8000317e:	0000                	unimp
80003180:	00000057          	.4byte	0x57
80003184:	001a                	c.slli	zero,0x6
80003186:	0000                	unimp
80003188:	0004                	.2byte	0x4
8000318a:	0000                	unimp
8000318c:	00000017          	auipc	zero,0x0
80003190:	004d                	c.nop	19
80003192:	0000                	unimp
80003194:	0032                	c.slli	zero,0xc
80003196:	0000                	unimp
80003198:	0046                	c.slli	zero,0x11
8000319a:	0000                	unimp
8000319c:	00000037          	lui	zero,0x0
800031a0:	0016                	c.slli	zero,0x5
800031a2:	0000                	unimp
800031a4:	0041                	c.nop	16
800031a6:	0000                	unimp
800031a8:	001c                	.2byte	0x1c
800031aa:	0000                	unimp
800031ac:	000e                	c.slli	zero,0x3
800031ae:	0000                	unimp
800031b0:	0024                	addi	s1,sp,8
800031b2:	0000                	unimp
800031b4:	0036                	c.slli	zero,0xd
800031b6:	0000                	unimp
800031b8:	001f 0000 0035      	.byte	0x1f, 0x00, 0x00, 0x00, 0x35, 0x00
800031be:	0000                	unimp
800031c0:	0029                	c.nop	10
800031c2:	0000                	unimp
800031c4:	0000004b          	fnmsub.s	ft0,ft0,ft0,ft0,rne
800031c8:	0029                	c.nop	10
800031ca:	0000                	unimp
800031cc:	0016                	c.slli	zero,0x5
800031ce:	0000                	unimp
800031d0:	0012                	c.slli	zero,0x4
800031d2:	0000                	unimp
800031d4:	0006                	c.slli	zero,0x1
800031d6:	0000                	unimp
800031d8:	0041                	c.nop	16
800031da:	0000                	unimp
800031dc:	00000033          	add	zero,zero,zero
800031e0:	0012                	c.slli	zero,0x4
800031e2:	0000                	unimp
800031e4:	002e                	c.slli	zero,0xb
800031e6:	0000                	unimp
800031e8:	000a                	c.slli	zero,0x2
800031ea:	0000                	unimp
800031ec:	002c                	addi	a1,sp,8
800031ee:	0000                	unimp
800031f0:	00000007          	.4byte	0x7
800031f4:	0000003f 0000005d 	.8byte	0x5d0000003f
800031fc:	005d                	c.nop	23
800031fe:	0000                	unimp
80003200:	0059                	c.nop	22
80003202:	0000                	unimp
80003204:	0060                	addi	s0,sp,12
80003206:	0000                	unimp
80003208:	0000000f          	fence	unknown,unknown
8000320c:	0011                	c.nop	4
8000320e:	0000                	unimp
80003210:	002e                	c.slli	zero,0xb
80003212:	0000                	unimp
80003214:	0024                	addi	s1,sp,8
80003216:	0000                	unimp
80003218:	00000017          	auipc	zero,0x0
8000321c:	00000043          	fmadd.s	ft0,ft0,ft0,ft0,rne
80003220:	0064                	addi	s1,sp,12
80003222:	0000                	unimp
80003224:	0032                	c.slli	zero,0xc
80003226:	0000                	unimp
80003228:	0050                	addi	a2,sp,4
8000322a:	0000                	unimp
8000322c:	00000057          	.4byte	0x57
80003230:	00000003          	lb	zero,0(zero) # 0 <threadsense.5>
80003234:	003e                	c.slli	zero,0xf
80003236:	0000                	unimp
80003238:	005c                	addi	a5,sp,4
8000323a:	0000                	unimp
8000323c:	005f 0000 0025      	.byte	0x5f, 0x00, 0x00, 0x00, 0x25, 0x00
80003242:	0000                	unimp
80003244:	0020                	addi	s0,sp,8
80003246:	0000                	unimp
80003248:	0045                	c.nop	17
8000324a:	0000                	unimp
8000324c:	0006                	c.slli	zero,0x1
8000324e:	0000                	unimp
80003250:	0059                	c.nop	22
80003252:	0000                	unimp
80003254:	0055                	c.nop	21
80003256:	0000                	unimp
80003258:	0038                	addi	a4,sp,8
8000325a:	0000                	unimp
8000325c:	0006                	c.slli	zero,0x1
8000325e:	0000                	unimp
80003260:	001e                	c.slli	zero,0x7
80003262:	0000                	unimp
80003264:	0011                	c.nop	4
80003266:	0000                	unimp
80003268:	0001                	nop
8000326a:	0000                	unimp
8000326c:	0024                	addi	s1,sp,8
8000326e:	0000                	unimp
80003270:	0050                	addi	a2,sp,4
80003272:	0000                	unimp
80003274:	005d                	c.nop	23
80003276:	0000                	unimp
80003278:	001c                	.2byte	0x1c
8000327a:	0000                	unimp
8000327c:	0014                	.2byte	0x14
8000327e:	0000                	unimp
80003280:	0029                	c.nop	10
80003282:	0000                	unimp
80003284:	005f 0000 0024      	.byte	0x5f, 0x00, 0x00, 0x00, 0x24, 0x00
8000328a:	0000                	unimp
8000328c:	0056                	c.slli	zero,0x15
8000328e:	0000                	unimp
80003290:	0052                	c.slli	zero,0x14
80003292:	0000                	unimp
80003294:	003a                	c.slli	zero,0xe
80003296:	0000                	unimp
80003298:	0004                	.2byte	0x4
8000329a:	0000                	unimp
8000329c:	0022                	c.slli	zero,0x8
8000329e:	0000                	unimp
800032a0:	00000007          	.4byte	0x7
800032a4:	00000023          	sb	zero,0(zero) # 0 <threadsense.5>
800032a8:	0014                	.2byte	0x14
800032aa:	0000                	unimp
800032ac:	003d                	c.nop	15
800032ae:	0000                	unimp
800032b0:	0061                	c.nop	24
800032b2:	0000                	unimp
800032b4:	0000003f 00000007 	.8byte	0x70000003f
800032bc:	0021                	c.nop	8
800032be:	0000                	unimp
800032c0:	0000002f          	.4byte	0x2f
800032c4:	0000004b          	fnmsub.s	ft0,ft0,ft0,ft0,rne
800032c8:	005a                	c.slli	zero,0x16
800032ca:	0000                	unimp
800032cc:	00000023          	sb	zero,0(zero) # 0 <threadsense.5>
800032d0:	0000000b          	fir_coeff_st	zero,zero,zero
800032d4:	0061                	c.nop	24
800032d6:	0000                	unimp
800032d8:	005d                	c.nop	23
800032da:	0000                	unimp
800032dc:	0028                	addi	a0,sp,8
800032de:	0000                	unimp
800032e0:	000e                	c.slli	zero,0x3
800032e2:	0000                	unimp
800032e4:	002d                	c.nop	11
800032e6:	0000                	unimp
800032e8:	0000001b          	.4byte	0x1b
800032ec:	005d                	c.nop	23
800032ee:	0000                	unimp
800032f0:	0026                	c.slli	zero,0x9
800032f2:	0000                	unimp
800032f4:	00000007          	.4byte	0x7
800032f8:	0040                	addi	s0,sp,4
800032fa:	0000                	unimp
800032fc:	004e                	c.slli	zero,0x13
800032fe:	0000                	unimp
80003300:	0001                	nop
80003302:	0000                	unimp
80003304:	00000063          	beqz	zero,80003304 <data+0x45c>
80003308:	0000000f          	fence	unknown,unknown
8000330c:	0022                	c.slli	zero,0x8
8000330e:	0000                	unimp
80003310:	0008                	.2byte	0x8
80003312:	0000                	unimp
80003314:	0046                	c.slli	zero,0x11
80003316:	0000                	unimp
80003318:	00000043          	fmadd.s	ft0,ft0,ft0,ft0,rne
8000331c:	0042                	c.slli	zero,0x10
8000331e:	0000                	unimp
80003320:	0004                	.2byte	0x4
80003322:	0000                	unimp
80003324:	00000057          	.4byte	0x57
80003328:	001a                	c.slli	zero,0x6
8000332a:	0000                	unimp
8000332c:	0064                	addi	s1,sp,12
8000332e:	0000                	unimp
80003330:	0001                	nop
80003332:	0000                	unimp
80003334:	0020                	addi	s0,sp,8
80003336:	0000                	unimp
80003338:	0054                	addi	a3,sp,4
8000333a:	0000                	unimp
8000333c:	0000002f          	.4byte	0x2f
80003340:	0000003b          	fir_exec	zero
80003344:	0019                	c.nop	6
80003346:	0000                	unimp
80003348:	0052                	c.slli	zero,0x14
8000334a:	0000                	unimp
8000334c:	0045                	c.nop	17
8000334e:	0000                	unimp
80003350:	0016                	c.slli	zero,0x5
80003352:	0000                	unimp
80003354:	001a                	c.slli	zero,0x6
80003356:	0000                	unimp
80003358:	003d                	c.nop	15
8000335a:	0000                	unimp
8000335c:	00000057          	.4byte	0x57
80003360:	0046                	c.slli	zero,0x11
80003362:	0000                	unimp
80003364:	00000027          	.4byte	0x27
80003368:	0000004f          	fnmadd.s	ft0,ft0,ft0,ft0,rne
8000336c:	0000003b          	fir_exec	zero
80003370:	002d                	c.nop	11
80003372:	0000                	unimp
80003374:	005e                	c.slli	zero,0x17
80003376:	0000                	unimp
80003378:	0058                	addi	a4,sp,4
8000337a:	0000                	unimp
8000337c:	0061                	c.nop	24
8000337e:	0000                	unimp
80003380:	005c                	addi	a5,sp,4
80003382:	0000                	unimp
80003384:	0036                	c.slli	zero,0xd
80003386:	0000                	unimp
80003388:	001f 0000 0033      	.byte	0x1f, 0x00, 0x00, 0x00, 0x33, 0x00
8000338e:	0000                	unimp
80003390:	00000017          	auipc	zero,0x0
80003394:	0061                	c.nop	24
80003396:	0000                	unimp
80003398:	0010                	.2byte	0x10
8000339a:	0000                	unimp
8000339c:	0000001b          	.4byte	0x1b
800033a0:	00000023          	sb	zero,0(zero) # 0 <threadsense.5>
800033a4:	0029                	c.nop	10
800033a6:	0000                	unimp
800033a8:	001a                	c.slli	zero,0x6
800033aa:	0000                	unimp
800033ac:	0024                	addi	s1,sp,8
800033ae:	0000                	unimp
800033b0:	0018                	.2byte	0x18
800033b2:	0000                	unimp
800033b4:	003e                	c.slli	zero,0xf
800033b6:	0000                	unimp
800033b8:	0022                	c.slli	zero,0x8
800033ba:	0000                	unimp
800033bc:	0022                	c.slli	zero,0x8
800033be:	0000                	unimp
800033c0:	0056                	c.slli	zero,0x15
800033c2:	0000                	unimp
800033c4:	0000000f          	fence	unknown,unknown
800033c8:	00000037          	lui	zero,0x0
800033cc:	0000003b          	fir_exec	zero
800033d0:	005c                	addi	a5,sp,4
800033d2:	0000                	unimp
800033d4:	00000043          	fmadd.s	ft0,ft0,ft0,ft0,rne
800033d8:	002d                	c.nop	11
800033da:	0000                	unimp
800033dc:	003e                	c.slli	zero,0xf
800033de:	0000                	unimp
800033e0:	0005                	c.nop	1
800033e2:	0000                	unimp
800033e4:	0000004b          	fnmsub.s	ft0,ft0,ft0,ft0,rne
800033e8:	0048                	addi	a0,sp,4
800033ea:	0000                	unimp
800033ec:	0002                	c.slli64	zero
800033ee:	0000                	unimp
800033f0:	0044                	addi	s1,sp,4
800033f2:	0000                	unimp
800033f4:	003c                	addi	a5,sp,8
800033f6:	0000                	unimp
800033f8:	0032                	c.slli	zero,0xc
800033fa:	0000                	unimp
800033fc:	0000003b          	fir_exec	zero
80003400:	000d                	c.nop	3
80003402:	0000                	unimp
80003404:	0020                	addi	s0,sp,8
80003406:	0000                	unimp
80003408:	003d                	c.nop	15
8000340a:	0000                	unimp
8000340c:	0058                	addi	a4,sp,4
8000340e:	0000                	unimp
80003410:	001d                	c.nop	7
80003412:	0000                	unimp
80003414:	004c                	addi	a1,sp,4
80003416:	0000                	unimp
80003418:	000e                	c.slli	zero,0x3
8000341a:	0000                	unimp
8000341c:	0000000f          	fence	unknown,unknown
80003420:	0044                	addi	s1,sp,4
80003422:	0000                	unimp
80003424:	0000005b          	.4byte	0x5b
80003428:	0002                	c.slli64	zero
8000342a:	0000                	unimp
8000342c:	005c                	addi	a5,sp,4
8000342e:	0000                	unimp
80003430:	0034                	addi	a3,sp,8
80003432:	0000                	unimp
80003434:	0024                	addi	s1,sp,8
80003436:	0000                	unimp
80003438:	0019                	c.nop	6
8000343a:	0000                	unimp
8000343c:	005a                	c.slli	zero,0x16
8000343e:	0000                	unimp
80003440:	0002                	c.slli64	zero
80003442:	0000                	unimp
80003444:	001f 0000 0030      	.byte	0x1f, 0x00, 0x00, 0x00, 0x30, 0x00
8000344a:	0000                	unimp
8000344c:	005e                	c.slli	zero,0x17
8000344e:	0000                	unimp
80003450:	0061                	c.nop	24
80003452:	0000                	unimp
80003454:	005d                	c.nop	23
80003456:	0000                	unimp
80003458:	00000007          	.4byte	0x7
8000345c:	0036                	c.slli	zero,0xd
8000345e:	0000                	unimp
80003460:	00000013          	nop
80003464:	001e                	c.slli	zero,0x7
80003466:	0000                	unimp
80003468:	00000037          	lui	zero,0x0
8000346c:	00000057          	.4byte	0x57
80003470:	0029                	c.nop	10
80003472:	0000                	unimp
80003474:	0004                	.2byte	0x4
80003476:	0000                	unimp
80003478:	0061                	c.nop	24
8000347a:	0000                	unimp
8000347c:	0006                	c.slli	zero,0x1
8000347e:	0000                	unimp
80003480:	0024                	addi	s1,sp,8
80003482:	0000                	unimp
80003484:	003a                	c.slli	zero,0xe
80003486:	0000                	unimp
80003488:	005d                	c.nop	23
8000348a:	0000                	unimp
8000348c:	0010                	.2byte	0x10
8000348e:	0000                	unimp
80003490:	0021                	c.nop	8
80003492:	0000                	unimp
80003494:	0006                	c.slli	zero,0x1
80003496:	0000                	unimp
80003498:	0052                	c.slli	zero,0x14
8000349a:	0000                	unimp
8000349c:	0001                	nop
8000349e:	0000                	unimp
800034a0:	0030                	addi	a2,sp,8
800034a2:	0000                	unimp
800034a4:	0024                	addi	s1,sp,8
800034a6:	0000                	unimp
800034a8:	002c                	addi	a1,sp,8
800034aa:	0000                	unimp
800034ac:	0034                	addi	a3,sp,8
800034ae:	0000                	unimp
800034b0:	00000017          	auipc	zero,0x0
800034b4:	0014                	.2byte	0x14
800034b6:	0000                	unimp
800034b8:	0029                	c.nop	10
800034ba:	0000                	unimp
800034bc:	004c                	addi	a1,sp,4
800034be:	0000                	unimp
800034c0:	00000033          	add	zero,zero,zero
800034c4:	0028                	addi	a0,sp,8
800034c6:	0000                	unimp
800034c8:	0015                	c.nop	5
800034ca:	0000                	unimp
800034cc:	0000002f          	.4byte	0x2f
800034d0:	0054                	addi	a3,sp,4
800034d2:	0000                	unimp
800034d4:	0000001b          	.4byte	0x1b
800034d8:	0064                	addi	s1,sp,12
800034da:	0000                	unimp
800034dc:	00000003          	lb	zero,0(zero) # 0 <threadsense.5>
800034e0:	0009                	c.nop	2
800034e2:	0000                	unimp
800034e4:	0006                	c.slli	zero,0x1
800034e6:	0000                	unimp
800034e8:	0059                	c.nop	22
800034ea:	0000                	unimp
800034ec:	0031                	c.nop	12
800034ee:	0000                	unimp
800034f0:	000a                	c.slli	zero,0x2
800034f2:	0000                	unimp
800034f4:	0055                	c.nop	21
800034f6:	0000                	unimp
800034f8:	0036                	c.slli	zero,0xd
800034fa:	0000                	unimp
800034fc:	0061                	c.nop	24
800034fe:	0000                	unimp
80003500:	005e                	c.slli	zero,0x17
80003502:	0000                	unimp
80003504:	0062                	c.slli	zero,0x18
80003506:	0000                	unimp
80003508:	0040                	addi	s0,sp,4
8000350a:	0000                	unimp
8000350c:	0000001b          	.4byte	0x1b
80003510:	00000037          	lui	zero,0x0
80003514:	002d                	c.nop	11
80003516:	0000                	unimp
80003518:	0000004f          	fnmadd.s	ft0,ft0,ft0,ft0,rne
8000351c:	00000003          	lb	zero,0(zero) # 0 <threadsense.5>
80003520:	0020                	addi	s0,sp,8
80003522:	0000                	unimp
80003524:	0016                	c.slli	zero,0x5
80003526:	0000                	unimp
80003528:	0036                	c.slli	zero,0xd
8000352a:	0000                	unimp
8000352c:	0036                	c.slli	zero,0xd
8000352e:	0000                	unimp
80003530:	005d                	c.nop	23
80003532:	0000                	unimp
80003534:	002e                	c.slli	zero,0xb
80003536:	0000                	unimp
80003538:	001e                	c.slli	zero,0x7
8000353a:	0000                	unimp
8000353c:	0000002b          	fir_data_st	zero,zero
80003540:	0025                	c.nop	9
80003542:	0000                	unimp
80003544:	0032                	c.slli	zero,0xc
80003546:	0000                	unimp
80003548:	002a                	c.slli	zero,0xa
8000354a:	0000                	unimp
8000354c:	0015                	c.nop	5
8000354e:	0000                	unimp
80003550:	001d                	c.nop	7
80003552:	0000                	unimp
80003554:	0029                	c.nop	10
80003556:	0000                	unimp
80003558:	0000004b          	fnmsub.s	ft0,ft0,ft0,ft0,rne
8000355c:	0059                	c.nop	22
8000355e:	0000                	unimp
80003560:	00000063          	beqz	zero,80003560 <data+0x6b8>
80003564:	0000003f 00000025 	.8byte	0x250000003f
8000356c:	003c                	addi	a5,sp,8
8000356e:	0000                	unimp
80003570:	00000063          	beqz	zero,80003570 <data+0x6c8>
80003574:	0000002b          	fir_data_st	zero,zero
80003578:	0038                	addi	a4,sp,8
8000357a:	0000                	unimp
8000357c:	002d                	c.nop	11
8000357e:	0000                	unimp
80003580:	0028                	addi	a0,sp,8
80003582:	0000                	unimp
80003584:	00000013          	nop
80003588:	00000017          	auipc	zero,0x0
8000358c:	005f 0000 000f      	.byte	0x5f, 0x00, 0x00, 0x00, 0x0f, 0x00
80003592:	0000                	unimp
80003594:	0001                	nop
80003596:	0000                	unimp
80003598:	0031                	c.nop	12
8000359a:	0000                	unimp
8000359c:	00000063          	beqz	zero,8000359c <data+0x6f4>
800035a0:	004a                	c.slli	zero,0x12
800035a2:	0000                	unimp
800035a4:	0036                	c.slli	zero,0xd
800035a6:	0000                	unimp
800035a8:	0034                	addi	a3,sp,8
800035aa:	0000                	unimp
800035ac:	0042                	c.slli	zero,0x10
800035ae:	0000                	unimp
800035b0:	00000063          	beqz	zero,800035b0 <data+0x708>
800035b4:	0021                	c.nop	8
800035b6:	0000                	unimp
800035b8:	0009                	c.nop	2
800035ba:	0000                	unimp
800035bc:	00000023          	sb	zero,0(zero) # 0 <threadsense.5>
800035c0:	00000023          	sb	zero,0(zero) # 0 <threadsense.5>
800035c4:	0002                	c.slli64	zero
800035c6:	0000                	unimp
800035c8:	00000007          	.4byte	0x7
800035cc:	0000003f 0000002a 	.8byte	0x2a0000003f
800035d4:	0051                	c.nop	20
800035d6:	0000                	unimp
800035d8:	00000003          	lb	zero,0(zero) # 0 <threadsense.5>
800035dc:	005c                	addi	a5,sp,4
800035de:	0000                	unimp
800035e0:	005f 0000 0027      	.byte	0x5f, 0x00, 0x00, 0x00, 0x27, 0x00
800035e6:	0000                	unimp
800035e8:	00000033          	add	zero,zero,zero
800035ec:	002e                	c.slli	zero,0xb
800035ee:	0000                	unimp
800035f0:	0021                	c.nop	8
800035f2:	0000                	unimp
800035f4:	0006                	c.slli	zero,0x1
800035f6:	0000                	unimp
800035f8:	005a                	c.slli	zero,0x16
800035fa:	0000                	unimp
800035fc:	0019                	c.nop	6
800035fe:	0000                	unimp
80003600:	004c                	addi	a1,sp,4
80003602:	0000                	unimp
80003604:	000c                	.2byte	0xc
80003606:	0000                	unimp
80003608:	00000047          	fmsub.s	ft0,ft0,ft0,ft0,rne
8000360c:	0000002b          	fir_data_st	zero,zero
80003610:	0040                	addi	s0,sp,4
80003612:	0000                	unimp
80003614:	00000013          	nop
80003618:	0029                	c.nop	10
8000361a:	0000                	unimp
8000361c:	0025                	c.nop	9
8000361e:	0000                	unimp
80003620:	0048                	addi	a0,sp,4
80003622:	0000                	unimp
80003624:	002c                	addi	a1,sp,8
80003626:	0000                	unimp
80003628:	0036                	c.slli	zero,0xd
8000362a:	0000                	unimp
8000362c:	0016                	c.slli	zero,0x5
8000362e:	0000                	unimp
80003630:	004d                	c.nop	19
80003632:	0000                	unimp
80003634:	000e                	c.slli	zero,0x3
80003636:	0000                	unimp
80003638:	0008                	.2byte	0x8
8000363a:	0000                	unimp
8000363c:	0000000b          	fir_coeff_st	zero,zero,zero
80003640:	0000000f          	fence	unknown,unknown
80003644:	0000000f          	fence	unknown,unknown
80003648:	0019                	c.nop	6
8000364a:	0000                	unimp
8000364c:	0009                	c.nop	2
8000364e:	0000                	unimp
80003650:	0000002f          	.4byte	0x2f
80003654:	0000001b          	.4byte	0x1b
80003658:	0064                	addi	s1,sp,12
8000365a:	0000                	unimp
8000365c:	002a                	c.slli	zero,0xa
8000365e:	0000                	unimp
80003660:	0011                	c.nop	4
80003662:	0000                	unimp
80003664:	00000033          	add	zero,zero,zero
80003668:	00000057          	.4byte	0x57
8000366c:	0032                	c.slli	zero,0xc
8000366e:	0000                	unimp
80003670:	0008                	.2byte	0x8
80003672:	0000                	unimp
80003674:	001c                	.2byte	0x1c
80003676:	0000                	unimp
80003678:	001a                	c.slli	zero,0x6
8000367a:	0000                	unimp
8000367c:	0054                	addi	a3,sp,4
8000367e:	0000                	unimp
80003680:	00000027          	.4byte	0x27
80003684:	0060                	addi	s0,sp,12
80003686:	0000                	unimp
80003688:	004e                	c.slli	zero,0x13
8000368a:	0000                	unimp
8000368c:	0002                	c.slli64	zero
8000368e:	0000                	unimp
80003690:	0042                	c.slli	zero,0x10
80003692:	0000                	unimp
80003694:	0012                	c.slli	zero,0x4
80003696:	0000                	unimp
80003698:	005a                	c.slli	zero,0x16
8000369a:	0000                	unimp
8000369c:	0059                	c.nop	22
8000369e:	0000                	unimp
800036a0:	003d                	c.nop	15
800036a2:	0000                	unimp
800036a4:	0000002b          	fir_data_st	zero,zero
800036a8:	003e                	c.slli	zero,0xf
800036aa:	0000                	unimp
800036ac:	0025                	c.nop	9
800036ae:	0000                	unimp
800036b0:	0039                	c.nop	14
800036b2:	0000                	unimp
800036b4:	0045                	c.nop	17
800036b6:	0000                	unimp
800036b8:	00000063          	beqz	zero,800036b8 <data+0x810>
800036bc:	00000017          	auipc	zero,0x0
800036c0:	00000053          	fadd.s	ft0,ft0,ft0,rne
800036c4:	00000017          	auipc	zero,0x0
800036c8:	001f 0000 0052      	.byte	0x1f, 0x00, 0x00, 0x00, 0x52, 0x00
800036ce:	0000                	unimp
800036d0:	0001                	nop
800036d2:	0000                	unimp
800036d4:	001f 0000 0017      	.byte	0x1f, 0x00, 0x00, 0x00, 0x17, 0x00
800036da:	0000                	unimp
800036dc:	0012                	c.slli	zero,0x4
800036de:	0000                	unimp
800036e0:	0021                	c.nop	8
800036e2:	0000                	unimp
800036e4:	003d                	c.nop	15
800036e6:	0000                	unimp
800036e8:	00000013          	nop
800036ec:	0028                	addi	a0,sp,8
800036ee:	0000                	unimp
800036f0:	0058                	addi	a4,sp,4
800036f2:	0000                	unimp
800036f4:	0060                	addi	s0,sp,12
800036f6:	0000                	unimp
800036f8:	0000004b          	fnmsub.s	ft0,ft0,ft0,ft0,rne
800036fc:	001a                	c.slli	zero,0x6
800036fe:	0000                	unimp
80003700:	0000005b          	.4byte	0x5b
80003704:	0034                	addi	a3,sp,8
80003706:	0000                	unimp
80003708:	0000004f          	fnmadd.s	ft0,ft0,ft0,ft0,rne
8000370c:	0008                	.2byte	0x8
8000370e:	0000                	unimp
80003710:	0045                	c.nop	17
80003712:	0000                	unimp
80003714:	0044                	addi	s1,sp,4
80003716:	0000                	unimp
80003718:	0030                	addi	a2,sp,8
8000371a:	0000                	unimp
8000371c:	0052                	c.slli	zero,0x14
8000371e:	0000                	unimp
80003720:	003e                	c.slli	zero,0xf
80003722:	0000                	unimp
80003724:	0009                	c.nop	2
80003726:	0000                	unimp
80003728:	0046                	c.slli	zero,0x11
8000372a:	0000                	unimp
8000372c:	0046                	c.slli	zero,0x11
8000372e:	0000                	unimp
80003730:	004d                	c.nop	19
80003732:	0000                	unimp
80003734:	0045                	c.nop	17
80003736:	0000                	unimp
80003738:	005d                	c.nop	23
8000373a:	0000                	unimp
8000373c:	000c                	.2byte	0xc
8000373e:	0000                	unimp
80003740:	0000002b          	fir_data_st	zero,zero
80003744:	00000017          	auipc	zero,0x0
80003748:	005d                	c.nop	23
8000374a:	0000                	unimp
8000374c:	002c                	addi	a1,sp,8
8000374e:	0000                	unimp
80003750:	0005                	c.nop	1
80003752:	0000                	unimp
80003754:	00000043          	fmadd.s	ft0,ft0,ft0,ft0,rne
80003758:	000d                	c.nop	3
8000375a:	0000                	unimp
8000375c:	0025                	c.nop	9
8000375e:	0000                	unimp
80003760:	0000001b          	.4byte	0x1b
80003764:	00000053          	fadd.s	ft0,ft0,ft0,rne
80003768:	001d                	c.nop	7
8000376a:	0000                	unimp
8000376c:	000e                	c.slli	zero,0x3
8000376e:	0000                	unimp
80003770:	004e                	c.slli	zero,0x13
80003772:	0000                	unimp
80003774:	00000003          	lb	zero,0(zero) # 0 <threadsense.5>
80003778:	0000005b          	.4byte	0x5b
8000377c:	0014                	.2byte	0x14
8000377e:	0000                	unimp
80003780:	00000037          	lui	zero,0x0
80003784:	0045                	c.nop	17
80003786:	0000                	unimp
80003788:	0000001b          	.4byte	0x1b
8000378c:	0000004b          	fnmsub.s	ft0,ft0,ft0,ft0,rne
80003790:	0058                	addi	a4,sp,4
80003792:	0000                	unimp
80003794:	001a                	c.slli	zero,0x6
80003796:	0000                	unimp
80003798:	0038                	addi	a4,sp,8
8000379a:	0000                	unimp
8000379c:	0031                	c.nop	12
8000379e:	0000                	unimp
800037a0:	0022                	c.slli	zero,0x8
800037a2:	0000                	unimp
800037a4:	001a                	c.slli	zero,0x6
800037a6:	0000                	unimp
800037a8:	00000013          	nop
800037ac:	003e                	c.slli	zero,0xf
800037ae:	0000                	unimp
800037b0:	002e                	c.slli	zero,0xb
800037b2:	0000                	unimp
800037b4:	0000003f 00000049 	.8byte	0x490000003f
800037bc:	0058                	addi	a4,sp,4
800037be:	0000                	unimp
800037c0:	0025                	c.nop	9
800037c2:	0000                	unimp
800037c4:	0011                	c.nop	4
800037c6:	0000                	unimp
800037c8:	00000053          	fadd.s	ft0,ft0,ft0,rne
800037cc:	002a                	c.slli	zero,0xa
800037ce:	0000                	unimp
800037d0:	00000053          	fadd.s	ft0,ft0,ft0,rne
800037d4:	005f 0000 001e      	.byte	0x5f, 0x00, 0x00, 0x00, 0x1e, 0x00
800037da:	0000                	unimp
800037dc:	0009                	c.nop	2
800037de:	0000                	unimp
800037e0:	001d                	c.nop	7
800037e2:	0000                	unimp
800037e4:	003a                	c.slli	zero,0xe
800037e6:	0000                	unimp
800037e8:	004a                	c.slli	zero,0x12
800037ea:	0000                	unimp
800037ec:	0006                	c.slli	zero,0x1
800037ee:	0000                	unimp
800037f0:	003d                	c.nop	15
800037f2:	0000                	unimp
800037f4:	0040                	addi	s0,sp,4
800037f6:	0000                	unimp
800037f8:	0019                	c.nop	6
800037fa:	0000                	unimp
800037fc:	0000000f          	fence	unknown,unknown
80003800:	0054                	addi	a3,sp,4
80003802:	0000                	unimp
80003804:	00000033          	add	zero,zero,zero
80003808:	0029                	c.nop	10
8000380a:	0000                	unimp
8000380c:	00000047          	fmsub.s	ft0,ft0,ft0,ft0,rne
80003810:	001c                	.2byte	0x1c
80003812:	0000                	unimp
80003814:	0061                	c.nop	24
80003816:	0000                	unimp
80003818:	0048                	addi	a0,sp,4
8000381a:	0000                	unimp
8000381c:	003d                	c.nop	15
8000381e:	0000                	unimp
80003820:	0016                	c.slli	zero,0x5
80003822:	0000                	unimp
80003824:	002a                	c.slli	zero,0xa
80003826:	0000                	unimp
80003828:	00000017          	auipc	zero,0x0
8000382c:	00000013          	nop
80003830:	0004                	.2byte	0x4
80003832:	0000                	unimp
80003834:	0000002f          	.4byte	0x2f
80003838:	0006                	c.slli	zero,0x1
8000383a:	0000                	unimp
8000383c:	0028                	addi	a0,sp,8
8000383e:	0000                	unimp
80003840:	0040                	addi	s0,sp,4
80003842:	0000                	unimp
80003844:	0029                	c.nop	10
80003846:	0000                	unimp
80003848:	0021                	c.nop	8
8000384a:	0000                	unimp
8000384c:	0062                	c.slli	zero,0x18
8000384e:	0000                	unimp
80003850:	00000057          	.4byte	0x57
80003854:	0000003f 0000003b 	.8byte	0x3b0000003f
8000385c:	0010                	.2byte	0x10
8000385e:	0000                	unimp
80003860:	0048                	addi	a0,sp,4
80003862:	0000                	unimp
80003864:	0020                	addi	s0,sp,8
80003866:	0000                	unimp
80003868:	0015                	c.nop	5
8000386a:	0000                	unimp
8000386c:	0020                	addi	s0,sp,8
8000386e:	0000                	unimp
80003870:	0030                	addi	a2,sp,8
80003872:	0000                	unimp
80003874:	002e                	c.slli	zero,0xb
80003876:	0000                	unimp
80003878:	0062                	c.slli	zero,0x18
8000387a:	0000                	unimp
8000387c:	001f 0000 0030      	.byte	0x1f, 0x00, 0x00, 0x00, 0x30, 0x00
80003882:	0000                	unimp
80003884:	00000027          	.4byte	0x27
80003888:	0036                	c.slli	zero,0xd
8000388a:	0000                	unimp
8000388c:	004c                	addi	a1,sp,4
8000388e:	0000                	unimp
80003890:	00000057          	.4byte	0x57
80003894:	004d                	c.nop	19
80003896:	0000                	unimp
80003898:	0058                	addi	a4,sp,4
8000389a:	0000                	unimp
8000389c:	003c                	addi	a5,sp,8
8000389e:	0000                	unimp
800038a0:	0012                	c.slli	zero,0x4
800038a2:	0000                	unimp
800038a4:	000a                	c.slli	zero,0x2
800038a6:	0000                	unimp
800038a8:	004e                	c.slli	zero,0x13
800038aa:	0000                	unimp
800038ac:	0049                	c.nop	18
800038ae:	0000                	unimp
800038b0:	0039                	c.nop	14
800038b2:	0000                	unimp
800038b4:	00000053          	fadd.s	ft0,ft0,ft0,rne
800038b8:	000c                	.2byte	0xc
800038ba:	0000                	unimp
800038bc:	0048                	addi	a0,sp,4
800038be:	0000                	unimp
800038c0:	0000004b          	fnmsub.s	ft0,ft0,ft0,ft0,rne
800038c4:	002d                	c.nop	11
800038c6:	0000                	unimp
800038c8:	0045                	c.nop	17
800038ca:	0000                	unimp
800038cc:	003e                	c.slli	zero,0xf
800038ce:	0000                	unimp
800038d0:	0000003b          	fir_exec	zero
800038d4:	0000001b          	.4byte	0x1b
800038d8:	004d                	c.nop	19
800038da:	0000                	unimp
800038dc:	001e                	c.slli	zero,0x7
800038de:	0000                	unimp
800038e0:	0000000b          	fir_coeff_st	zero,zero,zero
800038e4:	0031                	c.nop	12
800038e6:	0000                	unimp
800038e8:	000e                	c.slli	zero,0x3
800038ea:	0000                	unimp
800038ec:	003a                	c.slli	zero,0xe
800038ee:	0000                	unimp
800038f0:	005e                	c.slli	zero,0x17
800038f2:	0000                	unimp
800038f4:	0000003f 00000028 	.8byte	0x280000003f
800038fc:	005e                	c.slli	zero,0x17
800038fe:	0000                	unimp
80003900:	0035                	c.nop	13
80003902:	0000                	unimp
80003904:	002d                	c.nop	11
80003906:	0000                	unimp
80003908:	0045                	c.nop	17
8000390a:	0000                	unimp
8000390c:	00000027          	.4byte	0x27
80003910:	0015                	c.nop	5
80003912:	0000                	unimp
80003914:	0038                	addi	a4,sp,8
80003916:	0000                	unimp
80003918:	0062                	c.slli	zero,0x18
8000391a:	0000                	unimp
8000391c:	005a                	c.slli	zero,0x16
8000391e:	0000                	unimp
80003920:	0012                	c.slli	zero,0x4
80003922:	0000                	unimp
80003924:	0000001b          	.4byte	0x1b
80003928:	003e                	c.slli	zero,0xf
8000392a:	0000                	unimp
8000392c:	001a                	c.slli	zero,0x6
8000392e:	0000                	unimp
80003930:	003e                	c.slli	zero,0xf
80003932:	0000                	unimp
80003934:	001a                	c.slli	zero,0x6
80003936:	0000                	unimp
80003938:	0061                	c.nop	24
8000393a:	0000                	unimp
8000393c:	0024                	addi	s1,sp,8
8000393e:	0000                	unimp
80003940:	0046                	c.slli	zero,0x11
80003942:	0000                	unimp
80003944:	0011                	c.nop	4
80003946:	0000                	unimp
80003948:	0061                	c.nop	24
8000394a:	0000                	unimp
8000394c:	0050                	addi	a2,sp,4
8000394e:	0000                	unimp
80003950:	0060                	addi	s0,sp,12
80003952:	0000                	unimp
80003954:	0019                	c.nop	6
80003956:	0000                	unimp
80003958:	003d                	c.nop	15
8000395a:	0000                	unimp
8000395c:	0006                	c.slli	zero,0x1
8000395e:	0000                	unimp
80003960:	004a                	c.slli	zero,0x12
80003962:	0000                	unimp
80003964:	001a                	c.slli	zero,0x6
80003966:	0000                	unimp
80003968:	0000000f          	fence	unknown,unknown
8000396c:	00000013          	nop
80003970:	0029                	c.nop	10
80003972:	0000                	unimp
80003974:	0036                	c.slli	zero,0xd
80003976:	0000                	unimp
80003978:	000c                	.2byte	0xc
8000397a:	0000                	unimp
8000397c:	005d                	c.nop	23
8000397e:	0000                	unimp
80003980:	00000033          	add	zero,zero,zero
80003984:	0020                	addi	s0,sp,8
80003986:	0000                	unimp
80003988:	0054                	addi	a3,sp,4
8000398a:	0000                	unimp
8000398c:	00000017          	auipc	zero,0x0
80003990:	0028                	addi	a0,sp,8
80003992:	0000                	unimp
80003994:	0021                	c.nop	8
80003996:	0000                	unimp
80003998:	000d                	c.nop	3
8000399a:	0000                	unimp
8000399c:	0039                	c.nop	14
8000399e:	0000                	unimp
800039a0:	003c                	addi	a5,sp,8
800039a2:	0000                	unimp
800039a4:	001a                	c.slli	zero,0x6
800039a6:	0000                	unimp
800039a8:	0052                	c.slli	zero,0x14
800039aa:	0000                	unimp
800039ac:	0015                	c.nop	5
800039ae:	0000                	unimp
800039b0:	00000033          	add	zero,zero,zero
800039b4:	001e                	c.slli	zero,0x7
800039b6:	0000                	unimp
800039b8:	0038                	addi	a4,sp,8
800039ba:	0000                	unimp
800039bc:	0048                	addi	a0,sp,4
800039be:	0000                	unimp
800039c0:	0062                	c.slli	zero,0x18
800039c2:	0000                	unimp
800039c4:	0005                	c.nop	1
800039c6:	0000                	unimp
800039c8:	00000033          	add	zero,zero,zero
800039cc:	005d                	c.nop	23
800039ce:	0000                	unimp
800039d0:	001d                	c.nop	7
800039d2:	0000                	unimp
800039d4:	0040                	addi	s0,sp,4
800039d6:	0000                	unimp
800039d8:	0032                	c.slli	zero,0xc
800039da:	0000                	unimp
800039dc:	0036                	c.slli	zero,0xd
800039de:	0000                	unimp
800039e0:	0059                	c.nop	22
800039e2:	0000                	unimp
800039e4:	0040                	addi	s0,sp,4
800039e6:	0000                	unimp
800039e8:	0049                	c.nop	18
800039ea:	0000                	unimp
800039ec:	001d                	c.nop	7
800039ee:	0000                	unimp
800039f0:	0046                	c.slli	zero,0x11
800039f2:	0000                	unimp
800039f4:	0054                	addi	a3,sp,4
800039f6:	0000                	unimp
800039f8:	004a                	c.slli	zero,0x12
800039fa:	0000                	unimp
800039fc:	0014                	.2byte	0x14
800039fe:	0000                	unimp
80003a00:	0010                	.2byte	0x10
80003a02:	0000                	unimp
80003a04:	0039                	c.nop	14
80003a06:	0000                	unimp
80003a08:	005e                	c.slli	zero,0x17
80003a0a:	0000                	unimp
80003a0c:	00000007          	.4byte	0x7
80003a10:	0059                	c.nop	22
80003a12:	0000                	unimp
80003a14:	0006                	c.slli	zero,0x1
80003a16:	0000                	unimp
80003a18:	0000003f 00000064 	.8byte	0x640000003f
80003a20:	0054                	addi	a3,sp,4
80003a22:	0000                	unimp
80003a24:	0060                	addi	s0,sp,12
80003a26:	0000                	unimp
80003a28:	0014                	.2byte	0x14
80003a2a:	0000                	unimp
80003a2c:	0022                	c.slli	zero,0x8
80003a2e:	0000                	unimp
80003a30:	004d                	c.nop	19
80003a32:	0000                	unimp
80003a34:	001c                	.2byte	0x1c
80003a36:	0000                	unimp
80003a38:	0006                	c.slli	zero,0x1
80003a3a:	0000                	unimp
80003a3c:	004a                	c.slli	zero,0x12
80003a3e:	0000                	unimp
80003a40:	0020                	addi	s0,sp,8
80003a42:	0000                	unimp
80003a44:	0038                	addi	a4,sp,8
80003a46:	0000                	unimp
80003a48:	00000013          	nop
80003a4c:	000c                	.2byte	0xc
80003a4e:	0000                	unimp
80003a50:	00000013          	nop
80003a54:	0044                	addi	s1,sp,4
80003a56:	0000                	unimp
80003a58:	0042                	c.slli	zero,0x10
80003a5a:	0000                	unimp
80003a5c:	003c                	addi	a5,sp,8
80003a5e:	0000                	unimp
80003a60:	0020                	addi	s0,sp,8
80003a62:	0000                	unimp
80003a64:	0026                	c.slli	zero,0x9
80003a66:	0000                	unimp
80003a68:	0058                	addi	a4,sp,4
80003a6a:	0000                	unimp
80003a6c:	0035                	c.nop	13
80003a6e:	0000                	unimp
80003a70:	0049                	c.nop	18
80003a72:	0000                	unimp
80003a74:	003d                	c.nop	15
80003a76:	0000                	unimp
80003a78:	0018                	.2byte	0x18
80003a7a:	0000                	unimp
80003a7c:	0028                	addi	a0,sp,8
80003a7e:	0000                	unimp
80003a80:	0045                	c.nop	17
80003a82:	0000                	unimp
80003a84:	0011                	c.nop	4
80003a86:	0000                	unimp
80003a88:	002e                	c.slli	zero,0xb
80003a8a:	0000                	unimp
80003a8c:	003a                	c.slli	zero,0xe
80003a8e:	0000                	unimp
80003a90:	0000004b          	fnmsub.s	ft0,ft0,ft0,ft0,rne
80003a94:	003c                	addi	a5,sp,8
80003a96:	0000                	unimp
80003a98:	0009                	c.nop	2
80003a9a:	0000                	unimp
80003a9c:	003a                	c.slli	zero,0xe
80003a9e:	0000                	unimp
80003aa0:	00000037          	lui	zero,0x0
80003aa4:	001d                	c.nop	7
80003aa6:	0000                	unimp
80003aa8:	0000005b          	.4byte	0x5b
80003aac:	00000053          	fadd.s	ft0,ft0,ft0,rne
80003ab0:	0038                	addi	a4,sp,8
80003ab2:	0000                	unimp
80003ab4:	0060                	addi	s0,sp,12
80003ab6:	0000                	unimp
80003ab8:	0009                	c.nop	2
80003aba:	0000                	unimp
80003abc:	00000027          	.4byte	0x27
80003ac0:	0004                	.2byte	0x4
80003ac2:	0000                	unimp
80003ac4:	0000001b          	.4byte	0x1b
80003ac8:	0032                	c.slli	zero,0xc
80003aca:	0000                	unimp
80003acc:	004a                	c.slli	zero,0x12
80003ace:	0000                	unimp
80003ad0:	005e                	c.slli	zero,0x17
80003ad2:	0000                	unimp
80003ad4:	0000000f          	fence	unknown,unknown
80003ad8:	0021                	c.nop	8
80003ada:	0000                	unimp
80003adc:	004d                	c.nop	19
80003ade:	0000                	unimp
80003ae0:	0004                	.2byte	0x4
80003ae2:	0000                	unimp
80003ae4:	0049                	c.nop	18
80003ae6:	0000                	unimp
80003ae8:	001d                	c.nop	7
80003aea:	0000                	unimp
80003aec:	004d                	c.nop	19
80003aee:	0000                	unimp
80003af0:	0021                	c.nop	8
80003af2:	0000                	unimp
80003af4:	0034                	addi	a3,sp,8
80003af6:	0000                	unimp
80003af8:	0010                	.2byte	0x10
80003afa:	0000                	unimp
80003afc:	0002                	c.slli64	zero
80003afe:	0000                	unimp
80003b00:	0015                	c.nop	5
80003b02:	0000                	unimp
80003b04:	000e                	c.slli	zero,0x3
80003b06:	0000                	unimp
80003b08:	0000000b          	fir_coeff_st	zero,zero,zero
80003b0c:	005f 0000 0049      	.byte	0x5f, 0x00, 0x00, 0x00, 0x49, 0x00
80003b12:	0000                	unimp
80003b14:	00000013          	nop
80003b18:	0034                	addi	a3,sp,8
80003b1a:	0000                	unimp
80003b1c:	001c                	.2byte	0x1c
80003b1e:	0000                	unimp
80003b20:	00000063          	beqz	zero,80003b20 <data+0xc78>
80003b24:	002a                	c.slli	zero,0xa
80003b26:	0000                	unimp
80003b28:	003e                	c.slli	zero,0xf
80003b2a:	0000                	unimp
80003b2c:	0006                	c.slli	zero,0x1
80003b2e:	0000                	unimp
80003b30:	005a                	c.slli	zero,0x16
80003b32:	0000                	unimp
80003b34:	0046                	c.slli	zero,0x11
80003b36:	0000                	unimp
80003b38:	002c                	addi	a1,sp,8
80003b3a:	0000                	unimp
80003b3c:	005d                	c.nop	23
80003b3e:	0000                	unimp
80003b40:	0060                	addi	s0,sp,12
80003b42:	0000                	unimp
80003b44:	002e                	c.slli	zero,0xb
80003b46:	0000                	unimp
80003b48:	0012                	c.slli	zero,0x4
80003b4a:	0000                	unimp
80003b4c:	002a                	c.slli	zero,0xa
80003b4e:	0000                	unimp
80003b50:	000c                	.2byte	0xc
80003b52:	0000                	unimp
80003b54:	00000033          	add	zero,zero,zero
80003b58:	0012                	c.slli	zero,0x4
80003b5a:	0000                	unimp
80003b5c:	0044                	addi	s1,sp,4
80003b5e:	0000                	unimp
80003b60:	0000004b          	fnmsub.s	ft0,ft0,ft0,ft0,rne
80003b64:	00000063          	beqz	zero,80003b64 <data+0xcbc>
80003b68:	002c                	addi	a1,sp,8
80003b6a:	0000                	unimp
80003b6c:	0000003b          	fir_exec	zero
80003b70:	0002                	c.slli64	zero
80003b72:	0000                	unimp
80003b74:	0000000b          	fir_coeff_st	zero,zero,zero
80003b78:	003c                	addi	a5,sp,8
80003b7a:	0000                	unimp
80003b7c:	0016                	c.slli	zero,0x5
80003b7e:	0000                	unimp
80003b80:	0018                	.2byte	0x18
80003b82:	0000                	unimp
80003b84:	0016                	c.slli	zero,0x5
80003b86:	0000                	unimp
80003b88:	0044                	addi	s1,sp,4
80003b8a:	0000                	unimp
80003b8c:	0061                	c.nop	24
80003b8e:	0000                	unimp
80003b90:	005d                	c.nop	23
80003b92:	0000                	unimp
80003b94:	00000013          	nop
80003b98:	004c                	addi	a1,sp,4
80003b9a:	0000                	unimp
80003b9c:	0000002b          	fir_data_st	zero,zero
80003ba0:	000d                	c.nop	3
80003ba2:	0000                	unimp
80003ba4:	0059                	c.nop	22
80003ba6:	0000                	unimp
80003ba8:	0031                	c.nop	12
80003baa:	0000                	unimp
80003bac:	0036                	c.slli	zero,0xd
80003bae:	0000                	unimp
80003bb0:	0000003b          	fir_exec	zero
80003bb4:	002c                	addi	a1,sp,8
80003bb6:	0000                	unimp
80003bb8:	0062                	c.slli	zero,0x18
80003bba:	0000                	unimp
80003bbc:	0036                	c.slli	zero,0xd
80003bbe:	0000                	unimp
80003bc0:	0029                	c.nop	10
80003bc2:	0000                	unimp
80003bc4:	0000000f          	fence	unknown,unknown
80003bc8:	0000002f          	.4byte	0x2f
80003bcc:	0035                	c.nop	13
80003bce:	0000                	unimp
80003bd0:	0011                	c.nop	4
80003bd2:	0000                	unimp
80003bd4:	0011                	c.nop	4
80003bd6:	0000                	unimp
80003bd8:	0014                	.2byte	0x14
80003bda:	0000                	unimp
80003bdc:	0000005b          	.4byte	0x5b
80003be0:	0000000f          	fence	unknown,unknown
80003be4:	0000000f          	fence	unknown,unknown
80003be8:	0032                	c.slli	zero,0xc
80003bea:	0000                	unimp
80003bec:	0044                	addi	s1,sp,4
80003bee:	0000                	unimp
80003bf0:	004d                	c.nop	19
80003bf2:	0000                	unimp
80003bf4:	003d                	c.nop	15
80003bf6:	0000                	unimp
80003bf8:	002a                	c.slli	zero,0xa
80003bfa:	0000                	unimp
80003bfc:	0001                	nop
80003bfe:	0000                	unimp
80003c00:	00000023          	sb	zero,0(zero) # 0 <threadsense.5>
80003c04:	0009                	c.nop	2
80003c06:	0000                	unimp
80003c08:	0031                	c.nop	12
80003c0a:	0000                	unimp
80003c0c:	0000001b          	.4byte	0x1b
80003c10:	0050                	addi	a2,sp,4
80003c12:	0000                	unimp
80003c14:	004c                	addi	a1,sp,4
80003c16:	0000                	unimp
80003c18:	0045                	c.nop	17
80003c1a:	0000                	unimp
80003c1c:	002c                	addi	a1,sp,8
80003c1e:	0000                	unimp
80003c20:	0040                	addi	s0,sp,4
80003c22:	0000                	unimp
80003c24:	0045                	c.nop	17
80003c26:	0000                	unimp
80003c28:	0061                	c.nop	24
80003c2a:	0000                	unimp
80003c2c:	0016                	c.slli	zero,0x5
80003c2e:	0000                	unimp
80003c30:	000d                	c.nop	3
80003c32:	0000                	unimp
80003c34:	002e                	c.slli	zero,0xb
80003c36:	0000                	unimp
80003c38:	001c                	.2byte	0x1c
80003c3a:	0000                	unimp
80003c3c:	0035                	c.nop	13
80003c3e:	0000                	unimp
80003c40:	003c                	addi	a5,sp,8
80003c42:	0000                	unimp
80003c44:	004a                	c.slli	zero,0x12
80003c46:	0000                	unimp
80003c48:	0039                	c.nop	14
80003c4a:	0000                	unimp
80003c4c:	001d                	c.nop	7
80003c4e:	0000                	unimp
80003c50:	005a                	c.slli	zero,0x16
80003c52:	0000                	unimp
80003c54:	001c                	.2byte	0x1c
80003c56:	0000                	unimp
80003c58:	00000013          	nop
80003c5c:	0038                	addi	a4,sp,8
80003c5e:	0000                	unimp
80003c60:	002a                	c.slli	zero,0xa
80003c62:	0000                	unimp
80003c64:	0014                	.2byte	0x14
80003c66:	0000                	unimp
80003c68:	004c                	addi	a1,sp,4
80003c6a:	0000                	unimp
80003c6c:	00000013          	nop
80003c70:	0021                	c.nop	8
80003c72:	0000                	unimp
80003c74:	0045                	c.nop	17
80003c76:	0000                	unimp
80003c78:	00000047          	fmsub.s	ft0,ft0,ft0,ft0,rne
80003c7c:	00000043          	fmadd.s	ft0,ft0,ft0,ft0,rne
80003c80:	001d                	c.nop	7
80003c82:	0000                	unimp
80003c84:	00000047          	fmsub.s	ft0,ft0,ft0,ft0,rne
80003c88:	002d                	c.nop	11
80003c8a:	0000                	unimp
80003c8c:	003c                	addi	a5,sp,8
80003c8e:	0000                	unimp
80003c90:	002e                	c.slli	zero,0xb
80003c92:	0000                	unimp
80003c94:	0041                	c.nop	16
80003c96:	0000                	unimp
80003c98:	00000003          	lb	zero,0(zero) # 0 <threadsense.5>
80003c9c:	003d                	c.nop	15
80003c9e:	0000                	unimp
80003ca0:	0022                	c.slli	zero,0x8
80003ca2:	0000                	unimp
80003ca4:	00000033          	add	zero,zero,zero
80003ca8:	00000053          	fadd.s	ft0,ft0,ft0,rne
80003cac:	0062                	c.slli	zero,0x18
80003cae:	0000                	unimp
80003cb0:	0060                	addi	s0,sp,12
80003cb2:	0000                	unimp
80003cb4:	003e                	c.slli	zero,0xf
80003cb6:	0000                	unimp
80003cb8:	0032                	c.slli	zero,0xc
80003cba:	0000                	unimp
80003cbc:	0008                	.2byte	0x8
80003cbe:	0000                	unimp
80003cc0:	00000023          	sb	zero,0(zero) # 0 <threadsense.5>
80003cc4:	0000003b          	fir_exec	zero
80003cc8:	0024                	addi	s1,sp,8
80003cca:	0000                	unimp
80003ccc:	004d                	c.nop	19
80003cce:	0000                	unimp
80003cd0:	0056                	c.slli	zero,0x15
80003cd2:	0000                	unimp
80003cd4:	0006                	c.slli	zero,0x1
80003cd6:	0000                	unimp
80003cd8:	0054                	addi	a3,sp,4
80003cda:	0000                	unimp
80003cdc:	0050                	addi	a2,sp,4
80003cde:	0000                	unimp
80003ce0:	004e                	c.slli	zero,0x13
80003ce2:	0000                	unimp
80003ce4:	0000000b          	fir_coeff_st	zero,zero,zero
80003ce8:	0032                	c.slli	zero,0xc
80003cea:	0000                	unimp
80003cec:	000a                	c.slli	zero,0x2
80003cee:	0000                	unimp
80003cf0:	0000004f          	fnmadd.s	ft0,ft0,ft0,ft0,rne
80003cf4:	0048                	addi	a0,sp,4
80003cf6:	0000                	unimp
80003cf8:	001c                	.2byte	0x1c
80003cfa:	0000                	unimp
80003cfc:	0008                	.2byte	0x8
80003cfe:	0000                	unimp
80003d00:	002a                	c.slli	zero,0xa
80003d02:	0000                	unimp
80003d04:	0048                	addi	a0,sp,4
80003d06:	0000                	unimp
80003d08:	00000043          	fmadd.s	ft0,ft0,ft0,ft0,rne
80003d0c:	00000027          	.4byte	0x27
80003d10:	0024                	addi	s1,sp,8
80003d12:	0000                	unimp
80003d14:	0016                	c.slli	zero,0x5
80003d16:	0000                	unimp
80003d18:	00000063          	beqz	zero,80003d18 <data+0xe70>
80003d1c:	0015                	c.nop	5
80003d1e:	0000                	unimp
80003d20:	0048                	addi	a0,sp,4
80003d22:	0000                	unimp
80003d24:	0021                	c.nop	8
80003d26:	0000                	unimp
80003d28:	0012                	c.slli	zero,0x4
80003d2a:	0000                	unimp
80003d2c:	0014                	.2byte	0x14
80003d2e:	0000                	unimp
80003d30:	005e                	c.slli	zero,0x17
80003d32:	0000                	unimp
80003d34:	0014                	.2byte	0x14
80003d36:	0000                	unimp
80003d38:	0000004f          	fnmadd.s	ft0,ft0,ft0,ft0,rne
80003d3c:	0051                	c.nop	20
80003d3e:	0000                	unimp
80003d40:	004e                	c.slli	zero,0x13
80003d42:	0000                	unimp
80003d44:	0042                	c.slli	zero,0x10
80003d46:	0000                	unimp
80003d48:	0009                	c.nop	2
80003d4a:	0000                	unimp
80003d4c:	0000003f 00000017 	.8byte	0x170000003f
80003d54:	005c                	addi	a5,sp,4
80003d56:	0000                	unimp
80003d58:	005e                	c.slli	zero,0x17
80003d5a:	0000                	unimp
80003d5c:	0064                	addi	s1,sp,12
80003d5e:	0000                	unimp
80003d60:	00000003          	lb	zero,0(zero) # 0 <threadsense.5>
80003d64:	0000002b          	fir_data_st	zero,zero
80003d68:	003d                	c.nop	15
80003d6a:	0000                	unimp
80003d6c:	0051                	c.nop	20
80003d6e:	0000                	unimp
80003d70:	000e                	c.slli	zero,0x3
80003d72:	0000                	unimp
80003d74:	0028                	addi	a0,sp,8
80003d76:	0000                	unimp
80003d78:	0028                	addi	a0,sp,8
80003d7a:	0000                	unimp
80003d7c:	00000007          	.4byte	0x7
80003d80:	0000000b          	fir_coeff_st	zero,zero,zero
80003d84:	0000003b          	fir_exec	zero
80003d88:	002d                	c.nop	11
80003d8a:	0000                	unimp
80003d8c:	00000063          	beqz	zero,80003d8c <data+0xee4>
80003d90:	0050                	addi	a2,sp,4
80003d92:	0000                	unimp
80003d94:	0060                	addi	s0,sp,12
80003d96:	0000                	unimp
80003d98:	00000013          	nop
80003d9c:	00000003          	lb	zero,0(zero) # 0 <threadsense.5>
80003da0:	001c                	.2byte	0x1c
80003da2:	0000                	unimp
80003da4:	0025                	c.nop	9
80003da6:	0000                	unimp
80003da8:	0016                	c.slli	zero,0x5
80003daa:	0000                	unimp
80003dac:	0016                	c.slli	zero,0x5
80003dae:	0000                	unimp
80003db0:	0038                	addi	a4,sp,8
80003db2:	0000                	unimp
80003db4:	0034                	addi	a3,sp,8
80003db6:	0000                	unimp
80003db8:	0036                	c.slli	zero,0xd
80003dba:	0000                	unimp
80003dbc:	0055                	c.nop	21
80003dbe:	0000                	unimp
80003dc0:	0011                	c.nop	4
80003dc2:	0000                	unimp
80003dc4:	003e                	c.slli	zero,0xf
80003dc6:	0000                	unimp
80003dc8:	00000063          	beqz	zero,80003dc8 <data+0xf20>
80003dcc:	0028                	addi	a0,sp,8
80003dce:	0000                	unimp
80003dd0:	0035                	c.nop	13
80003dd2:	0000                	unimp
80003dd4:	005d                	c.nop	23
80003dd6:	0000                	unimp
80003dd8:	0000005b          	.4byte	0x5b
80003ddc:	00000007          	.4byte	0x7
80003de0:	00000057          	.4byte	0x57
80003de4:	0004                	.2byte	0x4
80003de6:	0000                	unimp
80003de8:	0028                	addi	a0,sp,8
80003dea:	0000                	unimp
80003dec:	0035                	c.nop	13
80003dee:	0000                	unimp
80003df0:	0000002b          	fir_data_st	zero,zero
80003df4:	0000004f          	fnmadd.s	ft0,ft0,ft0,ft0,rne
80003df8:	0000003b          	fir_exec	zero
80003dfc:	0006                	c.slli	zero,0x1
80003dfe:	0000                	unimp
80003e00:	0025                	c.nop	9
80003e02:	0000                	unimp
80003e04:	0038                	addi	a4,sp,8
80003e06:	0000                	unimp
80003e08:	0004                	.2byte	0x4
80003e0a:	0000                	unimp
80003e0c:	0044                	addi	s1,sp,4
80003e0e:	0000                	unimp
80003e10:	00000033          	add	zero,zero,zero
80003e14:	004a                	c.slli	zero,0x12
80003e16:	0000                	unimp
80003e18:	00000047          	fmsub.s	ft0,ft0,ft0,ft0,rne
80003e1c:	004e                	c.slli	zero,0x13
80003e1e:	0000                	unimp
80003e20:	003e                	c.slli	zero,0xf
80003e22:	0000                	unimp
80003e24:	002c                	addi	a1,sp,8
80003e26:	0000                	unimp
80003e28:	00000033          	add	zero,zero,zero
80003e2c:	0045                	c.nop	17
80003e2e:	0000                	unimp
80003e30:	0060                	addi	s0,sp,12
80003e32:	0000                	unimp
80003e34:	0004                	.2byte	0x4
80003e36:	0000                	unimp
80003e38:	0035                	c.nop	13
80003e3a:	0000                	unimp
80003e3c:	0040                	addi	s0,sp,4
80003e3e:	0000                	unimp
80003e40:	0041                	c.nop	16
80003e42:	0000                	unimp
80003e44:	0034                	addi	a3,sp,8
80003e46:	0000                	unimp
80003e48:	00000037          	lui	zero,0x0
80003e4c:	0046                	c.slli	zero,0x11
80003e4e:	0000                	unimp
80003e50:	0060                	addi	s0,sp,12
80003e52:	0000                	unimp
80003e54:	002e                	c.slli	zero,0xb
80003e56:	0000                	unimp
80003e58:	001c                	.2byte	0x1c
80003e5a:	0000                	unimp
80003e5c:	0052                	c.slli	zero,0x14
80003e5e:	0000                	unimp
80003e60:	0001                	nop
80003e62:	0000                	unimp
80003e64:	00000043          	fmadd.s	ft0,ft0,ft0,ft0,rne
80003e68:	0022                	c.slli	zero,0x8
80003e6a:	0000                	unimp
80003e6c:	0000002b          	fir_data_st	zero,zero
80003e70:	0062                	c.slli	zero,0x18
80003e72:	0000                	unimp
80003e74:	002d                	c.nop	11
80003e76:	0000                	unimp
80003e78:	0030                	addi	a2,sp,8
80003e7a:	0000                	unimp
80003e7c:	0056                	c.slli	zero,0x15
80003e7e:	0000                	unimp
80003e80:	0064                	addi	s1,sp,12
80003e82:	0000                	unimp
80003e84:	00000003          	lb	zero,0(zero) # 0 <threadsense.5>
80003e88:	0036                	c.slli	zero,0xd
80003e8a:	0000                	unimp
80003e8c:	0032                	c.slli	zero,0xc
80003e8e:	0000                	unimp
80003e90:	004d                	c.nop	19
80003e92:	0000                	unimp
80003e94:	0018                	.2byte	0x18
80003e96:	0000                	unimp
80003e98:	0000004f          	fnmadd.s	ft0,ft0,ft0,ft0,rne
80003e9c:	0026                	c.slli	zero,0x9
80003e9e:	0000                	unimp
80003ea0:	00000043          	fmadd.s	ft0,ft0,ft0,ft0,rne
80003ea4:	001e                	c.slli	zero,0x7
80003ea6:	0000                	unimp
80003ea8:	00000007          	.4byte	0x7
80003eac:	000e                	c.slli	zero,0x3
80003eae:	0000                	unimp
80003eb0:	0055                	c.nop	21
80003eb2:	0000                	unimp
80003eb4:	0000000b          	fir_coeff_st	zero,zero,zero
80003eb8:	004e                	c.slli	zero,0x13
80003eba:	0000                	unimp
80003ebc:	0002                	c.slli64	zero
80003ebe:	0000                	unimp
80003ec0:	000e                	c.slli	zero,0x3
80003ec2:	0000                	unimp
80003ec4:	0020                	addi	s0,sp,8
80003ec6:	0000                	unimp
80003ec8:	00000017          	auipc	zero,0x0
80003ecc:	0009                	c.nop	2
80003ece:	0000                	unimp
80003ed0:	001d                	c.nop	7
80003ed2:	0000                	unimp
80003ed4:	0032                	c.slli	zero,0xc
80003ed6:	0000                	unimp
80003ed8:	0000005b          	.4byte	0x5b
80003edc:	001d                	c.nop	7
80003ede:	0000                	unimp
80003ee0:	0011                	c.nop	4
80003ee2:	0000                	unimp
80003ee4:	004c                	addi	a1,sp,4
80003ee6:	0000                	unimp
80003ee8:	0018                	.2byte	0x18
80003eea:	0000                	unimp
80003eec:	000e                	c.slli	zero,0x3
80003eee:	0000                	unimp
80003ef0:	0014                	.2byte	0x14
80003ef2:	0000                	unimp
80003ef4:	00000047          	fmsub.s	ft0,ft0,ft0,ft0,rne
80003ef8:	00000063          	beqz	zero,80003ef8 <data+0x1050>
80003efc:	00000013          	nop
80003f00:	004a                	c.slli	zero,0x12
80003f02:	0000                	unimp
80003f04:	0004                	.2byte	0x4
80003f06:	0000                	unimp
80003f08:	0014                	.2byte	0x14
80003f0a:	0000                	unimp
80003f0c:	0002                	c.slli64	zero
80003f0e:	0000                	unimp
80003f10:	0000001b          	.4byte	0x1b
80003f14:	00000063          	beqz	zero,80003f14 <data+0x106c>
80003f18:	00000027          	.4byte	0x27
80003f1c:	002e                	c.slli	zero,0xb
80003f1e:	0000                	unimp
80003f20:	0050                	addi	a2,sp,4
80003f22:	0000                	unimp
80003f24:	0061                	c.nop	24
80003f26:	0000                	unimp
80003f28:	0000000b          	fir_coeff_st	zero,zero,zero
80003f2c:	0010                	.2byte	0x10
80003f2e:	0000                	unimp
80003f30:	0008                	.2byte	0x8
80003f32:	0000                	unimp
80003f34:	0028                	addi	a0,sp,8
80003f36:	0000                	unimp
80003f38:	0011                	c.nop	4
80003f3a:	0000                	unimp
80003f3c:	0015                	c.nop	5
80003f3e:	0000                	unimp
80003f40:	0018                	.2byte	0x18
80003f42:	0000                	unimp
80003f44:	00000027          	.4byte	0x27
80003f48:	001e                	c.slli	zero,0x7
80003f4a:	0000                	unimp
80003f4c:	0034                	addi	a3,sp,8
80003f4e:	0000                	unimp
80003f50:	0029                	c.nop	10
80003f52:	0000                	unimp
80003f54:	0048                	addi	a0,sp,4
80003f56:	0000                	unimp
80003f58:	0021                	c.nop	8
80003f5a:	0000                	unimp
80003f5c:	0039                	c.nop	14
80003f5e:	0000                	unimp
80003f60:	00000063          	beqz	zero,80003f60 <data+0x10b8>
80003f64:	0038                	addi	a4,sp,8
80003f66:	0000                	unimp
80003f68:	0016                	c.slli	zero,0x5
80003f6a:	0000                	unimp
80003f6c:	00000013          	nop
80003f70:	004e                	c.slli	zero,0x13
80003f72:	0000                	unimp
80003f74:	0048                	addi	a0,sp,4
80003f76:	0000                	unimp
80003f78:	0059                	c.nop	22
80003f7a:	0000                	unimp
80003f7c:	00000003          	lb	zero,0(zero) # 0 <threadsense.5>
80003f80:	004c                	addi	a1,sp,4
80003f82:	0000                	unimp
80003f84:	0009                	c.nop	2
80003f86:	0000                	unimp
80003f88:	0004                	.2byte	0x4
80003f8a:	0000                	unimp
80003f8c:	0002                	c.slli64	zero
80003f8e:	0000                	unimp
80003f90:	0000003b          	fir_exec	zero
80003f94:	005f 0000 0063      	.byte	0x5f, 0x00, 0x00, 0x00, 0x63, 0x00
80003f9a:	0000                	unimp
80003f9c:	005a                	c.slli	zero,0x16
80003f9e:	0000                	unimp
80003fa0:	0000005b          	.4byte	0x5b
80003fa4:	000a                	c.slli	zero,0x2
80003fa6:	0000                	unimp
80003fa8:	0039                	c.nop	14
80003faa:	0000                	unimp
80003fac:	0032                	c.slli	zero,0xc
80003fae:	0000                	unimp
80003fb0:	0031                	c.nop	12
80003fb2:	0000                	unimp
80003fb4:	001a                	c.slli	zero,0x6
80003fb6:	0000                	unimp
80003fb8:	00000017          	auipc	zero,0x0
80003fbc:	0048                	addi	a0,sp,4
80003fbe:	0000                	unimp
80003fc0:	0010                	.2byte	0x10
80003fc2:	0000                	unimp
80003fc4:	0004                	.2byte	0x4
80003fc6:	0000                	unimp
80003fc8:	004c                	addi	a1,sp,4
80003fca:	0000                	unimp
80003fcc:	0038                	addi	a4,sp,8
80003fce:	0000                	unimp
80003fd0:	0000004b          	fnmsub.s	ft0,ft0,ft0,ft0,rne
80003fd4:	003c                	addi	a5,sp,8
80003fd6:	0000                	unimp
80003fd8:	000c                	.2byte	0xc
80003fda:	0000                	unimp
80003fdc:	0049                	c.nop	18
80003fde:	0000                	unimp
80003fe0:	00000043          	fmadd.s	ft0,ft0,ft0,ft0,rne
80003fe4:	0021                	c.nop	8
80003fe6:	0000                	unimp
80003fe8:	0000002b          	fir_data_st	zero,zero
80003fec:	002c                	addi	a1,sp,8
80003fee:	0000                	unimp
80003ff0:	0005                	c.nop	1
80003ff2:	0000                	unimp
80003ff4:	0020                	addi	s0,sp,8
80003ff6:	0000                	unimp
80003ff8:	00000063          	beqz	zero,80003ff8 <data+0x1150>
80003ffc:	0050                	addi	a2,sp,4
80003ffe:	0000                	unimp
80004000:	005c                	addi	a5,sp,4
80004002:	0000                	unimp
80004004:	0036                	c.slli	zero,0xd
80004006:	0000                	unimp
80004008:	0021                	c.nop	8
8000400a:	0000                	unimp
8000400c:	0002                	c.slli64	zero
8000400e:	0000                	unimp
80004010:	0030                	addi	a2,sp,8
80004012:	0000                	unimp
80004014:	0054                	addi	a3,sp,4
80004016:	0000                	unimp
80004018:	0000005b          	.4byte	0x5b
8000401c:	0000005b          	.4byte	0x5b
80004020:	005d                	c.nop	23
80004022:	0000                	unimp
80004024:	0000002f          	.4byte	0x2f
80004028:	005c                	addi	a5,sp,4
8000402a:	0000                	unimp
8000402c:	005d                	c.nop	23
8000402e:	0000                	unimp
80004030:	0048                	addi	a0,sp,4
80004032:	0000                	unimp
80004034:	000e                	c.slli	zero,0x3
80004036:	0000                	unimp
80004038:	0041                	c.nop	16
8000403a:	0000                	unimp
8000403c:	0058                	addi	a4,sp,4
8000403e:	0000                	unimp
80004040:	0011                	c.nop	4
80004042:	0000                	unimp
80004044:	005c                	addi	a5,sp,4
80004046:	0000                	unimp
80004048:	005f 0000 002b      	.byte	0x5f, 0x00, 0x00, 0x00, 0x2b, 0x00
8000404e:	0000                	unimp
80004050:	00000033          	add	zero,zero,zero
80004054:	00000007          	.4byte	0x7
80004058:	0044                	addi	s1,sp,4
8000405a:	0000                	unimp
8000405c:	0011                	c.nop	4
8000405e:	0000                	unimp
80004060:	0000005b          	.4byte	0x5b
80004064:	000a                	c.slli	zero,0x2
80004066:	0000                	unimp
80004068:	000c                	.2byte	0xc
8000406a:	0000                	unimp
8000406c:	0000002f          	.4byte	0x2f
80004070:	005d                	c.nop	23
80004072:	0000                	unimp
80004074:	003e                	c.slli	zero,0xf
80004076:	0000                	unimp
80004078:	004e                	c.slli	zero,0x13
8000407a:	0000                	unimp
8000407c:	0054                	addi	a3,sp,4
8000407e:	0000                	unimp
80004080:	0010                	.2byte	0x10
80004082:	0000                	unimp
80004084:	0000000b          	fir_coeff_st	zero,zero,zero
80004088:	0025                	c.nop	9
8000408a:	0000                	unimp
8000408c:	0000000f          	fence	unknown,unknown
80004090:	005e                	c.slli	zero,0x17
80004092:	0000                	unimp
80004094:	0000001b          	.4byte	0x1b
80004098:	0039                	c.nop	14
8000409a:	0000                	unimp
8000409c:	0026                	c.slli	zero,0x9
8000409e:	0000                	unimp
800040a0:	001a                	c.slli	zero,0x6
800040a2:	0000                	unimp
800040a4:	0031                	c.nop	12
800040a6:	0000                	unimp
800040a8:	001e                	c.slli	zero,0x7
800040aa:	0000                	unimp
800040ac:	0031                	c.nop	12
800040ae:	0000                	unimp
800040b0:	003e                	c.slli	zero,0xf
800040b2:	0000                	unimp
800040b4:	002e                	c.slli	zero,0xb
800040b6:	0000                	unimp
800040b8:	0058                	addi	a4,sp,4
800040ba:	0000                	unimp
800040bc:	0000004f          	fnmadd.s	ft0,ft0,ft0,ft0,rne
800040c0:	0059                	c.nop	22
800040c2:	0000                	unimp
800040c4:	00000053          	fadd.s	ft0,ft0,ft0,rne
800040c8:	0015                	c.nop	5
800040ca:	0000                	unimp
800040cc:	00000027          	.4byte	0x27
800040d0:	0029                	c.nop	10
800040d2:	0000                	unimp
800040d4:	0028                	addi	a0,sp,8
800040d6:	0000                	unimp
800040d8:	00000007          	.4byte	0x7
800040dc:	001f 0000 0032      	.byte	0x1f, 0x00, 0x00, 0x00, 0x32, 0x00
800040e2:	0000                	unimp
800040e4:	00000047          	fmsub.s	ft0,ft0,ft0,ft0,rne
800040e8:	001e                	c.slli	zero,0x7
800040ea:	0000                	unimp
800040ec:	005e                	c.slli	zero,0x17
800040ee:	0000                	unimp
800040f0:	0020                	addi	s0,sp,8
800040f2:	0000                	unimp
800040f4:	00000007          	.4byte	0x7
800040f8:	001e                	c.slli	zero,0x7
800040fa:	0000                	unimp
800040fc:	00000063          	beqz	zero,800040fc <data+0x1254>
80004100:	0045                	c.nop	17
80004102:	0000                	unimp
80004104:	0042                	c.slli	zero,0x10
80004106:	0000                	unimp
80004108:	0042                	c.slli	zero,0x10
8000410a:	0000                	unimp
8000410c:	000e                	c.slli	zero,0x3
8000410e:	0000                	unimp
80004110:	002d                	c.nop	11
80004112:	0000                	unimp
80004114:	0016                	c.slli	zero,0x5
80004116:	0000                	unimp
80004118:	00000003          	lb	zero,0(zero) # 0 <threadsense.5>
8000411c:	0016                	c.slli	zero,0x5
8000411e:	0000                	unimp
80004120:	0046                	c.slli	zero,0x11
80004122:	0000                	unimp
80004124:	0021                	c.nop	8
80004126:	0000                	unimp
80004128:	0046                	c.slli	zero,0x11
8000412a:	0000                	unimp
8000412c:	0020                	addi	s0,sp,8
8000412e:	0000                	unimp
80004130:	001e                	c.slli	zero,0x7
80004132:	0000                	unimp
80004134:	000a                	c.slli	zero,0x2
80004136:	0000                	unimp
80004138:	003e                	c.slli	zero,0xf
8000413a:	0000                	unimp
8000413c:	00000013          	nop
80004140:	002c                	addi	a1,sp,8
80004142:	0000                	unimp
80004144:	0022                	c.slli	zero,0x8
80004146:	0000                	unimp
80004148:	0009                	c.nop	2
8000414a:	0000                	unimp
8000414c:	0054                	addi	a3,sp,4
8000414e:	0000                	unimp
80004150:	004a                	c.slli	zero,0x12
80004152:	0000                	unimp
80004154:	0010                	.2byte	0x10
80004156:	0000                	unimp
80004158:	0042                	c.slli	zero,0x10
8000415a:	0000                	unimp
8000415c:	0000004b          	fnmsub.s	ft0,ft0,ft0,ft0,rne
80004160:	0026                	c.slli	zero,0x9
80004162:	0000                	unimp
80004164:	005f 0000 0044      	.byte	0x5f, 0x00, 0x00, 0x00, 0x44, 0x00
8000416a:	0000                	unimp
8000416c:	0015                	c.nop	5
8000416e:	0000                	unimp
80004170:	0002                	c.slli64	zero
80004172:	0000                	unimp
80004174:	0061                	c.nop	24
80004176:	0000                	unimp
80004178:	0014                	.2byte	0x14
8000417a:	0000                	unimp
8000417c:	0016                	c.slli	zero,0x5
8000417e:	0000                	unimp
80004180:	0000000f          	fence	unknown,unknown
80004184:	0055                	c.nop	21
80004186:	0000                	unimp
80004188:	0024                	addi	s1,sp,8
8000418a:	0000                	unimp
8000418c:	0000003b          	fir_exec	zero
80004190:	003a                	c.slli	zero,0xe
80004192:	0000                	unimp
80004194:	0026                	c.slli	zero,0x9
80004196:	0000                	unimp
80004198:	0050                	addi	a2,sp,4
8000419a:	0000                	unimp
8000419c:	001c                	.2byte	0x1c
8000419e:	0000                	unimp
800041a0:	0016                	c.slli	zero,0x5
800041a2:	0000                	unimp
800041a4:	0001                	nop
800041a6:	0000                	unimp
800041a8:	0000003b          	fir_exec	zero
800041ac:	0034                	addi	a3,sp,8
800041ae:	0000                	unimp
800041b0:	003e                	c.slli	zero,0xf
800041b2:	0000                	unimp
800041b4:	0014                	.2byte	0x14
800041b6:	0000                	unimp
800041b8:	0016                	c.slli	zero,0x5
800041ba:	0000                	unimp
800041bc:	0005                	c.nop	1
800041be:	0000                	unimp
800041c0:	0035                	c.nop	13
800041c2:	0000                	unimp
800041c4:	001e                	c.slli	zero,0x7
800041c6:	0000                	unimp
800041c8:	0058                	addi	a4,sp,4
800041ca:	0000                	unimp
800041cc:	004e                	c.slli	zero,0x13
800041ce:	0000                	unimp
800041d0:	0061                	c.nop	24
800041d2:	0000                	unimp
800041d4:	0006                	c.slli	zero,0x1
800041d6:	0000                	unimp
800041d8:	0034                	addi	a3,sp,8
800041da:	0000                	unimp
800041dc:	0022                	c.slli	zero,0x8
800041de:	0000                	unimp
800041e0:	0064                	addi	s1,sp,12
800041e2:	0000                	unimp
800041e4:	0014                	.2byte	0x14
800041e6:	0000                	unimp
800041e8:	00000037          	lui	zero,0x0
800041ec:	0035                	c.nop	13
800041ee:	0000                	unimp
800041f0:	0044                	addi	s1,sp,4
800041f2:	0000                	unimp
800041f4:	001a                	c.slli	zero,0x6
800041f6:	0000                	unimp
800041f8:	0000004b          	fnmsub.s	ft0,ft0,ft0,ft0,rne
800041fc:	0052                	c.slli	zero,0x14
800041fe:	0000                	unimp
80004200:	003e                	c.slli	zero,0xf
80004202:	0000                	unimp
80004204:	003e                	c.slli	zero,0xf
80004206:	0000                	unimp
80004208:	005c                	addi	a5,sp,4
8000420a:	0000                	unimp
8000420c:	00000013          	nop
80004210:	00000033          	add	zero,zero,zero
80004214:	00000017          	auipc	zero,0x0
80004218:	002e                	c.slli	zero,0xb
8000421a:	0000                	unimp
8000421c:	0049                	c.nop	18
8000421e:	0000                	unimp
80004220:	0018                	.2byte	0x18
80004222:	0000                	unimp
80004224:	0038                	addi	a4,sp,8
80004226:	0000                	unimp
80004228:	004c                	addi	a1,sp,4
8000422a:	0000                	unimp
8000422c:	0025                	c.nop	9
8000422e:	0000                	unimp
80004230:	0000001b          	.4byte	0x1b
80004234:	0031                	c.nop	12
80004236:	0000                	unimp
80004238:	002a                	c.slli	zero,0xa
8000423a:	0000                	unimp
8000423c:	0020                	addi	s0,sp,8
8000423e:	0000                	unimp
80004240:	001e                	c.slli	zero,0x7
80004242:	0000                	unimp
80004244:	0051                	c.nop	20
80004246:	0000                	unimp
80004248:	0009                	c.nop	2
8000424a:	0000                	unimp
8000424c:	0000001b          	.4byte	0x1b
80004250:	0056                	c.slli	zero,0x15
80004252:	0000                	unimp
80004254:	003d                	c.nop	15
80004256:	0000                	unimp
80004258:	000c                	.2byte	0xc
8000425a:	0000                	unimp
8000425c:	0056                	c.slli	zero,0x15
8000425e:	0000                	unimp
80004260:	0020                	addi	s0,sp,8
80004262:	0000                	unimp
80004264:	0042                	c.slli	zero,0x10
80004266:	0000                	unimp
80004268:	005a                	c.slli	zero,0x16
8000426a:	0000                	unimp
8000426c:	00000033          	add	zero,zero,zero
80004270:	0000002b          	fir_data_st	zero,zero
80004274:	0010                	.2byte	0x10
80004276:	0000                	unimp
80004278:	0055                	c.nop	21
8000427a:	0000                	unimp
8000427c:	0004                	.2byte	0x4
8000427e:	0000                	unimp
80004280:	004d                	c.nop	19
80004282:	0000                	unimp
80004284:	004c                	addi	a1,sp,4
80004286:	0000                	unimp
80004288:	00000017          	auipc	zero,0x0
8000428c:	0050                	addi	a2,sp,4
8000428e:	0000                	unimp
80004290:	00000033          	add	zero,zero,zero
80004294:	0044                	addi	s1,sp,4
80004296:	0000                	unimp
80004298:	0004                	.2byte	0x4
8000429a:	0000                	unimp
8000429c:	004a                	c.slli	zero,0x12
8000429e:	0000                	unimp
800042a0:	0018                	.2byte	0x18
800042a2:	0000                	unimp
800042a4:	001f 0000 000a      	.byte	0x1f, 0x00, 0x00, 0x00, 0x0a, 0x00
800042aa:	0000                	unimp
800042ac:	0002                	c.slli64	zero
800042ae:	0000                	unimp
800042b0:	0000004f          	fnmadd.s	ft0,ft0,ft0,ft0,rne
800042b4:	00000003          	lb	zero,0(zero) # 0 <threadsense.5>
800042b8:	0021                	c.nop	8
800042ba:	0000                	unimp
800042bc:	0008                	.2byte	0x8
800042be:	0000                	unimp
800042c0:	0054                	addi	a3,sp,4
800042c2:	0000                	unimp
800042c4:	002a                	c.slli	zero,0xa
800042c6:	0000                	unimp
800042c8:	0056                	c.slli	zero,0x15
800042ca:	0000                	unimp
800042cc:	0045                	c.nop	17
800042ce:	0000                	unimp
800042d0:	0036                	c.slli	zero,0xd
800042d2:	0000                	unimp
800042d4:	0062                	c.slli	zero,0x18
800042d6:	0000                	unimp
800042d8:	0006                	c.slli	zero,0x1
800042da:	0000                	unimp
800042dc:	0055                	c.nop	21
800042de:	0000                	unimp
800042e0:	0000000f          	fence	unknown,unknown
800042e4:	0060                	addi	s0,sp,12
800042e6:	0000                	unimp
800042e8:	00000023          	sb	zero,0(zero) # 0 <threadsense.5>
800042ec:	003a                	c.slli	zero,0xe
800042ee:	0000                	unimp
800042f0:	0000000b          	fir_coeff_st	zero,zero,zero
800042f4:	00000013          	nop
800042f8:	003d                	c.nop	15
800042fa:	0000                	unimp
800042fc:	0028                	addi	a0,sp,8
800042fe:	0000                	unimp
80004300:	0000002f          	.4byte	0x2f
80004304:	00000053          	fadd.s	ft0,ft0,ft0,rne
80004308:	00000013          	nop
8000430c:	0061                	c.nop	24
8000430e:	0000                	unimp
80004310:	00000003          	lb	zero,0(zero) # 0 <threadsense.5>
80004314:	0016                	c.slli	zero,0x5
80004316:	0000                	unimp
80004318:	0016                	c.slli	zero,0x5
8000431a:	0000                	unimp
8000431c:	004e                	c.slli	zero,0x13
8000431e:	0000                	unimp
80004320:	0034                	addi	a3,sp,8
80004322:	0000                	unimp
80004324:	00000053          	fadd.s	ft0,ft0,ft0,rne
80004328:	0000004f          	fnmadd.s	ft0,ft0,ft0,ft0,rne
8000432c:	0052                	c.slli	zero,0x14
8000432e:	0000                	unimp
80004330:	0056                	c.slli	zero,0x15
80004332:	0000                	unimp
80004334:	000c                	.2byte	0xc
80004336:	0000                	unimp
80004338:	0059                	c.nop	22
8000433a:	0000                	unimp
8000433c:	0015                	c.nop	5
8000433e:	0000                	unimp
80004340:	0005                	c.nop	1
80004342:	0000                	unimp
80004344:	0000001b          	.4byte	0x1b
80004348:	0059                	c.nop	22
8000434a:	0000                	unimp
8000434c:	003a                	c.slli	zero,0xe
8000434e:	0000                	unimp
80004350:	0018                	.2byte	0x18
80004352:	0000                	unimp
80004354:	0000002f          	.4byte	0x2f
80004358:	005e                	c.slli	zero,0x17
8000435a:	0000                	unimp
8000435c:	0026                	c.slli	zero,0x9
8000435e:	0000                	unimp
80004360:	002a                	c.slli	zero,0xa
80004362:	0000                	unimp
80004364:	0050                	addi	a2,sp,4
80004366:	0000                	unimp
80004368:	005f 0000 0004      	.byte	0x5f, 0x00, 0x00, 0x00, 0x04, 0x00
8000436e:	0000                	unimp
80004370:	00000033          	add	zero,zero,zero
80004374:	0008                	.2byte	0x8
80004376:	0000                	unimp
80004378:	0000002b          	fir_data_st	zero,zero
8000437c:	0061                	c.nop	24
8000437e:	0000                	unimp
80004380:	005a                	c.slli	zero,0x16
80004382:	0000                	unimp
80004384:	000d                	c.nop	3
80004386:	0000                	unimp
80004388:	002d                	c.nop	11
8000438a:	0000                	unimp
8000438c:	002c                	addi	a1,sp,8
8000438e:	0000                	unimp
80004390:	0022                	c.slli	zero,0x8
80004392:	0000                	unimp
80004394:	0012                	c.slli	zero,0x4
80004396:	0000                	unimp
80004398:	0015                	c.nop	5
8000439a:	0000                	unimp
8000439c:	0025                	c.nop	9
8000439e:	0000                	unimp
800043a0:	0064                	addi	s1,sp,12
800043a2:	0000                	unimp
800043a4:	0034                	addi	a3,sp,8
800043a6:	0000                	unimp
800043a8:	0012                	c.slli	zero,0x4
800043aa:	0000                	unimp
800043ac:	0025                	c.nop	9
800043ae:	0000                	unimp
800043b0:	0000000f          	fence	unknown,unknown
800043b4:	0000003b          	fir_exec	zero
800043b8:	0009                	c.nop	2
800043ba:	0000                	unimp
800043bc:	00000013          	nop
800043c0:	0055                	c.nop	21
800043c2:	0000                	unimp
800043c4:	0062                	c.slli	zero,0x18
800043c6:	0000                	unimp
800043c8:	001c                	.2byte	0x1c
800043ca:	0000                	unimp
800043cc:	003c                	addi	a5,sp,8
800043ce:	0000                	unimp
800043d0:	0060                	addi	s0,sp,12
800043d2:	0000                	unimp
800043d4:	0015                	c.nop	5
800043d6:	0000                	unimp
800043d8:	0061                	c.nop	24
800043da:	0000                	unimp
800043dc:	0025                	c.nop	9
800043de:	0000                	unimp
800043e0:	0064                	addi	s1,sp,12
800043e2:	0000                	unimp
800043e4:	002c                	addi	a1,sp,8
800043e6:	0000                	unimp
800043e8:	0028                	addi	a0,sp,8
800043ea:	0000                	unimp
800043ec:	0002                	c.slli64	zero
800043ee:	0000                	unimp
800043f0:	00000003          	lb	zero,0(zero) # 0 <threadsense.5>
800043f4:	00000023          	sb	zero,0(zero) # 0 <threadsense.5>
800043f8:	0062                	c.slli	zero,0x18
800043fa:	0000                	unimp
800043fc:	002c                	addi	a1,sp,8
800043fe:	0000                	unimp
80004400:	0000002f          	.4byte	0x2f
80004404:	005e                	c.slli	zero,0x17
80004406:	0000                	unimp
80004408:	0058                	addi	a4,sp,4
8000440a:	0000                	unimp
8000440c:	0021                	c.nop	8
8000440e:	0000                	unimp
80004410:	0000000b          	fir_coeff_st	zero,zero,zero
80004414:	003c                	addi	a5,sp,8
80004416:	0000                	unimp
80004418:	0045                	c.nop	17
8000441a:	0000                	unimp
8000441c:	0000003f 0000000b 	.8byte	0xb0000003f
80004424:	00000027          	.4byte	0x27
80004428:	00000033          	add	zero,zero,zero
8000442c:	004d                	c.nop	19
8000442e:	0000                	unimp
80004430:	0061                	c.nop	24
80004432:	0000                	unimp
80004434:	003c                	addi	a5,sp,8
80004436:	0000                	unimp
80004438:	005f 0000 0021      	.byte	0x5f, 0x00, 0x00, 0x00, 0x21, 0x00
8000443e:	0000                	unimp
80004440:	0009                	c.nop	2
80004442:	0000                	unimp
80004444:	004a                	c.slli	zero,0x12
80004446:	0000                	unimp
80004448:	005c                	addi	a5,sp,4
8000444a:	0000                	unimp
8000444c:	0004                	.2byte	0x4
8000444e:	0000                	unimp
80004450:	005e                	c.slli	zero,0x17
80004452:	0000                	unimp
80004454:	0028                	addi	a0,sp,8
80004456:	0000                	unimp
80004458:	005c                	addi	a5,sp,4
8000445a:	0000                	unimp
8000445c:	002e                	c.slli	zero,0xb
8000445e:	0000                	unimp
80004460:	00000023          	sb	zero,0(zero) # 0 <threadsense.5>
80004464:	00000053          	fadd.s	ft0,ft0,ft0,rne
80004468:	00000063          	beqz	zero,80004468 <data+0x15c0>
8000446c:	0025                	c.nop	9
8000446e:	0000                	unimp
80004470:	0011                	c.nop	4
80004472:	0000                	unimp
80004474:	0061                	c.nop	24
80004476:	0000                	unimp
80004478:	0051                	c.nop	20
8000447a:	0000                	unimp
8000447c:	0010                	.2byte	0x10
8000447e:	0000                	unimp
80004480:	002a                	c.slli	zero,0xa
80004482:	0000                	unimp
80004484:	0014                	.2byte	0x14
80004486:	0000                	unimp
80004488:	0030                	addi	a2,sp,8
8000448a:	0000                	unimp
8000448c:	0005                	c.nop	1
8000448e:	0000                	unimp
80004490:	0000004f          	fnmadd.s	ft0,ft0,ft0,ft0,rne
80004494:	0010                	.2byte	0x10
80004496:	0000                	unimp
80004498:	00000043          	fmadd.s	ft0,ft0,ft0,ft0,rne
8000449c:	002a                	c.slli	zero,0xa
8000449e:	0000                	unimp
800044a0:	0006                	c.slli	zero,0x1
800044a2:	0000                	unimp
800044a4:	0045                	c.nop	17
800044a6:	0000                	unimp
800044a8:	0012                	c.slli	zero,0x4
800044aa:	0000                	unimp
800044ac:	0002                	c.slli64	zero
800044ae:	0000                	unimp
800044b0:	001c                	.2byte	0x1c
800044b2:	0000                	unimp
800044b4:	0041                	c.nop	16
800044b6:	0000                	unimp
800044b8:	0022                	c.slli	zero,0x8
800044ba:	0000                	unimp
800044bc:	0024                	addi	s1,sp,8
800044be:	0000                	unimp
800044c0:	0026                	c.slli	zero,0x9
800044c2:	0000                	unimp
800044c4:	0019                	c.nop	6
800044c6:	0000                	unimp
800044c8:	0000005b          	.4byte	0x5b
800044cc:	0054                	addi	a3,sp,4
800044ce:	0000                	unimp
800044d0:	0011                	c.nop	4
800044d2:	0000                	unimp
800044d4:	0052                	c.slli	zero,0x14
800044d6:	0000                	unimp
800044d8:	0051                	c.nop	20
800044da:	0000                	unimp
800044dc:	00000033          	add	zero,zero,zero
800044e0:	0041                	c.nop	16
800044e2:	0000                	unimp
800044e4:	0000004f          	fnmadd.s	ft0,ft0,ft0,ft0,rne
800044e8:	0058                	addi	a4,sp,4
800044ea:	0000                	unimp
800044ec:	0021                	c.nop	8
800044ee:	0000                	unimp
800044f0:	0000001b          	.4byte	0x1b
800044f4:	0014                	.2byte	0x14
800044f6:	0000                	unimp
800044f8:	0030                	addi	a2,sp,8
800044fa:	0000                	unimp
800044fc:	0045                	c.nop	17
800044fe:	0000                	unimp
80004500:	00000027          	.4byte	0x27
80004504:	005f 0000 0049      	.byte	0x5f, 0x00, 0x00, 0x00, 0x49, 0x00
8000450a:	0000                	unimp
8000450c:	0011                	c.nop	4
8000450e:	0000                	unimp
80004510:	0000003f 0000005b 	.8byte	0x5b0000003f
80004518:	000a                	c.slli	zero,0x2
8000451a:	0000                	unimp
8000451c:	0044                	addi	s1,sp,4
8000451e:	0000                	unimp
80004520:	0000003b          	fir_exec	zero
80004524:	001c                	.2byte	0x1c
80004526:	0000                	unimp
80004528:	0016                	c.slli	zero,0x5
8000452a:	0000                	unimp
8000452c:	00000057          	.4byte	0x57
80004530:	005c                	addi	a5,sp,4
80004532:	0000                	unimp
80004534:	00000037          	lui	zero,0x0
80004538:	004a                	c.slli	zero,0x12
8000453a:	0000                	unimp
8000453c:	0051                	c.nop	20
8000453e:	0000                	unimp
80004540:	0020                	addi	s0,sp,8
80004542:	0000                	unimp
80004544:	0041                	c.nop	16
80004546:	0000                	unimp
80004548:	0040                	addi	s0,sp,4
8000454a:	0000                	unimp
8000454c:	0064                	addi	s1,sp,12
8000454e:	0000                	unimp
80004550:	0062                	c.slli	zero,0x18
80004552:	0000                	unimp
80004554:	002c                	addi	a1,sp,8
80004556:	0000                	unimp
80004558:	0032                	c.slli	zero,0xc
8000455a:	0000                	unimp
8000455c:	003e                	c.slli	zero,0xf
8000455e:	0000                	unimp
80004560:	00000017          	auipc	zero,0x0
80004564:	0059                	c.nop	22
80004566:	0000                	unimp
80004568:	0000002f          	.4byte	0x2f
8000456c:	0031                	c.nop	12
8000456e:	0000                	unimp
80004570:	0008                	.2byte	0x8
80004572:	0000                	unimp
80004574:	005e                	c.slli	zero,0x17
80004576:	0000                	unimp
80004578:	0045                	c.nop	17
8000457a:	0000                	unimp
8000457c:	002e                	c.slli	zero,0xb
8000457e:	0000                	unimp
80004580:	0029                	c.nop	10
80004582:	0000                	unimp
80004584:	0029                	c.nop	10
80004586:	0000                	unimp
80004588:	0000000f          	fence	unknown,unknown
8000458c:	00000037          	lui	zero,0x0
80004590:	001f 0000 004c      	.byte	0x1f, 0x00, 0x00, 0x00, 0x4c, 0x00
80004596:	0000                	unimp
80004598:	004a                	c.slli	zero,0x12
8000459a:	0000                	unimp
8000459c:	002a                	c.slli	zero,0xa
8000459e:	0000                	unimp
800045a0:	00000003          	lb	zero,0(zero) # 0 <threadsense.5>
800045a4:	005f 0000 001c      	.byte	0x5f, 0x00, 0x00, 0x00, 0x1c, 0x00
800045aa:	0000                	unimp
800045ac:	002e                	c.slli	zero,0xb
800045ae:	0000                	unimp
800045b0:	0002                	c.slli64	zero
800045b2:	0000                	unimp
800045b4:	0035                	c.nop	13
800045b6:	0000                	unimp
800045b8:	0000001b          	.4byte	0x1b
800045bc:	0055                	c.nop	21
800045be:	0000                	unimp
800045c0:	0045                	c.nop	17
800045c2:	0000                	unimp
800045c4:	002a                	c.slli	zero,0xa
800045c6:	0000                	unimp
800045c8:	0054                	addi	a3,sp,4
800045ca:	0000                	unimp
800045cc:	00000043          	fmadd.s	ft0,ft0,ft0,ft0,rne
800045d0:	0056                	c.slli	zero,0x15
800045d2:	0000                	unimp
800045d4:	0021                	c.nop	8
800045d6:	0000                	unimp
800045d8:	0050                	addi	a2,sp,4
800045da:	0000                	unimp
800045dc:	003c                	addi	a5,sp,8
800045de:	0000                	unimp
800045e0:	0016                	c.slli	zero,0x5
800045e2:	0000                	unimp
800045e4:	001a                	c.slli	zero,0x6
800045e6:	0000                	unimp
800045e8:	003c                	addi	a5,sp,8
800045ea:	0000                	unimp
800045ec:	0051                	c.nop	20
800045ee:	0000                	unimp
800045f0:	0048                	addi	a0,sp,4
800045f2:	0000                	unimp
800045f4:	001d                	c.nop	7
800045f6:	0000                	unimp
800045f8:	0000001b          	.4byte	0x1b
800045fc:	0040                	addi	s0,sp,4
800045fe:	0000                	unimp
80004600:	0045                	c.nop	17
80004602:	0000                	unimp
80004604:	005d                	c.nop	23
80004606:	0000                	unimp
80004608:	0012                	c.slli	zero,0x4
8000460a:	0000                	unimp
8000460c:	0034                	addi	a3,sp,8
8000460e:	0000                	unimp
80004610:	0044                	addi	s1,sp,4
80004612:	0000                	unimp
80004614:	0000005b          	.4byte	0x5b
80004618:	005d                	c.nop	23
8000461a:	0000                	unimp
8000461c:	00000017          	auipc	zero,0x0
80004620:	0056                	c.slli	zero,0x15
80004622:	0000                	unimp
80004624:	0048                	addi	a0,sp,4
80004626:	0000                	unimp
80004628:	0044                	addi	s1,sp,4
8000462a:	0000                	unimp
8000462c:	00000027          	.4byte	0x27
80004630:	004c                	addi	a1,sp,4
80004632:	0000                	unimp
80004634:	002e                	c.slli	zero,0xb
80004636:	0000                	unimp
80004638:	00000017          	auipc	zero,0x0
8000463c:	002d                	c.nop	11
8000463e:	0000                	unimp
80004640:	0058                	addi	a4,sp,4
80004642:	0000                	unimp
80004644:	003a                	c.slli	zero,0xe
80004646:	0000                	unimp
80004648:	0000003f 00000019 	.8byte	0x190000003f
80004650:	005a                	c.slli	zero,0x16
80004652:	0000                	unimp
80004654:	005e                	c.slli	zero,0x17
80004656:	0000                	unimp
80004658:	0054                	addi	a3,sp,4
8000465a:	0000                	unimp
8000465c:	0000003f 00000014 	.8byte	0x140000003f
80004664:	0000002b          	fir_data_st	zero,zero
80004668:	002c                	addi	a1,sp,8
8000466a:	0000                	unimp
8000466c:	0000002b          	fir_data_st	zero,zero
80004670:	00000047          	fmsub.s	ft0,ft0,ft0,ft0,rne
80004674:	0016                	c.slli	zero,0x5
80004676:	0000                	unimp
80004678:	0006                	c.slli	zero,0x1
8000467a:	0000                	unimp
8000467c:	005c                	addi	a5,sp,4
8000467e:	0000                	unimp
80004680:	000e                	c.slli	zero,0x3
80004682:	0000                	unimp
80004684:	00000017          	auipc	zero,0x0
80004688:	005f 0000 0021      	.byte	0x5f, 0x00, 0x00, 0x00, 0x21, 0x00
8000468e:	0000                	unimp
80004690:	0041                	c.nop	16
80004692:	0000                	unimp
80004694:	00000027          	.4byte	0x27
80004698:	00000037          	lui	zero,0x0
8000469c:	0002                	c.slli64	zero
8000469e:	0000                	unimp
800046a0:	003e                	c.slli	zero,0xf
800046a2:	0000                	unimp
800046a4:	0000004b          	fnmsub.s	ft0,ft0,ft0,ft0,rne
800046a8:	0028                	addi	a0,sp,8
800046aa:	0000                	unimp
800046ac:	0025                	c.nop	9
800046ae:	0000                	unimp
800046b0:	0014                	.2byte	0x14
800046b2:	0000                	unimp
800046b4:	000e                	c.slli	zero,0x3
800046b6:	0000                	unimp
800046b8:	0051                	c.nop	20
800046ba:	0000                	unimp
800046bc:	0000003b          	fir_exec	zero
800046c0:	00000047          	fmsub.s	ft0,ft0,ft0,ft0,rne
800046c4:	0000002b          	fir_data_st	zero,zero
800046c8:	00000053          	fadd.s	ft0,ft0,ft0,rne
800046cc:	000d                	c.nop	3
800046ce:	0000                	unimp
800046d0:	0025                	c.nop	9
800046d2:	0000                	unimp
800046d4:	0012                	c.slli	zero,0x4
800046d6:	0000                	unimp
800046d8:	0000004b          	fnmsub.s	ft0,ft0,ft0,ft0,rne
800046dc:	0008                	.2byte	0x8
800046de:	0000                	unimp
800046e0:	000d                	c.nop	3
800046e2:	0000                	unimp
800046e4:	0046                	c.slli	zero,0x11
800046e6:	0000                	unimp
800046e8:	0002                	c.slli64	zero
800046ea:	0000                	unimp
800046ec:	00000053          	fadd.s	ft0,ft0,ft0,rne
800046f0:	0000005b          	.4byte	0x5b
800046f4:	0000003b          	fir_exec	zero
800046f8:	001a                	c.slli	zero,0x6
800046fa:	0000                	unimp
800046fc:	0038                	addi	a4,sp,8
800046fe:	0000                	unimp
80004700:	0021                	c.nop	8
80004702:	0000                	unimp
80004704:	0048                	addi	a0,sp,4
80004706:	0000                	unimp
80004708:	0059                	c.nop	22
8000470a:	0000                	unimp
8000470c:	0061                	c.nop	24
8000470e:	0000                	unimp
80004710:	000a                	c.slli	zero,0x2
80004712:	0000                	unimp
80004714:	005f 0000 0033      	.byte	0x5f, 0x00, 0x00, 0x00, 0x33, 0x00
8000471a:	0000                	unimp
8000471c:	00000047          	fmsub.s	ft0,ft0,ft0,ft0,rne
80004720:	0045                	c.nop	17
80004722:	0000                	unimp
80004724:	005a                	c.slli	zero,0x16
80004726:	0000                	unimp
80004728:	003c                	addi	a5,sp,8
8000472a:	0000                	unimp
8000472c:	0029                	c.nop	10
8000472e:	0000                	unimp
80004730:	0038                	addi	a4,sp,8
80004732:	0000                	unimp
80004734:	0028                	addi	a0,sp,8
80004736:	0000                	unimp
80004738:	00000063          	beqz	zero,80004738 <data+0x1890>
8000473c:	001a                	c.slli	zero,0x6
8000473e:	0000                	unimp
80004740:	00000023          	sb	zero,0(zero) # 0 <threadsense.5>
80004744:	0022                	c.slli	zero,0x8
80004746:	0000                	unimp
80004748:	0026                	c.slli	zero,0x9
8000474a:	0000                	unimp
8000474c:	00000017          	auipc	zero,0x0
80004750:	00000033          	add	zero,zero,zero
80004754:	0041                	c.nop	16
80004756:	0000                	unimp
80004758:	0052                	c.slli	zero,0x14
8000475a:	0000                	unimp
8000475c:	0000000f          	fence	unknown,unknown
80004760:	0022                	c.slli	zero,0x8
80004762:	0000                	unimp
80004764:	00000023          	sb	zero,0(zero) # 0 <threadsense.5>
80004768:	0062                	c.slli	zero,0x18
8000476a:	0000                	unimp
8000476c:	004d                	c.nop	19
8000476e:	0000                	unimp
80004770:	005d                	c.nop	23
80004772:	0000                	unimp
80004774:	0000004b          	fnmsub.s	ft0,ft0,ft0,ft0,rne
80004778:	0054                	addi	a3,sp,4
8000477a:	0000                	unimp
8000477c:	0019                	c.nop	6
8000477e:	0000                	unimp
80004780:	00000063          	beqz	zero,80004780 <data+0x18d8>
80004784:	0018                	.2byte	0x18
80004786:	0000                	unimp
80004788:	0049                	c.nop	18
8000478a:	0000                	unimp
8000478c:	0008                	.2byte	0x8
8000478e:	0000                	unimp
80004790:	00000013          	nop
80004794:	00000017          	auipc	zero,0x0
80004798:	001f 0000 0027      	.byte	0x1f, 0x00, 0x00, 0x00, 0x27, 0x00
8000479e:	0000                	unimp
800047a0:	0041                	c.nop	16
800047a2:	0000                	unimp
800047a4:	002a                	c.slli	zero,0xa
800047a6:	0000                	unimp
800047a8:	0000004f          	fnmadd.s	ft0,ft0,ft0,ft0,rne
800047ac:	0014                	.2byte	0x14
800047ae:	0000                	unimp
800047b0:	0021                	c.nop	8
800047b2:	0000                	unimp
800047b4:	001e                	c.slli	zero,0x7
800047b6:	0000                	unimp
800047b8:	002d                	c.nop	11
800047ba:	0000                	unimp
800047bc:	00000043          	fmadd.s	ft0,ft0,ft0,ft0,rne
800047c0:	0000003f 00000023 	.8byte	0x230000003f
800047c8:	0029                	c.nop	10
800047ca:	0000                	unimp
800047cc:	0041                	c.nop	16
800047ce:	0000                	unimp
800047d0:	00000033          	add	zero,zero,zero
800047d4:	004a                	c.slli	zero,0x12
800047d6:	0000                	unimp
800047d8:	0050                	addi	a2,sp,4
800047da:	0000                	unimp
800047dc:	0024                	addi	s1,sp,8
800047de:	0000                	unimp
800047e0:	003c                	addi	a5,sp,8
800047e2:	0000                	unimp
800047e4:	001d                	c.nop	7
800047e6:	0000                	unimp
800047e8:	000c                	.2byte	0xc
800047ea:	0000                	unimp
800047ec:	0034                	addi	a3,sp,8
800047ee:	0000                	unimp
800047f0:	00000037          	lui	zero,0x0
800047f4:	0030                	addi	a2,sp,8
800047f6:	0000                	unimp
800047f8:	001c                	.2byte	0x1c
800047fa:	0000                	unimp
800047fc:	0035                	c.nop	13
800047fe:	0000                	unimp
80004800:	00000047          	fmsub.s	ft0,ft0,ft0,ft0,rne
80004804:	0001                	nop
80004806:	0000                	unimp
80004808:	000d                	c.nop	3
8000480a:	0000                	unimp
8000480c:	0059                	c.nop	22
8000480e:	0000                	unimp
80004810:	00000017          	auipc	zero,0x0
80004814:	005f 0000 001c      	.byte	0x5f, 0x00, 0x00, 0x00, 0x1c, 0x00
8000481a:	0000                	unimp
8000481c:	00000057          	.4byte	0x57
80004820:	0024                	addi	s1,sp,8
80004822:	0000                	unimp
80004824:	003a                	c.slli	zero,0xe
80004826:	0000                	unimp
80004828:	003a                	c.slli	zero,0xe
8000482a:	0000                	unimp
8000482c:	0044                	addi	s1,sp,4
8000482e:	0000                	unimp
80004830:	00000057          	.4byte	0x57
80004834:	00000037          	lui	zero,0x0
80004838:	00000057          	.4byte	0x57
8000483c:	0001                	nop
8000483e:	0000                	unimp
80004840:	0059                	c.nop	22
80004842:	0000                	unimp
80004844:	0000001b          	.4byte	0x1b
80004848:	0042                	c.slli	zero,0x10
8000484a:	0000                	unimp
8000484c:	00000027          	.4byte	0x27
80004850:	0035                	c.nop	13
80004852:	0000                	unimp
80004854:	0061                	c.nop	24
80004856:	0000                	unimp
80004858:	001a                	c.slli	zero,0x6
8000485a:	0000                	unimp
8000485c:	000c                	.2byte	0xc
8000485e:	0000                	unimp
80004860:	0019                	c.nop	6
80004862:	0000                	unimp
80004864:	0026                	c.slli	zero,0x9
80004866:	0000                	unimp
80004868:	0010                	.2byte	0x10
8000486a:	0000                	unimp
8000486c:	001f 0000 0055      	.byte	0x1f, 0x00, 0x00, 0x00, 0x55, 0x00
80004872:	0000                	unimp
80004874:	0000002b          	fir_data_st	zero,zero
80004878:	0054                	addi	a3,sp,4
8000487a:	0000                	unimp
8000487c:	00000007          	.4byte	0x7
80004880:	005f 0000 0060      	.byte	0x5f, 0x00, 0x00, 0x00, 0x60, 0x00
80004886:	0000                	unimp
80004888:	0060                	addi	s0,sp,12
8000488a:	0000                	unimp
8000488c:	0012                	c.slli	zero,0x4
8000488e:	0000                	unimp
80004890:	005a                	c.slli	zero,0x16
80004892:	0000                	unimp
80004894:	0000004b          	fnmsub.s	ft0,ft0,ft0,ft0,rne
80004898:	0038                	addi	a4,sp,8
8000489a:	0000                	unimp
8000489c:	004d                	c.nop	19
8000489e:	0000                	unimp
800048a0:	0054                	addi	a3,sp,4
800048a2:	0000                	unimp
800048a4:	000e                	c.slli	zero,0x3
800048a6:	0000                	unimp
800048a8:	002c                	addi	a1,sp,8
800048aa:	0000                	unimp
800048ac:	00000047          	fmsub.s	ft0,ft0,ft0,ft0,rne
800048b0:	0014                	.2byte	0x14
800048b2:	0000                	unimp
800048b4:	001e                	c.slli	zero,0x7
800048b6:	0000                	unimp
800048b8:	00000047          	fmsub.s	ft0,ft0,ft0,ft0,rne
800048bc:	0008                	.2byte	0x8
800048be:	0000                	unimp
800048c0:	0009                	c.nop	2
800048c2:	0000                	unimp
800048c4:	0058                	addi	a4,sp,4
800048c6:	0000                	unimp
800048c8:	0062                	c.slli	zero,0x18
800048ca:	0000                	unimp
800048cc:	000d                	c.nop	3
800048ce:	0000                	unimp
800048d0:	0054                	addi	a3,sp,4
800048d2:	0000                	unimp
800048d4:	00000017          	auipc	zero,0x0
800048d8:	0018                	.2byte	0x18
800048da:	0000                	unimp
800048dc:	003c                	addi	a5,sp,8
800048de:	0000                	unimp
800048e0:	000c                	.2byte	0xc
800048e2:	0000                	unimp
800048e4:	00000027          	.4byte	0x27
800048e8:	0000005b          	.4byte	0x5b
800048ec:	0030                	addi	a2,sp,8
800048ee:	0000                	unimp
800048f0:	0022                	c.slli	zero,0x8
800048f2:	0000                	unimp
800048f4:	001a                	c.slli	zero,0x6
800048f6:	0000                	unimp
800048f8:	00000037          	lui	zero,0x0
800048fc:	001c                	.2byte	0x1c
800048fe:	0000                	unimp
80004900:	0015                	c.nop	5
80004902:	0000                	unimp
80004904:	0002                	c.slli64	zero
80004906:	0000                	unimp
80004908:	0061                	c.nop	24
8000490a:	0000                	unimp
8000490c:	003e                	c.slli	zero,0xf
8000490e:	0000                	unimp
80004910:	001c                	.2byte	0x1c
80004912:	0000                	unimp
80004914:	0005                	c.nop	1
80004916:	0000                	unimp
80004918:	005a                	c.slli	zero,0x16
8000491a:	0000                	unimp
8000491c:	0000000b          	fir_coeff_st	zero,zero,zero
80004920:	0012                	c.slli	zero,0x4
80004922:	0000                	unimp
80004924:	0021                	c.nop	8
80004926:	0000                	unimp
80004928:	0051                	c.nop	20
8000492a:	0000                	unimp
8000492c:	0059                	c.nop	22
8000492e:	0000                	unimp
80004930:	0000003f 00000004 	.8byte	0x40000003f
80004938:	0060                	addi	s0,sp,12
8000493a:	0000                	unimp
8000493c:	00000017          	auipc	zero,0x0
80004940:	0000005b          	.4byte	0x5b
80004944:	002d                	c.nop	11
80004946:	0000                	unimp
80004948:	00000023          	sb	zero,0(zero) # 0 <threadsense.5>
8000494c:	0000001b          	.4byte	0x1b
80004950:	00000013          	nop
80004954:	000a                	c.slli	zero,0x2
80004956:	0000                	unimp
80004958:	0056                	c.slli	zero,0x15
8000495a:	0000                	unimp
8000495c:	00000053          	fadd.s	ft0,ft0,ft0,rne
80004960:	0031                	c.nop	12
80004962:	0000                	unimp
80004964:	001c                	.2byte	0x1c
80004966:	0000                	unimp
80004968:	001e                	c.slli	zero,0x7
8000496a:	0000                	unimp
8000496c:	0022                	c.slli	zero,0x8
8000496e:	0000                	unimp
80004970:	0035                	c.nop	13
80004972:	0000                	unimp
80004974:	0024                	addi	s1,sp,8
80004976:	0000                	unimp
80004978:	003d                	c.nop	15
8000497a:	0000                	unimp
8000497c:	0019                	c.nop	6
8000497e:	0000                	unimp
80004980:	0059                	c.nop	22
80004982:	0000                	unimp
80004984:	003a                	c.slli	zero,0xe
80004986:	0000                	unimp
80004988:	0026                	c.slli	zero,0x9
8000498a:	0000                	unimp
8000498c:	0010                	.2byte	0x10
8000498e:	0000                	unimp
80004990:	003e                	c.slli	zero,0xf
80004992:	0000                	unimp
80004994:	0000001b          	.4byte	0x1b
80004998:	0000004f          	fnmadd.s	ft0,ft0,ft0,ft0,rne
8000499c:	001f 0000 003c      	.byte	0x1f, 0x00, 0x00, 0x00, 0x3c, 0x00
800049a2:	0000                	unimp
800049a4:	0000000b          	fir_coeff_st	zero,zero,zero
800049a8:	00000013          	nop
800049ac:	004a                	c.slli	zero,0x12
800049ae:	0000                	unimp
800049b0:	000e                	c.slli	zero,0x3
800049b2:	0000                	unimp
800049b4:	0042                	c.slli	zero,0x10
800049b6:	0000                	unimp
800049b8:	0030                	addi	a2,sp,8
800049ba:	0000                	unimp
800049bc:	0039                	c.nop	14
800049be:	0000                	unimp
800049c0:	003e                	c.slli	zero,0xf
800049c2:	0000                	unimp
800049c4:	0052                	c.slli	zero,0x14
800049c6:	0000                	unimp
800049c8:	00000023          	sb	zero,0(zero) # 0 <threadsense.5>
800049cc:	0050                	addi	a2,sp,4
800049ce:	0000                	unimp
800049d0:	0000005b          	.4byte	0x5b
800049d4:	0014                	.2byte	0x14
800049d6:	0000                	unimp
800049d8:	000e                	c.slli	zero,0x3
800049da:	0000                	unimp
800049dc:	0000005b          	.4byte	0x5b
800049e0:	0064                	addi	s1,sp,12
800049e2:	0000                	unimp
800049e4:	002c                	addi	a1,sp,8
800049e6:	0000                	unimp
800049e8:	0018                	.2byte	0x18
800049ea:	0000                	unimp
800049ec:	0034                	addi	a3,sp,8
800049ee:	0000                	unimp
800049f0:	001f 0000 0025      	.byte	0x1f, 0x00, 0x00, 0x00, 0x25, 0x00
800049f6:	0000                	unimp
800049f8:	004d                	c.nop	19
800049fa:	0000                	unimp
800049fc:	0048                	addi	a0,sp,4
800049fe:	0000                	unimp
80004a00:	002e                	c.slli	zero,0xb
80004a02:	0000                	unimp
80004a04:	0042                	c.slli	zero,0x10
80004a06:	0000                	unimp
80004a08:	00000027          	.4byte	0x27
80004a0c:	0000003b          	fir_exec	zero
80004a10:	005d                	c.nop	23
80004a12:	0000                	unimp
80004a14:	0011                	c.nop	4
80004a16:	0000                	unimp
80004a18:	0029                	c.nop	10
80004a1a:	0000                	unimp
80004a1c:	0004                	.2byte	0x4
80004a1e:	0000                	unimp
80004a20:	001c                	.2byte	0x1c
80004a22:	0000                	unimp
80004a24:	0000003b          	fir_exec	zero
80004a28:	001d                	c.nop	7
80004a2a:	0000                	unimp
80004a2c:	005d                	c.nop	23
80004a2e:	0000                	unimp
80004a30:	004c                	addi	a1,sp,4
80004a32:	0000                	unimp
80004a34:	004c                	addi	a1,sp,4
80004a36:	0000                	unimp
80004a38:	0001                	nop
80004a3a:	0000                	unimp
80004a3c:	0059                	c.nop	22
80004a3e:	0000                	unimp
80004a40:	0039                	c.nop	14
80004a42:	0000                	unimp
80004a44:	00000023          	sb	zero,0(zero) # 0 <threadsense.5>
80004a48:	0014                	.2byte	0x14
80004a4a:	0000                	unimp
80004a4c:	00000063          	beqz	zero,80004a4c <data+0x1ba4>
80004a50:	00000007          	.4byte	0x7
80004a54:	0022                	c.slli	zero,0x8
80004a56:	0000                	unimp
80004a58:	005a                	c.slli	zero,0x16
80004a5a:	0000                	unimp
80004a5c:	0006                	c.slli	zero,0x1
80004a5e:	0000                	unimp
80004a60:	001d                	c.nop	7
80004a62:	0000                	unimp
80004a64:	000d                	c.nop	3
80004a66:	0000                	unimp
80004a68:	0039                	c.nop	14
80004a6a:	0000                	unimp
80004a6c:	0000003b          	fir_exec	zero
80004a70:	0001                	nop
80004a72:	0000                	unimp
80004a74:	0055                	c.nop	21
80004a76:	0000                	unimp
80004a78:	0052                	c.slli	zero,0x14
80004a7a:	0000                	unimp
80004a7c:	002e                	c.slli	zero,0xb
80004a7e:	0000                	unimp
80004a80:	00000003          	lb	zero,0(zero) # 0 <threadsense.5>
80004a84:	0015                	c.nop	5
80004a86:	0000                	unimp
80004a88:	0004                	.2byte	0x4
80004a8a:	0000                	unimp
80004a8c:	005f 0000 0025      	.byte	0x5f, 0x00, 0x00, 0x00, 0x25, 0x00
80004a92:	0000                	unimp
80004a94:	002c                	addi	a1,sp,8
80004a96:	0000                	unimp
80004a98:	0032                	c.slli	zero,0xc
80004a9a:	0000                	unimp
80004a9c:	0010                	.2byte	0x10
80004a9e:	0000                	unimp
80004aa0:	0036                	c.slli	zero,0xd
80004aa2:	0000                	unimp
80004aa4:	004e                	c.slli	zero,0x13
80004aa6:	0000                	unimp
80004aa8:	0009                	c.nop	2
80004aaa:	0000                	unimp
80004aac:	0051                	c.nop	20
80004aae:	0000                	unimp
80004ab0:	0035                	c.nop	13
80004ab2:	0000                	unimp
80004ab4:	003d                	c.nop	15
80004ab6:	0000                	unimp
80004ab8:	0045                	c.nop	17
80004aba:	0000                	unimp
80004abc:	0009                	c.nop	2
80004abe:	0000                	unimp
80004ac0:	0060                	addi	s0,sp,12
80004ac2:	0000                	unimp
80004ac4:	0059                	c.nop	22
80004ac6:	0000                	unimp
80004ac8:	00000007          	.4byte	0x7
80004acc:	0002                	c.slli64	zero
80004ace:	0000                	unimp
80004ad0:	0016                	c.slli	zero,0x5
80004ad2:	0000                	unimp
80004ad4:	0030                	addi	a2,sp,8
80004ad6:	0000                	unimp
80004ad8:	00000007          	.4byte	0x7
80004adc:	0032                	c.slli	zero,0xc
80004ade:	0000                	unimp
80004ae0:	000d                	c.nop	3
80004ae2:	0000                	unimp
80004ae4:	0000000f          	fence	unknown,unknown
80004ae8:	003c                	addi	a5,sp,8
80004aea:	0000                	unimp
80004aec:	000d                	c.nop	3
80004aee:	0000                	unimp
80004af0:	0034                	addi	a3,sp,8
80004af2:	0000                	unimp
80004af4:	002a                	c.slli	zero,0xa
80004af6:	0000                	unimp
80004af8:	0000003b          	fir_exec	zero
80004afc:	0036                	c.slli	zero,0xd
80004afe:	0000                	unimp
80004b00:	003e                	c.slli	zero,0xf
80004b02:	0000                	unimp
80004b04:	000e                	c.slli	zero,0x3
80004b06:	0000                	unimp
80004b08:	0064                	addi	s1,sp,12
80004b0a:	0000                	unimp
80004b0c:	0032                	c.slli	zero,0xc
80004b0e:	0000                	unimp
80004b10:	003a                	c.slli	zero,0xe
80004b12:	0000                	unimp
80004b14:	0031                	c.nop	12
80004b16:	0000                	unimp
80004b18:	0042                	c.slli	zero,0x10
80004b1a:	0000                	unimp
80004b1c:	0000000b          	fir_coeff_st	zero,zero,zero
80004b20:	001a                	c.slli	zero,0x6
80004b22:	0000                	unimp
80004b24:	001a                	c.slli	zero,0x6
80004b26:	0000                	unimp
80004b28:	002c                	addi	a1,sp,8
80004b2a:	0000                	unimp
80004b2c:	004e                	c.slli	zero,0x13
80004b2e:	0000                	unimp
80004b30:	0056                	c.slli	zero,0x15
80004b32:	0000                	unimp
80004b34:	000c                	.2byte	0xc
80004b36:	0000                	unimp
80004b38:	0026                	c.slli	zero,0x9
80004b3a:	0000                	unimp
80004b3c:	0051                	c.nop	20
80004b3e:	0000                	unimp
80004b40:	0064                	addi	s1,sp,12
80004b42:	0000                	unimp
80004b44:	0060                	addi	s0,sp,12
80004b46:	0000                	unimp
80004b48:	0022                	c.slli	zero,0x8
80004b4a:	0000                	unimp
80004b4c:	0049                	c.nop	18
80004b4e:	0000                	unimp
80004b50:	0060                	addi	s0,sp,12
80004b52:	0000                	unimp
80004b54:	005c                	addi	a5,sp,4
80004b56:	0000                	unimp
80004b58:	004a                	c.slli	zero,0x12
80004b5a:	0000                	unimp
80004b5c:	0008                	.2byte	0x8
80004b5e:	0000                	unimp
80004b60:	00000007          	.4byte	0x7
80004b64:	0022                	c.slli	zero,0x8
80004b66:	0000                	unimp
80004b68:	0014                	.2byte	0x14
80004b6a:	0000                	unimp
80004b6c:	000a                	c.slli	zero,0x2
80004b6e:	0000                	unimp
80004b70:	0000001b          	.4byte	0x1b
80004b74:	001e                	c.slli	zero,0x7
80004b76:	0000                	unimp
80004b78:	0000000f          	fence	unknown,unknown
80004b7c:	0058                	addi	a4,sp,4
80004b7e:	0000                	unimp
80004b80:	002c                	addi	a1,sp,8
80004b82:	0000                	unimp
80004b84:	000e                	c.slli	zero,0x3
80004b86:	0000                	unimp
80004b88:	0025                	c.nop	9
80004b8a:	0000                	unimp
80004b8c:	0035                	c.nop	13
80004b8e:	0000                	unimp
80004b90:	000e                	c.slli	zero,0x3
80004b92:	0000                	unimp
80004b94:	0036                	c.slli	zero,0xd
80004b96:	0000                	unimp
80004b98:	0000000f          	fence	unknown,unknown
80004b9c:	00000027          	.4byte	0x27
80004ba0:	0000004f          	fnmadd.s	ft0,ft0,ft0,ft0,rne
80004ba4:	003a                	c.slli	zero,0xe
80004ba6:	0000                	unimp
80004ba8:	0044                	addi	s1,sp,4
80004baa:	0000                	unimp
80004bac:	0041                	c.nop	16
80004bae:	0000                	unimp
80004bb0:	0016                	c.slli	zero,0x5
80004bb2:	0000                	unimp
80004bb4:	0039                	c.nop	14
80004bb6:	0000                	unimp
80004bb8:	0061                	c.nop	24
80004bba:	0000                	unimp
80004bbc:	0015                	c.nop	5
80004bbe:	0000                	unimp
80004bc0:	0004                	.2byte	0x4
80004bc2:	0000                	unimp
80004bc4:	001f 0000 002e      	.byte	0x1f, 0x00, 0x00, 0x00, 0x2e, 0x00
80004bca:	0000                	unimp
80004bcc:	00000063          	beqz	zero,80004bcc <data+0x1d24>
80004bd0:	0016                	c.slli	zero,0x5
80004bd2:	0000                	unimp
80004bd4:	00000013          	nop
80004bd8:	0006                	c.slli	zero,0x1
80004bda:	0000                	unimp
80004bdc:	0050                	addi	a2,sp,4
80004bde:	0000                	unimp
80004be0:	0004                	.2byte	0x4
80004be2:	0000                	unimp
80004be4:	004e                	c.slli	zero,0x13
80004be6:	0000                	unimp
80004be8:	0059                	c.nop	22
80004bea:	0000                	unimp
80004bec:	001e                	c.slli	zero,0x7
80004bee:	0000                	unimp
80004bf0:	00000007          	.4byte	0x7
80004bf4:	00000003          	lb	zero,0(zero) # 0 <threadsense.5>
80004bf8:	0045                	c.nop	17
80004bfa:	0000                	unimp
80004bfc:	0002                	c.slli64	zero
80004bfe:	0000                	unimp
80004c00:	0044                	addi	s1,sp,4
80004c02:	0000                	unimp
80004c04:	003a                	c.slli	zero,0xe
80004c06:	0000                	unimp
80004c08:	0006                	c.slli	zero,0x1
80004c0a:	0000                	unimp
80004c0c:	0051                	c.nop	20
80004c0e:	0000                	unimp
80004c10:	0000000b          	fir_coeff_st	zero,zero,zero
80004c14:	0015                	c.nop	5
80004c16:	0000                	unimp
80004c18:	00000047          	fmsub.s	ft0,ft0,ft0,ft0,rne
80004c1c:	005a                	c.slli	zero,0x16
80004c1e:	0000                	unimp
80004c20:	004e                	c.slli	zero,0x13
80004c22:	0000                	unimp
80004c24:	0026                	c.slli	zero,0x9
80004c26:	0000                	unimp
80004c28:	0006                	c.slli	zero,0x1
80004c2a:	0000                	unimp
80004c2c:	00000063          	beqz	zero,80004c2c <data+0x1d84>
80004c30:	002e                	c.slli	zero,0xb
80004c32:	0000                	unimp
80004c34:	0002                	c.slli64	zero
80004c36:	0000                	unimp
80004c38:	0048                	addi	a0,sp,4
80004c3a:	0000                	unimp
80004c3c:	0032                	c.slli	zero,0xc
80004c3e:	0000                	unimp
80004c40:	0020                	addi	s0,sp,8
80004c42:	0000                	unimp
80004c44:	0045                	c.nop	17
80004c46:	0000                	unimp
80004c48:	0030                	addi	a2,sp,8
80004c4a:	0000                	unimp
80004c4c:	0006                	c.slli	zero,0x1
80004c4e:	0000                	unimp
80004c50:	00000057          	.4byte	0x57
80004c54:	0006                	c.slli	zero,0x1
80004c56:	0000                	unimp
80004c58:	0055                	c.nop	21
80004c5a:	0000                	unimp
80004c5c:	0000002b          	fir_data_st	zero,zero
80004c60:	00000023          	sb	zero,0(zero) # 0 <threadsense.5>
80004c64:	004a                	c.slli	zero,0x12
80004c66:	0000                	unimp
80004c68:	0048                	addi	a0,sp,4
80004c6a:	0000                	unimp
80004c6c:	005d                	c.nop	23
80004c6e:	0000                	unimp
80004c70:	001c                	.2byte	0x1c
80004c72:	0000                	unimp
80004c74:	0029                	c.nop	10
80004c76:	0000                	unimp
80004c78:	005f 0000 0060      	.byte	0x5f, 0x00, 0x00, 0x00, 0x60, 0x00
80004c7e:	0000                	unimp
80004c80:	0032                	c.slli	zero,0xc
80004c82:	0000                	unimp
80004c84:	0064                	addi	s1,sp,12
80004c86:	0000                	unimp
80004c88:	001c                	.2byte	0x1c
80004c8a:	0000                	unimp
80004c8c:	003c                	addi	a5,sp,8
80004c8e:	0000                	unimp
80004c90:	0048                	addi	a0,sp,4
80004c92:	0000                	unimp
80004c94:	00000063          	beqz	zero,80004c94 <data+0x1dec>
80004c98:	0001                	nop
80004c9a:	0000                	unimp
80004c9c:	0002                	c.slli64	zero
80004c9e:	0000                	unimp
80004ca0:	0058                	addi	a4,sp,4
80004ca2:	0000                	unimp
80004ca4:	0006                	c.slli	zero,0x1
80004ca6:	0000                	unimp
80004ca8:	0064                	addi	s1,sp,12
80004caa:	0000                	unimp
80004cac:	0022                	c.slli	zero,0x8
80004cae:	0000                	unimp
80004cb0:	003c                	addi	a5,sp,8
80004cb2:	0000                	unimp
80004cb4:	00000017          	auipc	zero,0x0
80004cb8:	00000023          	sb	zero,0(zero) # 0 <threadsense.5>
80004cbc:	0000002b          	fir_data_st	zero,zero
80004cc0:	0000002b          	fir_data_st	zero,zero
80004cc4:	0022                	c.slli	zero,0x8
80004cc6:	0000                	unimp
80004cc8:	0030                	addi	a2,sp,8
80004cca:	0000                	unimp
80004ccc:	0052                	c.slli	zero,0x14
80004cce:	0000                	unimp
80004cd0:	00000027          	.4byte	0x27
80004cd4:	0021                	c.nop	8
80004cd6:	0000                	unimp
80004cd8:	0018                	.2byte	0x18
80004cda:	0000                	unimp
80004cdc:	0049                	c.nop	18
80004cde:	0000                	unimp
80004ce0:	003a                	c.slli	zero,0xe
80004ce2:	0000                	unimp
80004ce4:	0000002f          	.4byte	0x2f
80004ce8:	0042                	c.slli	zero,0x10
80004cea:	0000                	unimp
80004cec:	0055                	c.nop	21
80004cee:	0000                	unimp
80004cf0:	00000057          	.4byte	0x57
80004cf4:	000c                	.2byte	0xc
80004cf6:	0000                	unimp
80004cf8:	0020                	addi	s0,sp,8
80004cfa:	0000                	unimp
80004cfc:	0058                	addi	a4,sp,4
80004cfe:	0000                	unimp
80004d00:	0000003f 0000003c 	.8byte	0x3c0000003f
80004d08:	0030                	addi	a2,sp,8
80004d0a:	0000                	unimp
80004d0c:	00000023          	sb	zero,0(zero) # 0 <threadsense.5>
80004d10:	003a                	c.slli	zero,0xe
80004d12:	0000                	unimp
80004d14:	0064                	addi	s1,sp,12
80004d16:	0000                	unimp
80004d18:	0024                	addi	s1,sp,8
80004d1a:	0000                	unimp
80004d1c:	002d                	c.nop	11
80004d1e:	0000                	unimp
80004d20:	003a                	c.slli	zero,0xe
80004d22:	0000                	unimp
80004d24:	00000057          	.4byte	0x57
80004d28:	001e                	c.slli	zero,0x7
80004d2a:	0000                	unimp
80004d2c:	0011                	c.nop	4
80004d2e:	0000                	unimp
80004d30:	003e                	c.slli	zero,0xf
80004d32:	0000                	unimp
80004d34:	0040                	addi	s0,sp,4
80004d36:	0000                	unimp
80004d38:	0000000b          	fir_coeff_st	zero,zero,zero
80004d3c:	0004                	.2byte	0x4
80004d3e:	0000                	unimp
80004d40:	0062                	c.slli	zero,0x18
80004d42:	0000                	unimp
80004d44:	0000003b          	fir_exec	zero
80004d48:	0025                	c.nop	9
80004d4a:	0000                	unimp
80004d4c:	0058                	addi	a4,sp,4
80004d4e:	0000                	unimp
80004d50:	0000002b          	fir_data_st	zero,zero
80004d54:	003c                	addi	a5,sp,8
80004d56:	0000                	unimp
80004d58:	003d                	c.nop	15
80004d5a:	0000                	unimp
80004d5c:	0064                	addi	s1,sp,12
80004d5e:	0000                	unimp
80004d60:	00000007          	.4byte	0x7
80004d64:	004e                	c.slli	zero,0x13
80004d66:	0000                	unimp
80004d68:	0024                	addi	s1,sp,8
80004d6a:	0000                	unimp
80004d6c:	002d                	c.nop	11
80004d6e:	0000                	unimp
80004d70:	0029                	c.nop	10
80004d72:	0000                	unimp
80004d74:	0044                	addi	s1,sp,4
80004d76:	0000                	unimp
80004d78:	0021                	c.nop	8
80004d7a:	0000                	unimp
80004d7c:	00000003          	lb	zero,0(zero) # 0 <threadsense.5>
80004d80:	0000004f          	fnmadd.s	ft0,ft0,ft0,ft0,rne
80004d84:	0020                	addi	s0,sp,8
80004d86:	0000                	unimp
80004d88:	0059                	c.nop	22
80004d8a:	0000                	unimp
80004d8c:	0024                	addi	s1,sp,8
80004d8e:	0000                	unimp
80004d90:	001f 0000 004c      	.byte	0x1f, 0x00, 0x00, 0x00, 0x4c, 0x00
80004d96:	0000                	unimp
80004d98:	0020                	addi	s0,sp,8
80004d9a:	0000                	unimp
80004d9c:	0028                	addi	a0,sp,8
80004d9e:	0000                	unimp
80004da0:	0000003f 0000003e 	.8byte	0x3e0000003f
80004da8:	0008                	.2byte	0x8
80004daa:	0000                	unimp
80004dac:	004c                	addi	a1,sp,4
80004dae:	0000                	unimp
80004db0:	0019                	c.nop	6
80004db2:	0000                	unimp
80004db4:	00000013          	nop
80004db8:	001f 0000 004a      	.byte	0x1f, 0x00, 0x00, 0x00, 0x4a, 0x00
80004dbe:	0000                	unimp
80004dc0:	004d                	c.nop	19
80004dc2:	0000                	unimp
80004dc4:	0044                	addi	s1,sp,4
80004dc6:	0000                	unimp
80004dc8:	003e                	c.slli	zero,0xf
80004dca:	0000                	unimp
80004dcc:	00000047          	fmsub.s	ft0,ft0,ft0,ft0,rne
80004dd0:	0000001b          	.4byte	0x1b
80004dd4:	004a                	c.slli	zero,0x12
80004dd6:	0000                	unimp
80004dd8:	0046                	c.slli	zero,0x11
80004dda:	0000                	unimp
80004ddc:	0055                	c.nop	21
80004dde:	0000                	unimp
80004de0:	00000033          	add	zero,zero,zero
80004de4:	0039                	c.nop	14
80004de6:	0000                	unimp

80004de8 <coeffs>:
80004de8:	0045                	c.nop	17
80004dea:	0000                	unimp
80004dec:	00000023          	sb	zero,0(zero) # 0 <threadsense.5>
80004df0:	0062                	c.slli	zero,0x18
80004df2:	0000                	unimp
80004df4:	000a                	c.slli	zero,0x2
80004df6:	0000                	unimp
80004df8:	0050                	addi	a2,sp,4
80004dfa:	0000                	unimp
80004dfc:	0036                	c.slli	zero,0xd
80004dfe:	0000                	unimp
80004e00:	0032                	c.slli	zero,0xc
80004e02:	0000                	unimp
80004e04:	0049                	c.nop	18
80004e06:	0000                	unimp
80004e08:	005e                	c.slli	zero,0x17
80004e0a:	0000                	unimp
80004e0c:	004c                	addi	a1,sp,4
80004e0e:	0000                	unimp
80004e10:	0012                	c.slli	zero,0x4
80004e12:	0000                	unimp
80004e14:	0029                	c.nop	10
80004e16:	0000                	unimp
80004e18:	001e                	c.slli	zero,0x7
80004e1a:	0000                	unimp
80004e1c:	0026                	c.slli	zero,0x9
80004e1e:	0000                	unimp
80004e20:	002d                	c.nop	11
80004e22:	0000                	unimp
80004e24:	003a                	c.slli	zero,0xe
80004e26:	0000                	unimp
80004e28:	00000053          	fadd.s	ft0,ft0,ft0,rne
80004e2c:	00000053          	fadd.s	ft0,ft0,ft0,rne
80004e30:	003a                	c.slli	zero,0xe
80004e32:	0000                	unimp
80004e34:	00000033          	add	zero,zero,zero
80004e38:	00000033          	add	zero,zero,zero
80004e3c:	0044                	addi	s1,sp,4
80004e3e:	0000                	unimp
80004e40:	001c                	.2byte	0x1c
80004e42:	0000                	unimp
80004e44:	001f 0000 0017      	.byte	0x1f, 0x00, 0x00, 0x00, 0x17, 0x00
80004e4a:	0000                	unimp
80004e4c:	00000063          	beqz	zero,80004e4c <coeffs+0x64>
80004e50:	002e                	c.slli	zero,0xb
80004e52:	0000                	unimp
80004e54:	000e                	c.slli	zero,0x3
80004e56:	0000                	unimp
80004e58:	0020                	addi	s0,sp,8
80004e5a:	0000                	unimp
80004e5c:	0034                	addi	a3,sp,8
80004e5e:	0000                	unimp
80004e60:	0020                	addi	s0,sp,8
80004e62:	0000                	unimp
80004e64:	0064                	addi	s1,sp,12
80004e66:	0000                	unimp
80004e68:	0056                	c.slli	zero,0x15
80004e6a:	0000                	unimp
80004e6c:	0051                	c.nop	20
80004e6e:	0000                	unimp
80004e70:	003d                	c.nop	15
80004e72:	0000                	unimp
80004e74:	0011                	c.nop	4
80004e76:	0000                	unimp
80004e78:	00000023          	sb	zero,0(zero) # 0 <threadsense.5>
80004e7c:	000a                	c.slli	zero,0x2
80004e7e:	0000                	unimp
80004e80:	005a                	c.slli	zero,0x16
80004e82:	0000                	unimp
80004e84:	001c                	.2byte	0x1c
80004e86:	0000                	unimp
80004e88:	0056                	c.slli	zero,0x15
80004e8a:	0000                	unimp
80004e8c:	0000003b          	fir_exec	zero
80004e90:	0014                	.2byte	0x14
80004e92:	0000                	unimp
80004e94:	0000000f          	fence	unknown,unknown
80004e98:	0060                	addi	s0,sp,12
80004e9a:	0000                	unimp
80004e9c:	0040                	addi	s0,sp,4
80004e9e:	0000                	unimp
80004ea0:	0018                	.2byte	0x18
80004ea2:	0000                	unimp
80004ea4:	0000004f          	fnmadd.s	ft0,ft0,ft0,ft0,rne
80004ea8:	0062                	c.slli	zero,0x18
80004eaa:	0000                	unimp
80004eac:	0021                	c.nop	8
80004eae:	0000                	unimp
80004eb0:	0051                	c.nop	20
80004eb2:	0000                	unimp
80004eb4:	0030                	addi	a2,sp,8
80004eb6:	0000                	unimp
80004eb8:	0064                	addi	s1,sp,12
80004eba:	0000                	unimp
80004ebc:	0008                	.2byte	0x8
80004ebe:	0000                	unimp
80004ec0:	001f 0000 004a      	.byte	0x1f, 0x00, 0x00, 0x00, 0x4a, 0x00
80004ec6:	0000                	unimp
80004ec8:	003a                	c.slli	zero,0xe
80004eca:	0000                	unimp
80004ecc:	004c                	addi	a1,sp,4
80004ece:	0000                	unimp
80004ed0:	00000057          	.4byte	0x57
80004ed4:	005a                	c.slli	zero,0x16
80004ed6:	0000                	unimp
80004ed8:	0000004f          	fnmadd.s	ft0,ft0,ft0,ft0,rne
80004edc:	00000013          	nop
80004ee0:	0029                	c.nop	10
80004ee2:	0000                	unimp
80004ee4:	0010                	.2byte	0x10
80004ee6:	0000                	unimp
80004ee8:	00000033          	add	zero,zero,zero
80004eec:	0002                	c.slli64	zero
80004eee:	0000                	unimp
80004ef0:	0021                	c.nop	8
80004ef2:	0000                	unimp
80004ef4:	0055                	c.nop	21
80004ef6:	0000                	unimp
80004ef8:	0000000b          	fir_coeff_st	zero,zero,zero
80004efc:	004a                	c.slli	zero,0x12
80004efe:	0000                	unimp
80004f00:	000d                	c.nop	3
80004f02:	0000                	unimp
80004f04:	0030                	addi	a2,sp,8
80004f06:	0000                	unimp
80004f08:	0054                	addi	a3,sp,4
80004f0a:	0000                	unimp
80004f0c:	0054                	addi	a3,sp,4
80004f0e:	0000                	unimp
80004f10:	003e                	c.slli	zero,0xf
80004f12:	0000                	unimp
80004f14:	0000004f          	fnmadd.s	ft0,ft0,ft0,ft0,rne
80004f18:	0030                	addi	a2,sp,8
80004f1a:	0000                	unimp
80004f1c:	0025                	c.nop	9
80004f1e:	0000                	unimp
80004f20:	0009                	c.nop	2
80004f22:	0000                	unimp
80004f24:	0061                	c.nop	24
80004f26:	0000                	unimp
80004f28:	0045                	c.nop	17
80004f2a:	0000                	unimp
80004f2c:	005a                	c.slli	zero,0x16
80004f2e:	0000                	unimp
80004f30:	0061                	c.nop	24
80004f32:	0000                	unimp
80004f34:	0015                	c.nop	5
80004f36:	0000                	unimp
80004f38:	0031                	c.nop	12
80004f3a:	0000                	unimp
80004f3c:	0000001b          	.4byte	0x1b
80004f40:	005e                	c.slli	zero,0x17
80004f42:	0000                	unimp
80004f44:	00000007          	.4byte	0x7
80004f48:	0002                	c.slli64	zero
80004f4a:	0000                	unimp
80004f4c:	0021                	c.nop	8
80004f4e:	0000                	unimp
80004f50:	0030                	addi	a2,sp,8
80004f52:	0000                	unimp
80004f54:	0021                	c.nop	8
80004f56:	0000                	unimp
80004f58:	00000003          	lb	zero,0(zero) # 0 <threadsense.5>
80004f5c:	0058                	addi	a4,sp,4
80004f5e:	0000                	unimp
80004f60:	0030                	addi	a2,sp,8
80004f62:	0000                	unimp
80004f64:	0035                	c.nop	13
80004f66:	0000                	unimp
80004f68:	0029                	c.nop	10
80004f6a:	0000                	unimp
80004f6c:	0020                	addi	s0,sp,8
80004f6e:	0000                	unimp
80004f70:	0026                	c.slli	zero,0x9
80004f72:	0000                	unimp
80004f74:	0034                	addi	a3,sp,8
80004f76:	0000                	unimp
80004f78:	0005                	c.nop	1
80004f7a:	0000                	unimp
80004f7c:	0002                	c.slli64	zero
80004f7e:	0000                	unimp
80004f80:	00000063          	beqz	zero,80004f80 <coeffs+0x198>
80004f84:	0058                	addi	a4,sp,4
80004f86:	0000                	unimp
80004f88:	0055                	c.nop	21
80004f8a:	0000                	unimp
80004f8c:	000d                	c.nop	3
80004f8e:	0000                	unimp
80004f90:	00000013          	nop
80004f94:	0054                	addi	a3,sp,4
80004f96:	0000                	unimp
80004f98:	0001                	nop
80004f9a:	0000                	unimp
80004f9c:	0000001b          	.4byte	0x1b
80004fa0:	0051                	c.nop	20
80004fa2:	0000                	unimp
80004fa4:	0016                	c.slli	zero,0x5
80004fa6:	0000                	unimp
80004fa8:	0044                	addi	s1,sp,4
80004faa:	0000                	unimp
80004fac:	001d                	c.nop	7
80004fae:	0000                	unimp
80004fb0:	005e                	c.slli	zero,0x17
80004fb2:	0000                	unimp
80004fb4:	0011                	c.nop	4
80004fb6:	0000                	unimp
80004fb8:	00000037          	lui	zero,0x0
80004fbc:	00000027          	.4byte	0x27
80004fc0:	00000017          	auipc	zero,0x0
80004fc4:	0008                	.2byte	0x8
80004fc6:	0000                	unimp
80004fc8:	00000047          	fmsub.s	ft0,ft0,ft0,ft0,rne
80004fcc:	0046                	c.slli	zero,0x11
80004fce:	0000                	unimp
80004fd0:	0028                	addi	a0,sp,8
80004fd2:	0000                	unimp
80004fd4:	0049                	c.nop	18
80004fd6:	0000                	unimp
80004fd8:	0009                	c.nop	2
80004fda:	0000                	unimp
80004fdc:	0058                	addi	a4,sp,4
80004fde:	0000                	unimp
80004fe0:	001a                	c.slli	zero,0x6
80004fe2:	0000                	unimp
80004fe4:	0032                	c.slli	zero,0xc
80004fe6:	0000                	unimp
80004fe8:	00000013          	nop
80004fec:	0000000f          	fence	unknown,unknown
80004ff0:	0035                	c.nop	13
80004ff2:	0000                	unimp
80004ff4:	004c                	addi	a1,sp,4
80004ff6:	0000                	unimp
80004ff8:	0010                	.2byte	0x10
80004ffa:	0000                	unimp
80004ffc:	00000003          	lb	zero,0(zero) # 0 <threadsense.5>
80005000:	0000003f 00000034 	.8byte	0x340000003f
80005008:	00000043          	fmadd.s	ft0,ft0,ft0,ft0,rne
8000500c:	0051                	c.nop	20
8000500e:	0000                	unimp
80005010:	0024                	addi	s1,sp,8
80005012:	0000                	unimp
80005014:	0044                	addi	s1,sp,4
80005016:	0000                	unimp
80005018:	003c                	addi	a5,sp,8
8000501a:	0000                	unimp
8000501c:	0044                	addi	s1,sp,4
8000501e:	0000                	unimp
80005020:	0029                	c.nop	10
80005022:	0000                	unimp
80005024:	0000001b          	.4byte	0x1b
80005028:	0030                	addi	a2,sp,8
8000502a:	0000                	unimp
8000502c:	0022                	c.slli	zero,0x8
8000502e:	0000                	unimp
80005030:	005f 0000 0002      	.byte	0x5f, 0x00, 0x00, 0x00, 0x02, 0x00
80005036:	0000                	unimp
80005038:	0048                	addi	a0,sp,4
8000503a:	0000                	unimp
8000503c:	0011                	c.nop	4
8000503e:	0000                	unimp
80005040:	003d                	c.nop	15
80005042:	0000                	unimp
80005044:	0000002b          	fir_data_st	zero,zero
80005048:	0026                	c.slli	zero,0x9
8000504a:	0000                	unimp
8000504c:	0035                	c.nop	13
8000504e:	0000                	unimp
80005050:	00000043          	fmadd.s	ft0,ft0,ft0,ft0,rne
80005054:	00000063          	beqz	zero,80005054 <coeffs+0x26c>
80005058:	005c                	addi	a5,sp,4
8000505a:	0000                	unimp
8000505c:	002c                	addi	a1,sp,8
8000505e:	0000                	unimp
80005060:	0030                	addi	a2,sp,8
80005062:	0000                	unimp
80005064:	003e                	c.slli	zero,0xf
80005066:	0000                	unimp
80005068:	003a                	c.slli	zero,0xe
8000506a:	0000                	unimp
8000506c:	0064                	addi	s1,sp,12
8000506e:	0000                	unimp
80005070:	0025                	c.nop	9
80005072:	0000                	unimp
80005074:	0019                	c.nop	6
80005076:	0000                	unimp
80005078:	0002                	c.slli64	zero
8000507a:	0000                	unimp
8000507c:	0034                	addi	a3,sp,8
8000507e:	0000                	unimp
80005080:	004d                	c.nop	19
80005082:	0000                	unimp
80005084:	0045                	c.nop	17
80005086:	0000                	unimp
80005088:	0054                	addi	a3,sp,4
8000508a:	0000                	unimp
8000508c:	0040                	addi	s0,sp,4
8000508e:	0000                	unimp
80005090:	0058                	addi	a4,sp,4
80005092:	0000                	unimp
80005094:	0000002b          	fir_data_st	zero,zero
80005098:	00000053          	fadd.s	ft0,ft0,ft0,rne
8000509c:	001c                	.2byte	0x1c
8000509e:	0000                	unimp
800050a0:	0016                	c.slli	zero,0x5
800050a2:	0000                	unimp
800050a4:	001e                	c.slli	zero,0x7
800050a6:	0000                	unimp
800050a8:	003d                	c.nop	15
800050aa:	0000                	unimp
800050ac:	0010                	.2byte	0x10
800050ae:	0000                	unimp
800050b0:	00000053          	fadd.s	ft0,ft0,ft0,rne
800050b4:	0054                	addi	a3,sp,4
800050b6:	0000                	unimp
800050b8:	0055                	c.nop	21
800050ba:	0000                	unimp
800050bc:	005f 0000 004e      	.byte	0x5f, 0x00, 0x00, 0x00, 0x4e, 0x00
800050c2:	0000                	unimp
800050c4:	004a                	c.slli	zero,0x12
800050c6:	0000                	unimp
800050c8:	0000002f          	.4byte	0x2f
800050cc:	002d                	c.nop	11
800050ce:	0000                	unimp
800050d0:	0048                	addi	a0,sp,4
800050d2:	0000                	unimp
800050d4:	0026                	c.slli	zero,0x9
800050d6:	0000                	unimp
800050d8:	0058                	addi	a4,sp,4
800050da:	0000                	unimp
800050dc:	00000013          	nop
800050e0:	0064                	addi	s1,sp,12
800050e2:	0000                	unimp
800050e4:	0062                	c.slli	zero,0x18
800050e6:	0000                	unimp
800050e8:	0046                	c.slli	zero,0x11
800050ea:	0000                	unimp
800050ec:	0058                	addi	a4,sp,4
800050ee:	0000                	unimp
800050f0:	0016                	c.slli	zero,0x5
800050f2:	0000                	unimp
800050f4:	0018                	.2byte	0x18
800050f6:	0000                	unimp
800050f8:	00000027          	.4byte	0x27
800050fc:	0032                	c.slli	zero,0xc
800050fe:	0000                	unimp
80005100:	005c                	addi	a5,sp,4
80005102:	0000                	unimp
80005104:	0000004b          	fnmsub.s	ft0,ft0,ft0,ft0,rne
80005108:	000d                	c.nop	3
8000510a:	0000                	unimp
8000510c:	001f 0000 0011      	.byte	0x1f, 0x00, 0x00, 0x00, 0x11, 0x00
80005112:	0000                	unimp
80005114:	0000002f          	.4byte	0x2f
80005118:	003a                	c.slli	zero,0xe
8000511a:	0000                	unimp
8000511c:	005a                	c.slli	zero,0x16
8000511e:	0000                	unimp
80005120:	001c                	.2byte	0x1c
80005122:	0000                	unimp
80005124:	0046                	c.slli	zero,0x11
80005126:	0000                	unimp
80005128:	0006                	c.slli	zero,0x1
8000512a:	0000                	unimp
8000512c:	003e                	c.slli	zero,0xf
8000512e:	0000                	unimp
80005130:	0005                	c.nop	1
80005132:	0000                	unimp
80005134:	005a                	c.slli	zero,0x16
80005136:	0000                	unimp
80005138:	0039                	c.nop	14
8000513a:	0000                	unimp
8000513c:	00000053          	fadd.s	ft0,ft0,ft0,rne
80005140:	0000003f 00000037 	.8byte	0x370000003f
80005148:	0000004f          	fnmadd.s	ft0,ft0,ft0,ft0,rne
8000514c:	00000023          	sb	zero,0(zero) # 0 <threadsense.5>
80005150:	005d                	c.nop	23
80005152:	0000                	unimp
80005154:	0042                	c.slli	zero,0x10
80005156:	0000                	unimp
80005158:	0005                	c.nop	1
8000515a:	0000                	unimp
8000515c:	002c                	addi	a1,sp,8
8000515e:	0000                	unimp
80005160:	0000003f 0000004b 	.8byte	0x4b0000003f
80005168:	00000053          	fadd.s	ft0,ft0,ft0,rne
8000516c:	0025                	c.nop	9
8000516e:	0000                	unimp
80005170:	0062                	c.slli	zero,0x18
80005172:	0000                	unimp
80005174:	004a                	c.slli	zero,0x12
80005176:	0000                	unimp
80005178:	0056                	c.slli	zero,0x15
8000517a:	0000                	unimp
8000517c:	0029                	c.nop	10
8000517e:	0000                	unimp
80005180:	0030                	addi	a2,sp,8
80005182:	0000                	unimp
80005184:	00000033          	add	zero,zero,zero
80005188:	00000017          	auipc	zero,0x0
8000518c:	0010                	.2byte	0x10
8000518e:	0000                	unimp
80005190:	0031                	c.nop	12
80005192:	0000                	unimp
80005194:	0020                	addi	s0,sp,8
80005196:	0000                	unimp
80005198:	0006                	c.slli	zero,0x1
8000519a:	0000                	unimp
8000519c:	004d                	c.nop	19
8000519e:	0000                	unimp
800051a0:	0035                	c.nop	13
800051a2:	0000                	unimp
800051a4:	0000003f 00000026 	.8byte	0x260000003f
800051ac:	0039                	c.nop	14
800051ae:	0000                	unimp
800051b0:	0004                	.2byte	0x4
800051b2:	0000                	unimp
800051b4:	005e                	c.slli	zero,0x17
800051b6:	0000                	unimp
800051b8:	0000005b          	.4byte	0x5b
800051bc:	0042                	c.slli	zero,0x10
800051be:	0000                	unimp
800051c0:	0001                	nop
800051c2:	0000                	unimp
800051c4:	0045                	c.nop	17
800051c6:	0000                	unimp
800051c8:	0034                	addi	a3,sp,8
800051ca:	0000                	unimp
800051cc:	005d                	c.nop	23
800051ce:	0000                	unimp
800051d0:	00000023          	sb	zero,0(zero) # 0 <threadsense.5>
800051d4:	0009                	c.nop	2
800051d6:	0000                	unimp
800051d8:	0058                	addi	a4,sp,4
800051da:	0000                	unimp
800051dc:	0031                	c.nop	12
800051de:	0000                	unimp
800051e0:	00000023          	sb	zero,0(zero) # 0 <threadsense.5>
800051e4:	0016                	c.slli	zero,0x5
800051e6:	0000                	unimp
800051e8:	0055                	c.nop	21
800051ea:	0000                	unimp
800051ec:	0054                	addi	a3,sp,4
800051ee:	0000                	unimp
800051f0:	005f 0000 0017      	.byte	0x5f, 0x00, 0x00, 0x00, 0x17, 0x00
800051f6:	0000                	unimp
800051f8:	004c                	addi	a1,sp,4
800051fa:	0000                	unimp
800051fc:	005e                	c.slli	zero,0x17
800051fe:	0000                	unimp
80005200:	0049                	c.nop	18
80005202:	0000                	unimp
80005204:	0062                	c.slli	zero,0x18
80005206:	0000                	unimp
80005208:	000a                	c.slli	zero,0x2
8000520a:	0000                	unimp
8000520c:	0015                	c.nop	5
8000520e:	0000                	unimp
80005210:	001d                	c.nop	7
80005212:	0000                	unimp
80005214:	00000043          	fmadd.s	ft0,ft0,ft0,ft0,rne
80005218:	0031                	c.nop	12
8000521a:	0000                	unimp
8000521c:	0051                	c.nop	20
8000521e:	0000                	unimp
80005220:	001d                	c.nop	7
80005222:	0000                	unimp
80005224:	00000057          	.4byte	0x57
80005228:	0025                	c.nop	9
8000522a:	0000                	unimp
8000522c:	0020                	addi	s0,sp,8
8000522e:	0000                	unimp
80005230:	0020                	addi	s0,sp,8
80005232:	0000                	unimp
80005234:	001c                	.2byte	0x1c
80005236:	0000                	unimp
80005238:	0031                	c.nop	12
8000523a:	0000                	unimp
8000523c:	0020                	addi	s0,sp,8
8000523e:	0000                	unimp
80005240:	0060                	addi	s0,sp,12
80005242:	0000                	unimp
80005244:	0035                	c.nop	13
80005246:	0000                	unimp
80005248:	004c                	addi	a1,sp,4
8000524a:	0000                	unimp
8000524c:	0052                	c.slli	zero,0x14
8000524e:	0000                	unimp
80005250:	003d                	c.nop	15
80005252:	0000                	unimp
80005254:	0000000f          	fence	unknown,unknown
80005258:	00000053          	fadd.s	ft0,ft0,ft0,rne
8000525c:	0000002f          	.4byte	0x2f
80005260:	0025                	c.nop	9
80005262:	0000                	unimp
80005264:	00000043          	fmadd.s	ft0,ft0,ft0,ft0,rne
80005268:	001e                	c.slli	zero,0x7
8000526a:	0000                	unimp
8000526c:	00000053          	fadd.s	ft0,ft0,ft0,rne
80005270:	0029                	c.nop	10
80005272:	0000                	unimp
80005274:	0005                	c.nop	1
80005276:	0000                	unimp
80005278:	004d                	c.nop	19
8000527a:	0000                	unimp
8000527c:	000d                	c.nop	3
8000527e:	0000                	unimp
80005280:	0002                	c.slli64	zero
80005282:	0000                	unimp
80005284:	0026                	c.slli	zero,0x9
80005286:	0000                	unimp
80005288:	0056                	c.slli	zero,0x15
8000528a:	0000                	unimp
8000528c:	001e                	c.slli	zero,0x7
8000528e:	0000                	unimp
80005290:	0004                	.2byte	0x4
80005292:	0000                	unimp
80005294:	0022                	c.slli	zero,0x8
80005296:	0000                	unimp
80005298:	003e                	c.slli	zero,0xf
8000529a:	0000                	unimp
8000529c:	0054                	addi	a3,sp,4
8000529e:	0000                	unimp
800052a0:	0048                	addi	a0,sp,4
800052a2:	0000                	unimp
800052a4:	0062                	c.slli	zero,0x18
800052a6:	0000                	unimp
800052a8:	00000043          	fmadd.s	ft0,ft0,ft0,ft0,rne
800052ac:	0004                	.2byte	0x4
800052ae:	0000                	unimp
800052b0:	004d                	c.nop	19
800052b2:	0000                	unimp
800052b4:	0000000f          	fence	unknown,unknown
800052b8:	00000023          	sb	zero,0(zero) # 0 <threadsense.5>
800052bc:	0019                	c.nop	6
800052be:	0000                	unimp
800052c0:	00000043          	fmadd.s	ft0,ft0,ft0,ft0,rne
800052c4:	0000003f 00000006 	.8byte	0x60000003f
800052cc:	0000004f          	fnmadd.s	ft0,ft0,ft0,ft0,rne
800052d0:	004d                	c.nop	19
800052d2:	0000                	unimp
800052d4:	0028                	addi	a0,sp,8
800052d6:	0000                	unimp
800052d8:	0019                	c.nop	6
800052da:	0000                	unimp
800052dc:	0041                	c.nop	16
800052de:	0000                	unimp
800052e0:	0000003b          	fir_exec	zero
800052e4:	0036                	c.slli	zero,0xd
800052e6:	0000                	unimp
800052e8:	0030                	addi	a2,sp,8
800052ea:	0000                	unimp
800052ec:	00000063          	beqz	zero,800052ec <coeffs+0x504>
800052f0:	000a                	c.slli	zero,0x2
800052f2:	0000                	unimp
800052f4:	004c                	addi	a1,sp,4
800052f6:	0000                	unimp
800052f8:	000c                	.2byte	0xc
800052fa:	0000                	unimp
800052fc:	0000000b          	fir_coeff_st	zero,zero,zero
80005300:	0041                	c.nop	16
80005302:	0000                	unimp
80005304:	0031                	c.nop	12
80005306:	0000                	unimp
80005308:	005c                	addi	a5,sp,4
8000530a:	0000                	unimp
8000530c:	0044                	addi	s1,sp,4
8000530e:	0000                	unimp
80005310:	0022                	c.slli	zero,0x8
80005312:	0000                	unimp
80005314:	0035                	c.nop	13
80005316:	0000                	unimp
80005318:	00000003          	lb	zero,0(zero) # 0 <threadsense.5>
8000531c:	0006                	c.slli	zero,0x1
8000531e:	0000                	unimp
80005320:	00000003          	lb	zero,0(zero) # 0 <threadsense.5>
80005324:	0045                	c.nop	17
80005326:	0000                	unimp
80005328:	0009                	c.nop	2
8000532a:	0000                	unimp
8000532c:	0000004f          	fnmadd.s	ft0,ft0,ft0,ft0,rne
80005330:	00000053          	fadd.s	ft0,ft0,ft0,rne
80005334:	005f 0000 0037      	.byte	0x5f, 0x00, 0x00, 0x00, 0x37, 0x00
8000533a:	0000                	unimp
8000533c:	0002                	c.slli64	zero
8000533e:	0000                	unimp
80005340:	0039                	c.nop	14
80005342:	0000                	unimp
80005344:	000d                	c.nop	3
80005346:	0000                	unimp
80005348:	0020                	addi	s0,sp,8
8000534a:	0000                	unimp
8000534c:	0056                	c.slli	zero,0x15
8000534e:	0000                	unimp
80005350:	0034                	addi	a3,sp,8
80005352:	0000                	unimp
80005354:	0039                	c.nop	14
80005356:	0000                	unimp
80005358:	0032                	c.slli	zero,0xc
8000535a:	0000                	unimp
8000535c:	000a                	c.slli	zero,0x2
8000535e:	0000                	unimp
80005360:	003e                	c.slli	zero,0xf
80005362:	0000                	unimp
80005364:	0031                	c.nop	12
80005366:	0000                	unimp
80005368:	0009                	c.nop	2
8000536a:	0000                	unimp
8000536c:	0018                	.2byte	0x18
8000536e:	0000                	unimp
80005370:	004c                	addi	a1,sp,4
80005372:	0000                	unimp
80005374:	0048                	addi	a0,sp,4
80005376:	0000                	unimp
80005378:	0022                	c.slli	zero,0x8
8000537a:	0000                	unimp
8000537c:	0028                	addi	a0,sp,8
8000537e:	0000                	unimp
80005380:	0048                	addi	a0,sp,4
80005382:	0000                	unimp
80005384:	004e                	c.slli	zero,0x13
80005386:	0000                	unimp
80005388:	0000003b          	fir_exec	zero
8000538c:	0005                	c.nop	1
8000538e:	0000                	unimp
80005390:	001e                	c.slli	zero,0x7
80005392:	0000                	unimp
80005394:	003d                	c.nop	15
80005396:	0000                	unimp
80005398:	000a                	c.slli	zero,0x2
8000539a:	0000                	unimp
8000539c:	0054                	addi	a3,sp,4
8000539e:	0000                	unimp
800053a0:	001d                	c.nop	7
800053a2:	0000                	unimp
800053a4:	0012                	c.slli	zero,0x4
800053a6:	0000                	unimp
800053a8:	0000000f          	fence	unknown,unknown
800053ac:	0040                	addi	s0,sp,4
800053ae:	0000                	unimp
800053b0:	000d                	c.nop	3
800053b2:	0000                	unimp
800053b4:	0045                	c.nop	17
800053b6:	0000                	unimp
800053b8:	0011                	c.nop	4
800053ba:	0000                	unimp
800053bc:	0015                	c.nop	5
800053be:	0000                	unimp
800053c0:	0051                	c.nop	20
800053c2:	0000                	unimp
800053c4:	0030                	addi	a2,sp,8
800053c6:	0000                	unimp
800053c8:	0006                	c.slli	zero,0x1
800053ca:	0000                	unimp
800053cc:	0055                	c.nop	21
800053ce:	0000                	unimp
800053d0:	0038                	addi	a4,sp,8
800053d2:	0000                	unimp
800053d4:	0008                	.2byte	0x8
800053d6:	0000                	unimp
800053d8:	005e                	c.slli	zero,0x17
800053da:	0000                	unimp
800053dc:	0046                	c.slli	zero,0x11
800053de:	0000                	unimp
800053e0:	0038                	addi	a4,sp,8
800053e2:	0000                	unimp
800053e4:	0002                	c.slli64	zero
800053e6:	0000                	unimp
800053e8:	005d                	c.nop	23
800053ea:	0000                	unimp
800053ec:	0020                	addi	s0,sp,8
800053ee:	0000                	unimp
800053f0:	0019                	c.nop	6
800053f2:	0000                	unimp
800053f4:	004e                	c.slli	zero,0x13
800053f6:	0000                	unimp
800053f8:	00000017          	auipc	zero,0x0
800053fc:	0060                	addi	s0,sp,12
800053fe:	0000                	unimp
80005400:	00000037          	lui	zero,0x0
80005404:	0052                	c.slli	zero,0x14
80005406:	0000                	unimp
80005408:	0001                	nop
8000540a:	0000                	unimp
8000540c:	0025                	c.nop	9
8000540e:	0000                	unimp
80005410:	002a                	c.slli	zero,0xa
80005412:	0000                	unimp
80005414:	000a                	c.slli	zero,0x2
80005416:	0000                	unimp
80005418:	0014                	.2byte	0x14
8000541a:	0000                	unimp
8000541c:	00000017          	auipc	zero,0x0
80005420:	0050                	addi	a2,sp,4
80005422:	0000                	unimp
80005424:	0056                	c.slli	zero,0x15
80005426:	0000                	unimp
80005428:	0026                	c.slli	zero,0x9
8000542a:	0000                	unimp
8000542c:	002c                	addi	a1,sp,8
8000542e:	0000                	unimp
80005430:	00000037          	lui	zero,0x0
80005434:	0036                	c.slli	zero,0xd
80005436:	0000                	unimp
80005438:	0040                	addi	s0,sp,4
8000543a:	0000                	unimp
8000543c:	00000057          	.4byte	0x57
80005440:	0035                	c.nop	13
80005442:	0000                	unimp
80005444:	0016                	c.slli	zero,0x5
80005446:	0000                	unimp
80005448:	00000047          	fmsub.s	ft0,ft0,ft0,ft0,rne
8000544c:	0009                	c.nop	2
8000544e:	0000                	unimp
80005450:	001d                	c.nop	7
80005452:	0000                	unimp
80005454:	0041                	c.nop	16
80005456:	0000                	unimp
80005458:	004e                	c.slli	zero,0x13
8000545a:	0000                	unimp
8000545c:	0024                	addi	s1,sp,8
8000545e:	0000                	unimp
80005460:	0012                	c.slli	zero,0x4
80005462:	0000                	unimp
80005464:	0016                	c.slli	zero,0x5
80005466:	0000                	unimp
80005468:	00000013          	nop
8000546c:	005f 0000 0063      	.byte	0x5f, 0x00, 0x00, 0x00, 0x63, 0x00
80005472:	0000                	unimp
80005474:	002a                	c.slli	zero,0xa
80005476:	0000                	unimp
80005478:	005a                	c.slli	zero,0x16
8000547a:	0000                	unimp
8000547c:	0006                	c.slli	zero,0x1
8000547e:	0000                	unimp
80005480:	00000017          	auipc	zero,0x0
80005484:	002a                	c.slli	zero,0xa
80005486:	0000                	unimp
80005488:	002a                	c.slli	zero,0xa
8000548a:	0000                	unimp
8000548c:	0040                	addi	s0,sp,4
8000548e:	0000                	unimp
80005490:	0034                	addi	a3,sp,8
80005492:	0000                	unimp
80005494:	000d                	c.nop	3
80005496:	0000                	unimp
80005498:	0026                	c.slli	zero,0x9
8000549a:	0000                	unimp
8000549c:	00000053          	fadd.s	ft0,ft0,ft0,rne
800054a0:	00000063          	beqz	zero,800054a0 <coeffs+0x6b8>
800054a4:	0000004b          	fnmsub.s	ft0,ft0,ft0,ft0,rne
800054a8:	001a                	c.slli	zero,0x6
800054aa:	0000                	unimp
800054ac:	0005                	c.nop	1
800054ae:	0000                	unimp
800054b0:	0050                	addi	a2,sp,4
800054b2:	0000                	unimp
800054b4:	0029                	c.nop	10
800054b6:	0000                	unimp
800054b8:	0000005b          	.4byte	0x5b
800054bc:	0021                	c.nop	8
800054be:	0000                	unimp
800054c0:	003e                	c.slli	zero,0xf
800054c2:	0000                	unimp
800054c4:	000e                	c.slli	zero,0x3
800054c6:	0000                	unimp
800054c8:	0029                	c.nop	10
800054ca:	0000                	unimp
800054cc:	005a                	c.slli	zero,0x16
800054ce:	0000                	unimp
800054d0:	004e                	c.slli	zero,0x13
800054d2:	0000                	unimp
800054d4:	0046                	c.slli	zero,0x11
800054d6:	0000                	unimp
800054d8:	004e                	c.slli	zero,0x13
800054da:	0000                	unimp
800054dc:	0000002f          	.4byte	0x2f
800054e0:	0000005b          	.4byte	0x5b
800054e4:	0060                	addi	s0,sp,12
800054e6:	0000                	unimp
800054e8:	0029                	c.nop	10
800054ea:	0000                	unimp
800054ec:	0029                	c.nop	10
800054ee:	0000                	unimp
800054f0:	0025                	c.nop	9
800054f2:	0000                	unimp
800054f4:	00000053          	fadd.s	ft0,ft0,ft0,rne
800054f8:	002e                	c.slli	zero,0xb
800054fa:	0000                	unimp
800054fc:	0000003b          	fir_exec	zero
80005500:	0018                	.2byte	0x18
80005502:	0000                	unimp
80005504:	00000027          	.4byte	0x27
80005508:	0000004b          	fnmsub.s	ft0,ft0,ft0,ft0,rne
8000550c:	0000001b          	.4byte	0x1b
80005510:	0004                	.2byte	0x4
80005512:	0000                	unimp
80005514:	0040                	addi	s0,sp,4
80005516:	0000                	unimp
80005518:	0009                	c.nop	2
8000551a:	0000                	unimp
8000551c:	0002                	c.slli64	zero
8000551e:	0000                	unimp
80005520:	00000027          	.4byte	0x27
80005524:	0056                	c.slli	zero,0x15
80005526:	0000                	unimp
80005528:	003a                	c.slli	zero,0xe
8000552a:	0000                	unimp
8000552c:	0012                	c.slli	zero,0x4
8000552e:	0000                	unimp
80005530:	0000001b          	.4byte	0x1b
80005534:	0064                	addi	s1,sp,12
80005536:	0000                	unimp
80005538:	0002                	c.slli64	zero
8000553a:	0000                	unimp
8000553c:	0058                	addi	a4,sp,4
8000553e:	0000                	unimp
80005540:	000d                	c.nop	3
80005542:	0000                	unimp
80005544:	005e                	c.slli	zero,0x17
80005546:	0000                	unimp
80005548:	001e                	c.slli	zero,0x7
8000554a:	0000                	unimp
8000554c:	002a                	c.slli	zero,0xa
8000554e:	0000                	unimp
80005550:	0000003f 00000007 	.8byte	0x70000003f
80005558:	0059                	c.nop	22
8000555a:	0000                	unimp
8000555c:	0005                	c.nop	1
8000555e:	0000                	unimp
80005560:	0036                	c.slli	zero,0xd
80005562:	0000                	unimp
80005564:	0051                	c.nop	20
80005566:	0000                	unimp
80005568:	0062                	c.slli	zero,0x18
8000556a:	0000                	unimp
8000556c:	0000005b          	.4byte	0x5b
80005570:	0000003f 0000002b 	.8byte	0x2b0000003f
80005578:	0001                	nop
8000557a:	0000                	unimp
8000557c:	00000057          	.4byte	0x57
80005580:	0052                	c.slli	zero,0x14
80005582:	0000                	unimp
80005584:	0000004b          	fnmsub.s	ft0,ft0,ft0,ft0,rne
80005588:	0041                	c.nop	16
8000558a:	0000                	unimp
8000558c:	0055                	c.nop	21
8000558e:	0000                	unimp
80005590:	00000027          	.4byte	0x27
80005594:	004a                	c.slli	zero,0x12
80005596:	0000                	unimp
80005598:	0026                	c.slli	zero,0x9
8000559a:	0000                	unimp
8000559c:	001d                	c.nop	7
8000559e:	0000                	unimp
800055a0:	0000003b          	fir_exec	zero
800055a4:	0000002f          	.4byte	0x2f
800055a8:	0062                	c.slli	zero,0x18
800055aa:	0000                	unimp
800055ac:	0055                	c.nop	21
800055ae:	0000                	unimp
800055b0:	002e                	c.slli	zero,0xb
800055b2:	0000                	unimp
800055b4:	0064                	addi	s1,sp,12
800055b6:	0000                	unimp
800055b8:	0019                	c.nop	6
800055ba:	0000                	unimp
800055bc:	0000000b          	fir_coeff_st	zero,zero,zero
800055c0:	005d                	c.nop	23
800055c2:	0000                	unimp
800055c4:	0006                	c.slli	zero,0x1
800055c6:	0000                	unimp
800055c8:	0034                	addi	a3,sp,8
800055ca:	0000                	unimp
800055cc:	0008                	.2byte	0x8
800055ce:	0000                	unimp
800055d0:	000c                	.2byte	0xc
800055d2:	0000                	unimp
800055d4:	0028                	addi	a0,sp,8
800055d6:	0000                	unimp
800055d8:	0040                	addi	s0,sp,4
800055da:	0000                	unimp
800055dc:	0011                	c.nop	4
800055de:	0000                	unimp
800055e0:	0015                	c.nop	5
800055e2:	0000                	unimp
800055e4:	003d                	c.nop	15
800055e6:	0000                	unimp
800055e8:	00000007          	.4byte	0x7
800055ec:	00000023          	sb	zero,0(zero) # 0 <threadsense.5>
800055f0:	0038                	addi	a4,sp,8
800055f2:	0000                	unimp
800055f4:	003c                	addi	a5,sp,8
800055f6:	0000                	unimp
800055f8:	0015                	c.nop	5
800055fa:	0000                	unimp
800055fc:	0025                	c.nop	9
800055fe:	0000                	unimp
80005600:	0022                	c.slli	zero,0x8
80005602:	0000                	unimp
80005604:	0056                	c.slli	zero,0x15
80005606:	0000                	unimp
80005608:	0049                	c.nop	18
8000560a:	0000                	unimp
8000560c:	0018                	.2byte	0x18
8000560e:	0000                	unimp
80005610:	0000000b          	fir_coeff_st	zero,zero,zero
80005614:	003e                	c.slli	zero,0xf
80005616:	0000                	unimp
80005618:	0004                	.2byte	0x4
8000561a:	0000                	unimp
8000561c:	0015                	c.nop	5
8000561e:	0000                	unimp
80005620:	0008                	.2byte	0x8
80005622:	0000                	unimp
80005624:	0002                	c.slli64	zero
80005626:	0000                	unimp
80005628:	003a                	c.slli	zero,0xe
8000562a:	0000                	unimp
8000562c:	0005                	c.nop	1
8000562e:	0000                	unimp
80005630:	0035                	c.nop	13
80005632:	0000                	unimp
80005634:	0052                	c.slli	zero,0x14
80005636:	0000                	unimp
80005638:	0000000f          	fence	unknown,unknown
8000563c:	0061                	c.nop	24
8000563e:	0000                	unimp
80005640:	00000057          	.4byte	0x57
80005644:	00000043          	fmadd.s	ft0,ft0,ft0,ft0,rne
80005648:	0038                	addi	a4,sp,8
8000564a:	0000                	unimp
8000564c:	0032                	c.slli	zero,0xc
8000564e:	0000                	unimp
80005650:	003a                	c.slli	zero,0xe
80005652:	0000                	unimp
80005654:	0048                	addi	a0,sp,4
80005656:	0000                	unimp
80005658:	0042                	c.slli	zero,0x10
8000565a:	0000                	unimp
8000565c:	001e                	c.slli	zero,0x7
8000565e:	0000                	unimp
80005660:	0020                	addi	s0,sp,8
80005662:	0000                	unimp
80005664:	0019                	c.nop	6
80005666:	0000                	unimp
80005668:	0041                	c.nop	16
8000566a:	0000                	unimp
8000566c:	00000057          	.4byte	0x57
80005670:	0054                	addi	a3,sp,4
80005672:	0000                	unimp
80005674:	0025                	c.nop	9
80005676:	0000                	unimp
80005678:	0000004b          	fnmsub.s	ft0,ft0,ft0,ft0,rne
8000567c:	0045                	c.nop	17
8000567e:	0000                	unimp
80005680:	004a                	c.slli	zero,0x12
80005682:	0000                	unimp
80005684:	00000063          	beqz	zero,80005684 <coeffs+0x89c>
80005688:	002d                	c.nop	11
8000568a:	0000                	unimp
8000568c:	0054                	addi	a3,sp,4
8000568e:	0000                	unimp
80005690:	003c                	addi	a5,sp,8
80005692:	0000                	unimp
80005694:	0030                	addi	a2,sp,8
80005696:	0000                	unimp
80005698:	0005                	c.nop	1
8000569a:	0000                	unimp
8000569c:	00000013          	nop
800056a0:	0001                	nop
800056a2:	0000                	unimp
800056a4:	003e                	c.slli	zero,0xf
800056a6:	0000                	unimp
800056a8:	0018                	.2byte	0x18
800056aa:	0000                	unimp
800056ac:	0005                	c.nop	1
800056ae:	0000                	unimp
800056b0:	005f 0000 005a      	.byte	0x5f, 0x00, 0x00, 0x00, 0x5a, 0x00
800056b6:	0000                	unimp
800056b8:	0036                	c.slli	zero,0xd
800056ba:	0000                	unimp
800056bc:	0021                	c.nop	8
800056be:	0000                	unimp
800056c0:	0038                	addi	a4,sp,8
800056c2:	0000                	unimp
800056c4:	0009                	c.nop	2
800056c6:	0000                	unimp
800056c8:	0022                	c.slli	zero,0x8
800056ca:	0000                	unimp
800056cc:	0042                	c.slli	zero,0x10
800056ce:	0000                	unimp
800056d0:	0050                	addi	a2,sp,4
800056d2:	0000                	unimp
800056d4:	00000033          	add	zero,zero,zero
800056d8:	005f 0000 0040      	.byte	0x5f, 0x00, 0x00, 0x00, 0x40, 0x00
800056de:	0000                	unimp
800056e0:	0000004b          	fnmsub.s	ft0,ft0,ft0,ft0,rne
800056e4:	0000003b          	fir_exec	zero
800056e8:	0002                	c.slli64	zero
800056ea:	0000                	unimp
800056ec:	000a                	c.slli	zero,0x2
800056ee:	0000                	unimp
800056f0:	0030                	addi	a2,sp,8
800056f2:	0000                	unimp
800056f4:	004d                	c.nop	19
800056f6:	0000                	unimp
800056f8:	0000004f          	fnmadd.s	ft0,ft0,ft0,ft0,rne
800056fc:	0015                	c.nop	5
800056fe:	0000                	unimp
80005700:	0000004b          	fnmsub.s	ft0,ft0,ft0,ft0,rne
80005704:	0000004b          	fnmsub.s	ft0,ft0,ft0,ft0,rne
80005708:	0005                	c.nop	1
8000570a:	0000                	unimp
8000570c:	00000057          	.4byte	0x57
80005710:	004a                	c.slli	zero,0x12
80005712:	0000                	unimp
80005714:	003d                	c.nop	15
80005716:	0000                	unimp
80005718:	0005                	c.nop	1
8000571a:	0000                	unimp
8000571c:	0000004b          	fnmsub.s	ft0,ft0,ft0,ft0,rne
80005720:	004a                	c.slli	zero,0x12
80005722:	0000                	unimp
80005724:	001c                	.2byte	0x1c
80005726:	0000                	unimp
80005728:	001f 0000 0014      	.byte	0x1f, 0x00, 0x00, 0x00, 0x14, 0x00
8000572e:	0000                	unimp
80005730:	0012                	c.slli	zero,0x4
80005732:	0000                	unimp
80005734:	0054                	addi	a3,sp,4
80005736:	0000                	unimp
80005738:	0034                	addi	a3,sp,8
8000573a:	0000                	unimp
8000573c:	0019                	c.nop	6
8000573e:	0000                	unimp
80005740:	002d                	c.nop	11
80005742:	0000                	unimp
80005744:	0055                	c.nop	21
80005746:	0000                	unimp
80005748:	005a                	c.slli	zero,0x16
8000574a:	0000                	unimp
8000574c:	004c                	addi	a1,sp,4
8000574e:	0000                	unimp
80005750:	00000023          	sb	zero,0(zero) # 0 <threadsense.5>
80005754:	0025                	c.nop	9
80005756:	0000                	unimp
80005758:	00000027          	.4byte	0x27
8000575c:	003e                	c.slli	zero,0xf
8000575e:	0000                	unimp
80005760:	0000002f          	.4byte	0x2f
80005764:	0029                	c.nop	10
80005766:	0000                	unimp
80005768:	00000047          	fmsub.s	ft0,ft0,ft0,ft0,rne
8000576c:	005e                	c.slli	zero,0x17
8000576e:	0000                	unimp
80005770:	0045                	c.nop	17
80005772:	0000                	unimp
80005774:	0001                	nop
80005776:	0000                	unimp
80005778:	0000000f          	fence	unknown,unknown
8000577c:	005f 0000 004b      	.byte	0x5f, 0x00, 0x00, 0x00, 0x4b, 0x00
80005782:	0000                	unimp
80005784:	00000013          	nop
80005788:	0051                	c.nop	20
8000578a:	0000                	unimp
8000578c:	0031                	c.nop	12
8000578e:	0000                	unimp
80005790:	001f 0000 0056      	.byte	0x1f, 0x00, 0x00, 0x00, 0x56, 0x00
80005796:	0000                	unimp
80005798:	0000004b          	fnmsub.s	ft0,ft0,ft0,ft0,rne
8000579c:	0004                	.2byte	0x4
8000579e:	0000                	unimp
800057a0:	0041                	c.nop	16
800057a2:	0000                	unimp
800057a4:	0005                	c.nop	1
800057a6:	0000                	unimp
800057a8:	00000017          	auipc	zero,0x0
800057ac:	0022                	c.slli	zero,0x8
800057ae:	0000                	unimp
800057b0:	0029                	c.nop	10
800057b2:	0000                	unimp
800057b4:	004a                	c.slli	zero,0x12
800057b6:	0000                	unimp
800057b8:	0000003b          	fir_exec	zero
800057bc:	0055                	c.nop	21
800057be:	0000                	unimp
800057c0:	000a                	c.slli	zero,0x2
800057c2:	0000                	unimp
800057c4:	0064                	addi	s1,sp,12
800057c6:	0000                	unimp
800057c8:	000c                	.2byte	0xc
800057ca:	0000                	unimp
800057cc:	0060                	addi	s0,sp,12
800057ce:	0000                	unimp
800057d0:	0024                	addi	s1,sp,8
800057d2:	0000                	unimp
800057d4:	00000003          	lb	zero,0(zero) # 0 <threadsense.5>
800057d8:	0039                	c.nop	14
800057da:	0000                	unimp
800057dc:	00000053          	fadd.s	ft0,ft0,ft0,rne
800057e0:	0000002b          	fir_data_st	zero,zero
800057e4:	001c                	.2byte	0x1c
800057e6:	0000                	unimp
800057e8:	004c                	addi	a1,sp,4
800057ea:	0000                	unimp
800057ec:	0000003f 00000050 	.8byte	0x500000003f
800057f4:	005a                	c.slli	zero,0x16
800057f6:	0000                	unimp
800057f8:	0039                	c.nop	14
800057fa:	0000                	unimp
800057fc:	00000037          	lui	zero,0x0
80005800:	003c                	addi	a5,sp,8
80005802:	0000                	unimp
80005804:	0026                	c.slli	zero,0x9
80005806:	0000                	unimp
80005808:	00000037          	lui	zero,0x0
8000580c:	005a                	c.slli	zero,0x16
8000580e:	0000                	unimp
80005810:	0000004b          	fnmsub.s	ft0,ft0,ft0,ft0,rne
80005814:	001d                	c.nop	7
80005816:	0000                	unimp
80005818:	002d                	c.nop	11
8000581a:	0000                	unimp
8000581c:	00000027          	.4byte	0x27
80005820:	0055                	c.nop	21
80005822:	0000                	unimp
80005824:	00000043          	fmadd.s	ft0,ft0,ft0,ft0,rne
80005828:	0049                	c.nop	18
8000582a:	0000                	unimp
8000582c:	004d                	c.nop	19
8000582e:	0000                	unimp
80005830:	005c                	addi	a5,sp,4
80005832:	0000                	unimp
80005834:	00000053          	fadd.s	ft0,ft0,ft0,rne
80005838:	000d                	c.nop	3
8000583a:	0000                	unimp
8000583c:	0035                	c.nop	13
8000583e:	0000                	unimp
80005840:	0022                	c.slli	zero,0x8
80005842:	0000                	unimp
80005844:	0019                	c.nop	6
80005846:	0000                	unimp
80005848:	0031                	c.nop	12
8000584a:	0000                	unimp
8000584c:	0046                	c.slli	zero,0x11
8000584e:	0000                	unimp
80005850:	0000001b          	.4byte	0x1b
80005854:	0005                	c.nop	1
80005856:	0000                	unimp
80005858:	0004                	.2byte	0x4
8000585a:	0000                	unimp
8000585c:	0015                	c.nop	5
8000585e:	0000                	unimp
80005860:	0054                	addi	a3,sp,4
80005862:	0000                	unimp
80005864:	001f 0000 0053      	.byte	0x1f, 0x00, 0x00, 0x00, 0x53, 0x00
8000586a:	0000                	unimp
8000586c:	0040                	addi	s0,sp,4
8000586e:	0000                	unimp
80005870:	0049                	c.nop	18
80005872:	0000                	unimp
80005874:	0000005b          	.4byte	0x5b
80005878:	0046                	c.slli	zero,0x11
8000587a:	0000                	unimp
8000587c:	0020                	addi	s0,sp,8
8000587e:	0000                	unimp
80005880:	0050                	addi	a2,sp,4
80005882:	0000                	unimp
80005884:	0018                	.2byte	0x18
80005886:	0000                	unimp
80005888:	004a                	c.slli	zero,0x12
8000588a:	0000                	unimp
8000588c:	0036                	c.slli	zero,0xd
8000588e:	0000                	unimp
80005890:	0004                	.2byte	0x4
80005892:	0000                	unimp
80005894:	0046                	c.slli	zero,0x11
80005896:	0000                	unimp
80005898:	005d                	c.nop	23
8000589a:	0000                	unimp
8000589c:	0028                	addi	a0,sp,8
8000589e:	0000                	unimp
800058a0:	0025                	c.nop	9
800058a2:	0000                	unimp
800058a4:	0011                	c.nop	4
800058a6:	0000                	unimp
800058a8:	0011                	c.nop	4
800058aa:	0000                	unimp
800058ac:	0050                	addi	a2,sp,4
800058ae:	0000                	unimp
800058b0:	00000033          	add	zero,zero,zero
800058b4:	001d                	c.nop	7
800058b6:	0000                	unimp
800058b8:	0055                	c.nop	21
800058ba:	0000                	unimp
800058bc:	0054                	addi	a3,sp,4
800058be:	0000                	unimp
800058c0:	0005                	c.nop	1
800058c2:	0000                	unimp
800058c4:	0021                	c.nop	8
800058c6:	0000                	unimp
800058c8:	0005                	c.nop	1
800058ca:	0000                	unimp
800058cc:	001f 0000 0059      	.byte	0x1f, 0x00, 0x00, 0x00, 0x59, 0x00
800058d2:	0000                	unimp
800058d4:	0008                	.2byte	0x8
800058d6:	0000                	unimp
800058d8:	00000003          	lb	zero,0(zero) # 0 <threadsense.5>
800058dc:	0049                	c.nop	18
800058de:	0000                	unimp
800058e0:	00000027          	.4byte	0x27
800058e4:	0055                	c.nop	21
800058e6:	0000                	unimp
800058e8:	0058                	addi	a4,sp,4
800058ea:	0000                	unimp
800058ec:	0000003f 0000001c 	.8byte	0x1c0000003f
800058f4:	0039                	c.nop	14
800058f6:	0000                	unimp
800058f8:	002e                	c.slli	zero,0xb
800058fa:	0000                	unimp
800058fc:	00000007          	.4byte	0x7
80005900:	0020                	addi	s0,sp,8
80005902:	0000                	unimp
80005904:	00000013          	nop
80005908:	003d                	c.nop	15
8000590a:	0000                	unimp
8000590c:	00000057          	.4byte	0x57
80005910:	0059                	c.nop	22
80005912:	0000                	unimp
80005914:	0005                	c.nop	1
80005916:	0000                	unimp
80005918:	001a                	c.slli	zero,0x6
8000591a:	0000                	unimp
8000591c:	004d                	c.nop	19
8000591e:	0000                	unimp
80005920:	0049                	c.nop	18
80005922:	0000                	unimp
80005924:	002a                	c.slli	zero,0xa
80005926:	0000                	unimp
80005928:	0008                	.2byte	0x8
8000592a:	0000                	unimp
8000592c:	00000017          	auipc	zero,0x0
80005930:	00000017          	auipc	zero,0x0
80005934:	005c                	addi	a5,sp,4
80005936:	0000                	unimp
80005938:	0006                	c.slli	zero,0x1
8000593a:	0000                	unimp
8000593c:	0000001b          	.4byte	0x1b
80005940:	004c                	addi	a1,sp,4
80005942:	0000                	unimp
80005944:	0000000b          	fir_coeff_st	zero,zero,zero
80005948:	000a                	c.slli	zero,0x2
8000594a:	0000                	unimp
8000594c:	0041                	c.nop	16
8000594e:	0000                	unimp
80005950:	0046                	c.slli	zero,0x11
80005952:	0000                	unimp
80005954:	000c                	.2byte	0xc
80005956:	0000                	unimp
80005958:	0059                	c.nop	22
8000595a:	0000                	unimp
8000595c:	003c                	addi	a5,sp,8
8000595e:	0000                	unimp
80005960:	0031                	c.nop	12
80005962:	0000                	unimp
80005964:	004c                	addi	a1,sp,4
80005966:	0000                	unimp
80005968:	0016                	c.slli	zero,0x5
8000596a:	0000                	unimp
8000596c:	004c                	addi	a1,sp,4
8000596e:	0000                	unimp
80005970:	0054                	addi	a3,sp,4
80005972:	0000                	unimp
80005974:	0044                	addi	s1,sp,4
80005976:	0000                	unimp
80005978:	0022                	c.slli	zero,0x8
8000597a:	0000                	unimp
8000597c:	0000000f          	fence	unknown,unknown
80005980:	0026                	c.slli	zero,0x9
80005982:	0000                	unimp
80005984:	002e                	c.slli	zero,0xb
80005986:	0000                	unimp
80005988:	0001                	nop
8000598a:	0000                	unimp
8000598c:	004e                	c.slli	zero,0x13
8000598e:	0000                	unimp
80005990:	0032                	c.slli	zero,0xc
80005992:	0000                	unimp
80005994:	004e                	c.slli	zero,0x13
80005996:	0000                	unimp
80005998:	0036                	c.slli	zero,0xd
8000599a:	0000                	unimp
8000599c:	004a                	c.slli	zero,0x12
8000599e:	0000                	unimp
800059a0:	0048                	addi	a0,sp,4
800059a2:	0000                	unimp
800059a4:	000e                	c.slli	zero,0x3
800059a6:	0000                	unimp
800059a8:	0060                	addi	s0,sp,12
800059aa:	0000                	unimp
800059ac:	002e                	c.slli	zero,0xb
800059ae:	0000                	unimp
800059b0:	0039                	c.nop	14
800059b2:	0000                	unimp
800059b4:	0036                	c.slli	zero,0xd
800059b6:	0000                	unimp
800059b8:	0048                	addi	a0,sp,4
800059ba:	0000                	unimp
800059bc:	0021                	c.nop	8
800059be:	0000                	unimp
800059c0:	0010                	.2byte	0x10
800059c2:	0000                	unimp
800059c4:	0051                	c.nop	20
800059c6:	0000                	unimp
800059c8:	0061                	c.nop	24
800059ca:	0000                	unimp
800059cc:	0055                	c.nop	21
800059ce:	0000                	unimp
800059d0:	002d                	c.nop	11
800059d2:	0000                	unimp
800059d4:	0055                	c.nop	21
800059d6:	0000                	unimp
800059d8:	002d                	c.nop	11
800059da:	0000                	unimp
800059dc:	005d                	c.nop	23
800059de:	0000                	unimp
800059e0:	000c                	.2byte	0xc
800059e2:	0000                	unimp
800059e4:	0042                	c.slli	zero,0x10
800059e6:	0000                	unimp
800059e8:	0044                	addi	s1,sp,4
800059ea:	0000                	unimp
800059ec:	005f 0000 0021      	.byte	0x5f, 0x00, 0x00, 0x00, 0x21, 0x00
800059f2:	0000                	unimp
800059f4:	0035                	c.nop	13
800059f6:	0000                	unimp
800059f8:	003d                	c.nop	15
800059fa:	0000                	unimp
800059fc:	00000017          	auipc	zero,0x0
80005a00:	00000063          	beqz	zero,80005a00 <coeffs+0xc18>
80005a04:	000d                	c.nop	3
80005a06:	0000                	unimp
80005a08:	0064                	addi	s1,sp,12
80005a0a:	0000                	unimp
80005a0c:	0064                	addi	s1,sp,12
80005a0e:	0000                	unimp
80005a10:	005a                	c.slli	zero,0x16
80005a12:	0000                	unimp
80005a14:	0036                	c.slli	zero,0xd
80005a16:	0000                	unimp
80005a18:	004a                	c.slli	zero,0x12
80005a1a:	0000                	unimp
80005a1c:	000d                	c.nop	3
80005a1e:	0000                	unimp
80005a20:	00000013          	nop
80005a24:	0015                	c.nop	5
80005a26:	0000                	unimp
80005a28:	003a                	c.slli	zero,0xe
80005a2a:	0000                	unimp
80005a2c:	0000004b          	fnmsub.s	ft0,ft0,ft0,ft0,rne
80005a30:	004a                	c.slli	zero,0x12
80005a32:	0000                	unimp
80005a34:	001e                	c.slli	zero,0x7
80005a36:	0000                	unimp
80005a38:	00000007          	.4byte	0x7
80005a3c:	0059                	c.nop	22
80005a3e:	0000                	unimp
80005a40:	003e                	c.slli	zero,0xf
80005a42:	0000                	unimp
80005a44:	00000037          	lui	zero,0x0
80005a48:	004a                	c.slli	zero,0x12
80005a4a:	0000                	unimp
80005a4c:	0006                	c.slli	zero,0x1
80005a4e:	0000                	unimp
80005a50:	0000005b          	.4byte	0x5b
80005a54:	0046                	c.slli	zero,0x11
80005a56:	0000                	unimp
80005a58:	0032                	c.slli	zero,0xc
80005a5a:	0000                	unimp
80005a5c:	0002                	c.slli64	zero
80005a5e:	0000                	unimp
80005a60:	00000023          	sb	zero,0(zero) # 0 <threadsense.5>
80005a64:	0045                	c.nop	17
80005a66:	0000                	unimp
80005a68:	0030                	addi	a2,sp,8
80005a6a:	0000                	unimp
80005a6c:	0014                	.2byte	0x14
80005a6e:	0000                	unimp
80005a70:	0016                	c.slli	zero,0x5
80005a72:	0000                	unimp
80005a74:	0008                	.2byte	0x8
80005a76:	0000                	unimp
80005a78:	002a                	c.slli	zero,0xa
80005a7a:	0000                	unimp
80005a7c:	0014                	.2byte	0x14
80005a7e:	0000                	unimp
80005a80:	0014                	.2byte	0x14
80005a82:	0000                	unimp
80005a84:	0029                	c.nop	10
80005a86:	0000                	unimp
80005a88:	00000013          	nop
80005a8c:	003e                	c.slli	zero,0xf
80005a8e:	0000                	unimp
80005a90:	002e                	c.slli	zero,0xb
80005a92:	0000                	unimp
80005a94:	002c                	addi	a1,sp,8
80005a96:	0000                	unimp
80005a98:	004a                	c.slli	zero,0x12
80005a9a:	0000                	unimp
80005a9c:	0010                	.2byte	0x10
80005a9e:	0000                	unimp
80005aa0:	0041                	c.nop	16
80005aa2:	0000                	unimp
80005aa4:	0020                	addi	s0,sp,8
80005aa6:	0000                	unimp
80005aa8:	0000005b          	.4byte	0x5b
80005aac:	0026                	c.slli	zero,0x9
80005aae:	0000                	unimp
80005ab0:	000d                	c.nop	3
80005ab2:	0000                	unimp
80005ab4:	0031                	c.nop	12
80005ab6:	0000                	unimp
80005ab8:	0000001b          	.4byte	0x1b
80005abc:	001a                	c.slli	zero,0x6
80005abe:	0000                	unimp
80005ac0:	0038                	addi	a4,sp,8
80005ac2:	0000                	unimp
80005ac4:	0034                	addi	a3,sp,8
80005ac6:	0000                	unimp
80005ac8:	0054                	addi	a3,sp,4
80005aca:	0000                	unimp
80005acc:	0062                	c.slli	zero,0x18
80005ace:	0000                	unimp
80005ad0:	0015                	c.nop	5
80005ad2:	0000                	unimp
80005ad4:	0021                	c.nop	8
80005ad6:	0000                	unimp
80005ad8:	0064                	addi	s1,sp,12
80005ada:	0000                	unimp
80005adc:	00000007          	.4byte	0x7
80005ae0:	0002                	c.slli64	zero
80005ae2:	0000                	unimp
80005ae4:	00000063          	beqz	zero,80005ae4 <coeffs+0xcfc>
80005ae8:	004e                	c.slli	zero,0x13
80005aea:	0000                	unimp
80005aec:	00000017          	auipc	zero,0x0
80005af0:	00000007          	.4byte	0x7
80005af4:	00000013          	nop
80005af8:	005e                	c.slli	zero,0x17
80005afa:	0000                	unimp
80005afc:	001a                	c.slli	zero,0x6
80005afe:	0000                	unimp
80005b00:	000c                	.2byte	0xc
80005b02:	0000                	unimp
80005b04:	000c                	.2byte	0xc
80005b06:	0000                	unimp
80005b08:	00000057          	.4byte	0x57
80005b0c:	0009                	c.nop	2
80005b0e:	0000                	unimp
80005b10:	0008                	.2byte	0x8
80005b12:	0000                	unimp
80005b14:	003d                	c.nop	15
80005b16:	0000                	unimp
80005b18:	0019                	c.nop	6
80005b1a:	0000                	unimp
80005b1c:	0048                	addi	a0,sp,4
80005b1e:	0000                	unimp
80005b20:	002c                	addi	a1,sp,8
80005b22:	0000                	unimp
80005b24:	00000043          	fmadd.s	ft0,ft0,ft0,ft0,rne
80005b28:	0009                	c.nop	2
80005b2a:	0000                	unimp
80005b2c:	0038                	addi	a4,sp,8
80005b2e:	0000                	unimp
80005b30:	00000043          	fmadd.s	ft0,ft0,ft0,ft0,rne
80005b34:	00000057          	.4byte	0x57
80005b38:	0051                	c.nop	20
80005b3a:	0000                	unimp
80005b3c:	004a                	c.slli	zero,0x12
80005b3e:	0000                	unimp
80005b40:	005a                	c.slli	zero,0x16
80005b42:	0000                	unimp
80005b44:	0040                	addi	s0,sp,4
80005b46:	0000                	unimp
80005b48:	0048                	addi	a0,sp,4
80005b4a:	0000                	unimp
80005b4c:	003e                	c.slli	zero,0xf
80005b4e:	0000                	unimp
80005b50:	0061                	c.nop	24
80005b52:	0000                	unimp
80005b54:	00000017          	auipc	zero,0x0
80005b58:	0045                	c.nop	17
80005b5a:	0000                	unimp
80005b5c:	0032                	c.slli	zero,0xc
80005b5e:	0000                	unimp
80005b60:	0015                	c.nop	5
80005b62:	0000                	unimp
80005b64:	002e                	c.slli	zero,0xb
80005b66:	0000                	unimp
80005b68:	0048                	addi	a0,sp,4
80005b6a:	0000                	unimp
80005b6c:	0000001b          	.4byte	0x1b
80005b70:	0011                	c.nop	4
80005b72:	0000                	unimp
80005b74:	0041                	c.nop	16
80005b76:	0000                	unimp
80005b78:	0005                	c.nop	1
80005b7a:	0000                	unimp
80005b7c:	0050                	addi	a2,sp,4
80005b7e:	0000                	unimp
80005b80:	001c                	.2byte	0x1c
80005b82:	0000                	unimp
80005b84:	0000002b          	fir_data_st	zero,zero
80005b88:	0058                	addi	a4,sp,4
80005b8a:	0000                	unimp
80005b8c:	00000023          	sb	zero,0(zero) # 0 <threadsense.5>
80005b90:	00000037          	lui	zero,0x0
80005b94:	0040                	addi	s0,sp,4
80005b96:	0000                	unimp
80005b98:	003a                	c.slli	zero,0xe
80005b9a:	0000                	unimp
80005b9c:	0062                	c.slli	zero,0x18
80005b9e:	0000                	unimp
80005ba0:	0052                	c.slli	zero,0x14
80005ba2:	0000                	unimp
80005ba4:	00000013          	nop
80005ba8:	0035                	c.nop	13
80005baa:	0000                	unimp
80005bac:	0001                	nop
80005bae:	0000                	unimp
80005bb0:	0039                	c.nop	14
80005bb2:	0000                	unimp
80005bb4:	0056                	c.slli	zero,0x15
80005bb6:	0000                	unimp
80005bb8:	001a                	c.slli	zero,0x6
80005bba:	0000                	unimp
80005bbc:	0000002f          	.4byte	0x2f
80005bc0:	0031                	c.nop	12
80005bc2:	0000                	unimp
80005bc4:	0061                	c.nop	24
80005bc6:	0000                	unimp
80005bc8:	0008                	.2byte	0x8
80005bca:	0000                	unimp
80005bcc:	0061                	c.nop	24
80005bce:	0000                	unimp
80005bd0:	00000047          	fmsub.s	ft0,ft0,ft0,ft0,rne
80005bd4:	001c                	.2byte	0x1c
80005bd6:	0000                	unimp
80005bd8:	002e                	c.slli	zero,0xb
80005bda:	0000                	unimp
80005bdc:	002c                	addi	a1,sp,8
80005bde:	0000                	unimp
80005be0:	004a                	c.slli	zero,0x12
80005be2:	0000                	unimp
80005be4:	0045                	c.nop	17
80005be6:	0000                	unimp
80005be8:	0016                	c.slli	zero,0x5
80005bea:	0000                	unimp
80005bec:	002a                	c.slli	zero,0xa
80005bee:	0000                	unimp
80005bf0:	0055                	c.nop	21
80005bf2:	0000                	unimp
80005bf4:	001a                	c.slli	zero,0x6
80005bf6:	0000                	unimp
80005bf8:	0015                	c.nop	5
80005bfa:	0000                	unimp
80005bfc:	0041                	c.nop	16
80005bfe:	0000                	unimp
80005c00:	0015                	c.nop	5
80005c02:	0000                	unimp
80005c04:	003c                	addi	a5,sp,8
80005c06:	0000                	unimp
80005c08:	00000063          	beqz	zero,80005c08 <coeffs+0xe20>
80005c0c:	0000004b          	fnmsub.s	ft0,ft0,ft0,ft0,rne
80005c10:	0018                	.2byte	0x18
80005c12:	0000                	unimp
80005c14:	0009                	c.nop	2
80005c16:	0000                	unimp
80005c18:	0049                	c.nop	18
80005c1a:	0000                	unimp
80005c1c:	0039                	c.nop	14
80005c1e:	0000                	unimp
80005c20:	0000001b          	.4byte	0x1b
80005c24:	0019                	c.nop	6
80005c26:	0000                	unimp
80005c28:	0009                	c.nop	2
80005c2a:	0000                	unimp
80005c2c:	00000053          	fadd.s	ft0,ft0,ft0,rne
80005c30:	000a                	c.slli	zero,0x2
80005c32:	0000                	unimp
80005c34:	00000023          	sb	zero,0(zero) # 0 <threadsense.5>
80005c38:	001d                	c.nop	7
80005c3a:	0000                	unimp
80005c3c:	0000000b          	fir_coeff_st	zero,zero,zero
80005c40:	00000053          	fadd.s	ft0,ft0,ft0,rne
80005c44:	0059                	c.nop	22
80005c46:	0000                	unimp
80005c48:	0000003b          	fir_exec	zero
80005c4c:	0036                	c.slli	zero,0xd
80005c4e:	0000                	unimp
80005c50:	0010                	.2byte	0x10
80005c52:	0000                	unimp
80005c54:	0039                	c.nop	14
80005c56:	0000                	unimp
80005c58:	0061                	c.nop	24
80005c5a:	0000                	unimp
80005c5c:	0029                	c.nop	10
80005c5e:	0000                	unimp
80005c60:	0019                	c.nop	6
80005c62:	0000                	unimp
80005c64:	0046                	c.slli	zero,0x11
80005c66:	0000                	unimp
80005c68:	0052                	c.slli	zero,0x14
80005c6a:	0000                	unimp
80005c6c:	003e                	c.slli	zero,0xf
80005c6e:	0000                	unimp
80005c70:	0060                	addi	s0,sp,12
80005c72:	0000                	unimp
80005c74:	0036                	c.slli	zero,0xd
80005c76:	0000                	unimp
80005c78:	001a                	c.slli	zero,0x6
80005c7a:	0000                	unimp
80005c7c:	0010                	.2byte	0x10
80005c7e:	0000                	unimp
80005c80:	000e                	c.slli	zero,0x3
80005c82:	0000                	unimp
80005c84:	004c                	addi	a1,sp,4
80005c86:	0000                	unimp
80005c88:	005a                	c.slli	zero,0x16
80005c8a:	0000                	unimp
80005c8c:	0025                	c.nop	9
80005c8e:	0000                	unimp
80005c90:	0054                	addi	a3,sp,4
80005c92:	0000                	unimp
80005c94:	000e                	c.slli	zero,0x3
80005c96:	0000                	unimp
80005c98:	002d                	c.nop	11
80005c9a:	0000                	unimp
80005c9c:	000a                	c.slli	zero,0x2
80005c9e:	0000                	unimp
80005ca0:	00000027          	.4byte	0x27
80005ca4:	0036                	c.slli	zero,0xd
80005ca6:	0000                	unimp
80005ca8:	005d                	c.nop	23
80005caa:	0000                	unimp
80005cac:	0064                	addi	s1,sp,12
80005cae:	0000                	unimp
80005cb0:	0058                	addi	a4,sp,4
80005cb2:	0000                	unimp
80005cb4:	0049                	c.nop	18
80005cb6:	0000                	unimp
80005cb8:	003e                	c.slli	zero,0xf
80005cba:	0000                	unimp
80005cbc:	0046                	c.slli	zero,0x11
80005cbe:	0000                	unimp
80005cc0:	000d                	c.nop	3
80005cc2:	0000                	unimp
80005cc4:	0049                	c.nop	18
80005cc6:	0000                	unimp
80005cc8:	0000004b          	fnmsub.s	ft0,ft0,ft0,ft0,rne
80005ccc:	0051                	c.nop	20
80005cce:	0000                	unimp
80005cd0:	001d                	c.nop	7
80005cd2:	0000                	unimp
80005cd4:	00000017          	auipc	zero,0x0
80005cd8:	0015                	c.nop	5
80005cda:	0000                	unimp
80005cdc:	0035                	c.nop	13
80005cde:	0000                	unimp
80005ce0:	005d                	c.nop	23
80005ce2:	0000                	unimp
80005ce4:	00000037          	lui	zero,0x0
80005ce8:	000e                	c.slli	zero,0x3
80005cea:	0000                	unimp
80005cec:	0028                	addi	a0,sp,8
80005cee:	0000                	unimp
80005cf0:	0008                	.2byte	0x8
80005cf2:	0000                	unimp
80005cf4:	0000005b          	.4byte	0x5b
80005cf8:	00000007          	.4byte	0x7
80005cfc:	0015                	c.nop	5
80005cfe:	0000                	unimp
80005d00:	00000043          	fmadd.s	ft0,ft0,ft0,ft0,rne
80005d04:	0030                	addi	a2,sp,8
80005d06:	0000                	unimp
80005d08:	0009                	c.nop	2
80005d0a:	0000                	unimp
80005d0c:	0032                	c.slli	zero,0xc
80005d0e:	0000                	unimp
80005d10:	003e                	c.slli	zero,0xf
80005d12:	0000                	unimp
80005d14:	0006                	c.slli	zero,0x1
80005d16:	0000                	unimp
80005d18:	000c                	.2byte	0xc
80005d1a:	0000                	unimp
80005d1c:	0034                	addi	a3,sp,8
80005d1e:	0000                	unimp
80005d20:	0000003b          	fir_exec	zero
80005d24:	0038                	addi	a4,sp,8
80005d26:	0000                	unimp
80005d28:	00000033          	add	zero,zero,zero
80005d2c:	0062                	c.slli	zero,0x18
80005d2e:	0000                	unimp
80005d30:	0050                	addi	a2,sp,4
80005d32:	0000                	unimp
80005d34:	0041                	c.nop	16
80005d36:	0000                	unimp
80005d38:	00000013          	nop
80005d3c:	005d                	c.nop	23
80005d3e:	0000                	unimp
80005d40:	0025                	c.nop	9
80005d42:	0000                	unimp
80005d44:	002e                	c.slli	zero,0xb
80005d46:	0000                	unimp
80005d48:	0049                	c.nop	18
80005d4a:	0000                	unimp
80005d4c:	0041                	c.nop	16
80005d4e:	0000                	unimp
80005d50:	0044                	addi	s1,sp,4
80005d52:	0000                	unimp
80005d54:	002d                	c.nop	11
80005d56:	0000                	unimp
80005d58:	0045                	c.nop	17
80005d5a:	0000                	unimp
80005d5c:	003c                	addi	a5,sp,8
80005d5e:	0000                	unimp
80005d60:	00000033          	add	zero,zero,zero
80005d64:	00000023          	sb	zero,0(zero) # 0 <threadsense.5>
80005d68:	00000033          	add	zero,zero,zero
80005d6c:	0000003b          	fir_exec	zero
80005d70:	0019                	c.nop	6
80005d72:	0000                	unimp
80005d74:	0039                	c.nop	14
80005d76:	0000                	unimp
80005d78:	001f 0000 002b      	.byte	0x1f, 0x00, 0x00, 0x00, 0x2b, 0x00
80005d7e:	0000                	unimp
80005d80:	0005                	c.nop	1
80005d82:	0000                	unimp
80005d84:	005c                	addi	a5,sp,4
80005d86:	0000                	unimp
