
baseline.riscv:     file format elf32-littleriscv


Disassembly of section .text.init:

80000000 <_start>:
80000000:	4081                	li	ra,0
80000002:	4101                	li	sp,0
80000004:	4181                	li	gp,0
80000006:	4201                	li	tp,0
80000008:	4281                	li	t0,0
8000000a:	4301                	li	t1,0
8000000c:	4381                	li	t2,0
8000000e:	4401                	li	s0,0
80000010:	4481                	li	s1,0
80000012:	4501                	li	a0,0
80000014:	4581                	li	a1,0
80000016:	4601                	li	a2,0
80000018:	4681                	li	a3,0
8000001a:	4701                	li	a4,0
8000001c:	4781                	li	a5,0
8000001e:	4801                	li	a6,0
80000020:	4881                	li	a7,0
80000022:	4901                	li	s2,0
80000024:	4981                	li	s3,0
80000026:	4a01                	li	s4,0
80000028:	4a81                	li	s5,0
8000002a:	4b01                	li	s6,0
8000002c:	4b81                	li	s7,0
8000002e:	4c01                	li	s8,0
80000030:	4c81                	li	s9,0
80000032:	4d01                	li	s10,0
80000034:	4d81                	li	s11,0
80000036:	4e01                	li	t3,0
80000038:	4e81                	li	t4,0
8000003a:	4f01                	li	t5,0
8000003c:	4f81                	li	t6,0
8000003e:	62f9                	lui	t0,0x1e
80000040:	3002a073          	csrs	mstatus,t0
80000044:	4285                	li	t0,1
80000046:	02fe                	slli	t0,t0,0x1f
80000048:	0002c863          	bltz	t0,80000058 <_start+0x58>
8000004c:	4505                	li	a0,1
8000004e:	00001297          	auipc	t0,0x1
80000052:	faa2a923          	sw	a0,-78(t0) # 80001000 <tohost>
80000056:	bfdd                	j	8000004c <_start+0x4c>
80000058:	00000297          	auipc	t0,0x0
8000005c:	09028293          	addi	t0,t0,144 # 800000e8 <_start+0xe8>
80000060:	30529073          	csrw	mtvec,t0
80000064:	00301073          	fscsr	zero
80000068:	f0000053          	fmv.w.x	ft0,zero
8000006c:	f00000d3          	fmv.w.x	ft1,zero
80000070:	f0000153          	fmv.w.x	ft2,zero
80000074:	f00001d3          	fmv.w.x	ft3,zero
80000078:	f0000253          	fmv.w.x	ft4,zero
8000007c:	f00002d3          	fmv.w.x	ft5,zero
80000080:	f0000353          	fmv.w.x	ft6,zero
80000084:	f00003d3          	fmv.w.x	ft7,zero
80000088:	f0000453          	fmv.w.x	fs0,zero
8000008c:	f00004d3          	fmv.w.x	fs1,zero
80000090:	f0000553          	fmv.w.x	fa0,zero
80000094:	f00005d3          	fmv.w.x	fa1,zero
80000098:	f0000653          	fmv.w.x	fa2,zero
8000009c:	f00006d3          	fmv.w.x	fa3,zero
800000a0:	f0000753          	fmv.w.x	fa4,zero
800000a4:	f00007d3          	fmv.w.x	fa5,zero
800000a8:	f0000853          	fmv.w.x	fa6,zero
800000ac:	f00008d3          	fmv.w.x	fa7,zero
800000b0:	f0000953          	fmv.w.x	fs2,zero
800000b4:	f00009d3          	fmv.w.x	fs3,zero
800000b8:	f0000a53          	fmv.w.x	fs4,zero
800000bc:	f0000ad3          	fmv.w.x	fs5,zero
800000c0:	f0000b53          	fmv.w.x	fs6,zero
800000c4:	f0000bd3          	fmv.w.x	fs7,zero
800000c8:	f0000c53          	fmv.w.x	fs8,zero
800000cc:	f0000cd3          	fmv.w.x	fs9,zero
800000d0:	f0000d53          	fmv.w.x	fs10,zero
800000d4:	f0000dd3          	fmv.w.x	fs11,zero
800000d8:	f0000e53          	fmv.w.x	ft8,zero
800000dc:	f0000ed3          	fmv.w.x	ft9,zero
800000e0:	f0000f53          	fmv.w.x	ft10,zero
800000e4:	f0000fd3          	fmv.w.x	ft11,zero
800000e8:	00000297          	auipc	t0,0x0
800000ec:	03828293          	addi	t0,t0,56 # 80000120 <trap_entry>
800000f0:	30529073          	csrw	mtvec,t0
800000f4:	00006197          	auipc	gp,0x6
800000f8:	4b418193          	addi	gp,gp,1204 # 800065a8 <__global_pointer$>
800000fc:	85718213          	addi	tp,gp,-1961 # 80005dff <_end+0x3f>
80000100:	fc027213          	andi	tp,tp,-64
80000104:	f1402573          	csrr	a0,mhartid
80000108:	4585                	li	a1,1
8000010a:	00b57063          	bgeu	a0,a1,8000010a <_start+0x10a>
8000010e:	00150113          	addi	sp,a0,1
80000112:	0146                	slli	sp,sp,0x11
80000114:	9112                	add	sp,sp,tp
80000116:	01151613          	slli	a2,a0,0x11
8000011a:	9232                	add	tp,tp,a2
8000011c:	6fe0106f          	j	8000181a <_init>

80000120 <trap_entry>:
80000120:	716d                	addi	sp,sp,-272
80000122:	c206                	sw	ra,4(sp)
80000124:	c40a                	sw	sp,8(sp)
80000126:	c60e                	sw	gp,12(sp)
80000128:	c812                	sw	tp,16(sp)
8000012a:	ca16                	sw	t0,20(sp)
8000012c:	cc1a                	sw	t1,24(sp)
8000012e:	ce1e                	sw	t2,28(sp)
80000130:	d022                	sw	s0,32(sp)
80000132:	d226                	sw	s1,36(sp)
80000134:	d42a                	sw	a0,40(sp)
80000136:	d62e                	sw	a1,44(sp)
80000138:	d832                	sw	a2,48(sp)
8000013a:	da36                	sw	a3,52(sp)
8000013c:	dc3a                	sw	a4,56(sp)
8000013e:	de3e                	sw	a5,60(sp)
80000140:	c0c2                	sw	a6,64(sp)
80000142:	c2c6                	sw	a7,68(sp)
80000144:	c4ca                	sw	s2,72(sp)
80000146:	c6ce                	sw	s3,76(sp)
80000148:	c8d2                	sw	s4,80(sp)
8000014a:	cad6                	sw	s5,84(sp)
8000014c:	ccda                	sw	s6,88(sp)
8000014e:	cede                	sw	s7,92(sp)
80000150:	d0e2                	sw	s8,96(sp)
80000152:	d2e6                	sw	s9,100(sp)
80000154:	d4ea                	sw	s10,104(sp)
80000156:	d6ee                	sw	s11,108(sp)
80000158:	d8f2                	sw	t3,112(sp)
8000015a:	daf6                	sw	t4,116(sp)
8000015c:	dcfa                	sw	t5,120(sp)
8000015e:	defe                	sw	t6,124(sp)
80000160:	34202573          	csrr	a0,mcause
80000164:	341025f3          	csrr	a1,mepc
80000168:	860a                	mv	a2,sp
8000016a:	57a010ef          	jal	ra,800016e4 <handle_trap>
8000016e:	34151073          	csrw	mepc,a0
80000172:	6289                	lui	t0,0x2
80000174:	80028293          	addi	t0,t0,-2048 # 1800 <buflen.3+0x1780>
80000178:	3002a073          	csrs	mstatus,t0
8000017c:	4092                	lw	ra,4(sp)
8000017e:	4122                	lw	sp,8(sp)
80000180:	41b2                	lw	gp,12(sp)
80000182:	4242                	lw	tp,16(sp)
80000184:	42d2                	lw	t0,20(sp)
80000186:	4362                	lw	t1,24(sp)
80000188:	43f2                	lw	t2,28(sp)
8000018a:	5402                	lw	s0,32(sp)
8000018c:	5492                	lw	s1,36(sp)
8000018e:	5522                	lw	a0,40(sp)
80000190:	55b2                	lw	a1,44(sp)
80000192:	5642                	lw	a2,48(sp)
80000194:	56d2                	lw	a3,52(sp)
80000196:	5762                	lw	a4,56(sp)
80000198:	57f2                	lw	a5,60(sp)
8000019a:	4806                	lw	a6,64(sp)
8000019c:	4896                	lw	a7,68(sp)
8000019e:	4926                	lw	s2,72(sp)
800001a0:	49b6                	lw	s3,76(sp)
800001a2:	4a46                	lw	s4,80(sp)
800001a4:	4ad6                	lw	s5,84(sp)
800001a6:	4b66                	lw	s6,88(sp)
800001a8:	4bf6                	lw	s7,92(sp)
800001aa:	5c06                	lw	s8,96(sp)
800001ac:	5c96                	lw	s9,100(sp)
800001ae:	5d26                	lw	s10,104(sp)
800001b0:	5db6                	lw	s11,108(sp)
800001b2:	5e46                	lw	t3,112(sp)
800001b4:	5ed6                	lw	t4,116(sp)
800001b6:	5f66                	lw	t5,120(sp)
800001b8:	5ff6                	lw	t6,124(sp)
800001ba:	6151                	addi	sp,sp,272
800001bc:	30200073          	mret
800001c0:	0000                	unimp

Disassembly of section .text:

80001048 <main>:
80001048:	715d                	addi	sp,sp,-80
8000104a:	c686                	sw	ra,76(sp)
8000104c:	c4a2                	sw	s0,72(sp)
8000104e:	0880                	addi	s0,sp,80
80001050:	faa42e23          	sw	a0,-68(s0)
80001054:	fab42c23          	sw	a1,-72(s0)
80001058:	4501                	li	a0,0
8000105a:	4581                	li	a1,0
8000105c:	fca42c23          	sw	a0,-40(s0)
80001060:	fcb42e23          	sw	a1,-36(s0)
80001064:	b80025f3          	csrr	a1,mcycleh
80001068:	fcb42a23          	sw	a1,-44(s0)
8000106c:	b00025f3          	csrr	a1,mcycle
80001070:	fcb42823          	sw	a1,-48(s0)
80001074:	fe042423          	sw	zero,-24(s0)
80001078:	a07d                	j	80001126 <main+0xde>
8000107a:	fe042623          	sw	zero,-20(s0)
8000107e:	fe042223          	sw	zero,-28(s0)
80001082:	a841                	j	80001112 <main+0xca>
80001084:	fe842503          	lw	a0,-24(s0)
80001088:	fe442583          	lw	a1,-28(s0)
8000108c:	40b505b3          	sub	a1,a0,a1
80001090:	0605cc63          	bltz	a1,80001108 <main+0xc0>
80001094:	00004517          	auipc	a0,0x4
80001098:	d7450513          	addi	a0,a0,-652 # 80004e08 <coeffs>
8000109c:	fe442583          	lw	a1,-28(s0)
800010a0:	058a                	slli	a1,a1,0x2
800010a2:	95aa                	add	a1,a1,a0
800010a4:	418c                	lw	a1,0(a1)
800010a6:	862e                	mv	a2,a1
800010a8:	85fd                	srai	a1,a1,0x1f
800010aa:	86ae                	mv	a3,a1
800010ac:	fe842503          	lw	a0,-24(s0)
800010b0:	fe442583          	lw	a1,-28(s0)
800010b4:	40b505b3          	sub	a1,a0,a1
800010b8:	00002517          	auipc	a0,0x2
800010bc:	e1050513          	addi	a0,a0,-496 # 80002ec8 <data>
800010c0:	058a                	slli	a1,a1,0x2
800010c2:	95aa                	add	a1,a1,a0
800010c4:	418c                	lw	a1,0(a1)
800010c6:	882e                	mv	a6,a1
800010c8:	85fd                	srai	a1,a1,0x1f
800010ca:	88ae                	mv	a7,a1
800010cc:	03068533          	mul	a0,a3,a6
800010d0:	02c885b3          	mul	a1,a7,a2
800010d4:	95aa                	add	a1,a1,a0
800010d6:	03060533          	mul	a0,a2,a6
800010da:	030637b3          	mulhu	a5,a2,a6
800010de:	872a                	mv	a4,a0
800010e0:	95be                	add	a1,a1,a5
800010e2:	87ae                	mv	a5,a1
800010e4:	01879593          	slli	a1,a5,0x18
800010e8:	00875513          	srli	a0,a4,0x8
800010ec:	8dc9                	or	a1,a1,a0
800010ee:	fcb42c23          	sw	a1,-40(s0)
800010f2:	4087d593          	srai	a1,a5,0x8
800010f6:	fcb42e23          	sw	a1,-36(s0)
800010fa:	fd842583          	lw	a1,-40(s0)
800010fe:	fec42503          	lw	a0,-20(s0)
80001102:	95aa                	add	a1,a1,a0
80001104:	feb42623          	sw	a1,-20(s0)
80001108:	fe442583          	lw	a1,-28(s0)
8000110c:	0585                	addi	a1,a1,1
8000110e:	feb42223          	sw	a1,-28(s0)
80001112:	fe442503          	lw	a0,-28(s0)
80001116:	4591                	li	a1,4
80001118:	f6a5d6e3          	bge	a1,a0,80001084 <main+0x3c>
8000111c:	fe842583          	lw	a1,-24(s0)
80001120:	0585                	addi	a1,a1,1
80001122:	feb42423          	sw	a1,-24(s0)
80001126:	fe842503          	lw	a0,-24(s0)
8000112a:	4591                	li	a1,4
8000112c:	f4a5d7e3          	bge	a1,a0,8000107a <main+0x32>
80001130:	b80027f3          	csrr	a5,mcycleh
80001134:	fcf42623          	sw	a5,-52(s0)
80001138:	b00027f3          	csrr	a5,mcycle
8000113c:	fcf42423          	sw	a5,-56(s0)
80001140:	fcc42703          	lw	a4,-52(s0)
80001144:	fd442783          	lw	a5,-44(s0)
80001148:	40f707b3          	sub	a5,a4,a5
8000114c:	fcf42223          	sw	a5,-60(s0)
80001150:	fc842703          	lw	a4,-56(s0)
80001154:	fd042783          	lw	a5,-48(s0)
80001158:	40f707b3          	sub	a5,a4,a5
8000115c:	fcf42023          	sw	a5,-64(s0)
80001160:	fec42783          	lw	a5,-20(s0)
80001164:	85be                	mv	a1,a5
80001166:	00002517          	auipc	a0,0x2
8000116a:	a7e50513          	addi	a0,a0,-1410 # 80002be4 <__eqdf2+0xa6>
8000116e:	62b000ef          	jal	ra,80001f98 <printf>
80001172:	fc042583          	lw	a1,-64(s0)
80001176:	00002517          	auipc	a0,0x2
8000117a:	a7a50513          	addi	a0,a0,-1414 # 80002bf0 <__eqdf2+0xb2>
8000117e:	61b000ef          	jal	ra,80001f98 <printf>
80001182:	4781                	li	a5,0
80001184:	853e                	mv	a0,a5
80001186:	40b6                	lw	ra,76(sp)
80001188:	4426                	lw	s0,72(sp)
8000118a:	6161                	addi	sp,sp,80
8000118c:	8082                	ret

8000118e <verify>:
8000118e:	7139                	addi	sp,sp,-64
80001190:	de22                	sw	s0,60(sp)
80001192:	0080                	addi	s0,sp,64
80001194:	fca42623          	sw	a0,-52(s0)
80001198:	fcb42423          	sw	a1,-56(s0)
8000119c:	fcc42223          	sw	a2,-60(s0)
800011a0:	fe042623          	sw	zero,-20(s0)
800011a4:	a041                	j	80001224 <verify+0x96>
800011a6:	fec42783          	lw	a5,-20(s0)
800011aa:	078a                	slli	a5,a5,0x2
800011ac:	fc842703          	lw	a4,-56(s0)
800011b0:	97ba                	add	a5,a5,a4
800011b2:	439c                	lw	a5,0(a5)
800011b4:	fef42423          	sw	a5,-24(s0)
800011b8:	fec42783          	lw	a5,-20(s0)
800011bc:	0785                	addi	a5,a5,1
800011be:	078a                	slli	a5,a5,0x2
800011c0:	fc842703          	lw	a4,-56(s0)
800011c4:	97ba                	add	a5,a5,a4
800011c6:	439c                	lw	a5,0(a5)
800011c8:	fef42223          	sw	a5,-28(s0)
800011cc:	fec42783          	lw	a5,-20(s0)
800011d0:	078a                	slli	a5,a5,0x2
800011d2:	fc442703          	lw	a4,-60(s0)
800011d6:	97ba                	add	a5,a5,a4
800011d8:	439c                	lw	a5,0(a5)
800011da:	fef42023          	sw	a5,-32(s0)
800011de:	fec42783          	lw	a5,-20(s0)
800011e2:	0785                	addi	a5,a5,1
800011e4:	078a                	slli	a5,a5,0x2
800011e6:	fc442703          	lw	a4,-60(s0)
800011ea:	97ba                	add	a5,a5,a4
800011ec:	439c                	lw	a5,0(a5)
800011ee:	fcf42e23          	sw	a5,-36(s0)
800011f2:	fe842703          	lw	a4,-24(s0)
800011f6:	fe042783          	lw	a5,-32(s0)
800011fa:	00f70663          	beq	a4,a5,80001206 <verify+0x78>
800011fe:	fec42783          	lw	a5,-20(s0)
80001202:	0785                	addi	a5,a5,1
80001204:	a89d                	j	8000127a <verify+0xec>
80001206:	fe442703          	lw	a4,-28(s0)
8000120a:	fdc42783          	lw	a5,-36(s0)
8000120e:	00f70663          	beq	a4,a5,8000121a <verify+0x8c>
80001212:	fec42783          	lw	a5,-20(s0)
80001216:	0789                	addi	a5,a5,2
80001218:	a08d                	j	8000127a <verify+0xec>
8000121a:	fec42783          	lw	a5,-20(s0)
8000121e:	0789                	addi	a5,a5,2
80001220:	fef42623          	sw	a5,-20(s0)
80001224:	fcc42783          	lw	a5,-52(s0)
80001228:	01f7d713          	srli	a4,a5,0x1f
8000122c:	97ba                	add	a5,a5,a4
8000122e:	8785                	srai	a5,a5,0x1
80001230:	0786                	slli	a5,a5,0x1
80001232:	fec42703          	lw	a4,-20(s0)
80001236:	f6f748e3          	blt	a4,a5,800011a6 <verify+0x18>
8000123a:	fcc42783          	lw	a5,-52(s0)
8000123e:	8b85                	andi	a5,a5,1
80001240:	cf85                	beqz	a5,80001278 <verify+0xea>
80001242:	fcc42703          	lw	a4,-52(s0)
80001246:	400007b7          	lui	a5,0x40000
8000124a:	17fd                	addi	a5,a5,-1 # 3fffffff <buflen.3+0x3fffff7f>
8000124c:	97ba                	add	a5,a5,a4
8000124e:	078a                	slli	a5,a5,0x2
80001250:	fc842703          	lw	a4,-56(s0)
80001254:	97ba                	add	a5,a5,a4
80001256:	4398                	lw	a4,0(a5)
80001258:	fcc42683          	lw	a3,-52(s0)
8000125c:	400007b7          	lui	a5,0x40000
80001260:	17fd                	addi	a5,a5,-1 # 3fffffff <buflen.3+0x3fffff7f>
80001262:	97b6                	add	a5,a5,a3
80001264:	078a                	slli	a5,a5,0x2
80001266:	fc442683          	lw	a3,-60(s0)
8000126a:	97b6                	add	a5,a5,a3
8000126c:	439c                	lw	a5,0(a5)
8000126e:	00f70563          	beq	a4,a5,80001278 <verify+0xea>
80001272:	fcc42783          	lw	a5,-52(s0)
80001276:	a011                	j	8000127a <verify+0xec>
80001278:	4781                	li	a5,0
8000127a:	853e                	mv	a0,a5
8000127c:	5472                	lw	s0,60(sp)
8000127e:	6121                	addi	sp,sp,64
80001280:	8082                	ret

80001282 <verifyDouble>:
80001282:	715d                	addi	sp,sp,-80
80001284:	c686                	sw	ra,76(sp)
80001286:	c4a2                	sw	s0,72(sp)
80001288:	c2a6                	sw	s1,68(sp)
8000128a:	0880                	addi	s0,sp,80
8000128c:	faa42e23          	sw	a0,-68(s0)
80001290:	fab42c23          	sw	a1,-72(s0)
80001294:	fac42a23          	sw	a2,-76(s0)
80001298:	fe042623          	sw	zero,-20(s0)
8000129c:	a8d1                	j	80001370 <verifyDouble+0xee>
8000129e:	fec42783          	lw	a5,-20(s0)
800012a2:	078e                	slli	a5,a5,0x3
800012a4:	fb842703          	lw	a4,-72(s0)
800012a8:	97ba                	add	a5,a5,a4
800012aa:	4398                	lw	a4,0(a5)
800012ac:	43dc                	lw	a5,4(a5)
800012ae:	fee42023          	sw	a4,-32(s0)
800012b2:	fef42223          	sw	a5,-28(s0)
800012b6:	fec42783          	lw	a5,-20(s0)
800012ba:	0785                	addi	a5,a5,1
800012bc:	078e                	slli	a5,a5,0x3
800012be:	fb842703          	lw	a4,-72(s0)
800012c2:	97ba                	add	a5,a5,a4
800012c4:	4398                	lw	a4,0(a5)
800012c6:	43dc                	lw	a5,4(a5)
800012c8:	fce42c23          	sw	a4,-40(s0)
800012cc:	fcf42e23          	sw	a5,-36(s0)
800012d0:	fec42783          	lw	a5,-20(s0)
800012d4:	078e                	slli	a5,a5,0x3
800012d6:	fb442703          	lw	a4,-76(s0)
800012da:	97ba                	add	a5,a5,a4
800012dc:	4398                	lw	a4,0(a5)
800012de:	43dc                	lw	a5,4(a5)
800012e0:	fce42823          	sw	a4,-48(s0)
800012e4:	fcf42a23          	sw	a5,-44(s0)
800012e8:	fec42783          	lw	a5,-20(s0)
800012ec:	0785                	addi	a5,a5,1
800012ee:	078e                	slli	a5,a5,0x3
800012f0:	fb442703          	lw	a4,-76(s0)
800012f4:	97ba                	add	a5,a5,a4
800012f6:	4398                	lw	a4,0(a5)
800012f8:	43dc                	lw	a5,4(a5)
800012fa:	fce42423          	sw	a4,-56(s0)
800012fe:	fcf42623          	sw	a5,-52(s0)
80001302:	4485                	li	s1,1
80001304:	fd042603          	lw	a2,-48(s0)
80001308:	fd442683          	lw	a3,-44(s0)
8000130c:	fe042503          	lw	a0,-32(s0)
80001310:	fe442583          	lw	a1,-28(s0)
80001314:	02b010ef          	jal	ra,80002b3e <__eqdf2>
80001318:	87aa                	mv	a5,a0
8000131a:	c391                	beqz	a5,8000131e <verifyDouble+0x9c>
8000131c:	4481                	li	s1,0
8000131e:	0ff4f793          	zext.b	a5,s1
80001322:	fcf42223          	sw	a5,-60(s0)
80001326:	4485                	li	s1,1
80001328:	fc842603          	lw	a2,-56(s0)
8000132c:	fcc42683          	lw	a3,-52(s0)
80001330:	fd842503          	lw	a0,-40(s0)
80001334:	fdc42583          	lw	a1,-36(s0)
80001338:	007010ef          	jal	ra,80002b3e <__eqdf2>
8000133c:	87aa                	mv	a5,a0
8000133e:	c391                	beqz	a5,80001342 <verifyDouble+0xc0>
80001340:	4481                	li	s1,0
80001342:	0ff4f793          	zext.b	a5,s1
80001346:	fcf42023          	sw	a5,-64(s0)
8000134a:	fc442703          	lw	a4,-60(s0)
8000134e:	fc042783          	lw	a5,-64(s0)
80001352:	8ff9                	and	a5,a5,a4
80001354:	eb89                	bnez	a5,80001366 <verifyDouble+0xe4>
80001356:	fec42783          	lw	a5,-20(s0)
8000135a:	00178713          	addi	a4,a5,1
8000135e:	fc442783          	lw	a5,-60(s0)
80001362:	97ba                	add	a5,a5,a4
80001364:	a0bd                	j	800013d2 <verifyDouble+0x150>
80001366:	fec42783          	lw	a5,-20(s0)
8000136a:	0789                	addi	a5,a5,2
8000136c:	fef42623          	sw	a5,-20(s0)
80001370:	fbc42783          	lw	a5,-68(s0)
80001374:	01f7d713          	srli	a4,a5,0x1f
80001378:	97ba                	add	a5,a5,a4
8000137a:	8785                	srai	a5,a5,0x1
8000137c:	0786                	slli	a5,a5,0x1
8000137e:	fec42703          	lw	a4,-20(s0)
80001382:	f0f74ee3          	blt	a4,a5,8000129e <verifyDouble+0x1c>
80001386:	fbc42783          	lw	a5,-68(s0)
8000138a:	8b85                	andi	a5,a5,1
8000138c:	c3b1                	beqz	a5,800013d0 <verifyDouble+0x14e>
8000138e:	fbc42703          	lw	a4,-68(s0)
80001392:	200007b7          	lui	a5,0x20000
80001396:	17fd                	addi	a5,a5,-1 # 1fffffff <buflen.3+0x1fffff7f>
80001398:	97ba                	add	a5,a5,a4
8000139a:	078e                	slli	a5,a5,0x3
8000139c:	fb842703          	lw	a4,-72(s0)
800013a0:	97ba                	add	a5,a5,a4
800013a2:	4398                	lw	a4,0(a5)
800013a4:	43dc                	lw	a5,4(a5)
800013a6:	fbc42603          	lw	a2,-68(s0)
800013aa:	200006b7          	lui	a3,0x20000
800013ae:	16fd                	addi	a3,a3,-1 # 1fffffff <buflen.3+0x1fffff7f>
800013b0:	96b2                	add	a3,a3,a2
800013b2:	068e                	slli	a3,a3,0x3
800013b4:	fb442603          	lw	a2,-76(s0)
800013b8:	96b2                	add	a3,a3,a2
800013ba:	4290                	lw	a2,0(a3)
800013bc:	42d4                	lw	a3,4(a3)
800013be:	853a                	mv	a0,a4
800013c0:	85be                	mv	a1,a5
800013c2:	77c010ef          	jal	ra,80002b3e <__eqdf2>
800013c6:	87aa                	mv	a5,a0
800013c8:	c781                	beqz	a5,800013d0 <verifyDouble+0x14e>
800013ca:	fbc42783          	lw	a5,-68(s0)
800013ce:	a011                	j	800013d2 <verifyDouble+0x150>
800013d0:	4781                	li	a5,0
800013d2:	853e                	mv	a0,a5
800013d4:	40b6                	lw	ra,76(sp)
800013d6:	4426                	lw	s0,72(sp)
800013d8:	4496                	lw	s1,68(sp)
800013da:	6161                	addi	sp,sp,80
800013dc:	8082                	ret

800013de <barrier>:
800013de:	1101                	addi	sp,sp,-32
800013e0:	ce22                	sw	s0,28(sp)
800013e2:	1000                	addi	s0,sp,32
800013e4:	fea42623          	sw	a0,-20(s0)
800013e8:	0ff0000f          	fence
800013ec:	00022783          	lw	a5,0(tp) # 0 <threadsense.5>
800013f0:	0017b793          	seqz	a5,a5
800013f4:	0ff7f793          	zext.b	a5,a5
800013f8:	873e                	mv	a4,a5
800013fa:	00e22023          	sw	a4,0(tp) # 0 <threadsense.5>
800013fe:	00005797          	auipc	a5,0x5
80001402:	9ba78793          	addi	a5,a5,-1606 # 80005db8 <count.2>
80001406:	4705                	li	a4,1
80001408:	0f50000f          	fence	iorw,ow
8000140c:	04e7a6af          	amoadd.w.aq	a3,a4,(a5)
80001410:	8736                	mv	a4,a3
80001412:	fec42783          	lw	a5,-20(s0)
80001416:	17fd                	addi	a5,a5,-1
80001418:	02f71063          	bne	a4,a5,80001438 <barrier+0x5a>
8000141c:	00005797          	auipc	a5,0x5
80001420:	99c78793          	addi	a5,a5,-1636 # 80005db8 <count.2>
80001424:	0007a023          	sw	zero,0(a5)
80001428:	00022703          	lw	a4,0(tp) # 0 <threadsense.5>
8000142c:	00005797          	auipc	a5,0x5
80001430:	99078793          	addi	a5,a5,-1648 # 80005dbc <sense.1>
80001434:	c398                	sw	a4,0(a5)
80001436:	a819                	j	8000144c <barrier+0x6e>
80001438:	0001                	nop
8000143a:	00005797          	auipc	a5,0x5
8000143e:	98278793          	addi	a5,a5,-1662 # 80005dbc <sense.1>
80001442:	4398                	lw	a4,0(a5)
80001444:	00022783          	lw	a5,0(tp) # 0 <threadsense.5>
80001448:	fef719e3          	bne	a4,a5,8000143a <barrier+0x5c>
8000144c:	0ff0000f          	fence
80001450:	0001                	nop
80001452:	4472                	lw	s0,28(sp)
80001454:	6105                	addi	sp,sp,32
80001456:	8082                	ret

80001458 <lfsr>:
80001458:	7179                	addi	sp,sp,-48
8000145a:	d622                	sw	s0,44(sp)
8000145c:	1800                	addi	s0,sp,48
8000145e:	fca42c23          	sw	a0,-40(s0)
80001462:	fcb42e23          	sw	a1,-36(s0)
80001466:	fdc42583          	lw	a1,-36(s0)
8000146a:	05fe                	slli	a1,a1,0x1f
8000146c:	fd842503          	lw	a0,-40(s0)
80001470:	00155613          	srli	a2,a0,0x1
80001474:	8e4d                	or	a2,a2,a1
80001476:	fdc42583          	lw	a1,-36(s0)
8000147a:	0015d693          	srli	a3,a1,0x1
8000147e:	fd842583          	lw	a1,-40(s0)
80001482:	00c5c833          	xor	a6,a1,a2
80001486:	fdc42583          	lw	a1,-36(s0)
8000148a:	00d5c8b3          	xor	a7,a1,a3
8000148e:	00187693          	andi	a3,a6,1
80001492:	fed42423          	sw	a3,-24(s0)
80001496:	0008f693          	andi	a3,a7,0
8000149a:	fed42623          	sw	a3,-20(s0)
8000149e:	fdc42683          	lw	a3,-36(s0)
800014a2:	06fe                	slli	a3,a3,0x1f
800014a4:	fd842603          	lw	a2,-40(s0)
800014a8:	00165713          	srli	a4,a2,0x1
800014ac:	8f55                	or	a4,a4,a3
800014ae:	fdc42683          	lw	a3,-36(s0)
800014b2:	0016d793          	srli	a5,a3,0x1
800014b6:	fe842683          	lw	a3,-24(s0)
800014ba:	01e69393          	slli	t2,a3,0x1e
800014be:	4301                	li	t1,0
800014c0:	00676e33          	or	t3,a4,t1
800014c4:	0077eeb3          	or	t4,a5,t2
800014c8:	8772                	mv	a4,t3
800014ca:	87f6                	mv	a5,t4
800014cc:	853a                	mv	a0,a4
800014ce:	85be                	mv	a1,a5
800014d0:	5432                	lw	s0,44(sp)
800014d2:	6145                	addi	sp,sp,48
800014d4:	8082                	ret

800014d6 <insn_len>:
800014d6:	1101                	addi	sp,sp,-32
800014d8:	ce22                	sw	s0,28(sp)
800014da:	1000                	addi	s0,sp,32
800014dc:	fea42623          	sw	a0,-20(s0)
800014e0:	fec42783          	lw	a5,-20(s0)
800014e4:	0007d783          	lhu	a5,0(a5)
800014e8:	8b8d                	andi	a5,a5,3
800014ea:	c399                	beqz	a5,800014f0 <insn_len+0x1a>
800014ec:	4791                	li	a5,4
800014ee:	a011                	j	800014f2 <insn_len+0x1c>
800014f0:	4789                	li	a5,2
800014f2:	853e                	mv	a0,a5
800014f4:	4472                	lw	s0,28(sp)
800014f6:	6105                	addi	sp,sp,32
800014f8:	8082                	ret

800014fa <syscall>:
800014fa:	7171                	addi	sp,sp,-176
800014fc:	d722                	sw	s0,172(sp)
800014fe:	1900                	addi	s0,sp,176
80001500:	f6a42623          	sw	a0,-148(s0)
80001504:	f6b42023          	sw	a1,-160(s0)
80001508:	f6c42223          	sw	a2,-156(s0)
8000150c:	f4d42c23          	sw	a3,-168(s0)
80001510:	f4e42e23          	sw	a4,-164(s0)
80001514:	f4f42823          	sw	a5,-176(s0)
80001518:	f5042a23          	sw	a6,-172(s0)
8000151c:	ff040793          	addi	a5,s0,-16
80001520:	f6f42423          	sw	a5,-152(s0)
80001524:	f6842783          	lw	a5,-152(s0)
80001528:	f8078793          	addi	a5,a5,-128
8000152c:	03f78793          	addi	a5,a5,63
80001530:	8399                	srli	a5,a5,0x6
80001532:	079a                	slli	a5,a5,0x6
80001534:	f6c42703          	lw	a4,-148(s0)
80001538:	8e3a                	mv	t3,a4
8000153a:	4e81                	li	t4,0
8000153c:	01c7a023          	sw	t3,0(a5)
80001540:	01d7a223          	sw	t4,4(a5)
80001544:	f6042603          	lw	a2,-160(s0)
80001548:	f6442683          	lw	a3,-156(s0)
8000154c:	c790                	sw	a2,8(a5)
8000154e:	c7d4                	sw	a3,12(a5)
80001550:	f5842603          	lw	a2,-168(s0)
80001554:	f5c42683          	lw	a3,-164(s0)
80001558:	cb90                	sw	a2,16(a5)
8000155a:	cbd4                	sw	a3,20(a5)
8000155c:	f5042603          	lw	a2,-176(s0)
80001560:	f5442683          	lw	a3,-172(s0)
80001564:	cf90                	sw	a2,24(a5)
80001566:	cfd4                	sw	a3,28(a5)
80001568:	0ff0000f          	fence
8000156c:	873e                	mv	a4,a5
8000156e:	833a                	mv	t1,a4
80001570:	4381                	li	t2,0
80001572:	00000717          	auipc	a4,0x0
80001576:	a8e70713          	addi	a4,a4,-1394 # 80001000 <tohost>
8000157a:	00672023          	sw	t1,0(a4)
8000157e:	00772223          	sw	t2,4(a4)
80001582:	0001                	nop
80001584:	00000717          	auipc	a4,0x0
80001588:	abc70713          	addi	a4,a4,-1348 # 80001040 <fromhost>
8000158c:	4310                	lw	a2,0(a4)
8000158e:	4354                	lw	a3,4(a4)
80001590:	8732                	mv	a4,a2
80001592:	8f55                	or	a4,a4,a3
80001594:	db65                	beqz	a4,80001584 <syscall+0x8a>
80001596:	00000717          	auipc	a4,0x0
8000159a:	aaa70713          	addi	a4,a4,-1366 # 80001040 <fromhost>
8000159e:	4601                	li	a2,0
800015a0:	4681                	li	a3,0
800015a2:	c310                	sw	a2,0(a4)
800015a4:	c354                	sw	a3,4(a4)
800015a6:	0ff0000f          	fence
800015aa:	4398                	lw	a4,0(a5)
800015ac:	43dc                	lw	a5,4(a5)
800015ae:	87ba                	mv	a5,a4
800015b0:	853e                	mv	a0,a5
800015b2:	543a                	lw	s0,172(sp)
800015b4:	614d                	addi	sp,sp,176
800015b6:	8082                	ret

800015b8 <setStats>:
800015b8:	7139                	addi	sp,sp,-64
800015ba:	de22                	sw	s0,60(sp)
800015bc:	0080                	addi	s0,sp,64
800015be:	fca42623          	sw	a0,-52(s0)
800015c2:	fe042223          	sw	zero,-28(s0)
800015c6:	0001                	nop
800015c8:	fe442703          	lw	a4,-28(s0)
800015cc:	4785                	li	a5,1
800015ce:	fee7cde3          	blt	a5,a4,800015c8 <setStats+0x10>
800015d2:	b00027f3          	csrr	a5,mcycle
800015d6:	fef42023          	sw	a5,-32(s0)
800015da:	fe042783          	lw	a5,-32(s0)
800015de:	fef42623          	sw	a5,-20(s0)
800015e2:	fcc42783          	lw	a5,-52(s0)
800015e6:	ef8d                	bnez	a5,80001620 <setStats+0x68>
800015e8:	00004717          	auipc	a4,0x4
800015ec:	7c070713          	addi	a4,a4,1984 # 80005da8 <counters>
800015f0:	fe442783          	lw	a5,-28(s0)
800015f4:	078a                	slli	a5,a5,0x2
800015f6:	97ba                	add	a5,a5,a4
800015f8:	439c                	lw	a5,0(a5)
800015fa:	fec42703          	lw	a4,-20(s0)
800015fe:	40f707b3          	sub	a5,a4,a5
80001602:	fef42623          	sw	a5,-20(s0)
80001606:	00004717          	auipc	a4,0x4
8000160a:	7aa70713          	addi	a4,a4,1962 # 80005db0 <counter_names>
8000160e:	fe442783          	lw	a5,-28(s0)
80001612:	078a                	slli	a5,a5,0x2
80001614:	97ba                	add	a5,a5,a4
80001616:	00001717          	auipc	a4,0x1
8000161a:	5de70713          	addi	a4,a4,1502 # 80002bf4 <__eqdf2+0xb6>
8000161e:	c398                	sw	a4,0(a5)
80001620:	fe442783          	lw	a5,-28(s0)
80001624:	00178713          	addi	a4,a5,1
80001628:	fee42223          	sw	a4,-28(s0)
8000162c:	00004717          	auipc	a4,0x4
80001630:	77c70713          	addi	a4,a4,1916 # 80005da8 <counters>
80001634:	078a                	slli	a5,a5,0x2
80001636:	97ba                	add	a5,a5,a4
80001638:	fec42703          	lw	a4,-20(s0)
8000163c:	c398                	sw	a4,0(a5)
8000163e:	0001                	nop
80001640:	fe442703          	lw	a4,-28(s0)
80001644:	4785                	li	a5,1
80001646:	fee7cde3          	blt	a5,a4,80001640 <setStats+0x88>
8000164a:	b02027f3          	csrr	a5,minstret
8000164e:	fcf42e23          	sw	a5,-36(s0)
80001652:	fdc42783          	lw	a5,-36(s0)
80001656:	fef42423          	sw	a5,-24(s0)
8000165a:	fcc42783          	lw	a5,-52(s0)
8000165e:	ef8d                	bnez	a5,80001698 <setStats+0xe0>
80001660:	00004717          	auipc	a4,0x4
80001664:	74870713          	addi	a4,a4,1864 # 80005da8 <counters>
80001668:	fe442783          	lw	a5,-28(s0)
8000166c:	078a                	slli	a5,a5,0x2
8000166e:	97ba                	add	a5,a5,a4
80001670:	439c                	lw	a5,0(a5)
80001672:	fe842703          	lw	a4,-24(s0)
80001676:	40f707b3          	sub	a5,a4,a5
8000167a:	fef42423          	sw	a5,-24(s0)
8000167e:	00004717          	auipc	a4,0x4
80001682:	73270713          	addi	a4,a4,1842 # 80005db0 <counter_names>
80001686:	fe442783          	lw	a5,-28(s0)
8000168a:	078a                	slli	a5,a5,0x2
8000168c:	97ba                	add	a5,a5,a4
8000168e:	00001717          	auipc	a4,0x1
80001692:	56e70713          	addi	a4,a4,1390 # 80002bfc <__eqdf2+0xbe>
80001696:	c398                	sw	a4,0(a5)
80001698:	fe442783          	lw	a5,-28(s0)
8000169c:	00178713          	addi	a4,a5,1
800016a0:	fee42223          	sw	a4,-28(s0)
800016a4:	00004717          	auipc	a4,0x4
800016a8:	70470713          	addi	a4,a4,1796 # 80005da8 <counters>
800016ac:	078a                	slli	a5,a5,0x2
800016ae:	97ba                	add	a5,a5,a4
800016b0:	fe842703          	lw	a4,-24(s0)
800016b4:	c398                	sw	a4,0(a5)
800016b6:	0001                	nop
800016b8:	5472                	lw	s0,60(sp)
800016ba:	6121                	addi	sp,sp,64
800016bc:	8082                	ret

800016be <tohost_exit>:
800016be:	1101                	addi	sp,sp,-32
800016c0:	ce22                	sw	s0,28(sp)
800016c2:	1000                	addi	s0,sp,32
800016c4:	fea42623          	sw	a0,-20(s0)
800016c8:	fec42683          	lw	a3,-20(s0)
800016cc:	0686                	slli	a3,a3,0x1
800016ce:	0016e693          	ori	a3,a3,1
800016d2:	8736                	mv	a4,a3
800016d4:	4781                	li	a5,0
800016d6:	00000697          	auipc	a3,0x0
800016da:	92a68693          	addi	a3,a3,-1750 # 80001000 <tohost>
800016de:	c298                	sw	a4,0(a3)
800016e0:	c2dc                	sw	a5,4(a3)
800016e2:	a001                	j	800016e2 <tohost_exit+0x24>

800016e4 <handle_trap>:
800016e4:	1101                	addi	sp,sp,-32
800016e6:	ce06                	sw	ra,28(sp)
800016e8:	cc22                	sw	s0,24(sp)
800016ea:	1000                	addi	s0,sp,32
800016ec:	fea42623          	sw	a0,-20(s0)
800016f0:	feb42423          	sw	a1,-24(s0)
800016f4:	fec42223          	sw	a2,-28(s0)
800016f8:	53900513          	li	a0,1337
800016fc:	37c9                	jal	800016be <tohost_exit>

800016fe <exit>:
800016fe:	1101                	addi	sp,sp,-32
80001700:	ce06                	sw	ra,28(sp)
80001702:	cc22                	sw	s0,24(sp)
80001704:	1000                	addi	s0,sp,32
80001706:	fea42623          	sw	a0,-20(s0)
8000170a:	fec42783          	lw	a5,-20(s0)
8000170e:	853e                	mv	a0,a5
80001710:	377d                	jal	800016be <tohost_exit>

80001712 <abort>:
80001712:	1141                	addi	sp,sp,-16
80001714:	c606                	sw	ra,12(sp)
80001716:	c422                	sw	s0,8(sp)
80001718:	0800                	addi	s0,sp,16
8000171a:	08600513          	li	a0,134
8000171e:	37c5                	jal	800016fe <exit>

80001720 <printstr>:
80001720:	7179                	addi	sp,sp,-48
80001722:	d606                	sw	ra,44(sp)
80001724:	d422                	sw	s0,40(sp)
80001726:	d24a                	sw	s2,36(sp)
80001728:	d04e                	sw	s3,32(sp)
8000172a:	ce52                	sw	s4,28(sp)
8000172c:	cc56                	sw	s5,24(sp)
8000172e:	1800                	addi	s0,sp,48
80001730:	fca42e23          	sw	a0,-36(s0)
80001734:	fdc42783          	lw	a5,-36(s0)
80001738:	893e                	mv	s2,a5
8000173a:	4981                	li	s3,0
8000173c:	fdc42503          	lw	a0,-36(s0)
80001740:	345000ef          	jal	ra,80002284 <strlen>
80001744:	87aa                	mv	a5,a0
80001746:	8a3e                	mv	s4,a5
80001748:	4a81                	li	s5,0
8000174a:	87d2                	mv	a5,s4
8000174c:	8856                	mv	a6,s5
8000174e:	86ca                	mv	a3,s2
80001750:	874e                	mv	a4,s3
80001752:	4585                	li	a1,1
80001754:	4601                	li	a2,0
80001756:	04000513          	li	a0,64
8000175a:	3345                	jal	800014fa <syscall>
8000175c:	0001                	nop
8000175e:	50b2                	lw	ra,44(sp)
80001760:	5422                	lw	s0,40(sp)
80001762:	5912                	lw	s2,36(sp)
80001764:	5982                	lw	s3,32(sp)
80001766:	4a72                	lw	s4,28(sp)
80001768:	4ae2                	lw	s5,24(sp)
8000176a:	6145                	addi	sp,sp,48
8000176c:	8082                	ret

8000176e <thread_entry>:
8000176e:	1101                	addi	sp,sp,-32
80001770:	ce22                	sw	s0,28(sp)
80001772:	1000                	addi	s0,sp,32
80001774:	fea42623          	sw	a0,-20(s0)
80001778:	feb42423          	sw	a1,-24(s0)
8000177c:	0001                	nop
8000177e:	fec42783          	lw	a5,-20(s0)
80001782:	fff5                	bnez	a5,8000177e <thread_entry+0x10>
80001784:	0001                	nop
80001786:	0001                	nop
80001788:	4472                	lw	s0,28(sp)
8000178a:	6105                	addi	sp,sp,32
8000178c:	8082                	ret
8000178e:	1101                	addi	sp,sp,-32
80001790:	ce06                	sw	ra,28(sp)
80001792:	cc22                	sw	s0,24(sp)
80001794:	1000                	addi	s0,sp,32
80001796:	fea42623          	sw	a0,-20(s0)
8000179a:	feb42423          	sw	a1,-24(s0)
8000179e:	00001517          	auipc	a0,0x1
800017a2:	46a50513          	addi	a0,a0,1130 # 80002c08 <__eqdf2+0xca>
800017a6:	3fad                	jal	80001720 <printstr>
800017a8:	57fd                	li	a5,-1
800017aa:	853e                	mv	a0,a5
800017ac:	40f2                	lw	ra,28(sp)
800017ae:	4462                	lw	s0,24(sp)
800017b0:	6105                	addi	sp,sp,32
800017b2:	8082                	ret

800017b4 <init_tls>:
800017b4:	1101                	addi	sp,sp,-32
800017b6:	ce06                	sw	ra,28(sp)
800017b8:	cc22                	sw	s0,24(sp)
800017ba:	1000                	addi	s0,sp,32
800017bc:	00004717          	auipc	a4,0x4
800017c0:	60470713          	addi	a4,a4,1540 # 80005dc0 <_end>
800017c4:	00004797          	auipc	a5,0x4
800017c8:	5fc78793          	addi	a5,a5,1532 # 80005dc0 <_end>
800017cc:	40f707b3          	sub	a5,a4,a5
800017d0:	fef42623          	sw	a5,-20(s0)
800017d4:	8792                	mv	a5,tp
800017d6:	fec42603          	lw	a2,-20(s0)
800017da:	00004597          	auipc	a1,0x4
800017de:	5e658593          	addi	a1,a1,1510 # 80005dc0 <_end>
800017e2:	853e                	mv	a0,a5
800017e4:	12d000ef          	jal	ra,80002110 <memcpy>
800017e8:	89c18713          	addi	a4,gp,-1892 # 80005e44 <_tbss_end>
800017ec:	00004797          	auipc	a5,0x4
800017f0:	5d478793          	addi	a5,a5,1492 # 80005dc0 <_end>
800017f4:	40f707b3          	sub	a5,a4,a5
800017f8:	fef42423          	sw	a5,-24(s0)
800017fc:	8712                	mv	a4,tp
800017fe:	fec42783          	lw	a5,-20(s0)
80001802:	97ba                	add	a5,a5,a4
80001804:	fe842603          	lw	a2,-24(s0)
80001808:	4581                	li	a1,0
8000180a:	853e                	mv	a0,a5
8000180c:	1bd000ef          	jal	ra,800021c8 <memset>
80001810:	0001                	nop
80001812:	40f2                	lw	ra,28(sp)
80001814:	4462                	lw	s0,24(sp)
80001816:	6105                	addi	sp,sp,32
80001818:	8082                	ret

8000181a <_init>:
8000181a:	7171                	addi	sp,sp,-176
8000181c:	d706                	sw	ra,172(sp)
8000181e:	d522                	sw	s0,168(sp)
80001820:	d326                	sw	s1,164(sp)
80001822:	1900                	addi	s0,sp,176
80001824:	f4a42e23          	sw	a0,-164(s0)
80001828:	f4b42c23          	sw	a1,-168(s0)
8000182c:	ff040793          	addi	a5,s0,-16
80001830:	f4f42a23          	sw	a5,-172(s0)
80001834:	f5442783          	lw	a5,-172(s0)
80001838:	f7078793          	addi	a5,a5,-144
8000183c:	03f78793          	addi	a5,a5,63
80001840:	8399                	srli	a5,a5,0x6
80001842:	00679493          	slli	s1,a5,0x6
80001846:	37bd                	jal	800017b4 <init_tls>
80001848:	f5842583          	lw	a1,-168(s0)
8000184c:	f5c42503          	lw	a0,-164(s0)
80001850:	3f39                	jal	8000176e <thread_entry>
80001852:	4581                	li	a1,0
80001854:	4501                	li	a0,0
80001856:	ff2ff0ef          	jal	ra,80001048 <main>
8000185a:	fea42223          	sw	a0,-28(s0)
8000185e:	fe942623          	sw	s1,-20(s0)
80001862:	fe042423          	sw	zero,-24(s0)
80001866:	a08d                	j	800018c8 <_init+0xae>
80001868:	00004717          	auipc	a4,0x4
8000186c:	54070713          	addi	a4,a4,1344 # 80005da8 <counters>
80001870:	fe842783          	lw	a5,-24(s0)
80001874:	078a                	slli	a5,a5,0x2
80001876:	97ba                	add	a5,a5,a4
80001878:	439c                	lw	a5,0(a5)
8000187a:	c3b1                	beqz	a5,800018be <_init+0xa4>
8000187c:	00004717          	auipc	a4,0x4
80001880:	53470713          	addi	a4,a4,1332 # 80005db0 <counter_names>
80001884:	fe842783          	lw	a5,-24(s0)
80001888:	078a                	slli	a5,a5,0x2
8000188a:	97ba                	add	a5,a5,a4
8000188c:	4390                	lw	a2,0(a5)
8000188e:	00004717          	auipc	a4,0x4
80001892:	51a70713          	addi	a4,a4,1306 # 80005da8 <counters>
80001896:	fe842783          	lw	a5,-24(s0)
8000189a:	078a                	slli	a5,a5,0x2
8000189c:	97ba                	add	a5,a5,a4
8000189e:	439c                	lw	a5,0(a5)
800018a0:	86be                	mv	a3,a5
800018a2:	00001597          	auipc	a1,0x1
800018a6:	37e58593          	addi	a1,a1,894 # 80002c20 <__eqdf2+0xe2>
800018aa:	fec42503          	lw	a0,-20(s0)
800018ae:	2741                	jal	8000202e <sprintf>
800018b0:	87aa                	mv	a5,a0
800018b2:	873e                	mv	a4,a5
800018b4:	fec42783          	lw	a5,-20(s0)
800018b8:	97ba                	add	a5,a5,a4
800018ba:	fef42623          	sw	a5,-20(s0)
800018be:	fe842783          	lw	a5,-24(s0)
800018c2:	0785                	addi	a5,a5,1
800018c4:	fef42423          	sw	a5,-24(s0)
800018c8:	fe842703          	lw	a4,-24(s0)
800018cc:	4785                	li	a5,1
800018ce:	f8e7dde3          	bge	a5,a4,80001868 <_init+0x4e>
800018d2:	fec42783          	lw	a5,-20(s0)
800018d6:	00f48463          	beq	s1,a5,800018de <_init+0xc4>
800018da:	8526                	mv	a0,s1
800018dc:	3591                	jal	80001720 <printstr>
800018de:	fe442503          	lw	a0,-28(s0)
800018e2:	3d31                	jal	800016fe <exit>

800018e4 <putchar>:
800018e4:	1101                	addi	sp,sp,-32
800018e6:	ce06                	sw	ra,28(sp)
800018e8:	cc22                	sw	s0,24(sp)
800018ea:	1000                	addi	s0,sp,32
800018ec:	fea42623          	sw	a0,-20(s0)
800018f0:	08022783          	lw	a5,128(tp) # 80 <buflen.3>
800018f4:	00178593          	addi	a1,a5,1
800018f8:	08b22023          	sw	a1,128(tp) # 80 <buflen.3>
800018fc:	fec42703          	lw	a4,-20(s0)
80001900:	0ff77713          	zext.b	a4,a4
80001904:	04020593          	addi	a1,tp,64 # 40 <buf.4>
80001908:	97ae                	add	a5,a5,a1
8000190a:	00e78023          	sb	a4,0(a5)
8000190e:	fec42703          	lw	a4,-20(s0)
80001912:	47a9                	li	a5,10
80001914:	00f70863          	beq	a4,a5,80001924 <putchar+0x40>
80001918:	08022703          	lw	a4,128(tp) # 80 <buflen.3>
8000191c:	04000793          	li	a5,64
80001920:	02f71663          	bne	a4,a5,8000194c <putchar+0x68>
80001924:	04020793          	addi	a5,tp,64 # 40 <buf.4>
80001928:	863e                	mv	a2,a5
8000192a:	4681                	li	a3,0
8000192c:	08022783          	lw	a5,128(tp) # 80 <buflen.3>
80001930:	883e                	mv	a6,a5
80001932:	87fd                	srai	a5,a5,0x1f
80001934:	88be                	mv	a7,a5
80001936:	87c2                	mv	a5,a6
80001938:	8846                	mv	a6,a7
8000193a:	8736                	mv	a4,a3
8000193c:	86b2                	mv	a3,a2
8000193e:	4585                	li	a1,1
80001940:	4601                	li	a2,0
80001942:	04000513          	li	a0,64
80001946:	3e55                	jal	800014fa <syscall>
80001948:	08022023          	sw	zero,128(tp) # 80 <buflen.3>
8000194c:	4781                	li	a5,0
8000194e:	853e                	mv	a0,a5
80001950:	40f2                	lw	ra,28(sp)
80001952:	4462                	lw	s0,24(sp)
80001954:	6105                	addi	sp,sp,32
80001956:	8082                	ret

80001958 <printhex>:
80001958:	7139                	addi	sp,sp,-64
8000195a:	de06                	sw	ra,60(sp)
8000195c:	dc22                	sw	s0,56(sp)
8000195e:	0080                	addi	s0,sp,64
80001960:	fca42423          	sw	a0,-56(s0)
80001964:	fcb42623          	sw	a1,-52(s0)
80001968:	fe042623          	sw	zero,-20(s0)
8000196c:	a8ad                	j	800019e6 <printhex+0x8e>
8000196e:	fc844583          	lbu	a1,-56(s0)
80001972:	89bd                	andi	a1,a1,15
80001974:	0ff5f513          	zext.b	a0,a1
80001978:	fc842583          	lw	a1,-56(s0)
8000197c:	00f5f613          	andi	a2,a1,15
80001980:	fcc42583          	lw	a1,-52(s0)
80001984:	0005f693          	andi	a3,a1,0
80001988:	85b6                	mv	a1,a3
8000198a:	e991                	bnez	a1,8000199e <printhex+0x46>
8000198c:	85b6                	mv	a1,a3
8000198e:	e589                	bnez	a1,80001998 <printhex+0x40>
80001990:	8832                	mv	a6,a2
80001992:	45a5                	li	a1,9
80001994:	0105e563          	bltu	a1,a6,8000199e <printhex+0x46>
80001998:	03000593          	li	a1,48
8000199c:	a019                	j	800019a2 <printhex+0x4a>
8000199e:	05700593          	li	a1,87
800019a2:	48bd                	li	a7,15
800019a4:	fec42803          	lw	a6,-20(s0)
800019a8:	41088833          	sub	a6,a7,a6
800019ac:	95aa                	add	a1,a1,a0
800019ae:	0ff5f513          	zext.b	a0,a1
800019b2:	ff080593          	addi	a1,a6,-16
800019b6:	95a2                	add	a1,a1,s0
800019b8:	fea58423          	sb	a0,-24(a1)
800019bc:	fcc42583          	lw	a1,-52(s0)
800019c0:	05f2                	slli	a1,a1,0x1c
800019c2:	fc842503          	lw	a0,-56(s0)
800019c6:	00455713          	srli	a4,a0,0x4
800019ca:	8f4d                	or	a4,a4,a1
800019cc:	fcc42583          	lw	a1,-52(s0)
800019d0:	0045d793          	srli	a5,a1,0x4
800019d4:	fce42423          	sw	a4,-56(s0)
800019d8:	fcf42623          	sw	a5,-52(s0)
800019dc:	fec42583          	lw	a1,-20(s0)
800019e0:	0585                	addi	a1,a1,1
800019e2:	feb42623          	sw	a1,-20(s0)
800019e6:	fec42503          	lw	a0,-20(s0)
800019ea:	45bd                	li	a1,15
800019ec:	f8a5d1e3          	bge	a1,a0,8000196e <printhex+0x16>
800019f0:	fe040423          	sb	zero,-24(s0)
800019f4:	fd840793          	addi	a5,s0,-40
800019f8:	853e                	mv	a0,a5
800019fa:	331d                	jal	80001720 <printstr>
800019fc:	0001                	nop
800019fe:	50f2                	lw	ra,60(sp)
80001a00:	5462                	lw	s0,56(sp)
80001a02:	6121                	addi	sp,sp,64
80001a04:	8082                	ret

80001a06 <printnum>:
80001a06:	714d                	addi	sp,sp,-336
80001a08:	14112623          	sw	ra,332(sp)
80001a0c:	14812423          	sw	s0,328(sp)
80001a10:	15212223          	sw	s2,324(sp)
80001a14:	15312023          	sw	s3,320(sp)
80001a18:	13412e23          	sw	s4,316(sp)
80001a1c:	13512c23          	sw	s5,312(sp)
80001a20:	13612a23          	sw	s6,308(sp)
80001a24:	13712823          	sw	s7,304(sp)
80001a28:	0a80                	addi	s0,sp,336
80001a2a:	eca42623          	sw	a0,-308(s0)
80001a2e:	ecb42423          	sw	a1,-312(s0)
80001a32:	ecc42023          	sw	a2,-320(s0)
80001a36:	ecd42223          	sw	a3,-316(s0)
80001a3a:	eae42e23          	sw	a4,-324(s0)
80001a3e:	eaf42c23          	sw	a5,-328(s0)
80001a42:	eb042a23          	sw	a6,-332(s0)
80001a46:	fc042e23          	sw	zero,-36(s0)
80001a4a:	ebc42783          	lw	a5,-324(s0)
80001a4e:	8b3e                	mv	s6,a5
80001a50:	4b81                	li	s7,0
80001a52:	ec042703          	lw	a4,-320(s0)
80001a56:	ec442783          	lw	a5,-316(s0)
80001a5a:	865a                	mv	a2,s6
80001a5c:	86de                	mv	a3,s7
80001a5e:	853a                	mv	a0,a4
80001a60:	85be                	mv	a1,a5
80001a62:	5bf000ef          	jal	ra,80002820 <__umoddi3>
80001a66:	872a                	mv	a4,a0
80001a68:	87ae                	mv	a5,a1
80001a6a:	863a                	mv	a2,a4
80001a6c:	86be                	mv	a3,a5
80001a6e:	fdc42783          	lw	a5,-36(s0)
80001a72:	00178713          	addi	a4,a5,1
80001a76:	fce42e23          	sw	a4,-36(s0)
80001a7a:	8732                	mv	a4,a2
80001a7c:	078a                	slli	a5,a5,0x2
80001a7e:	1781                	addi	a5,a5,-32
80001a80:	97a2                	add	a5,a5,s0
80001a82:	eee7ae23          	sw	a4,-260(a5)
80001a86:	ebc42783          	lw	a5,-324(s0)
80001a8a:	893e                	mv	s2,a5
80001a8c:	4981                	li	s3,0
80001a8e:	ec442783          	lw	a5,-316(s0)
80001a92:	874e                	mv	a4,s3
80001a94:	02e7ef63          	bltu	a5,a4,80001ad2 <printnum+0xcc>
80001a98:	ec442783          	lw	a5,-316(s0)
80001a9c:	874e                	mv	a4,s3
80001a9e:	00e79763          	bne	a5,a4,80001aac <printnum+0xa6>
80001aa2:	ec042783          	lw	a5,-320(s0)
80001aa6:	874a                	mv	a4,s2
80001aa8:	02e7e563          	bltu	a5,a4,80001ad2 <printnum+0xcc>
80001aac:	ebc42783          	lw	a5,-324(s0)
80001ab0:	8a3e                	mv	s4,a5
80001ab2:	4a81                	li	s5,0
80001ab4:	8652                	mv	a2,s4
80001ab6:	86d6                	mv	a3,s5
80001ab8:	ec042503          	lw	a0,-320(s0)
80001abc:	ec442583          	lw	a1,-316(s0)
80001ac0:	203000ef          	jal	ra,800024c2 <__udivdi3>
80001ac4:	872a                	mv	a4,a0
80001ac6:	87ae                	mv	a5,a1
80001ac8:	ece42023          	sw	a4,-320(s0)
80001acc:	ecf42223          	sw	a5,-316(s0)
80001ad0:	bfad                	j	80001a4a <printnum+0x44>
80001ad2:	0001                	nop
80001ad4:	a801                	j	80001ae4 <printnum+0xde>
80001ad6:	ecc42783          	lw	a5,-308(s0)
80001ada:	ec842583          	lw	a1,-312(s0)
80001ade:	eb442503          	lw	a0,-332(s0)
80001ae2:	9782                	jalr	a5
80001ae4:	eb842783          	lw	a5,-328(s0)
80001ae8:	fff78713          	addi	a4,a5,-1
80001aec:	eae42c23          	sw	a4,-328(s0)
80001af0:	fdc42703          	lw	a4,-36(s0)
80001af4:	fef741e3          	blt	a4,a5,80001ad6 <printnum+0xd0>
80001af8:	a835                	j	80001b34 <printnum+0x12e>
80001afa:	fdc42783          	lw	a5,-36(s0)
80001afe:	078a                	slli	a5,a5,0x2
80001b00:	1781                	addi	a5,a5,-32
80001b02:	97a2                	add	a5,a5,s0
80001b04:	efc7a703          	lw	a4,-260(a5)
80001b08:	fdc42783          	lw	a5,-36(s0)
80001b0c:	078a                	slli	a5,a5,0x2
80001b0e:	1781                	addi	a5,a5,-32
80001b10:	97a2                	add	a5,a5,s0
80001b12:	efc7a683          	lw	a3,-260(a5)
80001b16:	47a5                	li	a5,9
80001b18:	00d7f563          	bgeu	a5,a3,80001b22 <printnum+0x11c>
80001b1c:	05700793          	li	a5,87
80001b20:	a019                	j	80001b26 <printnum+0x120>
80001b22:	03000793          	li	a5,48
80001b26:	97ba                	add	a5,a5,a4
80001b28:	ecc42703          	lw	a4,-308(s0)
80001b2c:	ec842583          	lw	a1,-312(s0)
80001b30:	853e                	mv	a0,a5
80001b32:	9702                	jalr	a4
80001b34:	fdc42783          	lw	a5,-36(s0)
80001b38:	fff78713          	addi	a4,a5,-1
80001b3c:	fce42e23          	sw	a4,-36(s0)
80001b40:	faf04de3          	bgtz	a5,80001afa <printnum+0xf4>
80001b44:	0001                	nop
80001b46:	0001                	nop
80001b48:	14c12083          	lw	ra,332(sp)
80001b4c:	14812403          	lw	s0,328(sp)
80001b50:	14412903          	lw	s2,324(sp)
80001b54:	14012983          	lw	s3,320(sp)
80001b58:	13c12a03          	lw	s4,316(sp)
80001b5c:	13812a83          	lw	s5,312(sp)
80001b60:	13412b03          	lw	s6,308(sp)
80001b64:	13012b83          	lw	s7,304(sp)
80001b68:	6171                	addi	sp,sp,336
80001b6a:	8082                	ret

80001b6c <getuint>:
80001b6c:	1101                	addi	sp,sp,-32
80001b6e:	ce22                	sw	s0,28(sp)
80001b70:	1000                	addi	s0,sp,32
80001b72:	fea42623          	sw	a0,-20(s0)
80001b76:	feb42423          	sw	a1,-24(s0)
80001b7a:	fe842603          	lw	a2,-24(s0)
80001b7e:	4685                	li	a3,1
80001b80:	00c6df63          	bge	a3,a2,80001b9e <getuint+0x32>
80001b84:	fec42783          	lw	a5,-20(s0)
80001b88:	439c                	lw	a5,0(a5)
80001b8a:	079d                	addi	a5,a5,7
80001b8c:	9be1                	andi	a5,a5,-8
80001b8e:	00878693          	addi	a3,a5,8
80001b92:	fec42703          	lw	a4,-20(s0)
80001b96:	c314                	sw	a3,0(a4)
80001b98:	4398                	lw	a4,0(a5)
80001b9a:	43dc                	lw	a5,4(a5)
80001b9c:	a81d                	j	80001bd2 <getuint+0x66>
80001b9e:	fe842683          	lw	a3,-24(s0)
80001ba2:	ce89                	beqz	a3,80001bbc <getuint+0x50>
80001ba4:	fec42683          	lw	a3,-20(s0)
80001ba8:	4294                	lw	a3,0(a3)
80001baa:	00468593          	addi	a1,a3,4
80001bae:	fec42603          	lw	a2,-20(s0)
80001bb2:	c20c                	sw	a1,0(a2)
80001bb4:	4294                	lw	a3,0(a3)
80001bb6:	8736                	mv	a4,a3
80001bb8:	4781                	li	a5,0
80001bba:	a821                	j	80001bd2 <getuint+0x66>
80001bbc:	fec42683          	lw	a3,-20(s0)
80001bc0:	4294                	lw	a3,0(a3)
80001bc2:	00468593          	addi	a1,a3,4
80001bc6:	fec42603          	lw	a2,-20(s0)
80001bca:	c20c                	sw	a1,0(a2)
80001bcc:	4294                	lw	a3,0(a3)
80001bce:	8736                	mv	a4,a3
80001bd0:	4781                	li	a5,0
80001bd2:	853a                	mv	a0,a4
80001bd4:	85be                	mv	a1,a5
80001bd6:	4472                	lw	s0,28(sp)
80001bd8:	6105                	addi	sp,sp,32
80001bda:	8082                	ret

80001bdc <getint>:
80001bdc:	1101                	addi	sp,sp,-32
80001bde:	ce22                	sw	s0,28(sp)
80001be0:	1000                	addi	s0,sp,32
80001be2:	fea42623          	sw	a0,-20(s0)
80001be6:	feb42423          	sw	a1,-24(s0)
80001bea:	fe842603          	lw	a2,-24(s0)
80001bee:	4685                	li	a3,1
80001bf0:	00c6df63          	bge	a3,a2,80001c0e <getint+0x32>
80001bf4:	fec42783          	lw	a5,-20(s0)
80001bf8:	439c                	lw	a5,0(a5)
80001bfa:	079d                	addi	a5,a5,7
80001bfc:	9be1                	andi	a5,a5,-8
80001bfe:	00878693          	addi	a3,a5,8
80001c02:	fec42703          	lw	a4,-20(s0)
80001c06:	c314                	sw	a3,0(a4)
80001c08:	4398                	lw	a4,0(a5)
80001c0a:	43dc                	lw	a5,4(a5)
80001c0c:	a82d                	j	80001c46 <getint+0x6a>
80001c0e:	fe842683          	lw	a3,-24(s0)
80001c12:	ce91                	beqz	a3,80001c2e <getint+0x52>
80001c14:	fec42683          	lw	a3,-20(s0)
80001c18:	4294                	lw	a3,0(a3)
80001c1a:	00468593          	addi	a1,a3,4
80001c1e:	fec42603          	lw	a2,-20(s0)
80001c22:	c20c                	sw	a1,0(a2)
80001c24:	4294                	lw	a3,0(a3)
80001c26:	8736                	mv	a4,a3
80001c28:	86fd                	srai	a3,a3,0x1f
80001c2a:	87b6                	mv	a5,a3
80001c2c:	a829                	j	80001c46 <getint+0x6a>
80001c2e:	fec42683          	lw	a3,-20(s0)
80001c32:	4294                	lw	a3,0(a3)
80001c34:	00468593          	addi	a1,a3,4
80001c38:	fec42603          	lw	a2,-20(s0)
80001c3c:	c20c                	sw	a1,0(a2)
80001c3e:	4294                	lw	a3,0(a3)
80001c40:	8736                	mv	a4,a3
80001c42:	86fd                	srai	a3,a3,0x1f
80001c44:	87b6                	mv	a5,a3
80001c46:	853a                	mv	a0,a4
80001c48:	85be                	mv	a1,a5
80001c4a:	4472                	lw	s0,28(sp)
80001c4c:	6105                	addi	sp,sp,32
80001c4e:	8082                	ret

80001c50 <vprintfmt>:
80001c50:	715d                	addi	sp,sp,-80
80001c52:	c686                	sw	ra,76(sp)
80001c54:	c4a2                	sw	s0,72(sp)
80001c56:	c2a6                	sw	s1,68(sp)
80001c58:	c0ca                	sw	s2,64(sp)
80001c5a:	0880                	addi	s0,sp,80
80001c5c:	faa42e23          	sw	a0,-68(s0)
80001c60:	fab42c23          	sw	a1,-72(s0)
80001c64:	fac42a23          	sw	a2,-76(s0)
80001c68:	fad42823          	sw	a3,-80(s0)
80001c6c:	a831                	j	80001c88 <vprintfmt+0x38>
80001c6e:	30048e63          	beqz	s1,80001f8a <vprintfmt+0x33a>
80001c72:	fb442783          	lw	a5,-76(s0)
80001c76:	0785                	addi	a5,a5,1
80001c78:	faf42a23          	sw	a5,-76(s0)
80001c7c:	fbc42783          	lw	a5,-68(s0)
80001c80:	fb842583          	lw	a1,-72(s0)
80001c84:	8526                	mv	a0,s1
80001c86:	9782                	jalr	a5
80001c88:	fb442783          	lw	a5,-76(s0)
80001c8c:	0007c783          	lbu	a5,0(a5)
80001c90:	84be                	mv	s1,a5
80001c92:	02500793          	li	a5,37
80001c96:	fcf49ce3          	bne	s1,a5,80001c6e <vprintfmt+0x1e>
80001c9a:	fb442783          	lw	a5,-76(s0)
80001c9e:	0785                	addi	a5,a5,1
80001ca0:	faf42a23          	sw	a5,-76(s0)
80001ca4:	fb442783          	lw	a5,-76(s0)
80001ca8:	fcf42823          	sw	a5,-48(s0)
80001cac:	02000793          	li	a5,32
80001cb0:	fcf40ba3          	sb	a5,-41(s0)
80001cb4:	57fd                	li	a5,-1
80001cb6:	fcf42e23          	sw	a5,-36(s0)
80001cba:	57fd                	li	a5,-1
80001cbc:	fcf42c23          	sw	a5,-40(s0)
80001cc0:	fe042023          	sw	zero,-32(s0)
80001cc4:	fc042623          	sw	zero,-52(s0)
80001cc8:	fb442783          	lw	a5,-76(s0)
80001ccc:	00178713          	addi	a4,a5,1
80001cd0:	fae42a23          	sw	a4,-76(s0)
80001cd4:	0007c783          	lbu	a5,0(a5)
80001cd8:	84be                	mv	s1,a5
80001cda:	fdd48793          	addi	a5,s1,-35
80001cde:	05500713          	li	a4,85
80001ce2:	28f76763          	bltu	a4,a5,80001f70 <vprintfmt+0x320>
80001ce6:	00279713          	slli	a4,a5,0x2
80001cea:	00001797          	auipc	a5,0x1
80001cee:	f4a78793          	addi	a5,a5,-182 # 80002c34 <__eqdf2+0xf6>
80001cf2:	97ba                	add	a5,a5,a4
80001cf4:	4398                	lw	a4,0(a5)
80001cf6:	00001797          	auipc	a5,0x1
80001cfa:	f3e78793          	addi	a5,a5,-194 # 80002c34 <__eqdf2+0xf6>
80001cfe:	97ba                	add	a5,a5,a4
80001d00:	8782                	jr	a5
80001d02:	02d00793          	li	a5,45
80001d06:	fcf40ba3          	sb	a5,-41(s0)
80001d0a:	bf7d                	j	80001cc8 <vprintfmt+0x78>
80001d0c:	03000793          	li	a5,48
80001d10:	fcf40ba3          	sb	a5,-41(s0)
80001d14:	bf55                	j	80001cc8 <vprintfmt+0x78>
80001d16:	fc042c23          	sw	zero,-40(s0)
80001d1a:	fd842703          	lw	a4,-40(s0)
80001d1e:	87ba                	mv	a5,a4
80001d20:	078a                	slli	a5,a5,0x2
80001d22:	97ba                	add	a5,a5,a4
80001d24:	0786                	slli	a5,a5,0x1
80001d26:	97a6                	add	a5,a5,s1
80001d28:	fd078793          	addi	a5,a5,-48
80001d2c:	fcf42c23          	sw	a5,-40(s0)
80001d30:	fb442783          	lw	a5,-76(s0)
80001d34:	0007c783          	lbu	a5,0(a5)
80001d38:	84be                	mv	s1,a5
80001d3a:	02f00793          	li	a5,47
80001d3e:	0497d163          	bge	a5,s1,80001d80 <vprintfmt+0x130>
80001d42:	03900793          	li	a5,57
80001d46:	0297cd63          	blt	a5,s1,80001d80 <vprintfmt+0x130>
80001d4a:	fb442783          	lw	a5,-76(s0)
80001d4e:	0785                	addi	a5,a5,1
80001d50:	faf42a23          	sw	a5,-76(s0)
80001d54:	b7d9                	j	80001d1a <vprintfmt+0xca>
80001d56:	fb042783          	lw	a5,-80(s0)
80001d5a:	00478713          	addi	a4,a5,4
80001d5e:	fae42823          	sw	a4,-80(s0)
80001d62:	439c                	lw	a5,0(a5)
80001d64:	fcf42c23          	sw	a5,-40(s0)
80001d68:	a829                	j	80001d82 <vprintfmt+0x132>
80001d6a:	fdc42783          	lw	a5,-36(s0)
80001d6e:	f407dde3          	bgez	a5,80001cc8 <vprintfmt+0x78>
80001d72:	fc042e23          	sw	zero,-36(s0)
80001d76:	bf89                	j	80001cc8 <vprintfmt+0x78>
80001d78:	4785                	li	a5,1
80001d7a:	fcf42623          	sw	a5,-52(s0)
80001d7e:	b7a9                	j	80001cc8 <vprintfmt+0x78>
80001d80:	0001                	nop
80001d82:	fdc42783          	lw	a5,-36(s0)
80001d86:	f407d1e3          	bgez	a5,80001cc8 <vprintfmt+0x78>
80001d8a:	fd842783          	lw	a5,-40(s0)
80001d8e:	fcf42e23          	sw	a5,-36(s0)
80001d92:	57fd                	li	a5,-1
80001d94:	fcf42c23          	sw	a5,-40(s0)
80001d98:	bf05                	j	80001cc8 <vprintfmt+0x78>
80001d9a:	fe042783          	lw	a5,-32(s0)
80001d9e:	0785                	addi	a5,a5,1
80001da0:	fef42023          	sw	a5,-32(s0)
80001da4:	b715                	j	80001cc8 <vprintfmt+0x78>
80001da6:	fb042783          	lw	a5,-80(s0)
80001daa:	00478713          	addi	a4,a5,4
80001dae:	fae42823          	sw	a4,-80(s0)
80001db2:	439c                	lw	a5,0(a5)
80001db4:	fbc42703          	lw	a4,-68(s0)
80001db8:	fb842583          	lw	a1,-72(s0)
80001dbc:	853e                	mv	a0,a5
80001dbe:	9702                	jalr	a4
80001dc0:	a2e1                	j	80001f88 <vprintfmt+0x338>
80001dc2:	fb042783          	lw	a5,-80(s0)
80001dc6:	00478713          	addi	a4,a5,4
80001dca:	fae42823          	sw	a4,-80(s0)
80001dce:	0007a903          	lw	s2,0(a5)
80001dd2:	00091663          	bnez	s2,80001dde <vprintfmt+0x18e>
80001dd6:	00001917          	auipc	s2,0x1
80001dda:	e5690913          	addi	s2,s2,-426 # 80002c2c <__eqdf2+0xee>
80001dde:	fdc42783          	lw	a5,-36(s0)
80001de2:	06f05363          	blez	a5,80001e48 <vprintfmt+0x1f8>
80001de6:	fd744703          	lbu	a4,-41(s0)
80001dea:	02d00793          	li	a5,45
80001dee:	04f70d63          	beq	a4,a5,80001e48 <vprintfmt+0x1f8>
80001df2:	fdc42483          	lw	s1,-36(s0)
80001df6:	fd842783          	lw	a5,-40(s0)
80001dfa:	85be                	mv	a1,a5
80001dfc:	854a                	mv	a0,s2
80001dfe:	21c9                	jal	800022c0 <strnlen>
80001e00:	87aa                	mv	a5,a0
80001e02:	40f487b3          	sub	a5,s1,a5
80001e06:	fcf42e23          	sw	a5,-36(s0)
80001e0a:	a831                	j	80001e26 <vprintfmt+0x1d6>
80001e0c:	fd744783          	lbu	a5,-41(s0)
80001e10:	fbc42703          	lw	a4,-68(s0)
80001e14:	fb842583          	lw	a1,-72(s0)
80001e18:	853e                	mv	a0,a5
80001e1a:	9702                	jalr	a4
80001e1c:	fdc42783          	lw	a5,-36(s0)
80001e20:	17fd                	addi	a5,a5,-1
80001e22:	fcf42e23          	sw	a5,-36(s0)
80001e26:	fdc42783          	lw	a5,-36(s0)
80001e2a:	fef041e3          	bgtz	a5,80001e0c <vprintfmt+0x1bc>
80001e2e:	a829                	j	80001e48 <vprintfmt+0x1f8>
80001e30:	fbc42783          	lw	a5,-68(s0)
80001e34:	fb842583          	lw	a1,-72(s0)
80001e38:	8526                	mv	a0,s1
80001e3a:	9782                	jalr	a5
80001e3c:	0905                	addi	s2,s2,1
80001e3e:	fdc42783          	lw	a5,-36(s0)
80001e42:	17fd                	addi	a5,a5,-1
80001e44:	fcf42e23          	sw	a5,-36(s0)
80001e48:	00094783          	lbu	a5,0(s2)
80001e4c:	84be                	mv	s1,a5
80001e4e:	c89d                	beqz	s1,80001e84 <vprintfmt+0x234>
80001e50:	fd842783          	lw	a5,-40(s0)
80001e54:	fc07cee3          	bltz	a5,80001e30 <vprintfmt+0x1e0>
80001e58:	fd842783          	lw	a5,-40(s0)
80001e5c:	17fd                	addi	a5,a5,-1
80001e5e:	fcf42c23          	sw	a5,-40(s0)
80001e62:	fd842783          	lw	a5,-40(s0)
80001e66:	fc07d5e3          	bgez	a5,80001e30 <vprintfmt+0x1e0>
80001e6a:	a829                	j	80001e84 <vprintfmt+0x234>
80001e6c:	fbc42783          	lw	a5,-68(s0)
80001e70:	fb842583          	lw	a1,-72(s0)
80001e74:	02000513          	li	a0,32
80001e78:	9782                	jalr	a5
80001e7a:	fdc42783          	lw	a5,-36(s0)
80001e7e:	17fd                	addi	a5,a5,-1
80001e80:	fcf42e23          	sw	a5,-36(s0)
80001e84:	fdc42783          	lw	a5,-36(s0)
80001e88:	fef042e3          	bgtz	a5,80001e6c <vprintfmt+0x21c>
80001e8c:	a8f5                	j	80001f88 <vprintfmt+0x338>
80001e8e:	fb040793          	addi	a5,s0,-80
80001e92:	fe042583          	lw	a1,-32(s0)
80001e96:	853e                	mv	a0,a5
80001e98:	3391                	jal	80001bdc <getint>
80001e9a:	872a                	mv	a4,a0
80001e9c:	87ae                	mv	a5,a1
80001e9e:	fee42423          	sw	a4,-24(s0)
80001ea2:	fef42623          	sw	a5,-20(s0)
80001ea6:	fe842703          	lw	a4,-24(s0)
80001eaa:	fec42783          	lw	a5,-20(s0)
80001eae:	0207df63          	bgez	a5,80001eec <vprintfmt+0x29c>
80001eb2:	fbc42783          	lw	a5,-68(s0)
80001eb6:	fb842583          	lw	a1,-72(s0)
80001eba:	02d00513          	li	a0,45
80001ebe:	9782                	jalr	a5
80001ec0:	fe842503          	lw	a0,-24(s0)
80001ec4:	fec42583          	lw	a1,-20(s0)
80001ec8:	4701                	li	a4,0
80001eca:	4781                	li	a5,0
80001ecc:	40a70633          	sub	a2,a4,a0
80001ed0:	8832                	mv	a6,a2
80001ed2:	01073833          	sltu	a6,a4,a6
80001ed6:	40b786b3          	sub	a3,a5,a1
80001eda:	410687b3          	sub	a5,a3,a6
80001ede:	86be                	mv	a3,a5
80001ee0:	8732                	mv	a4,a2
80001ee2:	87b6                	mv	a5,a3
80001ee4:	fee42423          	sw	a4,-24(s0)
80001ee8:	fef42623          	sw	a5,-20(s0)
80001eec:	47a9                	li	a5,10
80001eee:	fef42223          	sw	a5,-28(s0)
80001ef2:	a0b9                	j	80001f40 <vprintfmt+0x2f0>
80001ef4:	47a9                	li	a5,10
80001ef6:	fef42223          	sw	a5,-28(s0)
80001efa:	a80d                	j	80001f2c <vprintfmt+0x2dc>
80001efc:	47a1                	li	a5,8
80001efe:	fef42223          	sw	a5,-28(s0)
80001f02:	a02d                	j	80001f2c <vprintfmt+0x2dc>
80001f04:	4785                	li	a5,1
80001f06:	fef42023          	sw	a5,-32(s0)
80001f0a:	fbc42783          	lw	a5,-68(s0)
80001f0e:	fb842583          	lw	a1,-72(s0)
80001f12:	03000513          	li	a0,48
80001f16:	9782                	jalr	a5
80001f18:	fbc42783          	lw	a5,-68(s0)
80001f1c:	fb842583          	lw	a1,-72(s0)
80001f20:	07800513          	li	a0,120
80001f24:	9782                	jalr	a5
80001f26:	47c1                	li	a5,16
80001f28:	fef42223          	sw	a5,-28(s0)
80001f2c:	fb040793          	addi	a5,s0,-80
80001f30:	fe042583          	lw	a1,-32(s0)
80001f34:	853e                	mv	a0,a5
80001f36:	391d                	jal	80001b6c <getuint>
80001f38:	fea42423          	sw	a0,-24(s0)
80001f3c:	feb42623          	sw	a1,-20(s0)
80001f40:	fe442703          	lw	a4,-28(s0)
80001f44:	fd744783          	lbu	a5,-41(s0)
80001f48:	883e                	mv	a6,a5
80001f4a:	fdc42783          	lw	a5,-36(s0)
80001f4e:	fe842603          	lw	a2,-24(s0)
80001f52:	fec42683          	lw	a3,-20(s0)
80001f56:	fb842583          	lw	a1,-72(s0)
80001f5a:	fbc42503          	lw	a0,-68(s0)
80001f5e:	3465                	jal	80001a06 <printnum>
80001f60:	a025                	j	80001f88 <vprintfmt+0x338>
80001f62:	fbc42783          	lw	a5,-68(s0)
80001f66:	fb842583          	lw	a1,-72(s0)
80001f6a:	8526                	mv	a0,s1
80001f6c:	9782                	jalr	a5
80001f6e:	a829                	j	80001f88 <vprintfmt+0x338>
80001f70:	fbc42783          	lw	a5,-68(s0)
80001f74:	fb842583          	lw	a1,-72(s0)
80001f78:	02500513          	li	a0,37
80001f7c:	9782                	jalr	a5
80001f7e:	fd042783          	lw	a5,-48(s0)
80001f82:	faf42a23          	sw	a5,-76(s0)
80001f86:	0001                	nop
80001f88:	b301                	j	80001c88 <vprintfmt+0x38>
80001f8a:	0001                	nop
80001f8c:	40b6                	lw	ra,76(sp)
80001f8e:	4426                	lw	s0,72(sp)
80001f90:	4496                	lw	s1,68(sp)
80001f92:	4906                	lw	s2,64(sp)
80001f94:	6161                	addi	sp,sp,80
80001f96:	8082                	ret

80001f98 <printf>:
80001f98:	715d                	addi	sp,sp,-80
80001f9a:	d606                	sw	ra,44(sp)
80001f9c:	d422                	sw	s0,40(sp)
80001f9e:	1800                	addi	s0,sp,48
80001fa0:	fca42e23          	sw	a0,-36(s0)
80001fa4:	c04c                	sw	a1,4(s0)
80001fa6:	c410                	sw	a2,8(s0)
80001fa8:	c454                	sw	a3,12(s0)
80001faa:	c818                	sw	a4,16(s0)
80001fac:	c85c                	sw	a5,20(s0)
80001fae:	01042c23          	sw	a6,24(s0)
80001fb2:	01142e23          	sw	a7,28(s0)
80001fb6:	02040793          	addi	a5,s0,32
80001fba:	fcf42c23          	sw	a5,-40(s0)
80001fbe:	fd842783          	lw	a5,-40(s0)
80001fc2:	1791                	addi	a5,a5,-28
80001fc4:	fef42623          	sw	a5,-20(s0)
80001fc8:	fec42783          	lw	a5,-20(s0)
80001fcc:	86be                	mv	a3,a5
80001fce:	fdc42603          	lw	a2,-36(s0)
80001fd2:	4581                	li	a1,0
80001fd4:	00000517          	auipc	a0,0x0
80001fd8:	91050513          	addi	a0,a0,-1776 # 800018e4 <putchar>
80001fdc:	3995                	jal	80001c50 <vprintfmt>
80001fde:	4781                	li	a5,0
80001fe0:	853e                	mv	a0,a5
80001fe2:	50b2                	lw	ra,44(sp)
80001fe4:	5422                	lw	s0,40(sp)
80001fe6:	6161                	addi	sp,sp,80
80001fe8:	8082                	ret

80001fea <sprintf_putch.0>:
80001fea:	7179                	addi	sp,sp,-48
80001fec:	d622                	sw	s0,44(sp)
80001fee:	1800                	addi	s0,sp,48
80001ff0:	fca42e23          	sw	a0,-36(s0)
80001ff4:	fcb42c23          	sw	a1,-40(s0)
80001ff8:	fc742a23          	sw	t2,-44(s0)
80001ffc:	fd842783          	lw	a5,-40(s0)
80002000:	fef42623          	sw	a5,-20(s0)
80002004:	fec42783          	lw	a5,-20(s0)
80002008:	439c                	lw	a5,0(a5)
8000200a:	fdc42703          	lw	a4,-36(s0)
8000200e:	0ff77713          	zext.b	a4,a4
80002012:	00e78023          	sb	a4,0(a5)
80002016:	fec42783          	lw	a5,-20(s0)
8000201a:	439c                	lw	a5,0(a5)
8000201c:	00178713          	addi	a4,a5,1
80002020:	fec42783          	lw	a5,-20(s0)
80002024:	c398                	sw	a4,0(a5)
80002026:	0001                	nop
80002028:	5432                	lw	s0,44(sp)
8000202a:	6145                	addi	sp,sp,48
8000202c:	8082                	ret

8000202e <sprintf>:
8000202e:	711d                	addi	sp,sp,-96
80002030:	de06                	sw	ra,60(sp)
80002032:	dc22                	sw	s0,56(sp)
80002034:	0080                	addi	s0,sp,64
80002036:	fca42623          	sw	a0,-52(s0)
8000203a:	fcb42423          	sw	a1,-56(s0)
8000203e:	c410                	sw	a2,8(s0)
80002040:	c454                	sw	a3,12(s0)
80002042:	c818                	sw	a4,16(s0)
80002044:	c85c                	sw	a5,20(s0)
80002046:	01042c23          	sw	a6,24(s0)
8000204a:	01142e23          	sw	a7,28(s0)
8000204e:	02040793          	addi	a5,s0,32
80002052:	fcf42223          	sw	a5,-60(s0)
80002056:	fc442783          	lw	a5,-60(s0)
8000205a:	fef42223          	sw	a5,-28(s0)
8000205e:	fd440793          	addi	a5,s0,-44
80002062:	fd440593          	addi	a1,s0,-44
80002066:	00000617          	auipc	a2,0x0
8000206a:	f8460613          	addi	a2,a2,-124 # 80001fea <sprintf_putch.0>
8000206e:	777d                	lui	a4,0xfffff
80002070:	fff74693          	not	a3,a4
80002074:	6505                	lui	a0,0x1
80002076:	80050513          	addi	a0,a0,-2048 # 800 <buflen.3+0x780>
8000207a:	00a58833          	add	a6,a1,a0
8000207e:	00e87833          	and	a6,a6,a4
80002082:	3b786813          	ori	a6,a6,951
80002086:	0107a023          	sw	a6,0(a5)
8000208a:	9532                	add	a0,a0,a2
8000208c:	8f69                	and	a4,a4,a0
8000208e:	2b776713          	ori	a4,a4,695
80002092:	c3d8                	sw	a4,4(a5)
80002094:	00d5f733          	and	a4,a1,a3
80002098:	01471593          	slli	a1,a4,0x14
8000209c:	00038737          	lui	a4,0x38
800020a0:	39370713          	addi	a4,a4,915 # 38393 <buflen.3+0x38313>
800020a4:	8f4d                	or	a4,a4,a1
800020a6:	c798                	sw	a4,8(a5)
800020a8:	00d67733          	and	a4,a2,a3
800020ac:	01471693          	slli	a3,a4,0x14
800020b0:	00028737          	lui	a4,0x28
800020b4:	06770713          	addi	a4,a4,103 # 28067 <buflen.3+0x27fe7>
800020b8:	8f55                	or	a4,a4,a3
800020ba:	c7d8                	sw	a4,12(a5)
800020bc:	0000100f          	fence.i
800020c0:	fcc42783          	lw	a5,-52(s0)
800020c4:	fef42623          	sw	a5,-20(s0)
800020c8:	02040793          	addi	a5,s0,32
800020cc:	fcf42223          	sw	a5,-60(s0)
800020d0:	fc442783          	lw	a5,-60(s0)
800020d4:	17a1                	addi	a5,a5,-24
800020d6:	fef42423          	sw	a5,-24(s0)
800020da:	fe842703          	lw	a4,-24(s0)
800020de:	fd440793          	addi	a5,s0,-44
800020e2:	853e                	mv	a0,a5
800020e4:	fcc40793          	addi	a5,s0,-52
800020e8:	86ba                	mv	a3,a4
800020ea:	fc842603          	lw	a2,-56(s0)
800020ee:	85be                	mv	a1,a5
800020f0:	3685                	jal	80001c50 <vprintfmt>
800020f2:	fcc42783          	lw	a5,-52(s0)
800020f6:	00078023          	sb	zero,0(a5)
800020fa:	fcc42703          	lw	a4,-52(s0)
800020fe:	fec42783          	lw	a5,-20(s0)
80002102:	40f707b3          	sub	a5,a4,a5
80002106:	853e                	mv	a0,a5
80002108:	50f2                	lw	ra,60(sp)
8000210a:	5462                	lw	s0,56(sp)
8000210c:	6125                	addi	sp,sp,96
8000210e:	8082                	ret

80002110 <memcpy>:
80002110:	7179                	addi	sp,sp,-48
80002112:	d622                	sw	s0,44(sp)
80002114:	1800                	addi	s0,sp,48
80002116:	fca42e23          	sw	a0,-36(s0)
8000211a:	fcb42c23          	sw	a1,-40(s0)
8000211e:	fcc42a23          	sw	a2,-44(s0)
80002122:	fdc42703          	lw	a4,-36(s0)
80002126:	fd842783          	lw	a5,-40(s0)
8000212a:	8f5d                	or	a4,a4,a5
8000212c:	fd442783          	lw	a5,-44(s0)
80002130:	8fd9                	or	a5,a5,a4
80002132:	8b8d                	andi	a5,a5,3
80002134:	e3b1                	bnez	a5,80002178 <memcpy+0x68>
80002136:	fd842783          	lw	a5,-40(s0)
8000213a:	fef42623          	sw	a5,-20(s0)
8000213e:	fdc42783          	lw	a5,-36(s0)
80002142:	fef42423          	sw	a5,-24(s0)
80002146:	a839                	j	80002164 <memcpy+0x54>
80002148:	fec42703          	lw	a4,-20(s0)
8000214c:	00470793          	addi	a5,a4,4
80002150:	fef42623          	sw	a5,-20(s0)
80002154:	fe842783          	lw	a5,-24(s0)
80002158:	00478693          	addi	a3,a5,4
8000215c:	fed42423          	sw	a3,-24(s0)
80002160:	4318                	lw	a4,0(a4)
80002162:	c398                	sw	a4,0(a5)
80002164:	fdc42703          	lw	a4,-36(s0)
80002168:	fd442783          	lw	a5,-44(s0)
8000216c:	97ba                	add	a5,a5,a4
8000216e:	fe842703          	lw	a4,-24(s0)
80002172:	fcf76be3          	bltu	a4,a5,80002148 <memcpy+0x38>
80002176:	a099                	j	800021bc <memcpy+0xac>
80002178:	fd842783          	lw	a5,-40(s0)
8000217c:	fef42223          	sw	a5,-28(s0)
80002180:	fdc42783          	lw	a5,-36(s0)
80002184:	fef42023          	sw	a5,-32(s0)
80002188:	a00d                	j	800021aa <memcpy+0x9a>
8000218a:	fe442703          	lw	a4,-28(s0)
8000218e:	00170793          	addi	a5,a4,1
80002192:	fef42223          	sw	a5,-28(s0)
80002196:	fe042783          	lw	a5,-32(s0)
8000219a:	00178693          	addi	a3,a5,1
8000219e:	fed42023          	sw	a3,-32(s0)
800021a2:	00074703          	lbu	a4,0(a4)
800021a6:	00e78023          	sb	a4,0(a5)
800021aa:	fdc42703          	lw	a4,-36(s0)
800021ae:	fd442783          	lw	a5,-44(s0)
800021b2:	97ba                	add	a5,a5,a4
800021b4:	fe042703          	lw	a4,-32(s0)
800021b8:	fcf769e3          	bltu	a4,a5,8000218a <memcpy+0x7a>
800021bc:	fdc42783          	lw	a5,-36(s0)
800021c0:	853e                	mv	a0,a5
800021c2:	5432                	lw	s0,44(sp)
800021c4:	6145                	addi	sp,sp,48
800021c6:	8082                	ret

800021c8 <memset>:
800021c8:	7179                	addi	sp,sp,-48
800021ca:	d622                	sw	s0,44(sp)
800021cc:	1800                	addi	s0,sp,48
800021ce:	fca42e23          	sw	a0,-36(s0)
800021d2:	fcb42c23          	sw	a1,-40(s0)
800021d6:	fcc42a23          	sw	a2,-44(s0)
800021da:	fdc42703          	lw	a4,-36(s0)
800021de:	fd442783          	lw	a5,-44(s0)
800021e2:	8fd9                	or	a5,a5,a4
800021e4:	8b8d                	andi	a5,a5,3
800021e6:	efb9                	bnez	a5,80002244 <memset+0x7c>
800021e8:	fd842783          	lw	a5,-40(s0)
800021ec:	0ff7f793          	zext.b	a5,a5
800021f0:	fef42223          	sw	a5,-28(s0)
800021f4:	fe442783          	lw	a5,-28(s0)
800021f8:	07a2                	slli	a5,a5,0x8
800021fa:	fe442703          	lw	a4,-28(s0)
800021fe:	8fd9                	or	a5,a5,a4
80002200:	fef42223          	sw	a5,-28(s0)
80002204:	fe442783          	lw	a5,-28(s0)
80002208:	07c2                	slli	a5,a5,0x10
8000220a:	fe442703          	lw	a4,-28(s0)
8000220e:	8fd9                	or	a5,a5,a4
80002210:	fef42223          	sw	a5,-28(s0)
80002214:	fdc42783          	lw	a5,-36(s0)
80002218:	fef42623          	sw	a5,-20(s0)
8000221c:	a811                	j	80002230 <memset+0x68>
8000221e:	fec42783          	lw	a5,-20(s0)
80002222:	00478713          	addi	a4,a5,4
80002226:	fee42623          	sw	a4,-20(s0)
8000222a:	fe442703          	lw	a4,-28(s0)
8000222e:	c398                	sw	a4,0(a5)
80002230:	fdc42703          	lw	a4,-36(s0)
80002234:	fd442783          	lw	a5,-44(s0)
80002238:	97ba                	add	a5,a5,a4
8000223a:	fec42703          	lw	a4,-20(s0)
8000223e:	fef760e3          	bltu	a4,a5,8000221e <memset+0x56>
80002242:	a81d                	j	80002278 <memset+0xb0>
80002244:	fdc42783          	lw	a5,-36(s0)
80002248:	fef42423          	sw	a5,-24(s0)
8000224c:	a829                	j	80002266 <memset+0x9e>
8000224e:	fe842783          	lw	a5,-24(s0)
80002252:	00178713          	addi	a4,a5,1
80002256:	fee42423          	sw	a4,-24(s0)
8000225a:	fd842703          	lw	a4,-40(s0)
8000225e:	0ff77713          	zext.b	a4,a4
80002262:	00e78023          	sb	a4,0(a5)
80002266:	fdc42703          	lw	a4,-36(s0)
8000226a:	fd442783          	lw	a5,-44(s0)
8000226e:	97ba                	add	a5,a5,a4
80002270:	fe842703          	lw	a4,-24(s0)
80002274:	fcf76de3          	bltu	a4,a5,8000224e <memset+0x86>
80002278:	fdc42783          	lw	a5,-36(s0)
8000227c:	853e                	mv	a0,a5
8000227e:	5432                	lw	s0,44(sp)
80002280:	6145                	addi	sp,sp,48
80002282:	8082                	ret

80002284 <strlen>:
80002284:	7179                	addi	sp,sp,-48
80002286:	d622                	sw	s0,44(sp)
80002288:	1800                	addi	s0,sp,48
8000228a:	fca42e23          	sw	a0,-36(s0)
8000228e:	fdc42783          	lw	a5,-36(s0)
80002292:	fef42623          	sw	a5,-20(s0)
80002296:	a031                	j	800022a2 <strlen+0x1e>
80002298:	fec42783          	lw	a5,-20(s0)
8000229c:	0785                	addi	a5,a5,1
8000229e:	fef42623          	sw	a5,-20(s0)
800022a2:	fec42783          	lw	a5,-20(s0)
800022a6:	0007c783          	lbu	a5,0(a5)
800022aa:	f7fd                	bnez	a5,80002298 <strlen+0x14>
800022ac:	fec42703          	lw	a4,-20(s0)
800022b0:	fdc42783          	lw	a5,-36(s0)
800022b4:	40f707b3          	sub	a5,a4,a5
800022b8:	853e                	mv	a0,a5
800022ba:	5432                	lw	s0,44(sp)
800022bc:	6145                	addi	sp,sp,48
800022be:	8082                	ret

800022c0 <strnlen>:
800022c0:	7179                	addi	sp,sp,-48
800022c2:	d622                	sw	s0,44(sp)
800022c4:	1800                	addi	s0,sp,48
800022c6:	fca42e23          	sw	a0,-36(s0)
800022ca:	fcb42c23          	sw	a1,-40(s0)
800022ce:	fdc42783          	lw	a5,-36(s0)
800022d2:	fef42623          	sw	a5,-20(s0)
800022d6:	a031                	j	800022e2 <strnlen+0x22>
800022d8:	fec42783          	lw	a5,-20(s0)
800022dc:	0785                	addi	a5,a5,1
800022de:	fef42623          	sw	a5,-20(s0)
800022e2:	fd842783          	lw	a5,-40(s0)
800022e6:	fff78713          	addi	a4,a5,-1
800022ea:	fce42c23          	sw	a4,-40(s0)
800022ee:	c791                	beqz	a5,800022fa <strnlen+0x3a>
800022f0:	fec42783          	lw	a5,-20(s0)
800022f4:	0007c783          	lbu	a5,0(a5)
800022f8:	f3e5                	bnez	a5,800022d8 <strnlen+0x18>
800022fa:	fec42703          	lw	a4,-20(s0)
800022fe:	fdc42783          	lw	a5,-36(s0)
80002302:	40f707b3          	sub	a5,a4,a5
80002306:	853e                	mv	a0,a5
80002308:	5432                	lw	s0,44(sp)
8000230a:	6145                	addi	sp,sp,48
8000230c:	8082                	ret

8000230e <strcmp>:
8000230e:	7179                	addi	sp,sp,-48
80002310:	d622                	sw	s0,44(sp)
80002312:	1800                	addi	s0,sp,48
80002314:	fca42e23          	sw	a0,-36(s0)
80002318:	fcb42c23          	sw	a1,-40(s0)
8000231c:	fdc42783          	lw	a5,-36(s0)
80002320:	00178713          	addi	a4,a5,1
80002324:	fce42e23          	sw	a4,-36(s0)
80002328:	0007c783          	lbu	a5,0(a5)
8000232c:	fef407a3          	sb	a5,-17(s0)
80002330:	fd842783          	lw	a5,-40(s0)
80002334:	00178713          	addi	a4,a5,1
80002338:	fce42c23          	sw	a4,-40(s0)
8000233c:	0007c783          	lbu	a5,0(a5)
80002340:	fef40723          	sb	a5,-18(s0)
80002344:	fef44783          	lbu	a5,-17(s0)
80002348:	c799                	beqz	a5,80002356 <strcmp+0x48>
8000234a:	fef44703          	lbu	a4,-17(s0)
8000234e:	fee44783          	lbu	a5,-18(s0)
80002352:	fcf705e3          	beq	a4,a5,8000231c <strcmp+0xe>
80002356:	fef44703          	lbu	a4,-17(s0)
8000235a:	fee44783          	lbu	a5,-18(s0)
8000235e:	40f707b3          	sub	a5,a4,a5
80002362:	853e                	mv	a0,a5
80002364:	5432                	lw	s0,44(sp)
80002366:	6145                	addi	sp,sp,48
80002368:	8082                	ret

8000236a <strcpy>:
8000236a:	7179                	addi	sp,sp,-48
8000236c:	d622                	sw	s0,44(sp)
8000236e:	1800                	addi	s0,sp,48
80002370:	fca42e23          	sw	a0,-36(s0)
80002374:	fcb42c23          	sw	a1,-40(s0)
80002378:	fdc42783          	lw	a5,-36(s0)
8000237c:	fef42623          	sw	a5,-20(s0)
80002380:	0001                	nop
80002382:	fd842703          	lw	a4,-40(s0)
80002386:	00170793          	addi	a5,a4,1
8000238a:	fcf42c23          	sw	a5,-40(s0)
8000238e:	fec42783          	lw	a5,-20(s0)
80002392:	00178693          	addi	a3,a5,1
80002396:	fed42623          	sw	a3,-20(s0)
8000239a:	00074703          	lbu	a4,0(a4)
8000239e:	00e78023          	sb	a4,0(a5)
800023a2:	0007c783          	lbu	a5,0(a5)
800023a6:	fff1                	bnez	a5,80002382 <strcpy+0x18>
800023a8:	fdc42783          	lw	a5,-36(s0)
800023ac:	853e                	mv	a0,a5
800023ae:	5432                	lw	s0,44(sp)
800023b0:	6145                	addi	sp,sp,48
800023b2:	8082                	ret

800023b4 <atol>:
800023b4:	7179                	addi	sp,sp,-48
800023b6:	d622                	sw	s0,44(sp)
800023b8:	1800                	addi	s0,sp,48
800023ba:	fca42e23          	sw	a0,-36(s0)
800023be:	fe042623          	sw	zero,-20(s0)
800023c2:	fe042423          	sw	zero,-24(s0)
800023c6:	a031                	j	800023d2 <atol+0x1e>
800023c8:	fdc42783          	lw	a5,-36(s0)
800023cc:	0785                	addi	a5,a5,1
800023ce:	fcf42e23          	sw	a5,-36(s0)
800023d2:	fdc42783          	lw	a5,-36(s0)
800023d6:	0007c703          	lbu	a4,0(a5)
800023da:	02000793          	li	a5,32
800023de:	fef705e3          	beq	a4,a5,800023c8 <atol+0x14>
800023e2:	fdc42783          	lw	a5,-36(s0)
800023e6:	0007c703          	lbu	a4,0(a5)
800023ea:	02d00793          	li	a5,45
800023ee:	00f70a63          	beq	a4,a5,80002402 <atol+0x4e>
800023f2:	fdc42783          	lw	a5,-36(s0)
800023f6:	0007c703          	lbu	a4,0(a5)
800023fa:	02b00793          	li	a5,43
800023fe:	04f71b63          	bne	a4,a5,80002454 <atol+0xa0>
80002402:	fdc42783          	lw	a5,-36(s0)
80002406:	0007c783          	lbu	a5,0(a5)
8000240a:	fd378793          	addi	a5,a5,-45
8000240e:	0017b793          	seqz	a5,a5
80002412:	0ff7f793          	zext.b	a5,a5
80002416:	fef42423          	sw	a5,-24(s0)
8000241a:	fdc42783          	lw	a5,-36(s0)
8000241e:	0785                	addi	a5,a5,1
80002420:	fcf42e23          	sw	a5,-36(s0)
80002424:	a805                	j	80002454 <atol+0xa0>
80002426:	fec42703          	lw	a4,-20(s0)
8000242a:	87ba                	mv	a5,a4
8000242c:	078a                	slli	a5,a5,0x2
8000242e:	97ba                	add	a5,a5,a4
80002430:	0786                	slli	a5,a5,0x1
80002432:	fef42623          	sw	a5,-20(s0)
80002436:	fdc42783          	lw	a5,-36(s0)
8000243a:	00178713          	addi	a4,a5,1
8000243e:	fce42e23          	sw	a4,-36(s0)
80002442:	0007c783          	lbu	a5,0(a5)
80002446:	fd078793          	addi	a5,a5,-48
8000244a:	fec42703          	lw	a4,-20(s0)
8000244e:	97ba                	add	a5,a5,a4
80002450:	fef42623          	sw	a5,-20(s0)
80002454:	fdc42783          	lw	a5,-36(s0)
80002458:	0007c783          	lbu	a5,0(a5)
8000245c:	f7e9                	bnez	a5,80002426 <atol+0x72>
8000245e:	fe842783          	lw	a5,-24(s0)
80002462:	c791                	beqz	a5,8000246e <atol+0xba>
80002464:	fec42783          	lw	a5,-20(s0)
80002468:	40f007b3          	neg	a5,a5
8000246c:	a019                	j	80002472 <atol+0xbe>
8000246e:	fec42783          	lw	a5,-20(s0)
80002472:	853e                	mv	a0,a5
80002474:	5432                	lw	s0,44(sp)
80002476:	6145                	addi	sp,sp,48
80002478:	8082                	ret

8000247a <random>:
8000247a:	1101                	addi	sp,sp,-32
8000247c:	ce22                	sw	s0,28(sp)
8000247e:	1000                	addi	s0,sp,32
80002480:	fea42623          	sw	a0,-20(s0)
80002484:	fec42703          	lw	a4,-20(s0)
80002488:	41c657b7          	lui	a5,0x41c65
8000248c:	e6d78793          	addi	a5,a5,-403 # 41c64e6d <buflen.3+0x41c64ded>
80002490:	02f70733          	mul	a4,a4,a5
80002494:	678d                	lui	a5,0x3
80002496:	03978793          	addi	a5,a5,57 # 3039 <buflen.3+0x2fb9>
8000249a:	97ba                	add	a5,a5,a4
8000249c:	fef42623          	sw	a5,-20(s0)
800024a0:	fec42783          	lw	a5,-20(s0)
800024a4:	41f7d693          	srai	a3,a5,0x1f
800024a8:	6741                	lui	a4,0x10
800024aa:	177d                	addi	a4,a4,-1 # ffff <buflen.3+0xff7f>
800024ac:	8f75                	and	a4,a4,a3
800024ae:	97ba                	add	a5,a5,a4
800024b0:	87c1                	srai	a5,a5,0x10
800024b2:	873e                	mv	a4,a5
800024b4:	67a1                	lui	a5,0x8
800024b6:	17fd                	addi	a5,a5,-1 # 7fff <buflen.3+0x7f7f>
800024b8:	8ff9                	and	a5,a5,a4
800024ba:	853e                	mv	a0,a5
800024bc:	4472                	lw	s0,28(sp)
800024be:	6105                	addi	sp,sp,32
800024c0:	8082                	ret

800024c2 <__udivdi3>:
800024c2:	832a                	mv	t1,a0
800024c4:	88ae                	mv	a7,a1
800024c6:	8732                	mv	a4,a2
800024c8:	882a                	mv	a6,a0
800024ca:	87ae                	mv	a5,a1
800024cc:	20069663          	bnez	a3,800026d8 <__udivdi3+0x216>
800024d0:	800035b7          	lui	a1,0x80003
800024d4:	d8c58593          	addi	a1,a1,-628 # 80002d8c <__global_pointer$+0xffffc7e4>
800024d8:	0cc8f163          	bgeu	a7,a2,8000259a <__udivdi3+0xd8>
800024dc:	66c1                	lui	a3,0x10
800024de:	0ad67763          	bgeu	a2,a3,8000258c <__udivdi3+0xca>
800024e2:	10063693          	sltiu	a3,a2,256
800024e6:	0016c693          	xori	a3,a3,1
800024ea:	068e                	slli	a3,a3,0x3
800024ec:	00d65533          	srl	a0,a2,a3
800024f0:	95aa                	add	a1,a1,a0
800024f2:	0005c583          	lbu	a1,0(a1)
800024f6:	02000513          	li	a0,32
800024fa:	96ae                	add	a3,a3,a1
800024fc:	40d505b3          	sub	a1,a0,a3
80002500:	00d50b63          	beq	a0,a3,80002516 <__udivdi3+0x54>
80002504:	00b897b3          	sll	a5,a7,a1
80002508:	00d356b3          	srl	a3,t1,a3
8000250c:	00b61733          	sll	a4,a2,a1
80002510:	8fd5                	or	a5,a5,a3
80002512:	00b31833          	sll	a6,t1,a1
80002516:	01075593          	srli	a1,a4,0x10
8000251a:	02b7d333          	divu	t1,a5,a1
8000251e:	01071613          	slli	a2,a4,0x10
80002522:	8241                	srli	a2,a2,0x10
80002524:	02b7f7b3          	remu	a5,a5,a1
80002528:	851a                	mv	a0,t1
8000252a:	026608b3          	mul	a7,a2,t1
8000252e:	01079693          	slli	a3,a5,0x10
80002532:	01085793          	srli	a5,a6,0x10
80002536:	8fd5                	or	a5,a5,a3
80002538:	0117fc63          	bgeu	a5,a7,80002550 <__udivdi3+0x8e>
8000253c:	97ba                	add	a5,a5,a4
8000253e:	fff30513          	addi	a0,t1,-1
80002542:	00e7e763          	bltu	a5,a4,80002550 <__udivdi3+0x8e>
80002546:	0117f563          	bgeu	a5,a7,80002550 <__udivdi3+0x8e>
8000254a:	ffe30513          	addi	a0,t1,-2
8000254e:	97ba                	add	a5,a5,a4
80002550:	411787b3          	sub	a5,a5,a7
80002554:	02b7d8b3          	divu	a7,a5,a1
80002558:	0842                	slli	a6,a6,0x10
8000255a:	01085813          	srli	a6,a6,0x10
8000255e:	02b7f7b3          	remu	a5,a5,a1
80002562:	031606b3          	mul	a3,a2,a7
80002566:	07c2                	slli	a5,a5,0x10
80002568:	00f86833          	or	a6,a6,a5
8000256c:	87c6                	mv	a5,a7
8000256e:	00d87b63          	bgeu	a6,a3,80002584 <__udivdi3+0xc2>
80002572:	983a                	add	a6,a6,a4
80002574:	fff88793          	addi	a5,a7,-1
80002578:	00e86663          	bltu	a6,a4,80002584 <__udivdi3+0xc2>
8000257c:	00d87463          	bgeu	a6,a3,80002584 <__udivdi3+0xc2>
80002580:	ffe88793          	addi	a5,a7,-2
80002584:	0542                	slli	a0,a0,0x10
80002586:	8d5d                	or	a0,a0,a5
80002588:	4581                	li	a1,0
8000258a:	8082                	ret
8000258c:	01000537          	lui	a0,0x1000
80002590:	46c1                	li	a3,16
80002592:	f4a66de3          	bltu	a2,a0,800024ec <__udivdi3+0x2a>
80002596:	46e1                	li	a3,24
80002598:	bf91                	j	800024ec <__udivdi3+0x2a>
8000259a:	e211                	bnez	a2,8000259e <__udivdi3+0xdc>
8000259c:	9002                	ebreak
8000259e:	67c1                	lui	a5,0x10
800025a0:	08f67f63          	bgeu	a2,a5,8000263e <__udivdi3+0x17c>
800025a4:	10063693          	sltiu	a3,a2,256
800025a8:	0016c693          	xori	a3,a3,1
800025ac:	068e                	slli	a3,a3,0x3
800025ae:	00d657b3          	srl	a5,a2,a3
800025b2:	95be                	add	a1,a1,a5
800025b4:	0005c783          	lbu	a5,0(a1)
800025b8:	97b6                	add	a5,a5,a3
800025ba:	02000693          	li	a3,32
800025be:	40f685b3          	sub	a1,a3,a5
800025c2:	08f69563          	bne	a3,a5,8000264c <__udivdi3+0x18a>
800025c6:	40c887b3          	sub	a5,a7,a2
800025ca:	4585                	li	a1,1
800025cc:	01075893          	srli	a7,a4,0x10
800025d0:	0317de33          	divu	t3,a5,a7
800025d4:	01071613          	slli	a2,a4,0x10
800025d8:	8241                	srli	a2,a2,0x10
800025da:	01085693          	srli	a3,a6,0x10
800025de:	0317f7b3          	remu	a5,a5,a7
800025e2:	8572                	mv	a0,t3
800025e4:	03c60333          	mul	t1,a2,t3
800025e8:	07c2                	slli	a5,a5,0x10
800025ea:	8fd5                	or	a5,a5,a3
800025ec:	0067fc63          	bgeu	a5,t1,80002604 <__udivdi3+0x142>
800025f0:	97ba                	add	a5,a5,a4
800025f2:	fffe0513          	addi	a0,t3,-1
800025f6:	00e7e763          	bltu	a5,a4,80002604 <__udivdi3+0x142>
800025fa:	0067f563          	bgeu	a5,t1,80002604 <__udivdi3+0x142>
800025fe:	ffee0513          	addi	a0,t3,-2
80002602:	97ba                	add	a5,a5,a4
80002604:	406787b3          	sub	a5,a5,t1
80002608:	0317d333          	divu	t1,a5,a7
8000260c:	0842                	slli	a6,a6,0x10
8000260e:	01085813          	srli	a6,a6,0x10
80002612:	0317f7b3          	remu	a5,a5,a7
80002616:	026606b3          	mul	a3,a2,t1
8000261a:	07c2                	slli	a5,a5,0x10
8000261c:	00f86833          	or	a6,a6,a5
80002620:	879a                	mv	a5,t1
80002622:	00d87b63          	bgeu	a6,a3,80002638 <__udivdi3+0x176>
80002626:	983a                	add	a6,a6,a4
80002628:	fff30793          	addi	a5,t1,-1
8000262c:	00e86663          	bltu	a6,a4,80002638 <__udivdi3+0x176>
80002630:	00d87463          	bgeu	a6,a3,80002638 <__udivdi3+0x176>
80002634:	ffe30793          	addi	a5,t1,-2
80002638:	0542                	slli	a0,a0,0x10
8000263a:	8d5d                	or	a0,a0,a5
8000263c:	8082                	ret
8000263e:	010007b7          	lui	a5,0x1000
80002642:	46c1                	li	a3,16
80002644:	f6f665e3          	bltu	a2,a5,800025ae <__udivdi3+0xec>
80002648:	46e1                	li	a3,24
8000264a:	b795                	j	800025ae <__udivdi3+0xec>
8000264c:	00b61733          	sll	a4,a2,a1
80002650:	00f8d6b3          	srl	a3,a7,a5
80002654:	01075513          	srli	a0,a4,0x10
80002658:	00f357b3          	srl	a5,t1,a5
8000265c:	00b31833          	sll	a6,t1,a1
80002660:	02a6d333          	divu	t1,a3,a0
80002664:	01071613          	slli	a2,a4,0x10
80002668:	00b898b3          	sll	a7,a7,a1
8000266c:	8241                	srli	a2,a2,0x10
8000266e:	0117e7b3          	or	a5,a5,a7
80002672:	02a6f6b3          	remu	a3,a3,a0
80002676:	026608b3          	mul	a7,a2,t1
8000267a:	01069593          	slli	a1,a3,0x10
8000267e:	0107d693          	srli	a3,a5,0x10
80002682:	8ecd                	or	a3,a3,a1
80002684:	859a                	mv	a1,t1
80002686:	0116fc63          	bgeu	a3,a7,8000269e <__udivdi3+0x1dc>
8000268a:	96ba                	add	a3,a3,a4
8000268c:	fff30593          	addi	a1,t1,-1
80002690:	00e6e763          	bltu	a3,a4,8000269e <__udivdi3+0x1dc>
80002694:	0116f563          	bgeu	a3,a7,8000269e <__udivdi3+0x1dc>
80002698:	ffe30593          	addi	a1,t1,-2
8000269c:	96ba                	add	a3,a3,a4
8000269e:	411686b3          	sub	a3,a3,a7
800026a2:	02a6d8b3          	divu	a7,a3,a0
800026a6:	07c2                	slli	a5,a5,0x10
800026a8:	83c1                	srli	a5,a5,0x10
800026aa:	02a6f6b3          	remu	a3,a3,a0
800026ae:	03160633          	mul	a2,a2,a7
800026b2:	06c2                	slli	a3,a3,0x10
800026b4:	8fd5                	or	a5,a5,a3
800026b6:	86c6                	mv	a3,a7
800026b8:	00c7fc63          	bgeu	a5,a2,800026d0 <__udivdi3+0x20e>
800026bc:	97ba                	add	a5,a5,a4
800026be:	fff88693          	addi	a3,a7,-1
800026c2:	00e7e763          	bltu	a5,a4,800026d0 <__udivdi3+0x20e>
800026c6:	00c7f563          	bgeu	a5,a2,800026d0 <__udivdi3+0x20e>
800026ca:	ffe88693          	addi	a3,a7,-2
800026ce:	97ba                	add	a5,a5,a4
800026d0:	05c2                	slli	a1,a1,0x10
800026d2:	8f91                	sub	a5,a5,a2
800026d4:	8dd5                	or	a1,a1,a3
800026d6:	bddd                	j	800025cc <__udivdi3+0x10a>
800026d8:	14d5e163          	bltu	a1,a3,8000281a <__udivdi3+0x358>
800026dc:	67c1                	lui	a5,0x10
800026de:	02f6ff63          	bgeu	a3,a5,8000271c <__udivdi3+0x25a>
800026e2:	1006b713          	sltiu	a4,a3,256
800026e6:	00174713          	xori	a4,a4,1
800026ea:	070e                	slli	a4,a4,0x3
800026ec:	800037b7          	lui	a5,0x80003
800026f0:	00e6d5b3          	srl	a1,a3,a4
800026f4:	d8c78793          	addi	a5,a5,-628 # 80002d8c <__global_pointer$+0xffffc7e4>
800026f8:	97ae                	add	a5,a5,a1
800026fa:	0007c783          	lbu	a5,0(a5)
800026fe:	97ba                	add	a5,a5,a4
80002700:	02000713          	li	a4,32
80002704:	40f705b3          	sub	a1,a4,a5
80002708:	02f71163          	bne	a4,a5,8000272a <__udivdi3+0x268>
8000270c:	4505                	li	a0,1
8000270e:	e716eee3          	bltu	a3,a7,8000258a <__udivdi3+0xc8>
80002712:	00c33533          	sltu	a0,t1,a2
80002716:	00154513          	xori	a0,a0,1
8000271a:	8082                	ret
8000271c:	010007b7          	lui	a5,0x1000
80002720:	4741                	li	a4,16
80002722:	fcf6e5e3          	bltu	a3,a5,800026ec <__udivdi3+0x22a>
80002726:	4761                	li	a4,24
80002728:	b7d1                	j	800026ec <__udivdi3+0x22a>
8000272a:	00f65733          	srl	a4,a2,a5
8000272e:	00b696b3          	sll	a3,a3,a1
80002732:	8ed9                	or	a3,a3,a4
80002734:	00f8d733          	srl	a4,a7,a5
80002738:	00b898b3          	sll	a7,a7,a1
8000273c:	00f357b3          	srl	a5,t1,a5
80002740:	0117e7b3          	or	a5,a5,a7
80002744:	0106d893          	srli	a7,a3,0x10
80002748:	03175eb3          	divu	t4,a4,a7
8000274c:	01069813          	slli	a6,a3,0x10
80002750:	01085813          	srli	a6,a6,0x10
80002754:	00b61633          	sll	a2,a2,a1
80002758:	03177733          	remu	a4,a4,a7
8000275c:	03d80e33          	mul	t3,a6,t4
80002760:	01071513          	slli	a0,a4,0x10
80002764:	0107d713          	srli	a4,a5,0x10
80002768:	8f49                	or	a4,a4,a0
8000276a:	8576                	mv	a0,t4
8000276c:	01c77c63          	bgeu	a4,t3,80002784 <__udivdi3+0x2c2>
80002770:	9736                	add	a4,a4,a3
80002772:	fffe8513          	addi	a0,t4,-1
80002776:	00d76763          	bltu	a4,a3,80002784 <__udivdi3+0x2c2>
8000277a:	01c77563          	bgeu	a4,t3,80002784 <__udivdi3+0x2c2>
8000277e:	ffee8513          	addi	a0,t4,-2
80002782:	9736                	add	a4,a4,a3
80002784:	41c70733          	sub	a4,a4,t3
80002788:	03175e33          	divu	t3,a4,a7
8000278c:	07c2                	slli	a5,a5,0x10
8000278e:	83c1                	srli	a5,a5,0x10
80002790:	03177733          	remu	a4,a4,a7
80002794:	03c80833          	mul	a6,a6,t3
80002798:	0742                	slli	a4,a4,0x10
8000279a:	8fd9                	or	a5,a5,a4
8000279c:	8772                	mv	a4,t3
8000279e:	0107fc63          	bgeu	a5,a6,800027b6 <__udivdi3+0x2f4>
800027a2:	97b6                	add	a5,a5,a3
800027a4:	fffe0713          	addi	a4,t3,-1
800027a8:	00d7e763          	bltu	a5,a3,800027b6 <__udivdi3+0x2f4>
800027ac:	0107f563          	bgeu	a5,a6,800027b6 <__udivdi3+0x2f4>
800027b0:	ffee0713          	addi	a4,t3,-2
800027b4:	97b6                	add	a5,a5,a3
800027b6:	0542                	slli	a0,a0,0x10
800027b8:	6e41                	lui	t3,0x10
800027ba:	8d59                	or	a0,a0,a4
800027bc:	fffe0693          	addi	a3,t3,-1 # ffff <buflen.3+0xff7f>
800027c0:	00d57733          	and	a4,a0,a3
800027c4:	410787b3          	sub	a5,a5,a6
800027c8:	8ef1                	and	a3,a3,a2
800027ca:	01055813          	srli	a6,a0,0x10
800027ce:	8241                	srli	a2,a2,0x10
800027d0:	02d708b3          	mul	a7,a4,a3
800027d4:	02d806b3          	mul	a3,a6,a3
800027d8:	02c70733          	mul	a4,a4,a2
800027dc:	02c80833          	mul	a6,a6,a2
800027e0:	00d70633          	add	a2,a4,a3
800027e4:	0108d713          	srli	a4,a7,0x10
800027e8:	9732                	add	a4,a4,a2
800027ea:	00d77363          	bgeu	a4,a3,800027f0 <__udivdi3+0x32e>
800027ee:	9872                	add	a6,a6,t3
800027f0:	01075693          	srli	a3,a4,0x10
800027f4:	96c2                	add	a3,a3,a6
800027f6:	02d7e063          	bltu	a5,a3,80002816 <__udivdi3+0x354>
800027fa:	d8d797e3          	bne	a5,a3,80002588 <__udivdi3+0xc6>
800027fe:	67c1                	lui	a5,0x10
80002800:	17fd                	addi	a5,a5,-1 # ffff <buflen.3+0xff7f>
80002802:	8f7d                	and	a4,a4,a5
80002804:	0742                	slli	a4,a4,0x10
80002806:	00f8f8b3          	and	a7,a7,a5
8000280a:	00b31333          	sll	t1,t1,a1
8000280e:	9746                	add	a4,a4,a7
80002810:	4581                	li	a1,0
80002812:	d6e37ce3          	bgeu	t1,a4,8000258a <__udivdi3+0xc8>
80002816:	157d                	addi	a0,a0,-1 # ffffff <buflen.3+0xffff7f>
80002818:	bb85                	j	80002588 <__udivdi3+0xc6>
8000281a:	4581                	li	a1,0
8000281c:	4501                	li	a0,0
8000281e:	8082                	ret

80002820 <__umoddi3>:
80002820:	8832                	mv	a6,a2
80002822:	87aa                	mv	a5,a0
80002824:	872e                	mv	a4,a1
80002826:	1a069363          	bnez	a3,800029cc <__umoddi3+0x1ac>
8000282a:	800038b7          	lui	a7,0x80003
8000282e:	d8c88893          	addi	a7,a7,-628 # 80002d8c <__global_pointer$+0xffffc7e4>
80002832:	0ac5f663          	bgeu	a1,a2,800028de <__umoddi3+0xbe>
80002836:	66c1                	lui	a3,0x10
80002838:	08d67c63          	bgeu	a2,a3,800028d0 <__umoddi3+0xb0>
8000283c:	10063693          	sltiu	a3,a2,256
80002840:	0016c693          	xori	a3,a3,1
80002844:	068e                	slli	a3,a3,0x3
80002846:	00d65333          	srl	t1,a2,a3
8000284a:	989a                	add	a7,a7,t1
8000284c:	0008c883          	lbu	a7,0(a7)
80002850:	02000313          	li	t1,32
80002854:	96c6                	add	a3,a3,a7
80002856:	40d308b3          	sub	a7,t1,a3
8000285a:	00d30b63          	beq	t1,a3,80002870 <__umoddi3+0x50>
8000285e:	01159733          	sll	a4,a1,a7
80002862:	00d556b3          	srl	a3,a0,a3
80002866:	01161833          	sll	a6,a2,a7
8000286a:	8f55                	or	a4,a4,a3
8000286c:	011517b3          	sll	a5,a0,a7
80002870:	01085613          	srli	a2,a6,0x10
80002874:	02c756b3          	divu	a3,a4,a2
80002878:	01081513          	slli	a0,a6,0x10
8000287c:	8141                	srli	a0,a0,0x10
8000287e:	02c77733          	remu	a4,a4,a2
80002882:	02a686b3          	mul	a3,a3,a0
80002886:	01071593          	slli	a1,a4,0x10
8000288a:	0107d713          	srli	a4,a5,0x10
8000288e:	8f4d                	or	a4,a4,a1
80002890:	00d77863          	bgeu	a4,a3,800028a0 <__umoddi3+0x80>
80002894:	9742                	add	a4,a4,a6
80002896:	01076563          	bltu	a4,a6,800028a0 <__umoddi3+0x80>
8000289a:	00d77363          	bgeu	a4,a3,800028a0 <__umoddi3+0x80>
8000289e:	9742                	add	a4,a4,a6
800028a0:	8f15                	sub	a4,a4,a3
800028a2:	02c756b3          	divu	a3,a4,a2
800028a6:	02c77733          	remu	a4,a4,a2
800028aa:	02a686b3          	mul	a3,a3,a0
800028ae:	07c2                	slli	a5,a5,0x10
800028b0:	0742                	slli	a4,a4,0x10
800028b2:	83c1                	srli	a5,a5,0x10
800028b4:	8fd9                	or	a5,a5,a4
800028b6:	00d7f863          	bgeu	a5,a3,800028c6 <__umoddi3+0xa6>
800028ba:	97c2                	add	a5,a5,a6
800028bc:	0107e563          	bltu	a5,a6,800028c6 <__umoddi3+0xa6>
800028c0:	00d7f363          	bgeu	a5,a3,800028c6 <__umoddi3+0xa6>
800028c4:	97c2                	add	a5,a5,a6
800028c6:	8f95                	sub	a5,a5,a3
800028c8:	0117d533          	srl	a0,a5,a7
800028cc:	4581                	li	a1,0
800028ce:	8082                	ret
800028d0:	01000337          	lui	t1,0x1000
800028d4:	46c1                	li	a3,16
800028d6:	f66668e3          	bltu	a2,t1,80002846 <__umoddi3+0x26>
800028da:	46e1                	li	a3,24
800028dc:	b7ad                	j	80002846 <__umoddi3+0x26>
800028de:	e211                	bnez	a2,800028e2 <__umoddi3+0xc2>
800028e0:	9002                	ebreak
800028e2:	6741                	lui	a4,0x10
800028e4:	06e67463          	bgeu	a2,a4,8000294c <__umoddi3+0x12c>
800028e8:	10063693          	sltiu	a3,a2,256
800028ec:	0016c693          	xori	a3,a3,1
800028f0:	068e                	slli	a3,a3,0x3
800028f2:	00d65733          	srl	a4,a2,a3
800028f6:	98ba                	add	a7,a7,a4
800028f8:	0008c703          	lbu	a4,0(a7)
800028fc:	9736                	add	a4,a4,a3
800028fe:	02000693          	li	a3,32
80002902:	40e688b3          	sub	a7,a3,a4
80002906:	04e69a63          	bne	a3,a4,8000295a <__umoddi3+0x13a>
8000290a:	40c58733          	sub	a4,a1,a2
8000290e:	01085593          	srli	a1,a6,0x10
80002912:	02b75633          	divu	a2,a4,a1
80002916:	01081513          	slli	a0,a6,0x10
8000291a:	8141                	srli	a0,a0,0x10
8000291c:	0107d693          	srli	a3,a5,0x10
80002920:	02b77733          	remu	a4,a4,a1
80002924:	02a60633          	mul	a2,a2,a0
80002928:	0742                	slli	a4,a4,0x10
8000292a:	8f55                	or	a4,a4,a3
8000292c:	00c77863          	bgeu	a4,a2,8000293c <__umoddi3+0x11c>
80002930:	9742                	add	a4,a4,a6
80002932:	01076563          	bltu	a4,a6,8000293c <__umoddi3+0x11c>
80002936:	00c77363          	bgeu	a4,a2,8000293c <__umoddi3+0x11c>
8000293a:	9742                	add	a4,a4,a6
8000293c:	8f11                	sub	a4,a4,a2
8000293e:	02b756b3          	divu	a3,a4,a1
80002942:	02b77733          	remu	a4,a4,a1
80002946:	02a686b3          	mul	a3,a3,a0
8000294a:	b795                	j	800028ae <__umoddi3+0x8e>
8000294c:	01000737          	lui	a4,0x1000
80002950:	46c1                	li	a3,16
80002952:	fae660e3          	bltu	a2,a4,800028f2 <__umoddi3+0xd2>
80002956:	46e1                	li	a3,24
80002958:	bf69                	j	800028f2 <__umoddi3+0xd2>
8000295a:	01161833          	sll	a6,a2,a7
8000295e:	00e5d6b3          	srl	a3,a1,a4
80002962:	011517b3          	sll	a5,a0,a7
80002966:	011595b3          	sll	a1,a1,a7
8000296a:	00e55733          	srl	a4,a0,a4
8000296e:	01085513          	srli	a0,a6,0x10
80002972:	8f4d                	or	a4,a4,a1
80002974:	02a6d5b3          	divu	a1,a3,a0
80002978:	01081313          	slli	t1,a6,0x10
8000297c:	01035313          	srli	t1,t1,0x10
80002980:	02a6f6b3          	remu	a3,a3,a0
80002984:	026585b3          	mul	a1,a1,t1
80002988:	01069613          	slli	a2,a3,0x10
8000298c:	01075693          	srli	a3,a4,0x10
80002990:	8ed1                	or	a3,a3,a2
80002992:	00b6f863          	bgeu	a3,a1,800029a2 <__umoddi3+0x182>
80002996:	96c2                	add	a3,a3,a6
80002998:	0106e563          	bltu	a3,a6,800029a2 <__umoddi3+0x182>
8000299c:	00b6f363          	bgeu	a3,a1,800029a2 <__umoddi3+0x182>
800029a0:	96c2                	add	a3,a3,a6
800029a2:	8e8d                	sub	a3,a3,a1
800029a4:	02a6d633          	divu	a2,a3,a0
800029a8:	0742                	slli	a4,a4,0x10
800029aa:	8341                	srli	a4,a4,0x10
800029ac:	02a6f6b3          	remu	a3,a3,a0
800029b0:	02660633          	mul	a2,a2,t1
800029b4:	06c2                	slli	a3,a3,0x10
800029b6:	8f55                	or	a4,a4,a3
800029b8:	00c77863          	bgeu	a4,a2,800029c8 <__umoddi3+0x1a8>
800029bc:	9742                	add	a4,a4,a6
800029be:	01076563          	bltu	a4,a6,800029c8 <__umoddi3+0x1a8>
800029c2:	00c77363          	bgeu	a4,a2,800029c8 <__umoddi3+0x1a8>
800029c6:	9742                	add	a4,a4,a6
800029c8:	8f11                	sub	a4,a4,a2
800029ca:	b791                	j	8000290e <__umoddi3+0xee>
800029cc:	16d5e863          	bltu	a1,a3,80002b3c <__umoddi3+0x31c>
800029d0:	6841                	lui	a6,0x10
800029d2:	0506f763          	bgeu	a3,a6,80002a20 <__umoddi3+0x200>
800029d6:	1006b813          	sltiu	a6,a3,256
800029da:	00184813          	xori	a6,a6,1
800029de:	080e                	slli	a6,a6,0x3
800029e0:	800038b7          	lui	a7,0x80003
800029e4:	0106d333          	srl	t1,a3,a6
800029e8:	d8c88893          	addi	a7,a7,-628 # 80002d8c <__global_pointer$+0xffffc7e4>
800029ec:	989a                	add	a7,a7,t1
800029ee:	0008c883          	lbu	a7,0(a7)
800029f2:	02000313          	li	t1,32
800029f6:	98c2                	add	a7,a7,a6
800029f8:	41130833          	sub	a6,t1,a7
800029fc:	03131963          	bne	t1,a7,80002a2e <__umoddi3+0x20e>
80002a00:	00b6e463          	bltu	a3,a1,80002a08 <__umoddi3+0x1e8>
80002a04:	00c56b63          	bltu	a0,a2,80002a1a <__umoddi3+0x1fa>
80002a08:	40c50633          	sub	a2,a0,a2
80002a0c:	40d586b3          	sub	a3,a1,a3
80002a10:	00c53733          	sltu	a4,a0,a2
80002a14:	40e68733          	sub	a4,a3,a4
80002a18:	87b2                	mv	a5,a2
80002a1a:	853e                	mv	a0,a5
80002a1c:	85ba                	mv	a1,a4
80002a1e:	8082                	ret
80002a20:	010008b7          	lui	a7,0x1000
80002a24:	4841                	li	a6,16
80002a26:	fb16ede3          	bltu	a3,a7,800029e0 <__umoddi3+0x1c0>
80002a2a:	4861                	li	a6,24
80002a2c:	bf55                	j	800029e0 <__umoddi3+0x1c0>
80002a2e:	010696b3          	sll	a3,a3,a6
80002a32:	01165333          	srl	t1,a2,a7
80002a36:	00d36333          	or	t1,t1,a3
80002a3a:	01035e13          	srli	t3,t1,0x10
80002a3e:	0115d6b3          	srl	a3,a1,a7
80002a42:	03c6df33          	divu	t5,a3,t3
80002a46:	01031713          	slli	a4,t1,0x10
80002a4a:	8341                	srli	a4,a4,0x10
80002a4c:	010597b3          	sll	a5,a1,a6
80002a50:	011555b3          	srl	a1,a0,a7
80002a54:	8ddd                	or	a1,a1,a5
80002a56:	0105d793          	srli	a5,a1,0x10
80002a5a:	01061633          	sll	a2,a2,a6
80002a5e:	01051533          	sll	a0,a0,a6
80002a62:	03c6f6b3          	remu	a3,a3,t3
80002a66:	03e70eb3          	mul	t4,a4,t5
80002a6a:	06c2                	slli	a3,a3,0x10
80002a6c:	8fd5                	or	a5,a5,a3
80002a6e:	86fa                	mv	a3,t5
80002a70:	01d7fc63          	bgeu	a5,t4,80002a88 <__umoddi3+0x268>
80002a74:	979a                	add	a5,a5,t1
80002a76:	ffff0693          	addi	a3,t5,-1
80002a7a:	0067e763          	bltu	a5,t1,80002a88 <__umoddi3+0x268>
80002a7e:	01d7f563          	bgeu	a5,t4,80002a88 <__umoddi3+0x268>
80002a82:	ffef0693          	addi	a3,t5,-2
80002a86:	979a                	add	a5,a5,t1
80002a88:	41d787b3          	sub	a5,a5,t4
80002a8c:	03c7deb3          	divu	t4,a5,t3
80002a90:	05c2                	slli	a1,a1,0x10
80002a92:	81c1                	srli	a1,a1,0x10
80002a94:	03c7f7b3          	remu	a5,a5,t3
80002a98:	03d70733          	mul	a4,a4,t4
80002a9c:	07c2                	slli	a5,a5,0x10
80002a9e:	8ddd                	or	a1,a1,a5
80002aa0:	87f6                	mv	a5,t4
80002aa2:	00e5fc63          	bgeu	a1,a4,80002aba <__umoddi3+0x29a>
80002aa6:	959a                	add	a1,a1,t1
80002aa8:	fffe8793          	addi	a5,t4,-1
80002aac:	0065e763          	bltu	a1,t1,80002aba <__umoddi3+0x29a>
80002ab0:	00e5f563          	bgeu	a1,a4,80002aba <__umoddi3+0x29a>
80002ab4:	ffee8793          	addi	a5,t4,-2
80002ab8:	959a                	add	a1,a1,t1
80002aba:	06c2                	slli	a3,a3,0x10
80002abc:	6f41                	lui	t5,0x10
80002abe:	8edd                	or	a3,a3,a5
80002ac0:	ffff0793          	addi	a5,t5,-1 # ffff <buflen.3+0xff7f>
80002ac4:	01065e13          	srli	t3,a2,0x10
80002ac8:	8d99                	sub	a1,a1,a4
80002aca:	00f6f733          	and	a4,a3,a5
80002ace:	82c1                	srli	a3,a3,0x10
80002ad0:	8ff1                	and	a5,a5,a2
80002ad2:	02f70eb3          	mul	t4,a4,a5
80002ad6:	02f687b3          	mul	a5,a3,a5
80002ada:	03c70733          	mul	a4,a4,t3
80002ade:	03c686b3          	mul	a3,a3,t3
80002ae2:	00f70e33          	add	t3,a4,a5
80002ae6:	010ed713          	srli	a4,t4,0x10
80002aea:	9772                	add	a4,a4,t3
80002aec:	00f77363          	bgeu	a4,a5,80002af2 <__umoddi3+0x2d2>
80002af0:	96fa                	add	a3,a3,t5
80002af2:	01075793          	srli	a5,a4,0x10
80002af6:	97b6                	add	a5,a5,a3
80002af8:	66c1                	lui	a3,0x10
80002afa:	16fd                	addi	a3,a3,-1 # ffff <buflen.3+0xff7f>
80002afc:	8f75                	and	a4,a4,a3
80002afe:	0742                	slli	a4,a4,0x10
80002b00:	00defeb3          	and	t4,t4,a3
80002b04:	9776                	add	a4,a4,t4
80002b06:	00f5e663          	bltu	a1,a5,80002b12 <__umoddi3+0x2f2>
80002b0a:	00f59b63          	bne	a1,a5,80002b20 <__umoddi3+0x300>
80002b0e:	00e57963          	bgeu	a0,a4,80002b20 <__umoddi3+0x300>
80002b12:	40c70633          	sub	a2,a4,a2
80002b16:	00c73733          	sltu	a4,a4,a2
80002b1a:	971a                	add	a4,a4,t1
80002b1c:	8f99                	sub	a5,a5,a4
80002b1e:	8732                	mv	a4,a2
80002b20:	40e50733          	sub	a4,a0,a4
80002b24:	00e53533          	sltu	a0,a0,a4
80002b28:	8d9d                	sub	a1,a1,a5
80002b2a:	8d89                	sub	a1,a1,a0
80002b2c:	011598b3          	sll	a7,a1,a7
80002b30:	01075733          	srl	a4,a4,a6
80002b34:	00e8e533          	or	a0,a7,a4
80002b38:	0105d5b3          	srl	a1,a1,a6
80002b3c:	8082                	ret

80002b3e <__eqdf2>:
80002b3e:	882a                	mv	a6,a0
80002b40:	002027f3          	frrm	a5
80002b44:	001007b7          	lui	a5,0x100
80002b48:	0145d893          	srli	a7,a1,0x14
80002b4c:	17fd                	addi	a5,a5,-1 # fffff <buflen.3+0xfff7f>
80002b4e:	0146d313          	srli	t1,a3,0x14
80002b52:	8e2a                	mv	t3,a0
80002b54:	7ff8f893          	andi	a7,a7,2047
80002b58:	7ff00513          	li	a0,2047
80002b5c:	00b7f733          	and	a4,a5,a1
80002b60:	8eb2                	mv	t4,a2
80002b62:	8ff5                	and	a5,a5,a3
80002b64:	81fd                	srli	a1,a1,0x1f
80002b66:	7ff37313          	andi	t1,t1,2047
80002b6a:	82fd                	srli	a3,a3,0x1f
80002b6c:	00a89863          	bne	a7,a0,80002b7c <__eqdf2+0x3e>
80002b70:	01076533          	or	a0,a4,a6
80002b74:	e531                	bnez	a0,80002bc0 <__eqdf2+0x82>
80002b76:	07131463          	bne	t1,a7,80002bde <__eqdf2+0xa0>
80002b7a:	a019                	j	80002b80 <__eqdf2+0x42>
80002b7c:	00a31563          	bne	t1,a0,80002b86 <__eqdf2+0x48>
80002b80:	00c7e533          	or	a0,a5,a2
80002b84:	e515                	bnez	a0,80002bb0 <__eqdf2+0x72>
80002b86:	4505                	li	a0,1
80002b88:	04689c63          	bne	a7,t1,80002be0 <__eqdf2+0xa2>
80002b8c:	04f71a63          	bne	a4,a5,80002be0 <__eqdf2+0xa2>
80002b90:	05de1863          	bne	t3,t4,80002be0 <__eqdf2+0xa2>
80002b94:	00d58c63          	beq	a1,a3,80002bac <__eqdf2+0x6e>
80002b98:	04089463          	bnez	a7,80002be0 <__eqdf2+0xa2>
80002b9c:	01076733          	or	a4,a4,a6
80002ba0:	00e03533          	snez	a0,a4
80002ba4:	8082                	ret
80002ba6:	00186073          	csrsi	fflags,16
80002baa:	a815                	j	80002bde <__eqdf2+0xa0>
80002bac:	4501                	li	a0,0
80002bae:	8082                	ret
80002bb0:	7ff00693          	li	a3,2047
80002bb4:	02d89163          	bne	a7,a3,80002bd6 <__eqdf2+0x98>
80002bb8:	01076833          	or	a6,a4,a6
80002bbc:	00080d63          	beqz	a6,80002bd6 <__eqdf2+0x98>
80002bc0:	000806b7          	lui	a3,0x80
80002bc4:	8f75                	and	a4,a4,a3
80002bc6:	d365                	beqz	a4,80002ba6 <__eqdf2+0x68>
80002bc8:	7ff00713          	li	a4,2047
80002bcc:	4505                	li	a0,1
80002bce:	00e31963          	bne	t1,a4,80002be0 <__eqdf2+0xa2>
80002bd2:	8e5d                	or	a2,a2,a5
80002bd4:	c611                	beqz	a2,80002be0 <__eqdf2+0xa2>
80002bd6:	00080737          	lui	a4,0x80
80002bda:	8ff9                	and	a5,a5,a4
80002bdc:	d7e9                	beqz	a5,80002ba6 <__eqdf2+0x68>
80002bde:	4505                	li	a0,1
80002be0:	8082                	ret

Disassembly of section .data:

80002ec8 <data>:
80002ec8:	00000657          	.4byte	0x657
80002ecc:	1505                	addi	a0,a0,-31
80002ece:	0000                	unimp
80002ed0:	d7de                	sw	s7,236(sp)
80002ed2:	ffff                	.2byte	0xffff
80002ed4:	d4dc                	sw	a5,44(s1)
80002ed6:	ffff                	.2byte	0xffff
80002ed8:	0442                	slli	s0,s0,0x10
80002eda:	0000                	unimp
80002edc:	22ec                	.2byte	0x22ec
80002ede:	0000                	unimp
80002ee0:	e2a5                	bnez	a3,80002f40 <data+0x78>
80002ee2:	ffff                	.2byte	0xffff
80002ee4:	2a48                	.2byte	0x2a48
80002ee6:	0000                	unimp
80002ee8:	f500                	fsw	fs0,40(a0)
80002eea:	ffff                	.2byte	0xffff
80002eec:	113a                	slli	sp,sp,0x2e
80002eee:	0000                	unimp
80002ef0:	fffff817          	auipc	a6,0xfffff
80002ef4:	00000373          	.4byte	0x373
80002ef8:	1549                	addi	a0,a0,-14
80002efa:	0000                	unimp
80002efc:	2988                	.2byte	0x2988
80002efe:	0000                	unimp
80002f00:	2b7f                	.2byte	0x2b7f
80002f02:	0000                	unimp
80002f04:	f27e                	fsw	ft11,36(sp)
80002f06:	ffff                	.2byte	0xffff
80002f08:	d806                	sw	ra,48(sp)
80002f0a:	ffff                	.2byte	0xffff
80002f0c:	00001e6f          	jal	t3,80003f0c <data+0x1044>
80002f10:	f4fa                	fsw	ft10,104(sp)
80002f12:	ffff                	.2byte	0xffff
80002f14:	099a                	slli	s3,s3,0x6
80002f16:	0000                	unimp
80002f18:	cf88                	sw	a0,24(a5)
80002f1a:	ffff                	.2byte	0xffff
80002f1c:	10b9                	addi	ra,ra,-18
80002f1e:	0000                	unimp
80002f20:	eb68                	fsw	fa0,84(a4)
80002f22:	ffff                	.2byte	0xffff
80002f24:	0000152f          	.4byte	0x152f
80002f28:	1c1d                	addi	s8,s8,-25
80002f2a:	0000                	unimp
80002f2c:	0000040f          	.4byte	0x40f
80002f30:	e936                	fsw	fa3,144(sp)
80002f32:	ffff                	.2byte	0xffff
80002f34:	0a35                	addi	s4,s4,13
80002f36:	0000                	unimp
80002f38:	d672                	sw	t3,44(sp)
80002f3a:	ffff                	.2byte	0xffff
80002f3c:	d169                	beqz	a0,80002efe <data+0x36>
80002f3e:	ffff                	.2byte	0xffff
80002f40:	018c                	addi	a1,sp,192
80002f42:	0000                	unimp
80002f44:	0ec9                	addi	t4,t4,18
80002f46:	0000                	unimp
80002f48:	186e                	slli	a6,a6,0x3b
80002f4a:	0000                	unimp
80002f4c:	00000b6b          	.4byte	0xb6b
80002f50:	15a5                	addi	a1,a1,-23
80002f52:	0000                	unimp
80002f54:	ffffeaaf          	.4byte	0xffffeaaf
80002f58:	fffffc57          	.4byte	0xfffffc57
80002f5c:	2a4a                	.2byte	0x2a4a
80002f5e:	0000                	unimp
80002f60:	e2f8                	fsw	fa4,68(a3)
80002f62:	ffff                	.2byte	0xffff
80002f64:	00002357          	.4byte	0x2357
80002f68:	00000983          	lb	s3,0(zero) # 0 <threadsense.5>
80002f6c:	00000d0f          	.4byte	0xd0f
80002f70:	f4ca                	fsw	fs2,104(sp)
80002f72:	ffff                	.2byte	0xffff
80002f74:	eccc                	fsw	fa1,28(s1)
80002f76:	ffff                	.2byte	0xffff
80002f78:	00000497          	auipc	s1,0x0
80002f7c:	ee48                	fsw	fa0,28(a2)
80002f7e:	ffff                	.2byte	0xffff
80002f80:	114a                	slli	sp,sp,0x32
80002f82:	0000                	unimp
80002f84:	0e9e                	slli	t4,t4,0x7
80002f86:	0000                	unimp
80002f88:	ffffdab7          	lui	s5,0xffffd
80002f8c:	d445                	beqz	s0,80002f34 <data+0x6c>
80002f8e:	ffff                	.2byte	0xffff
80002f90:	ffffe637          	lui	a2,0xffffe
80002f94:	dc40                	sw	s0,60(s0)
80002f96:	ffff                	.2byte	0xffff
80002f98:	16fe                	slli	a3,a3,0x3f
80002f9a:	0000                	unimp
80002f9c:	03a0                	addi	s0,sp,456
80002f9e:	0000                	unimp
80002fa0:	236e                	.2byte	0x236e
80002fa2:	0000                	unimp
80002fa4:	0000011b          	.4byte	0x11b
80002fa8:	d5ae                	sw	a1,232(sp)
80002faa:	ffff                	.2byte	0xffff
80002fac:	daa4                	sw	s1,112(a3)
80002fae:	ffff                	.2byte	0xffff
80002fb0:	d950                	sw	a2,52(a0)
80002fb2:	ffff                	.2byte	0xffff
80002fb4:	de21                	beqz	a2,80002f0c <data+0x44>
80002fb6:	ffff                	.2byte	0xffff
80002fb8:	de0c                	sw	a1,56(a2)
80002fba:	ffff                	.2byte	0xffff
80002fbc:	0cdd                	addi	s9,s9,23
80002fbe:	0000                	unimp
80002fc0:	1eea                	slli	t4,t4,0x3a
80002fc2:	0000                	unimp
80002fc4:	287a                	.2byte	0x287a
80002fc6:	0000                	unimp
80002fc8:	ffffe647          	.4byte	0xffffe647
80002fcc:	0000028f          	.4byte	0x28f
80002fd0:	e129                	bnez	a0,80003012 <data+0x14a>
80002fd2:	ffff                	.2byte	0xffff
80002fd4:	149e                	slli	s1,s1,0x27
80002fd6:	0000                	unimp
80002fd8:	fad9                	bnez	a3,80002f6e <data+0xa6>
80002fda:	ffff                	.2byte	0xffff
80002fdc:	f621                	bnez	a2,80002f24 <data+0x5c>
80002fde:	ffff                	.2byte	0xffff
80002fe0:	05f5                	addi	a1,a1,29
80002fe2:	0000                	unimp
80002fe4:	d25c                	sw	a5,36(a2)
80002fe6:	ffff                	.2byte	0xffff
80002fe8:	d130                	sw	a2,96(a0)
80002fea:	ffff                	.2byte	0xffff
80002fec:	2cbe                	.2byte	0x2cbe
80002fee:	0000                	unimp
80002ff0:	f128                	fsw	fa0,96(a0)
80002ff2:	ffff                	.2byte	0xffff
80002ff4:	000007c7          	fmsub.s	fa5,ft0,ft0,ft0,rne
80002ff8:	ffffe907          	.4byte	0xffffe907
80002ffc:	d072                	sw	t3,32(sp)
80002ffe:	ffff                	.2byte	0xffff
80003000:	e465                	bnez	s0,800030e8 <data+0x220>
80003002:	ffff                	.2byte	0xffff
80003004:	f5be                	fsw	fa5,232(sp)
80003006:	ffff                	.2byte	0xffff
80003008:	ffffd6b7          	lui	a3,0xffffd
8000300c:	fc9c                	fsw	fa5,56(s1)
8000300e:	ffff                	.2byte	0xffff
80003010:	03fe                	slli	t2,t2,0x1f
80003012:	0000                	unimp
80003014:	1fb5                	addi	t6,t6,-19
80003016:	0000                	unimp
80003018:	ce3c                	sw	a5,88(a2)
8000301a:	ffff                	.2byte	0xffff
8000301c:	f56c                	fsw	fa1,108(a0)
8000301e:	ffff                	.2byte	0xffff
80003020:	eed0                	fsw	fa2,28(a3)
80003022:	ffff                	.2byte	0xffff
80003024:	d5ea                	sw	s10,232(sp)
80003026:	ffff                	.2byte	0xffff
80003028:	0210                	addi	a2,sp,256
8000302a:	0000                	unimp
8000302c:	fa20                	fsw	fs0,112(a2)
8000302e:	ffff                	.2byte	0xffff
80003030:	ffffe60b          	.4byte	0xffffe60b
80003034:	121c                	addi	a5,sp,288
80003036:	0000                	unimp
80003038:	d4fc                	sw	a5,108(s1)
8000303a:	ffff                	.2byte	0xffff
8000303c:	d2f5                	beqz	a3,80003020 <data+0x158>
8000303e:	ffff                	.2byte	0xffff
80003040:	0896                	slli	a7,a7,0x5
80003042:	0000                	unimp
80003044:	ed44                	fsw	fs1,28(a0)
80003046:	ffff                	.2byte	0xffff
80003048:	0784                	addi	s1,sp,960
8000304a:	0000                	unimp
8000304c:	00001bbf ffffcfe2 	.8byte	0xffffcfe200001bbf
80003054:	d05d                	beqz	s0,80002ffa <data+0x132>
80003056:	ffff                	.2byte	0xffff
80003058:	dfe0                	sw	s0,124(a5)
8000305a:	ffff                	.2byte	0xffff
8000305c:	000007d7          	.4byte	0x7d7
80003060:	d4b9                	beqz	s1,80002fae <data+0xe6>
80003062:	ffff                	.2byte	0xffff
80003064:	e310                	fsw	fa2,0(a4)
80003066:	ffff                	.2byte	0xffff
80003068:	0295                	addi	t0,t0,5
8000306a:	0000                	unimp
8000306c:	f7e1                	bnez	a5,80003034 <data+0x16c>
8000306e:	ffff                	.2byte	0xffff
80003070:	00001cd7          	.4byte	0x1cd7
80003074:	1d9c                	addi	a5,sp,752
80003076:	0000                	unimp
80003078:	fffffa53          	.4byte	0xfffffa53
8000307c:	cf3c                	sw	a5,88(a4)
8000307e:	ffff                	.2byte	0xffff
80003080:	e15a                	fsw	fs6,128(sp)
80003082:	ffff                	.2byte	0xffff
80003084:	030a                	slli	t1,t1,0x2
80003086:	0000                	unimp
80003088:	fdd8                	fsw	fa4,60(a1)
8000308a:	ffff                	.2byte	0xffff
8000308c:	1758                	addi	a4,sp,932
8000308e:	0000                	unimp
80003090:	fffff0bf fffffe14 	.8byte	0xfffffe14fffff0bf
80003098:	ffffdac3          	.4byte	0xffffdac3
8000309c:	0000118f          	.4byte	0x118f
800030a0:	05fe                	slli	a1,a1,0x1f
800030a2:	0000                	unimp
800030a4:	00000ed3          	fadd.s	ft9,ft0,ft0,rne
800030a8:	ffffd9af          	.4byte	0xffffd9af
800030ac:	1e09                	addi	t3,t3,-30
800030ae:	0000                	unimp
800030b0:	ffffeeef          	jal	t4,800020ae <sprintf+0x80>
800030b4:	ffffe0ab          	.4byte	0xffffe0ab
800030b8:	22fe                	.2byte	0x22fe
800030ba:	0000                	unimp
800030bc:	2985                	jal	8000352c <data+0x664>
800030be:	0000                	unimp
800030c0:	ffffffef          	jal	t6,800030be <data+0x1f6>
800030c4:	f881                	bnez	s1,80002fd4 <data+0x10c>
800030c6:	ffff                	.2byte	0xffff
800030c8:	1344                	addi	s1,sp,420
800030ca:	0000                	unimp
800030cc:	01d1                	addi	gp,gp,20 # 800065bc <__global_pointer$+0x14>
800030ce:	0000                	unimp
800030d0:	fade                	fsw	fs7,116(sp)
800030d2:	ffff                	.2byte	0xffff
800030d4:	2524                	.2byte	0x2524
800030d6:	0000                	unimp
800030d8:	ffffd7a7          	.4byte	0xffffd7a7
800030dc:	00000197          	auipc	gp,0x0
800030e0:	d634                	sw	a3,104(a2)
800030e2:	ffff                	.2byte	0xffff
800030e4:	0c3d                	addi	s8,s8,15
800030e6:	0000                	unimp
800030e8:	2b78                	.2byte	0x2b78
800030ea:	0000                	unimp
800030ec:	250c                	.2byte	0x250c
800030ee:	0000                	unimp
800030f0:	f7d9                	bnez	a5,8000307e <data+0x1b6>
800030f2:	ffff                	.2byte	0xffff
800030f4:	fffff3cb          	.4byte	0xfffff3cb
800030f8:	2648                	.2byte	0x2648
800030fa:	0000                	unimp
800030fc:	00000b33          	add	s6,zero,zero
80003100:	28d5                	jal	800031f4 <data+0x32c>
80003102:	0000                	unimp
80003104:	f220                	fsw	fs0,96(a2)
80003106:	ffff                	.2byte	0xffff
80003108:	f08a                	fsw	ft2,96(sp)
8000310a:	ffff                	.2byte	0xffff
8000310c:	e795                	bnez	a5,80003138 <data+0x270>
8000310e:	ffff                	.2byte	0xffff
80003110:	2235                	jal	8000323c <data+0x374>
80003112:	0000                	unimp
80003114:	fd4e                	fsw	fs3,184(sp)
80003116:	ffff                	.2byte	0xffff
80003118:	00002b23          	sw	zero,22(zero) # 16 <threadsense.5+0x16>
8000311c:	fffff633          	.4byte	0xfffff633
80003120:	da20                	sw	s0,112(a2)
80003122:	ffff                	.2byte	0xffff
80003124:	d2d2                	sw	s4,100(sp)
80003126:	ffff                	.2byte	0xffff
80003128:	e23c                	fsw	fa5,64(a2)
8000312a:	ffff                	.2byte	0xffff
8000312c:	fffffb0f          	.4byte	0xfffffb0f
80003130:	e57d                	bnez	a0,8000321e <data+0x356>
80003132:	ffff                	.2byte	0xffff
80003134:	d339                	beqz	a4,8000307a <data+0x1b2>
80003136:	ffff                	.2byte	0xffff
80003138:	f294                	fsw	fa3,32(a3)
8000313a:	ffff                	.2byte	0xffff
8000313c:	176c                	addi	a1,sp,940
8000313e:	0000                	unimp
80003140:	fffffdbb          	.4byte	0xfffffdbb
80003144:	d3d8                	sw	a4,36(a5)
80003146:	ffff                	.2byte	0xffff
80003148:	e73d                	bnez	a4,800031b6 <data+0x2ee>
8000314a:	ffff                	.2byte	0xffff
8000314c:	2a99                	jal	800032a2 <data+0x3da>
8000314e:	0000                	unimp
80003150:	2afc                	.2byte	0x2afc
80003152:	0000                	unimp
80003154:	f0e4                	fsw	fs1,100(s1)
80003156:	ffff                	.2byte	0xffff
80003158:	fa30                	fsw	fa2,112(a2)
8000315a:	ffff                	.2byte	0xffff
8000315c:	cf31                	beqz	a4,800031b8 <data+0x2f0>
8000315e:	ffff                	.2byte	0xffff
80003160:	2f20                	.2byte	0x2f20
80003162:	0000                	unimp
80003164:	f3a8                	fsw	fa0,96(a5)
80003166:	ffff                	.2byte	0xffff
80003168:	263c                	.2byte	0x263c
8000316a:	0000                	unimp
8000316c:	f4f9                	bnez	s1,8000313a <data+0x272>
8000316e:	ffff                	.2byte	0xffff
80003170:	00001973          	csrrw	s2,ustatus,zero
80003174:	1a84                	addi	s1,sp,368
80003176:	0000                	unimp
80003178:	ce2c                	sw	a1,88(a2)
8000317a:	ffff                	.2byte	0xffff
8000317c:	1048                	addi	a0,sp,36
8000317e:	0000                	unimp
80003180:	daa5                	beqz	a3,800030f0 <data+0x228>
80003182:	ffff                	.2byte	0xffff
80003184:	f0b6                	fsw	fa3,96(sp)
80003186:	ffff                	.2byte	0xffff
80003188:	29dd                	jal	8000367e <data+0x7b6>
8000318a:	0000                	unimp
8000318c:	2eda                	.2byte	0x2eda
8000318e:	0000                	unimp
80003190:	00002003          	lw	zero,0(zero) # 0 <threadsense.5>
80003194:	2300                	.2byte	0x2300
80003196:	0000                	unimp
80003198:	f30c                	fsw	fa1,32(a4)
8000319a:	ffff                	.2byte	0xffff
8000319c:	2c24                	.2byte	0x2c24
8000319e:	0000                	unimp
800031a0:	27d2                	.2byte	0x27d2
800031a2:	0000                	unimp
800031a4:	0748                	addi	a0,sp,900
800031a6:	0000                	unimp
800031a8:	fffff533          	.4byte	0xfffff533
800031ac:	db50                	sw	a2,52(a4)
800031ae:	ffff                	.2byte	0xffff
800031b0:	0c81                	addi	s9,s9,0
800031b2:	0000                	unimp
800031b4:	000019c7          	fmsub.s	fs3,ft0,ft0,ft0,rtz
800031b8:	24bc                	.2byte	0x24bc
800031ba:	0000                	unimp
800031bc:	d83c                	sw	a5,112(s0)
800031be:	ffff                	.2byte	0xffff
800031c0:	1f9f 0000 d9f8      	.byte	0x9f, 0x1f, 0x00, 0x00, 0xf8, 0xd9
800031c6:	ffff                	.2byte	0xffff
800031c8:	d0d5                	beqz	s1,8000316c <data+0x2a4>
800031ca:	ffff                	.2byte	0xffff
800031cc:	0000189b          	.4byte	0x189b
800031d0:	fcdc                	fsw	fa5,60(s1)
800031d2:	ffff                	.2byte	0xffff
800031d4:	fd05                	bnez	a0,8000310c <data+0x244>
800031d6:	ffff                	.2byte	0xffff
800031d8:	19cc                	addi	a1,sp,244
800031da:	0000                	unimp
800031dc:	f9fc                	fsw	fa5,116(a1)
800031de:	ffff                	.2byte	0xffff
800031e0:	22ac                	.2byte	0x22ac
800031e2:	0000                	unimp
800031e4:	0e08                	addi	a0,sp,784
800031e6:	0000                	unimp
800031e8:	20f5                	jal	800032d4 <data+0x40c>
800031ea:	0000                	unimp
800031ec:	0a1f 0000 f68d      	.byte	0x1f, 0x0a, 0x00, 0x00, 0x8d, 0xf6
800031f2:	ffff                	.2byte	0xffff
800031f4:	2121                	jal	800035fc <data+0x734>
800031f6:	0000                	unimp
800031f8:	e868                	fsw	fa0,84(s0)
800031fa:	ffff                	.2byte	0xffff
800031fc:	0332                	slli	t1,t1,0xc
800031fe:	0000                	unimp
80003200:	ffffdfd7          	.4byte	0xffffdfd7
80003204:	e045                	bnez	s0,800032a4 <data+0x3dc>
80003206:	ffff                	.2byte	0xffff
80003208:	0000000b          	fir_coeff_st	zero,zero,zero
8000320c:	31da                	.2byte	0x31da
8000320e:	0000                	unimp
80003210:	d145                	beqz	a0,800031b0 <data+0x2e8>
80003212:	ffff                	.2byte	0xffff
80003214:	2518                	.2byte	0x2518
80003216:	0000                	unimp
80003218:	2bfd                	jal	80003816 <data+0x94e>
8000321a:	0000                	unimp
8000321c:	00002b17          	auipc	s6,0x2
80003220:	fa60                	fsw	fs0,116(a2)
80003222:	ffff                	.2byte	0xffff
80003224:	ef30                	fsw	fa2,88(a4)
80003226:	ffff                	.2byte	0xffff
80003228:	ffffd467          	.4byte	0xffffd467
8000322c:	d4e1                	beqz	s1,800031f4 <data+0x32c>
8000322e:	ffff                	.2byte	0xffff
80003230:	ffffd6f7          	.4byte	0xffffd6f7
80003234:	2b22                	.2byte	0x2b22
80003236:	0000                	unimp
80003238:	df1d                	beqz	a4,80003176 <data+0x2ae>
8000323a:	ffff                	.2byte	0xffff
8000323c:	2896                	.2byte	0x2896
8000323e:	0000                	unimp
80003240:	ffffd31b          	.4byte	0xffffd31b
80003244:	e1f1                	bnez	a1,80003308 <data+0x440>
80003246:	ffff                	.2byte	0xffff
80003248:	0f31                	addi	t5,t5,12
8000324a:	0000                	unimp
8000324c:	000001f7          	.4byte	0x1f7
80003250:	10f6                	slli	ra,ra,0x3d
80003252:	0000                	unimp
80003254:	f6fd                	bnez	a3,80003242 <data+0x37a>
80003256:	ffff                	.2byte	0xffff
80003258:	00002df3          	csrr	s11,ustatus
8000325c:	000001a3          	sb	zero,3(zero) # 3 <threadsense.5+0x3>
80003260:	d305                	beqz	a4,80003180 <data+0x2b8>
80003262:	ffff                	.2byte	0xffff
80003264:	1ce8                	addi	a0,sp,636
80003266:	0000                	unimp
80003268:	d9c2                	sw	a6,240(sp)
8000326a:	ffff                	.2byte	0xffff
8000326c:	fb92                	fsw	ft4,244(sp)
8000326e:	ffff                	.2byte	0xffff
80003270:	0c09                	addi	s8,s8,2
80003272:	0000                	unimp
80003274:	f42a                	fsw	fa0,40(sp)
80003276:	ffff                	.2byte	0xffff
80003278:	30c4                	.2byte	0x30c4
8000327a:	0000                	unimp
8000327c:	1de0                	addi	s0,sp,764
8000327e:	0000                	unimp
80003280:	066e                	slli	a2,a2,0x1b
80003282:	0000                	unimp
80003284:	fffffecf          	.4byte	0xfffffecf
80003288:	1dba                	slli	s11,s11,0x2e
8000328a:	0000                	unimp
8000328c:	000009b3          	add	s3,zero,zero
80003290:	fffff1e7          	.4byte	0xfffff1e7
80003294:	000017b7          	lui	a5,0x1
80003298:	000002cb          	fnmsub.s	ft5,ft0,ft0,ft0,rne
8000329c:	1e46                	slli	t3,t3,0x31
8000329e:	0000                	unimp
800032a0:	ffffd4e7          	.4byte	0xffffd4e7
800032a4:	0931                	addi	s2,s2,12
800032a6:	0000                	unimp
800032a8:	00002527          	fsw	ft0,10(zero) # a <threadsense.5+0xa>
800032ac:	ddde                	sw	s7,248(sp)
800032ae:	ffff                	.2byte	0xffff
800032b0:	0254                	addi	a3,sp,260
800032b2:	0000                	unimp
800032b4:	d244                	sw	s1,36(a2)
800032b6:	ffff                	.2byte	0xffff
800032b8:	d474                	sw	a3,108(s0)
800032ba:	ffff                	.2byte	0xffff
800032bc:	076e                	slli	a4,a4,0x1b
800032be:	0000                	unimp
800032c0:	e635                	bnez	a2,8000332c <data+0x464>
800032c2:	ffff                	.2byte	0xffff
800032c4:	15a5                	addi	a1,a1,-23
800032c6:	0000                	unimp
800032c8:	d765                	beqz	a4,800032b0 <data+0x3e8>
800032ca:	ffff                	.2byte	0xffff
800032cc:	0000292b          	.4byte	0x292b
800032d0:	daa2                	sw	s0,116(sp)
800032d2:	ffff                	.2byte	0xffff
800032d4:	d358                	sw	a4,36(a4)
800032d6:	ffff                	.2byte	0xffff
800032d8:	f8ce                	fsw	fs3,112(sp)
800032da:	ffff                	.2byte	0xffff
800032dc:	dfa8                	sw	a0,120(a5)
800032de:	ffff                	.2byte	0xffff
800032e0:	2240                	.2byte	0x2240
800032e2:	0000                	unimp
800032e4:	0490                	addi	a2,sp,576
800032e6:	0000                	unimp
800032e8:	0d3a                	slli	s10,s10,0xe
800032ea:	0000                	unimp
800032ec:	fc49                	bnez	s0,80003286 <data+0x3be>
800032ee:	ffff                	.2byte	0xffff
800032f0:	2aba                	.2byte	0x2aba
800032f2:	0000                	unimp
800032f4:	0bfe                	slli	s7,s7,0x1f
800032f6:	0000                	unimp
800032f8:	e829                	bnez	s0,8000334a <data+0x482>
800032fa:	ffff                	.2byte	0xffff
800032fc:	ff28                	fsw	fa0,120(a4)
800032fe:	ffff                	.2byte	0xffff
80003300:	d8cd                	beqz	s1,800032b2 <data+0x3ea>
80003302:	ffff                	.2byte	0xffff
80003304:	ffffd3e3          	bge	t6,t6,800032ea <data+0x422>
80003308:	ffffd6db          	.4byte	0xffffd6db
8000330c:	fcb4                	fsw	fa3,120(s1)
8000330e:	ffff                	.2byte	0xffff
80003310:	1d9a                	slli	s11,s11,0x26
80003312:	0000                	unimp
80003314:	0ba6                	slli	s7,s7,0x9
80003316:	0000                	unimp
80003318:	ffffe8fb          	.4byte	0xffffe8fb
8000331c:	2481                	jal	8000355c <data+0x694>
8000331e:	0000                	unimp
80003320:	ffffe2d7          	.4byte	0xffffe2d7
80003324:	dc22                	sw	s0,56(sp)
80003326:	ffff                	.2byte	0xffff
80003328:	d060                	sw	s0,100(s0)
8000332a:	ffff                	.2byte	0xffff
8000332c:	0000172b          	.4byte	0x172b
80003330:	e066                	fsw	fs9,0(sp)
80003332:	ffff                	.2byte	0xffff
80003334:	d6d4                	sw	a3,44(a3)
80003336:	ffff                	.2byte	0xffff
80003338:	ec99                	bnez	s1,80003356 <data+0x48e>
8000333a:	ffff                	.2byte	0xffff
8000333c:	fffff89b          	.4byte	0xfffff89b
80003340:	1e79                	addi	t3,t3,-2
80003342:	0000                	unimp
80003344:	f5fe                	fsw	ft11,232(sp)
80003346:	ffff                	.2byte	0xffff
80003348:	ffffefc7          	.4byte	0xffffefc7
8000334c:	2b1c                	.2byte	0x2b1c
8000334e:	0000                	unimp
80003350:	fb55                	bnez	a4,80003304 <data+0x43c>
80003352:	ffff                	.2byte	0xffff
80003354:	1a95                	addi	s5,s5,-27 # ffffcfe5 <__global_pointer$+0x7fff6a3d>
80003356:	0000                	unimp
80003358:	d8c4                	sw	s1,52(s1)
8000335a:	ffff                	.2byte	0xffff
8000335c:	eb95                	bnez	a5,80003390 <data+0x4c8>
8000335e:	ffff                	.2byte	0xffff
80003360:	ed25                	bnez	a0,800033d8 <data+0x510>
80003362:	ffff                	.2byte	0xffff
80003364:	17fe                	slli	a5,a5,0x3f
80003366:	0000                	unimp
80003368:	19df 0000 e5de      	.byte	0xdf, 0x19, 0x00, 0x00, 0xde, 0xe5
8000336e:	ffff                	.2byte	0xffff
80003370:	f1fc                	fsw	fa5,100(a1)
80003372:	ffff                	.2byte	0xffff
80003374:	d008                	sw	a0,32(s0)
80003376:	ffff                	.2byte	0xffff
80003378:	1706                	slli	a4,a4,0x21
8000337a:	0000                	unimp
8000337c:	fcca                	fsw	fs2,120(sp)
8000337e:	ffff                	.2byte	0xffff
80003380:	ffffd5eb          	.4byte	0xffffd5eb
80003384:	1fe1                	addi	t6,t6,-8
80003386:	0000                	unimp
80003388:	2b7e                	.2byte	0x2b7e
8000338a:	0000                	unimp
8000338c:	2585                	jal	800039ec <data+0xb24>
8000338e:	0000                	unimp
80003390:	fffff987          	.4byte	0xfffff987
80003394:	e279                	bnez	a2,8000345a <data+0x592>
80003396:	ffff                	.2byte	0xffff
80003398:	1806                	slli	a6,a6,0x21
8000339a:	0000                	unimp
8000339c:	0e5e                	slli	t3,t3,0x17
8000339e:	0000                	unimp
800033a0:	fffff09b          	.4byte	0xfffff09b
800033a4:	1a66                	slli	s4,s4,0x39
800033a6:	0000                	unimp
800033a8:	f389                	bnez	a5,800032aa <data+0x3e2>
800033aa:	ffff                	.2byte	0xffff
800033ac:	0301                	addi	t1,t1,0 # 1000000 <buflen.3+0xffff80>
800033ae:	0000                	unimp
800033b0:	233a                	.2byte	0x233a
800033b2:	0000                	unimp
800033b4:	1222                	slli	tp,tp,0x28
800033b6:	0000                	unimp
800033b8:	2d9c                	.2byte	0x2d9c
800033ba:	0000                	unimp
800033bc:	00000fb3          	add	t6,zero,zero
800033c0:	d61f ffff eb62      	.byte	0x1f, 0xd6, 0xff, 0xff, 0x62, 0xeb
800033c6:	ffff                	.2byte	0xffff
800033c8:	000008cf          	fnmadd.s	fa7,ft0,ft0,ft0,rne
800033cc:	0375                	addi	t1,t1,29
800033ce:	0000                	unimp
800033d0:	ffffd3f7          	.4byte	0xffffd3f7
800033d4:	00001393          	slli	t2,zero,0x0
800033d8:	210a                	.2byte	0x210a
800033da:	0000                	unimp
800033dc:	fffff31b          	.4byte	0xfffff31b
800033e0:	f991                	bnez	a1,800032f4 <data+0x42c>
800033e2:	ffff                	.2byte	0xffff
800033e4:	08e9                	addi	a7,a7,26 # 100001a <buflen.3+0xffff9a>
800033e6:	0000                	unimp
800033e8:	0afa                	slli	s5,s5,0x1e
800033ea:	0000                	unimp
800033ec:	1d8d                	addi	s11,s11,-29
800033ee:	0000                	unimp
800033f0:	0af1                	addi	s5,s5,28
800033f2:	0000                	unimp
800033f4:	f000                	fsw	fs0,32(s0)
800033f6:	ffff                	.2byte	0xffff
800033f8:	ffffe857          	.4byte	0xffffe857
800033fc:	000012db          	.4byte	0x12db
80003400:	dde1                	beqz	a1,800033d8 <data+0x510>
80003402:	ffff                	.2byte	0xffff
80003404:	e1d5                	bnez	a1,800034a8 <data+0x5e0>
80003406:	ffff                	.2byte	0xffff
80003408:	0660                	addi	s0,sp,780
8000340a:	0000                	unimp
8000340c:	0968                	addi	a0,sp,156
8000340e:	0000                	unimp
80003410:	f64e                	fsw	fs3,44(sp)
80003412:	ffff                	.2byte	0xffff
80003414:	ec66                	fsw	fs9,24(sp)
80003416:	ffff                	.2byte	0xffff
80003418:	ffffe5c7          	.4byte	0xffffe5c7
8000341c:	18e8                	addi	a0,sp,124
8000341e:	0000                	unimp
80003420:	d4cc                	sw	a1,44(s1)
80003422:	ffff                	.2byte	0xffff
80003424:	0b50                	addi	a2,sp,404
80003426:	0000                	unimp
80003428:	e9e9                	bnez	a1,800034fa <data+0x632>
8000342a:	ffff                	.2byte	0xffff
8000342c:	2a06                	.2byte	0x2a06
8000342e:	0000                	unimp
80003430:	eb71                	bnez	a4,80003504 <data+0x63c>
80003432:	ffff                	.2byte	0xffff
80003434:	e585                	bnez	a1,8000345c <data+0x594>
80003436:	ffff                	.2byte	0xffff
80003438:	07b9                	addi	a5,a5,14 # 100e <buflen.3+0xf8e>
8000343a:	0000                	unimp
8000343c:	f391                	bnez	a5,80003340 <data+0x478>
8000343e:	ffff                	.2byte	0xffff
80003440:	000002e7          	jalr	t0,zero # 0 <threadsense.5>
80003444:	de88                	sw	a0,56(a3)
80003446:	ffff                	.2byte	0xffff
80003448:	2906                	.2byte	0x2906
8000344a:	0000                	unimp
8000344c:	08de                	slli	a7,a7,0x17
8000344e:	0000                	unimp
80003450:	0000241b          	.4byte	0x241b
80003454:	1810                	addi	a2,sp,48
80003456:	0000                	unimp
80003458:	2dfa                	.2byte	0x2dfa
8000345a:	0000                	unimp
8000345c:	ebad                	bnez	a5,800034ce <data+0x606>
8000345e:	ffff                	.2byte	0xffff
80003460:	eef9                	bnez	a3,8000353e <data+0x676>
80003462:	ffff                	.2byte	0xffff
80003464:	000006f3          	.4byte	0x6f3
80003468:	d73a                	sw	a4,172(sp)
8000346a:	ffff                	.2byte	0xffff
8000346c:	2bea                	.2byte	0x2bea
8000346e:	0000                	unimp
80003470:	000028f3          	csrr	a7,ustatus
80003474:	f191                	bnez	a1,80003378 <data+0x4b0>
80003476:	ffff                	.2byte	0xffff
80003478:	0cc5                	addi	s9,s9,17
8000347a:	0000                	unimp
8000347c:	d4d4                	sw	a3,44(s1)
8000347e:	ffff                	.2byte	0xffff
80003480:	0566                	slli	a0,a0,0x19
80003482:	0000                	unimp
80003484:	e125                	bnez	a0,800034e4 <data+0x61c>
80003486:	ffff                	.2byte	0xffff
80003488:	103d                	c.nop	-17
8000348a:	0000                	unimp
8000348c:	2db4                	.2byte	0x2db4
8000348e:	0000                	unimp
80003490:	ff8c                	fsw	fa1,56(a5)
80003492:	ffff                	.2byte	0xffff
80003494:	00002803          	lw	a6,0(zero) # 0 <threadsense.5>
80003498:	149c                	addi	a5,sp,608
8000349a:	0000                	unimp
8000349c:	0658                	addi	a4,sp,772
8000349e:	0000                	unimp
800034a0:	00000153          	fadd.s	ft2,ft0,ft0,rne
800034a4:	3085                	jal	80002d04 <__eqdf2+0x1c6>
800034a6:	0000                	unimp
800034a8:	fe5d                	bnez	a2,80003466 <data+0x59e>
800034aa:	ffff                	.2byte	0xffff
800034ac:	1ec4                	addi	s1,sp,884
800034ae:	0000                	unimp
800034b0:	e40a                	fsw	ft2,8(sp)
800034b2:	ffff                	.2byte	0xffff
800034b4:	d416                	sw	t0,40(sp)
800034b6:	ffff                	.2byte	0xffff
800034b8:	e055                	bnez	s0,8000355c <data+0x694>
800034ba:	ffff                	.2byte	0xffff
800034bc:	18f1                	addi	a7,a7,-4
800034be:	0000                	unimp
800034c0:	e49f ffff d75b      	.byte	0x9f, 0xe4, 0xff, 0xff, 0x5b, 0xd7
800034c6:	ffff                	.2byte	0xffff
800034c8:	efd0                	fsw	fa2,28(a5)
800034ca:	ffff                	.2byte	0xffff
800034cc:	d6ba                	sw	a4,108(sp)
800034ce:	ffff                	.2byte	0xffff
800034d0:	0000216b          	.4byte	0x216b
800034d4:	ebc9                	bnez	a5,80003566 <data+0x69e>
800034d6:	ffff                	.2byte	0xffff
800034d8:	fffff467          	.4byte	0xfffff467
800034dc:	de64                	sw	s1,124(a2)
800034de:	ffff                	.2byte	0xffff
800034e0:	24bd                	jal	8000374e <data+0x886>
800034e2:	0000                	unimp
800034e4:	fda1                	bnez	a1,8000343c <data+0x574>
800034e6:	ffff                	.2byte	0xffff
800034e8:	d84d                	beqz	s0,8000349a <data+0x5d2>
800034ea:	ffff                	.2byte	0xffff
800034ec:	1bb0                	addi	a2,sp,504
800034ee:	0000                	unimp
800034f0:	2132                	.2byte	0x2132
800034f2:	0000                	unimp
800034f4:	1712                	slli	a4,a4,0x24
800034f6:	0000                	unimp
800034f8:	2284                	.2byte	0x2284
800034fa:	0000                	unimp
800034fc:	f498                	fsw	fa4,40(s1)
800034fe:	ffff                	.2byte	0xffff
80003500:	2a38                	.2byte	0x2a38
80003502:	0000                	unimp
80003504:	00c1                	addi	ra,ra,16
80003506:	0000                	unimp
80003508:	f04c                	fsw	fa1,36(s0)
8000350a:	ffff                	.2byte	0xffff
8000350c:	fffff7c3          	.4byte	0xfffff7c3
80003510:	f6c4                	fsw	fs1,44(a3)
80003512:	ffff                	.2byte	0xffff
80003514:	d2e8                	sw	a0,100(a3)
80003516:	ffff                	.2byte	0xffff
80003518:	0000301b          	.4byte	0x301b
8000351c:	2a16                	.2byte	0x2a16
8000351e:	0000                	unimp
80003520:	d16d                	beqz	a0,80003502 <data+0x63a>
80003522:	ffff                	.2byte	0xffff
80003524:	fc78                	fsw	fa4,124(s0)
80003526:	ffff                	.2byte	0xffff
80003528:	000016db          	.4byte	0x16db
8000352c:	ffffe777          	.4byte	0xffffe777
80003530:	028e                	slli	t0,t0,0x3
80003532:	0000                	unimp
80003534:	2930                	.2byte	0x2930
80003536:	0000                	unimp
80003538:	ce69                	beqz	a2,80003612 <data+0x74a>
8000353a:	ffff                	.2byte	0xffff
8000353c:	192d                	addi	s2,s2,-21
8000353e:	0000                	unimp
80003540:	ce8a                	sw	sp,92(sp)
80003542:	ffff                	.2byte	0xffff
80003544:	f038                	fsw	fa4,96(s0)
80003546:	ffff                	.2byte	0xffff
80003548:	000021e7          	.4byte	0x21e7
8000354c:	21f5                	jal	80003a38 <data+0xb70>
8000354e:	0000                	unimp
80003550:	0e02                	c.slli64	t3
80003552:	0000                	unimp
80003554:	e44e                	fsw	fs3,8(sp)
80003556:	ffff                	.2byte	0xffff
80003558:	ce59                	beqz	a2,800035f6 <data+0x72e>
8000355a:	ffff                	.2byte	0xffff
8000355c:	00be                	slli	ra,ra,0xf
8000355e:	0000                	unimp
80003560:	13ee                	slli	t2,t2,0x3b
80003562:	0000                	unimp
80003564:	d8a6                	sw	s1,112(sp)
80003566:	ffff                	.2byte	0xffff
80003568:	ea6e                	fsw	fs11,20(sp)
8000356a:	ffff                	.2byte	0xffff
8000356c:	0320                	addi	s0,sp,392
8000356e:	0000                	unimp
80003570:	21b8                	.2byte	0x21b8
80003572:	0000                	unimp
80003574:	daf2                	sw	t3,116(sp)
80003576:	ffff                	.2byte	0xffff
80003578:	000029b7          	lui	s3,0x2
8000357c:	19f0                	addi	a2,sp,252
8000357e:	0000                	unimp
80003580:	0db2                	slli	s11,s11,0xc
80003582:	0000                	unimp
80003584:	ffffe803          	.4byte	0xffffe803
80003588:	ffffdfb3          	.4byte	0xffffdfb3
8000358c:	d276                	sw	t4,36(sp)
8000358e:	ffff                	.2byte	0xffff
80003590:	ffffeceb          	.4byte	0xffffeceb
80003594:	ddcd                	beqz	a1,8000354e <data+0x686>
80003596:	ffff                	.2byte	0xffff
80003598:	2e8d                	jal	8000390a <data+0xa42>
8000359a:	0000                	unimp
8000359c:	f058                	fsw	fa4,36(s0)
8000359e:	ffff                	.2byte	0xffff
800035a0:	0c45                	addi	s8,s8,17
800035a2:	0000                	unimp
800035a4:	00001367          	.4byte	0x1367
800035a8:	000009cf          	fnmadd.s	fs3,ft0,ft0,ft0,rne
800035ac:	dcd4                	sw	a3,60(s1)
800035ae:	ffff                	.2byte	0xffff
800035b0:	00000a97          	auipc	s5,0x0
800035b4:	0a38                	addi	a4,sp,280
800035b6:	0000                	unimp
800035b8:	2801                	jal	800035c8 <data+0x700>
800035ba:	0000                	unimp
800035bc:	0b21                	addi	s6,s6,8 # 80005224 <coeffs+0x41c>
800035be:	0000                	unimp
800035c0:	2c70                	.2byte	0x2c70
800035c2:	0000                	unimp
800035c4:	17e8                	addi	a0,sp,1004
800035c6:	0000                	unimp
800035c8:	fffffb17          	auipc	s6,0xfffff
800035cc:	0872                	slli	a6,a6,0x1c
800035ce:	0000                	unimp
800035d0:	2e35                	jal	8000390c <data+0xa44>
800035d2:	0000                	unimp
800035d4:	fffffb6f          	jal	s6,800035d2 <data+0x70a>
800035d8:	d730                	sw	a2,104(a4)
800035da:	ffff                	.2byte	0xffff
800035dc:	00001023          	sh	zero,0(zero) # 0 <threadsense.5>
800035e0:	0615                	addi	a2,a2,5 # ffffe005 <__global_pointer$+0x7fff7a5d>
800035e2:	0000                	unimp
800035e4:	f39e                	fsw	ft7,228(sp)
800035e6:	ffff                	.2byte	0xffff
800035e8:	ffffe143          	.4byte	0xffffe143
800035ec:	f5ce                	fsw	fs3,232(sp)
800035ee:	ffff                	.2byte	0xffff
800035f0:	0090                	addi	a2,sp,64
800035f2:	0000                	unimp
800035f4:	d8fa                	sw	t5,112(sp)
800035f6:	ffff                	.2byte	0xffff
800035f8:	ddbd                	beqz	a1,80003576 <data+0x6ae>
800035fa:	ffff                	.2byte	0xffff
800035fc:	dc42                	sw	a6,56(sp)
800035fe:	ffff                	.2byte	0xffff
80003600:	f2fd                	bnez	a3,800035e6 <data+0x71e>
80003602:	ffff                	.2byte	0xffff
80003604:	ef70                	fsw	fa2,92(a4)
80003606:	ffff                	.2byte	0xffff
80003608:	e0b9                	bnez	s1,8000364e <data+0x786>
8000360a:	ffff                	.2byte	0xffff
8000360c:	11e8                	addi	a0,sp,236
8000360e:	0000                	unimp
80003610:	ff3e                	fsw	fa5,188(sp)
80003612:	ffff                	.2byte	0xffff
80003614:	dd45                	beqz	a0,800035cc <data+0x704>
80003616:	ffff                	.2byte	0xffff
80003618:	d040                	sw	s0,36(s0)
8000361a:	ffff                	.2byte	0xffff
8000361c:	ffffd983          	lhu	s3,-1(t6)
80003620:	22ad                	jal	8000378a <data+0x8c2>
80003622:	0000                	unimp
80003624:	00000c0f          	.4byte	0xc0f
80003628:	ffffe857          	.4byte	0xffffe857
8000362c:	fffffb43          	.4byte	0xfffffb43
80003630:	ffffe447          	.4byte	0xffffe447
80003634:	de58                	sw	a4,60(a2)
80003636:	ffff                	.2byte	0xffff
80003638:	d465                	beqz	s0,80003620 <data+0x758>
8000363a:	ffff                	.2byte	0xffff
8000363c:	ffffdeb7          	lui	t4,0xffffd
80003640:	0000283f 0000017b 	.8byte	0x17b0000283f
80003648:	1929                	addi	s2,s2,-22
8000364a:	0000                	unimp
8000364c:	2475                	jal	800038f8 <data+0xa30>
8000364e:	0000                	unimp
80003650:	00002eeb          	.4byte	0x2eeb
80003654:	2259                	jal	800037da <data+0x912>
80003656:	0000                	unimp
80003658:	0298                	addi	a4,sp,320
8000365a:	0000                	unimp
8000365c:	0300                	addi	s0,sp,384
8000365e:	0000                	unimp
80003660:	ffffe3f7          	.4byte	0xffffe3f7
80003664:	000015db          	.4byte	0x15db
80003668:	2ace                	.2byte	0x2ace
8000366a:	0000                	unimp
8000366c:	00001687          	.4byte	0x1687
80003670:	20d6                	.2byte	0x20d6
80003672:	0000                	unimp
80003674:	ffffd68b          	.4byte	0xffffd68b
80003678:	24ca                	.2byte	0x24ca
8000367a:	0000                	unimp
8000367c:	ffffe1d3          	.4byte	0xffffe1d3
80003680:	fffff7fb          	.4byte	0xfffff7fb
80003684:	d382                	sw	zero,228(sp)
80003686:	ffff                	.2byte	0xffff
80003688:	000025bb          	.4byte	0x25bb
8000368c:	2939                	jal	80003aaa <data+0xbe2>
8000368e:	0000                	unimp
80003690:	e2c8                	fsw	fa0,4(a3)
80003692:	ffff                	.2byte	0xffff
80003694:	000027fb          	.4byte	0x27fb
80003698:	d0bc                	sw	a5,96(s1)
8000369a:	ffff                	.2byte	0xffff
8000369c:	d374                	sw	a3,100(a4)
8000369e:	ffff                	.2byte	0xffff
800036a0:	020a                	slli	tp,tp,0x2
800036a2:	0000                	unimp
800036a4:	ffffeb13          	ori	s6,t6,-1
800036a8:	00b8                	addi	a4,sp,72
800036aa:	0000                	unimp
800036ac:	1851                	addi	a6,a6,-12 # 80001ee4 <vprintfmt+0x294>
800036ae:	0000                	unimp
800036b0:	fffffb6b          	.4byte	0xfffffb6b
800036b4:	071d                	addi	a4,a4,7 # 80007 <buflen.3+0x7ff87>
800036b6:	0000                	unimp
800036b8:	2908                	.2byte	0x2908
800036ba:	0000                	unimp
800036bc:	f1aa                	fsw	fa0,224(sp)
800036be:	ffff                	.2byte	0xffff
800036c0:	d698                	sw	a4,40(a3)
800036c2:	ffff                	.2byte	0xffff
800036c4:	1031                	c.nop	-20
800036c6:	0000                	unimp
800036c8:	e41f ffff d383      	.byte	0x1f, 0xe4, 0xff, 0xff, 0x83, 0xd3
800036ce:	ffff                	.2byte	0xffff
800036d0:	008a                	slli	ra,ra,0x2
800036d2:	0000                	unimp
800036d4:	000018b7          	lui	a7,0x1
800036d8:	00000883          	lb	a7,0(zero) # 0 <threadsense.5>
800036dc:	1681                	addi	a3,a3,-32 # ffffcfe0 <__global_pointer$+0x7fff6a38>
800036de:	0000                	unimp
800036e0:	fffffc93          	andi	s9,t6,-1
800036e4:	0151                	addi	sp,sp,20
800036e6:	0000                	unimp
800036e8:	fb09                	bnez	a4,800035fa <data+0x732>
800036ea:	ffff                	.2byte	0xffff
800036ec:	eb69                	bnez	a4,800037be <data+0x8f6>
800036ee:	ffff                	.2byte	0xffff
800036f0:	09dc                	addi	a5,sp,212
800036f2:	0000                	unimp
800036f4:	edd2                	fsw	fs4,216(sp)
800036f6:	ffff                	.2byte	0xffff
800036f8:	ff3c                	fsw	fa5,120(a4)
800036fa:	ffff                	.2byte	0xffff
800036fc:	ffffcfd7          	.4byte	0xffffcfd7
80003700:	f355                	bnez	a4,800036a4 <data+0x7dc>
80003702:	ffff                	.2byte	0xffff
80003704:	fffff2f7          	.4byte	0xfffff2f7
80003708:	2b10                	.2byte	0x2b10
8000370a:	0000                	unimp
8000370c:	081c                	addi	a5,sp,16
8000370e:	0000                	unimp
80003710:	e8f1                	bnez	s1,800037e4 <data+0x91c>
80003712:	ffff                	.2byte	0xffff
80003714:	2dcc                	.2byte	0x2dcc
80003716:	0000                	unimp
80003718:	0d91                	addi	s11,s11,4
8000371a:	0000                	unimp
8000371c:	00001cfb          	.4byte	0x1cfb
80003720:	e6e0                	fsw	fs0,76(a3)
80003722:	ffff                	.2byte	0xffff
80003724:	dc48                	sw	a0,60(s0)
80003726:	ffff                	.2byte	0xffff
80003728:	034c                	addi	a1,sp,388
8000372a:	0000                	unimp
8000372c:	0000144b          	fnmsub.s	fs0,ft0,ft0,ft0,rtz
80003730:	1565                	addi	a0,a0,-7
80003732:	0000                	unimp
80003734:	fa54                	fsw	fa3,52(a2)
80003736:	ffff                	.2byte	0xffff
80003738:	d3f5                	beqz	a5,8000371c <data+0x854>
8000373a:	ffff                	.2byte	0xffff
8000373c:	1dfd                	addi	s11,s11,-1
8000373e:	0000                	unimp
80003740:	d885                	beqz	s1,80003670 <data+0x7a8>
80003742:	ffff                	.2byte	0xffff
80003744:	ea14                	fsw	fa3,16(a2)
80003746:	ffff                	.2byte	0xffff
80003748:	2380                	.2byte	0x2380
8000374a:	0000                	unimp
8000374c:	00000b0f          	.4byte	0xb0f
80003750:	d0cc                	sw	a1,36(s1)
80003752:	ffff                	.2byte	0xffff
80003754:	fffffa03          	.4byte	0xfffffa03
80003758:	ef90                	fsw	fa2,24(a5)
8000375a:	ffff                	.2byte	0xffff
8000375c:	ff5f ffff 2d54      	.byte	0x5f, 0xff, 0xff, 0xff, 0x54, 0x2d
80003762:	0000                	unimp
80003764:	1c99                	addi	s9,s9,-26
80003766:	0000                	unimp
80003768:	00001cc7          	fmsub.s	fs9,ft0,ft0,ft0,rtz
8000376c:	0000052f          	.4byte	0x52f
80003770:	ffffd86b          	.4byte	0xffffd86b
80003774:	ffffea03          	.4byte	0xffffea03
80003778:	0706                	slli	a4,a4,0x1
8000377a:	0000                	unimp
8000377c:	fdc0                	fsw	fs0,60(a1)
8000377e:	ffff                	.2byte	0xffff
80003780:	0ef9                	addi	t4,t4,30 # ffffd01e <__global_pointer$+0x7fff6a76>
80003782:	0000                	unimp
80003784:	00000017          	auipc	zero,0x0
80003788:	d3dc                	sw	a5,36(a5)
8000378a:	ffff                	.2byte	0xffff
8000378c:	000029eb          	.4byte	0x29eb
80003790:	fffffbe3          	bgeu	t6,t6,80003786 <data+0x8be>
80003794:	136d                	addi	t1,t1,-5
80003796:	0000                	unimp
80003798:	14e6                	slli	s1,s1,0x39
8000379a:	0000                	unimp
8000379c:	000014c3          	fmadd.s	fs1,ft0,ft0,ft0,rtz
800037a0:	21b5                	jal	80003c0c <data+0xd44>
800037a2:	0000                	unimp
800037a4:	e632                	fsw	fa2,12(sp)
800037a6:	ffff                	.2byte	0xffff
800037a8:	f70e                	fsw	ft3,172(sp)
800037aa:	ffff                	.2byte	0xffff
800037ac:	051a                	slli	a0,a0,0x6
800037ae:	0000                	unimp
800037b0:	1286                	slli	t0,t0,0x21
800037b2:	0000                	unimp
800037b4:	fffffd03          	.4byte	0xfffffd03
800037b8:	fffff117          	auipc	sp,0xfffff
800037bc:	1d0a                	slli	s10,s10,0x22
800037be:	0000                	unimp
800037c0:	00001917          	auipc	s2,0x1
800037c4:	ffffe297          	auipc	t0,0xffffe
800037c8:	f619                	bnez	a2,800036d6 <data+0x80e>
800037ca:	ffff                	.2byte	0xffff
800037cc:	00001be3          	bnez	zero,80003fe2 <data+0x111a>
800037d0:	0e9a                	slli	t4,t4,0x6
800037d2:	0000                	unimp
800037d4:	17a9                	addi	a5,a5,-22
800037d6:	0000                	unimp
800037d8:	e942                	fsw	fa6,144(sp)
800037da:	ffff                	.2byte	0xffff
800037dc:	09ee                	slli	s3,s3,0x1b
800037de:	0000                	unimp
800037e0:	0242                	slli	tp,tp,0x10
800037e2:	0000                	unimp
800037e4:	d409                	beqz	s0,800036ee <data+0x826>
800037e6:	ffff                	.2byte	0xffff
800037e8:	dd1d                	beqz	a0,80003726 <data+0x85e>
800037ea:	ffff                	.2byte	0xffff
800037ec:	0cad                	addi	s9,s9,11
800037ee:	0000                	unimp
800037f0:	f00c                	fsw	fa1,32(s0)
800037f2:	ffff                	.2byte	0xffff
800037f4:	1624                	addi	s1,sp,808
800037f6:	0000                	unimp
800037f8:	d86c                	sw	a1,116(s0)
800037fa:	ffff                	.2byte	0xffff
800037fc:	3105                	jal	8000341c <data+0x554>
800037fe:	0000                	unimp
80003800:	e43a                	fsw	fa4,8(sp)
80003802:	ffff                	.2byte	0xffff
80003804:	de48                	sw	a0,60(a2)
80003806:	ffff                	.2byte	0xffff
80003808:	28f0                	.2byte	0x28f0
8000380a:	0000                	unimp
8000380c:	121d                	addi	tp,tp,-25 # ffffffe7 <__global_pointer$+0x7fff9a3f>
8000380e:	0000                	unimp
80003810:	23b5                	jal	80003d7c <data+0xeb4>
80003812:	0000                	unimp
80003814:	0bd6                	slli	s7,s7,0x15
80003816:	0000                	unimp
80003818:	f4e0                	fsw	fs0,108(s1)
8000381a:	ffff                	.2byte	0xffff
8000381c:	136a                	slli	t1,t1,0x3a
8000381e:	0000                	unimp
80003820:	2408                	.2byte	0x2408
80003822:	0000                	unimp
80003824:	1dee                	slli	s11,s11,0x3b
80003826:	0000                	unimp
80003828:	e685                	bnez	a3,80003850 <data+0x988>
8000382a:	ffff                	.2byte	0xffff
8000382c:	048e                	slli	s1,s1,0x3
8000382e:	0000                	unimp
80003830:	e8f1                	bnez	s1,80003904 <data+0xa3c>
80003832:	ffff                	.2byte	0xffff
80003834:	099c                	addi	a5,sp,208
80003836:	0000                	unimp
80003838:	ef98                	fsw	fa4,24(a5)
8000383a:	ffff                	.2byte	0xffff
8000383c:	d008                	sw	a0,32(s0)
8000383e:	ffff                	.2byte	0xffff
80003840:	00001e33          	sll	t3,zero,zero
80003844:	17b1                	addi	a5,a5,-20
80003846:	0000                	unimp
80003848:	00001deb          	.4byte	0x1deb
8000384c:	facd                	bnez	a3,800037fe <data+0x936>
8000384e:	ffff                	.2byte	0xffff
80003850:	fffffd5b          	.4byte	0xfffffd5b
80003854:	d52c                	sw	a1,104(a0)
80003856:	ffff                	.2byte	0xffff
80003858:	ffffd2bb          	.4byte	0xffffd2bb
8000385c:	319d                	jal	800034c2 <data+0x5fa>
8000385e:	0000                	unimp
80003860:	db35                	beqz	a4,800037d4 <data+0x90c>
80003862:	ffff                	.2byte	0xffff
80003864:	e1d8                	fsw	fa4,4(a1)
80003866:	ffff                	.2byte	0xffff
80003868:	0c49                	addi	s8,s8,18
8000386a:	0000                	unimp
8000386c:	fd41                	bnez	a0,80003804 <data+0x93c>
8000386e:	ffff                	.2byte	0xffff
80003870:	29fc                	.2byte	0x29fc
80003872:	0000                	unimp
80003874:	16b6                	slli	a3,a3,0x2d
80003876:	0000                	unimp
80003878:	fc46                	fsw	fa7,56(sp)
8000387a:	ffff                	.2byte	0xffff
8000387c:	dc36                	sw	a3,56(sp)
8000387e:	ffff                	.2byte	0xffff
80003880:	26fe                	.2byte	0x26fe
80003882:	0000                	unimp
80003884:	f336                	fsw	fa3,164(sp)
80003886:	ffff                	.2byte	0xffff
80003888:	00002053          	fadd.s	ft0,ft0,ft0,rdn
8000388c:	000018b3          	sll	a7,zero,zero
80003890:	310c                	.2byte	0x310c
80003892:	0000                	unimp
80003894:	ffffe333          	.4byte	0xffffe333
80003898:	fa1e                	fsw	ft7,52(sp)
8000389a:	ffff                	.2byte	0xffff
8000389c:	2315                	jal	80003dc0 <data+0xef8>
8000389e:	0000                	unimp
800038a0:	cf21                	beqz	a4,800038f8 <data+0xa30>
800038a2:	ffff                	.2byte	0xffff
800038a4:	000012a3          	sh	zero,5(zero) # 5 <threadsense.5+0x5>
800038a8:	f5a2                	fsw	fs0,232(sp)
800038aa:	ffff                	.2byte	0xffff
800038ac:	ea12                	fsw	ft4,20(sp)
800038ae:	ffff                	.2byte	0xffff
800038b0:	ffffea3f 0000173b 	.8byte	0x173bffffea3f
800038b8:	ec19                	bnez	s0,800038d6 <data+0xa0e>
800038ba:	ffff                	.2byte	0xffff
800038bc:	d672                	sw	t3,44(sp)
800038be:	ffff                	.2byte	0xffff
800038c0:	fcec                	fsw	fa1,124(s1)
800038c2:	ffff                	.2byte	0xffff
800038c4:	d804                	sw	s1,48(s0)
800038c6:	ffff                	.2byte	0xffff
800038c8:	0000033f 00002c47 	.8byte	0x2c470000033f
800038d0:	df30                	sw	a2,120(a4)
800038d2:	ffff                	.2byte	0xffff
800038d4:	07fa                	slli	a5,a5,0x1e
800038d6:	0000                	unimp
800038d8:	2be4                	.2byte	0x2be4
800038da:	0000                	unimp
800038dc:	ec65                	bnez	s0,800039d4 <data+0xb0c>
800038de:	ffff                	.2byte	0xffff
800038e0:	1bd2                	slli	s7,s7,0x34
800038e2:	0000                	unimp
800038e4:	062d                	addi	a2,a2,11
800038e6:	0000                	unimp
800038e8:	1ba6                	slli	s7,s7,0x29
800038ea:	0000                	unimp
800038ec:	13ce                	slli	t2,t2,0x33
800038ee:	0000                	unimp
800038f0:	ffffeae3          	bltu	t6,t6,800038e4 <data+0xa1c>
800038f4:	e5ed                	bnez	a1,800039de <data+0xb16>
800038f6:	ffff                	.2byte	0xffff
800038f8:	2204                	.2byte	0x2204
800038fa:	0000                	unimp
800038fc:	dfe1                	beqz	a5,800038d4 <data+0xa0c>
800038fe:	ffff                	.2byte	0xffff
80003900:	00000b23          	sb	zero,22(zero) # 16 <threadsense.5+0x16>
80003904:	00001057          	.4byte	0x1057
80003908:	2a95                	jal	80003a7c <data+0xbb4>
8000390a:	0000                	unimp
8000390c:	00000a2f          	.4byte	0xa2f
80003910:	258a                	.2byte	0x258a
80003912:	0000                	unimp
80003914:	f2b2                	fsw	fa2,100(sp)
80003916:	ffff                	.2byte	0xffff
80003918:	fb44                	fsw	fs1,52(a4)
8000391a:	ffff                	.2byte	0xffff
8000391c:	000026ab          	.4byte	0x26ab
80003920:	d355                	beqz	a4,800038c4 <data+0x9fc>
80003922:	ffff                	.2byte	0xffff
80003924:	22e6                	.2byte	0x22e6
80003926:	0000                	unimp
80003928:	debd                	beqz	a3,800038a6 <data+0x9de>
8000392a:	ffff                	.2byte	0xffff
8000392c:	ffffef93          	ori	t6,t6,-1
80003930:	0821                	addi	a6,a6,8
80003932:	0000                	unimp
80003934:	fcd6                	fsw	fs5,120(sp)
80003936:	ffff                	.2byte	0xffff
80003938:	f805                	bnez	s0,80003868 <data+0x9a0>
8000393a:	ffff                	.2byte	0xffff
8000393c:	d30d                	beqz	a4,8000385e <data+0x996>
8000393e:	ffff                	.2byte	0xffff
80003940:	06da                	slli	a3,a3,0x16
80003942:	0000                	unimp
80003944:	2d44                	.2byte	0x2d44
80003946:	0000                	unimp
80003948:	3154                	.2byte	0x3154
8000394a:	0000                	unimp
8000394c:	0000180b          	.4byte	0x180b
80003950:	0000033f 00002b38 	.8byte	0x2b380000033f
80003958:	d270                	sw	a2,100(a2)
8000395a:	ffff                	.2byte	0xffff
8000395c:	ed11                	bnez	a0,80003978 <data+0xab0>
8000395e:	ffff                	.2byte	0xffff
80003960:	ff65                	bnez	a4,80003958 <data+0xa90>
80003962:	ffff                	.2byte	0xffff
80003964:	2016                	.2byte	0x2016
80003966:	0000                	unimp
80003968:	cedf ffff 1c47      	.byte	0xdf, 0xce, 0xff, 0xff, 0x47, 0x1c
8000396e:	0000                	unimp
80003970:	ffffd403          	lhu	s0,-1(t6)
80003974:	22e2                	.2byte	0x22e2
80003976:	0000                	unimp
80003978:	2e29                	jal	80003c92 <data+0xdca>
8000397a:	0000                	unimp
8000397c:	1126                	slli	sp,sp,0x29
8000397e:	0000                	unimp
80003980:	0139                	addi	sp,sp,14 # 800027c6 <__udivdi3+0x304>
80003982:	0000                	unimp
80003984:	26bd                	jal	80003cf2 <data+0xe2a>
80003986:	0000                	unimp
80003988:	e955                	bnez	a0,80003a3c <data+0xb74>
8000398a:	ffff                	.2byte	0xffff
8000398c:	fffff4c3          	.4byte	0xfffff4c3
80003990:	ffffe76f          	jal	a4,8000298e <__umoddi3+0x16e>
80003994:	1699                	addi	a3,a3,-26
80003996:	0000                	unimp
80003998:	e96e                	fsw	fs11,144(sp)
8000399a:	ffff                	.2byte	0xffff
8000399c:	ecc4                	fsw	fs1,28(s1)
8000399e:	ffff                	.2byte	0xffff
800039a0:	077f                	.2byte	0x77f
800039a2:	0000                	unimp
800039a4:	fffffa2b          	.4byte	0xfffffa2b
800039a8:	0e58                	addi	a4,sp,788
800039aa:	0000                	unimp
800039ac:	dda0                	sw	s0,120(a1)
800039ae:	ffff                	.2byte	0xffff
800039b0:	2901                	jal	80003dc0 <data+0xef8>
800039b2:	0000                	unimp
800039b4:	d45d                	beqz	s0,80003962 <data+0xa9a>
800039b6:	ffff                	.2byte	0xffff
800039b8:	e2ae                	fsw	fa1,68(sp)
800039ba:	ffff                	.2byte	0xffff
800039bc:	fddc                	fsw	fa5,60(a1)
800039be:	ffff                	.2byte	0xffff
800039c0:	cfa2                	sw	s0,220(sp)
800039c2:	ffff                	.2byte	0xffff
800039c4:	e202                	fsw	ft0,4(sp)
800039c6:	ffff                	.2byte	0xffff
800039c8:	e3e6                	fsw	fs9,196(sp)
800039ca:	ffff                	.2byte	0xffff
800039cc:	04e0                	addi	s0,sp,588
800039ce:	0000                	unimp
800039d0:	db3a                	sw	a4,180(sp)
800039d2:	ffff                	.2byte	0xffff
800039d4:	e856                	fsw	fs5,16(sp)
800039d6:	ffff                	.2byte	0xffff
800039d8:	23f1                	jal	80003fa4 <data+0x10dc>
800039da:	0000                	unimp
800039dc:	0c9e                	slli	s9,s9,0x7
800039de:	0000                	unimp
800039e0:	d66c                	sw	a1,108(a2)
800039e2:	ffff                	.2byte	0xffff
800039e4:	000024cf          	fnmadd.s	fs1,ft0,ft0,ft0,rdn
800039e8:	f6e6                	fsw	fs9,108(sp)
800039ea:	ffff                	.2byte	0xffff
800039ec:	ffffdc6f          	jal	s8,800019ea <printhex+0x92>
800039f0:	15b1                	addi	a1,a1,-20
800039f2:	0000                	unimp
800039f4:	f30e                	fsw	ft3,164(sp)
800039f6:	ffff                	.2byte	0xffff
800039f8:	1f95                	addi	t6,t6,-27
800039fa:	0000                	unimp
800039fc:	e4ea                	fsw	fs10,72(sp)
800039fe:	ffff                	.2byte	0xffff
80003a00:	ffffe7cb          	.4byte	0xffffe7cb
80003a04:	d6ea                	sw	s10,108(sp)
80003a06:	ffff                	.2byte	0xffff
80003a08:	0bad                	addi	s7,s7,11
80003a0a:	0000                	unimp
80003a0c:	0000013b          	fir_exec	sp
80003a10:	00001f83          	lh	t6,0(zero) # 0 <threadsense.5>
80003a14:	0000271b          	.4byte	0x271b
80003a18:	1fff                	.2byte	0x1fff
80003a1a:	0000                	unimp
80003a1c:	f502                	fsw	ft0,168(sp)
80003a1e:	ffff                	.2byte	0xffff
80003a20:	ef46                	fsw	fa7,156(sp)
80003a22:	ffff                	.2byte	0xffff
80003a24:	fffffc57          	.4byte	0xfffffc57
80003a28:	000004a3          	sb	zero,9(zero) # 9 <threadsense.5+0x9>
80003a2c:	ffffe647          	.4byte	0xffffe647
80003a30:	02b4                	addi	a3,sp,328
80003a32:	0000                	unimp
80003a34:	1951                	addi	s2,s2,-12 # 800047b4 <data+0x18ec>
80003a36:	0000                	unimp
80003a38:	00001623          	sh	zero,12(zero) # c <threadsense.5+0xc>
80003a3c:	0456                	slli	s0,s0,0x15
80003a3e:	0000                	unimp
80003a40:	00002d53          	fadd.s	fs10,ft0,ft0,rdn
80003a44:	2c09                	jal	80003c56 <data+0xd8e>
80003a46:	0000                	unimp
80003a48:	d736                	sw	a3,172(sp)
80003a4a:	ffff                	.2byte	0xffff
80003a4c:	d68c                	sw	a1,40(a3)
80003a4e:	ffff                	.2byte	0xffff
80003a50:	e25f ffff 2d27      	.byte	0x5f, 0xe2, 0xff, 0xff, 0x27, 0x2d
80003a56:	0000                	unimp
80003a58:	0000152b          	.4byte	0x152b
80003a5c:	eacc                	fsw	fa1,20(a3)
80003a5e:	ffff                	.2byte	0xffff
80003a60:	1ff6                	slli	t6,t6,0x3d
80003a62:	0000                	unimp
80003a64:	da11                	beqz	a2,80003978 <data+0xab0>
80003a66:	ffff                	.2byte	0xffff
80003a68:	fffff93b          	.4byte	0xfffff93b
80003a6c:	000003a7          	.4byte	0x3a7
80003a70:	ff1f ffff e6d0      	.byte	0x1f, 0xff, 0xff, 0xff, 0xd0, 0xe6
80003a76:	ffff                	.2byte	0xffff
80003a78:	1a91                	addi	s5,s5,-28 # 80003594 <data+0x6cc>
80003a7a:	0000                	unimp
80003a7c:	18ea                	slli	a7,a7,0x3a
80003a7e:	0000                	unimp
80003a80:	efba                	fsw	fa4,220(sp)
80003a82:	ffff                	.2byte	0xffff
80003a84:	f43e                	fsw	fa5,40(sp)
80003a86:	ffff                	.2byte	0xffff
80003a88:	e825                	bnez	s0,80003af8 <data+0xc30>
80003a8a:	ffff                	.2byte	0xffff
80003a8c:	dd3e                	sw	a5,184(sp)
80003a8e:	ffff                	.2byte	0xffff
80003a90:	e959                	bnez	a0,80003b26 <data+0xc5e>
80003a92:	ffff                	.2byte	0xffff
80003a94:	d625                	beqz	a2,800039fc <data+0xb34>
80003a96:	ffff                	.2byte	0xffff
80003a98:	0440                	addi	s0,sp,516
80003a9a:	0000                	unimp
80003a9c:	0a9f 0000 047c      	.byte	0x9f, 0x0a, 0x00, 0x00, 0x7c, 0x04
80003aa2:	0000                	unimp
80003aa4:	ffffd6e3          	bge	t6,t6,80003a90 <data+0xbc8>
80003aa8:	22e6                	.2byte	0x22e6
80003aaa:	0000                	unimp
80003aac:	d530                	sw	a2,104(a0)
80003aae:	ffff                	.2byte	0xffff
80003ab0:	00002233          	sltz	tp,zero
80003ab4:	0709                	addi	a4,a4,2
80003ab6:	0000                	unimp
80003ab8:	0b86                	slli	s7,s7,0x1
80003aba:	0000                	unimp
80003abc:	1d86                	slli	s11,s11,0x21
80003abe:	0000                	unimp
80003ac0:	0112                	slli	sp,sp,0x4
80003ac2:	0000                	unimp
80003ac4:	14bc                	addi	a5,sp,616
80003ac6:	0000                	unimp
80003ac8:	2612                	.2byte	0x2612
80003aca:	0000                	unimp
80003acc:	1571                	addi	a0,a0,-4
80003ace:	0000                	unimp
80003ad0:	00000fe3          	beqz	zero,800042ee <data+0x1426>
80003ad4:	093d                	addi	s2,s2,15
80003ad6:	0000                	unimp
80003ad8:	ce3d                	beqz	a2,80003b56 <data+0xc8e>
80003ada:	ffff                	.2byte	0xffff
80003adc:	fdd9                	bnez	a1,80003a7a <data+0xbb2>
80003ade:	ffff                	.2byte	0xffff
80003ae0:	154e                	slli	a0,a0,0x33
80003ae2:	0000                	unimp
80003ae4:	f978                	fsw	fa4,116(a0)
80003ae6:	ffff                	.2byte	0xffff
80003ae8:	cf80                	sw	s0,24(a5)
80003aea:	ffff                	.2byte	0xffff
80003aec:	e26c                	fsw	fa1,68(a2)
80003aee:	ffff                	.2byte	0xffff
80003af0:	1248                	addi	a0,sp,292
80003af2:	0000                	unimp
80003af4:	1c12                	slli	s8,s8,0x24
80003af6:	0000                	unimp
80003af8:	00002d57          	.4byte	0x2d57
80003afc:	d002                	sw	zero,32(sp)
80003afe:	ffff                	.2byte	0xffff
80003b00:	de50                	sw	a2,60(a2)
80003b02:	ffff                	.2byte	0xffff
80003b04:	e37c                	fsw	fa5,68(a4)
80003b06:	ffff                	.2byte	0xffff
80003b08:	df40                	sw	s0,60(a4)
80003b0a:	ffff                	.2byte	0xffff
80003b0c:	f9a9                	bnez	a1,80003a5e <data+0xb96>
80003b0e:	ffff                	.2byte	0xffff
80003b10:	eba1                	bnez	a5,80003b60 <data+0xc98>
80003b12:	ffff                	.2byte	0xffff
80003b14:	1580                	addi	s0,sp,736
80003b16:	0000                	unimp
80003b18:	d248                	sw	a0,36(a2)
80003b1a:	ffff                	.2byte	0xffff
80003b1c:	221d                	jal	80003c42 <data+0xd7a>
80003b1e:	0000                	unimp
80003b20:	00001e63          	bnez	zero,80003b3c <data+0xc74>
80003b24:	272e                	.2byte	0x272e
80003b26:	0000                	unimp
80003b28:	294d                	jal	80003fda <data+0x1112>
80003b2a:	0000                	unimp
80003b2c:	0e96                	slli	t4,t4,0x5
80003b2e:	0000                	unimp
80003b30:	fffffc37          	lui	s8,0xfffff
80003b34:	000002d3          	fadd.s	ft5,ft0,ft0,rne
80003b38:	fa1c                	fsw	fa5,48(a2)
80003b3a:	ffff                	.2byte	0xffff
80003b3c:	2f49                	jal	800042ce <data+0x1406>
80003b3e:	0000                	unimp
80003b40:	ffffe58f          	.4byte	0xffffe58f
80003b44:	ffffee2f          	.4byte	0xffffee2f
80003b48:	12ba                	slli	t0,t0,0x2e
80003b4a:	0000                	unimp
80003b4c:	2772                	.2byte	0x2772
80003b4e:	0000                	unimp
80003b50:	0000296b          	.4byte	0x296b
80003b54:	000012f7          	.4byte	0x12f7
80003b58:	fffff34b          	.4byte	0xfffff34b
80003b5c:	0cb9                	addi	s9,s9,14
80003b5e:	0000                	unimp
80003b60:	ffffda6f          	jal	s4,80001b5e <printnum+0x158>
80003b64:	f4cc                	fsw	fa1,44(s1)
80003b66:	ffff                	.2byte	0xffff
80003b68:	2125                	jal	80003f90 <data+0x10c8>
80003b6a:	0000                	unimp
80003b6c:	00001eb7          	lui	t4,0x1
80003b70:	dede                	sw	s7,124(sp)
80003b72:	ffff                	.2byte	0xffff
80003b74:	1c7c                	addi	a5,sp,572
80003b76:	0000                	unimp
80003b78:	20b9                	jal	80003bc6 <data+0xcfe>
80003b7a:	0000                	unimp
80003b7c:	ef2e                	fsw	fa1,156(sp)
80003b7e:	ffff                	.2byte	0xffff
80003b80:	31f9                	jal	8000384e <data+0x986>
80003b82:	0000                	unimp
80003b84:	31f9                	jal	80003852 <data+0x98a>
80003b86:	0000                	unimp
80003b88:	00001ad7          	.4byte	0x1ad7
80003b8c:	eb9a                	fsw	ft6,212(sp)
80003b8e:	ffff                	.2byte	0xffff
80003b90:	1579                	addi	a0,a0,-2
80003b92:	0000                	unimp
80003b94:	1f1f 0000 dbb6      	.byte	0x1f, 0x1f, 0x00, 0x00, 0xb6, 0xdb
80003b9a:	ffff                	.2byte	0xffff
80003b9c:	01dc                	addi	a5,sp,196
80003b9e:	0000                	unimp
80003ba0:	144d                	addi	s0,s0,-13
80003ba2:	0000                	unimp
80003ba4:	d304                	sw	s1,32(a4)
80003ba6:	ffff                	.2byte	0xffff
80003ba8:	de72                	sw	t3,60(sp)
80003baa:	ffff                	.2byte	0xffff
80003bac:	de84                	sw	s1,56(a3)
80003bae:	ffff                	.2byte	0xffff
80003bb0:	000007d7          	.4byte	0x7d7
80003bb4:	0a8e                	slli	s5,s5,0x3
80003bb6:	0000                	unimp
80003bb8:	dbcd                	beqz	a5,80003b6a <data+0xca2>
80003bba:	ffff                	.2byte	0xffff
80003bbc:	1f66                	slli	t5,t5,0x39
80003bbe:	0000                	unimp
80003bc0:	2abd                	jal	80003d3e <data+0xe76>
80003bc2:	0000                	unimp
80003bc4:	00002087          	flw	ft1,0(zero) # 0 <threadsense.5>
80003bc8:	14d9                	addi	s1,s1,-10 # 80002f6e <data+0xa6>
80003bca:	0000                	unimp
80003bcc:	2228                	.2byte	0x2228
80003bce:	0000                	unimp
80003bd0:	017e                	slli	sp,sp,0x1f
80003bd2:	0000                	unimp
80003bd4:	d624                	sw	s1,104(a2)
80003bd6:	ffff                	.2byte	0xffff
80003bd8:	fce1                	bnez	s1,80003bb0 <data+0xce8>
80003bda:	ffff                	.2byte	0xffff
80003bdc:	0dec                	addi	a1,sp,732
80003bde:	0000                	unimp
80003be0:	fcf0                	fsw	fa2,124(s1)
80003be2:	ffff                	.2byte	0xffff
80003be4:	ffffec07          	.4byte	0xffffec07
80003be8:	fffffaa3          	.4byte	0xfffffaa3
80003bec:	0dcd                	addi	s11,s11,19
80003bee:	0000                	unimp
80003bf0:	ffffd683          	lhu	a3,-1(t6)
80003bf4:	e95c                	fsw	fa5,20(a0)
80003bf6:	ffff                	.2byte	0xffff
80003bf8:	00002efb          	.4byte	0x2efb
80003bfc:	d67c                	sw	a5,108(a2)
80003bfe:	ffff                	.2byte	0xffff
80003c00:	e955                	bnez	a0,80003cb4 <data+0xdec>
80003c02:	ffff                	.2byte	0xffff
80003c04:	17d2                	slli	a5,a5,0x34
80003c06:	0000                	unimp
80003c08:	f415                	bnez	s0,80003b34 <data+0xc6c>
80003c0a:	ffff                	.2byte	0xffff
80003c0c:	30ce                	.2byte	0x30ce
80003c0e:	0000                	unimp
80003c10:	04f1                	addi	s1,s1,28
80003c12:	0000                	unimp
80003c14:	01cc                	addi	a1,sp,196
80003c16:	0000                	unimp
80003c18:	00aa                	slli	ra,ra,0xa
80003c1a:	0000                	unimp
80003c1c:	e73e                	fsw	fa5,140(sp)
80003c1e:	ffff                	.2byte	0xffff
80003c20:	000006cf          	fnmadd.s	fa3,ft0,ft0,ft0,rne
80003c24:	111c                	addi	a5,sp,160
80003c26:	0000                	unimp
80003c28:	f7c2                	fsw	fa6,236(sp)
80003c2a:	ffff                	.2byte	0xffff
80003c2c:	dca6                	sw	s1,120(sp)
80003c2e:	ffff                	.2byte	0xffff
80003c30:	e9aa                	fsw	fa0,208(sp)
80003c32:	ffff                	.2byte	0xffff
80003c34:	058e                	slli	a1,a1,0x3
80003c36:	0000                	unimp
80003c38:	2e0c                	.2byte	0x2e0c
80003c3a:	0000                	unimp
80003c3c:	ffffe267          	.4byte	0xffffe267
80003c40:	f415                	bnez	s0,80003b6c <data+0xca4>
80003c42:	ffff                	.2byte	0xffff
80003c44:	10e5                	addi	ra,ra,-7
80003c46:	0000                	unimp
80003c48:	ffffd28f          	.4byte	0xffffd28f
80003c4c:	00002793          	slti	a5,zero,0
80003c50:	1909                	addi	s2,s2,-30
80003c52:	0000                	unimp
80003c54:	0170                	addi	a2,sp,140
80003c56:	0000                	unimp
80003c58:	037f                	.2byte	0x37f
80003c5a:	0000                	unimp
80003c5c:	e3f9                	bnez	a5,80003d22 <data+0xe5a>
80003c5e:	ffff                	.2byte	0xffff
80003c60:	00001f77          	.4byte	0x1f77
80003c64:	3022                	.2byte	0x3022
80003c66:	0000                	unimp
80003c68:	23c6                	.2byte	0x23c6
80003c6a:	0000                	unimp
80003c6c:	27fa                	.2byte	0x27fa
80003c6e:	0000                	unimp
80003c70:	e77e                	fsw	ft11,140(sp)
80003c72:	ffff                	.2byte	0xffff
80003c74:	20c1                	jal	80003d34 <data+0xe6c>
80003c76:	0000                	unimp
80003c78:	3076                	.2byte	0x3076
80003c7a:	0000                	unimp
80003c7c:	02d4                	addi	a3,sp,324
80003c7e:	0000                	unimp
80003c80:	00000693          	li	a3,0
80003c84:	fffff28b          	.4byte	0xfffff28b
80003c88:	01a2                	slli	gp,gp,0x8
80003c8a:	0000                	unimp
80003c8c:	d985                	beqz	a1,80003bbc <data+0xcf4>
80003c8e:	ffff                	.2byte	0xffff
80003c90:	2656                	.2byte	0x2656
80003c92:	0000                	unimp
80003c94:	d04c                	sw	a1,36(s0)
80003c96:	ffff                	.2byte	0xffff
80003c98:	fffff2c3          	.4byte	0xfffff2c3
80003c9c:	fb26                	fsw	fs1,180(sp)
80003c9e:	ffff                	.2byte	0xffff
80003ca0:	1368                	addi	a0,sp,428
80003ca2:	0000                	unimp
80003ca4:	1c84                	addi	s1,sp,624
80003ca6:	0000                	unimp
80003ca8:	000009cb          	fnmsub.s	fs3,ft0,ft0,ft0,rne
80003cac:	00002f13          	slti	t5,zero,0
80003cb0:	fffff013          	andi	zero,t6,-1
80003cb4:	05d8                	addi	a4,sp,708
80003cb6:	0000                	unimp
80003cb8:	df7a                	sw	t5,188(sp)
80003cba:	ffff                	.2byte	0xffff
80003cbc:	1628                	addi	a0,sp,808
80003cbe:	0000                	unimp
80003cc0:	e4bc                	fsw	fa5,72(s1)
80003cc2:	ffff                	.2byte	0xffff
80003cc4:	e409                	bnez	s0,80003cce <data+0xe06>
80003cc6:	ffff                	.2byte	0xffff
80003cc8:	00000bbb          	fir_exec	s7
80003ccc:	2fc5                	jal	800044bc <data+0x15f4>
80003cce:	0000                	unimp
80003cd0:	1779                	addi	a4,a4,-2
80003cd2:	0000                	unimp
80003cd4:	dd3a                	sw	a4,184(sp)
80003cd6:	ffff                	.2byte	0xffff
80003cd8:	e1be                	fsw	fa5,192(sp)
80003cda:	ffff                	.2byte	0xffff
80003cdc:	04f1                	addi	s1,s1,28
80003cde:	0000                	unimp
80003ce0:	db5c                	sw	a5,52(a4)
80003ce2:	ffff                	.2byte	0xffff
80003ce4:	d384                	sw	s1,32(a5)
80003ce6:	ffff                	.2byte	0xffff
80003ce8:	fffffaeb          	.4byte	0xfffffaeb
80003cec:	f4da                	fsw	fs6,104(sp)
80003cee:	ffff                	.2byte	0xffff
80003cf0:	2645                	jal	80004090 <data+0x11c8>
80003cf2:	0000                	unimp
80003cf4:	f960                	fsw	fs0,116(a0)
80003cf6:	ffff                	.2byte	0xffff
80003cf8:	29ae                	.2byte	0x29ae
80003cfa:	0000                	unimp
80003cfc:	fad9                	bnez	a3,80003c92 <data+0xdca>
80003cfe:	ffff                	.2byte	0xffff
80003d00:	00001deb          	.4byte	0x1deb
80003d04:	f950                	fsw	fa2,52(a0)
80003d06:	ffff                	.2byte	0xffff
80003d08:	065d                	addi	a2,a2,23
80003d0a:	0000                	unimp
80003d0c:	1242                	slli	tp,tp,0x30
80003d0e:	0000                	unimp
80003d10:	fb9c                	fsw	fa5,48(a5)
80003d12:	ffff                	.2byte	0xffff
80003d14:	2b20                	.2byte	0x2b20
80003d16:	0000                	unimp
80003d18:	ffffdb67          	.4byte	0xffffdb67
80003d1c:	dd05                	beqz	a0,80003c54 <data+0xd8c>
80003d1e:	ffff                	.2byte	0xffff
80003d20:	15a4                	addi	s1,sp,744
80003d22:	0000                	unimp
80003d24:	00001733          	sll	a4,zero,zero
80003d28:	da18                	sw	a4,48(a2)
80003d2a:	ffff                	.2byte	0xffff
80003d2c:	ffffd3b7          	lui	t2,0xffffd
80003d30:	eb0a                	fsw	ft2,148(sp)
80003d32:	ffff                	.2byte	0xffff
80003d34:	eb91                	bnez	a5,80003d48 <data+0xe80>
80003d36:	ffff                	.2byte	0xffff
80003d38:	1bdf 0000 01c7      	.byte	0xdf, 0x1b, 0x00, 0x00, 0xc7, 0x01
80003d3e:	0000                	unimp
80003d40:	0000019b          	.4byte	0x19b
80003d44:	f59a                	fsw	ft6,232(sp)
80003d46:	ffff                	.2byte	0xffff
80003d48:	ff8c                	fsw	fa1,56(a5)
80003d4a:	ffff                	.2byte	0xffff
80003d4c:	e714                	fsw	fa3,8(a4)
80003d4e:	ffff                	.2byte	0xffff
80003d50:	000004d3          	fadd.s	fs1,ft0,ft0,rne
80003d54:	134a                	slli	t1,t1,0x32
80003d56:	0000                	unimp
80003d58:	1e05                	addi	t3,t3,-31
80003d5a:	0000                	unimp
80003d5c:	0000122f          	.4byte	0x122f
80003d60:	18ce                	slli	a7,a7,0x33
80003d62:	0000                	unimp
80003d64:	ffffe6ef          	jal	a3,80002d62 <__eqdf2+0x224>
80003d68:	d509                	beqz	a0,80003c72 <data+0xdaa>
80003d6a:	ffff                	.2byte	0xffff
80003d6c:	00000d13          	li	s10,0
80003d70:	0000124f          	fnmadd.s	ft4,ft0,ft0,ft0,rtz
80003d74:	000030b7          	lui	ra,0x3
80003d78:	d5ec                	sw	a1,108(a1)
80003d7a:	ffff                	.2byte	0xffff
80003d7c:	fe3a                	fsw	fa4,60(sp)
80003d7e:	ffff                	.2byte	0xffff
80003d80:	fffff807          	.4byte	0xfffff807
80003d84:	0e49                	addi	t3,t3,18
80003d86:	0000                	unimp
80003d88:	de7c                	sw	a5,124(a2)
80003d8a:	ffff                	.2byte	0xffff
80003d8c:	000025a3          	sw	zero,11(zero) # b <threadsense.5+0xb>
80003d90:	0768                	addi	a0,sp,908
80003d92:	0000                	unimp
80003d94:	ffffebe3          	bltu	t6,t6,80003d8a <data+0xec2>
80003d98:	d0a8                	sw	a0,96(s1)
80003d9a:	ffff                	.2byte	0xffff
80003d9c:	eb0d                	bnez	a4,80003dce <data+0xf06>
80003d9e:	ffff                	.2byte	0xffff
80003da0:	d116                	sw	t0,160(sp)
80003da2:	ffff                	.2byte	0xffff
80003da4:	dcc0                	sw	s0,60(s1)
80003da6:	ffff                	.2byte	0xffff
80003da8:	f0c4                	fsw	fs1,36(s1)
80003daa:	ffff                	.2byte	0xffff
80003dac:	ee20                	fsw	fs0,88(a2)
80003dae:	ffff                	.2byte	0xffff
80003db0:	fa51                	bnez	a2,80003d44 <data+0xe7c>
80003db2:	ffff                	.2byte	0xffff
80003db4:	ffffdaa3          	.4byte	0xffffdaa3
80003db8:	000021e7          	.4byte	0x21e7
80003dbc:	2dec                	.2byte	0x2dec
80003dbe:	0000                	unimp
80003dc0:	023d                	addi	tp,tp,15 # f <threadsense.5+0xf>
80003dc2:	0000                	unimp
80003dc4:	ffffef73          	csrrsi	t5,0xfff,31
80003dc8:	e300                	fsw	fs0,0(a4)
80003dca:	ffff                	.2byte	0xffff
80003dcc:	d510                	sw	a2,40(a0)
80003dce:	ffff                	.2byte	0xffff
80003dd0:	d0bd                	beqz	s1,80003d36 <data+0xe6e>
80003dd2:	ffff                	.2byte	0xffff
80003dd4:	cf04                	sw	s1,24(a4)
80003dd6:	ffff                	.2byte	0xffff
80003dd8:	0000193f 00001b8a 	.8byte	0x1b8a0000193f
80003de0:	ffffe7f3          	csrrsi	a5,0xfff,31
80003de4:	2048                	.2byte	0x2048
80003de6:	0000                	unimp
80003de8:	f69d                	bnez	a3,80003d16 <data+0xe4e>
80003dea:	ffff                	.2byte	0xffff
80003dec:	00002c43          	fmadd.s	fs8,ft0,ft0,ft0,rdn
80003df0:	1eff                	.2byte	0x1eff
80003df2:	0000                	unimp
80003df4:	fe89                	bnez	a3,80003d0e <data+0xe46>
80003df6:	ffff                	.2byte	0xffff
80003df8:	f87d                	bnez	s0,80003dee <data+0xf26>
80003dfa:	ffff                	.2byte	0xffff
80003dfc:	e506                	fsw	ft1,136(sp)
80003dfe:	ffff                	.2byte	0xffff
80003e00:	dad2                	sw	s4,116(sp)
80003e02:	ffff                	.2byte	0xffff
80003e04:	08f9                	addi	a7,a7,30 # 101e <buflen.3+0xf9e>
80003e06:	0000                	unimp
80003e08:	d8a9                	beqz	s1,80003d5a <data+0xe92>
80003e0a:	ffff                	.2byte	0xffff
80003e0c:	143a                	slli	s0,s0,0x2e
80003e0e:	0000                	unimp
80003e10:	26dc                	.2byte	0x26dc
80003e12:	0000                	unimp
80003e14:	db51                	beqz	a4,80003da8 <data+0xee0>
80003e16:	ffff                	.2byte	0xffff
80003e18:	3146                	.2byte	0x3146
80003e1a:	0000                	unimp
80003e1c:	29f2                	.2byte	0x29f2
80003e1e:	0000                	unimp
80003e20:	ea11                	bnez	a2,80003e34 <data+0xf6c>
80003e22:	ffff                	.2byte	0xffff
80003e24:	f00a                	fsw	ft2,32(sp)
80003e26:	ffff                	.2byte	0xffff
80003e28:	e612                	fsw	ft4,12(sp)
80003e2a:	ffff                	.2byte	0xffff
80003e2c:	1662                	slli	a2,a2,0x38
80003e2e:	0000                	unimp
80003e30:	fcad                	bnez	s1,80003daa <data+0xee2>
80003e32:	ffff                	.2byte	0xffff
80003e34:	d5f8                	sw	a4,108(a1)
80003e36:	ffff                	.2byte	0xffff
80003e38:	124e                	slli	tp,tp,0x33
80003e3a:	0000                	unimp
80003e3c:	30ea                	.2byte	0x30ea
80003e3e:	0000                	unimp
80003e40:	fffff76b          	.4byte	0xfffff76b
80003e44:	274e                	.2byte	0x274e
80003e46:	0000                	unimp
80003e48:	d3fa                	sw	t5,228(sp)
80003e4a:	ffff                	.2byte	0xffff
80003e4c:	fffffa27          	.4byte	0xfffffa27
80003e50:	2852                	.2byte	0x2852
80003e52:	0000                	unimp
80003e54:	1f39                	addi	t5,t5,-18
80003e56:	0000                	unimp
80003e58:	e3b2                	fsw	fa2,196(sp)
80003e5a:	ffff                	.2byte	0xffff
80003e5c:	de46                	sw	a7,60(sp)
80003e5e:	ffff                	.2byte	0xffff
80003e60:	0d81                	addi	s11,s11,0
80003e62:	0000                	unimp
80003e64:	00000c4f          	fnmadd.s	fs8,ft0,ft0,ft0,rne
80003e68:	d888                	sw	a0,48(s1)
80003e6a:	ffff                	.2byte	0xffff
80003e6c:	fa80                	fsw	fs0,48(a3)
80003e6e:	ffff                	.2byte	0xffff
80003e70:	d8d8                	sw	a4,52(s1)
80003e72:	ffff                	.2byte	0xffff
80003e74:	0305                	addi	t1,t1,1
80003e76:	0000                	unimp
80003e78:	1185                	addi	gp,gp,-31 # 800030bd <data+0x1f5>
80003e7a:	0000                	unimp
80003e7c:	e5a9                	bnez	a1,80003ec6 <data+0xffe>
80003e7e:	ffff                	.2byte	0xffff
80003e80:	d9fe                	sw	t6,240(sp)
80003e82:	ffff                	.2byte	0xffff
80003e84:	1c2e                	slli	s8,s8,0x2b
80003e86:	0000                	unimp
80003e88:	00002be3          	.4byte	0x2be3
80003e8c:	ceda                	sw	s6,92(sp)
80003e8e:	ffff                	.2byte	0xffff
80003e90:	2980                	.2byte	0x2980
80003e92:	0000                	unimp
80003e94:	2b2a                	.2byte	0x2b2a
80003e96:	0000                	unimp
80003e98:	2acc                	.2byte	0x2acc
80003e9a:	0000                	unimp
80003e9c:	e191                	bnez	a1,80003ea0 <data+0xfd8>
80003e9e:	ffff                	.2byte	0xffff
80003ea0:	e934                	fsw	fa3,80(a0)
80003ea2:	ffff                	.2byte	0xffff
80003ea4:	dede                	sw	s7,124(sp)
80003ea6:	ffff                	.2byte	0xffff
80003ea8:	000029f3          	csrr	s3,ustatus
80003eac:	17e1                	addi	a5,a5,-8
80003eae:	0000                	unimp
80003eb0:	e6d6                	fsw	fs5,76(sp)
80003eb2:	ffff                	.2byte	0xffff
80003eb4:	0a41                	addi	s4,s4,16
80003eb6:	0000                	unimp
80003eb8:	16ca                	slli	a3,a3,0x32
80003eba:	0000                	unimp
80003ebc:	1040                	addi	s0,sp,36
80003ebe:	0000                	unimp
80003ec0:	ff8e                	fsw	ft3,252(sp)
80003ec2:	ffff                	.2byte	0xffff
80003ec4:	1cc4                	addi	s1,sp,628
80003ec6:	0000                	unimp
80003ec8:	d868                	sw	a0,116(s0)
80003eca:	ffff                	.2byte	0xffff
80003ecc:	f5e1                	bnez	a1,80003e94 <data+0xfcc>
80003ece:	ffff                	.2byte	0xffff
80003ed0:	09fd                	addi	s3,s3,31 # 201f <buflen.3+0x1f9f>
80003ed2:	0000                	unimp
80003ed4:	ee19                	bnez	a2,80003ef2 <data+0x102a>
80003ed6:	ffff                	.2byte	0xffff
80003ed8:	0626                	slli	a2,a2,0x9
80003eda:	0000                	unimp
80003edc:	e57e                	fsw	ft11,136(sp)
80003ede:	ffff                	.2byte	0xffff
80003ee0:	2c68                	.2byte	0x2c68
80003ee2:	0000                	unimp
80003ee4:	10ae                	slli	ra,ra,0x2b
80003ee6:	0000                	unimp
80003ee8:	11fd                	addi	gp,gp,-1 # 800065a7 <_tbss_end+0x763>
80003eea:	0000                	unimp
80003eec:	d340                	sw	s0,36(a4)
80003eee:	ffff                	.2byte	0xffff
80003ef0:	e1b4                	fsw	fa3,64(a1)
80003ef2:	ffff                	.2byte	0xffff
80003ef4:	fffff183          	.4byte	0xfffff183
80003ef8:	eaea                	fsw	fs10,84(sp)
80003efa:	ffff                	.2byte	0xffff
80003efc:	edb2                	fsw	fa2,216(sp)
80003efe:	ffff                	.2byte	0xffff
80003f00:	dbb1                	beqz	a5,80003e54 <data+0xf8c>
80003f02:	ffff                	.2byte	0xffff
80003f04:	e4cd                	bnez	s1,80003fae <data+0x10e6>
80003f06:	ffff                	.2byte	0xffff
80003f08:	ee8d                	bnez	a3,80003f42 <data+0x107a>
80003f0a:	ffff                	.2byte	0xffff
80003f0c:	d331                	beqz	a4,80003e50 <data+0xf88>
80003f0e:	ffff                	.2byte	0xffff
80003f10:	ffffddf7          	.4byte	0xffffddf7
80003f14:	e759                	bnez	a4,80003fa2 <data+0x10da>
80003f16:	ffff                	.2byte	0xffff
80003f18:	e6c1                	bnez	a3,80003fa0 <data+0x10d8>
80003f1a:	ffff                	.2byte	0xffff
80003f1c:	f92a                	fsw	fa0,176(sp)
80003f1e:	ffff                	.2byte	0xffff
80003f20:	fffff837          	lui	a6,0xfffff
80003f24:	deb4                	sw	a3,120(a3)
80003f26:	ffff                	.2byte	0xffff
80003f28:	ffffdf0b          	.4byte	0xffffdf0b
80003f2c:	110c                	addi	a1,sp,160
80003f2e:	0000                	unimp
80003f30:	1af5                	addi	s5,s5,-3
80003f32:	0000                	unimp
80003f34:	27d5                	jal	80004718 <data+0x1850>
80003f36:	0000                	unimp
80003f38:	ef4d                	bnez	a4,80003ff2 <data+0x112a>
80003f3a:	ffff                	.2byte	0xffff
80003f3c:	ffffe883          	.4byte	0xffffe883
80003f40:	1299                	addi	t0,t0,-26 # 800017aa <thread_entry+0x3c>
80003f42:	0000                	unimp
80003f44:	f9b5                	bnez	a1,80003eb8 <data+0xff0>
80003f46:	ffff                	.2byte	0xffff
80003f48:	1064                	addi	s1,sp,44
80003f4a:	0000                	unimp
80003f4c:	ea96                	fsw	ft5,84(sp)
80003f4e:	ffff                	.2byte	0xffff
80003f50:	19ce                	slli	s3,s3,0x33
80003f52:	0000                	unimp
80003f54:	e48a                	fsw	ft2,72(sp)
80003f56:	ffff                	.2byte	0xffff
80003f58:	00000213          	li	tp,0
80003f5c:	1436                	slli	s0,s0,0x2d
80003f5e:	0000                	unimp
80003f60:	2738                	.2byte	0x2738
80003f62:	0000                	unimp
80003f64:	e211                	bnez	a2,80003f68 <data+0x10a0>
80003f66:	ffff                	.2byte	0xffff
80003f68:	00001977          	.4byte	0x1977
80003f6c:	d6ec                	sw	a1,108(a3)
80003f6e:	ffff                	.2byte	0xffff
80003f70:	00000593          	li	a1,0
80003f74:	d261                	beqz	a2,80003f34 <data+0x106c>
80003f76:	ffff                	.2byte	0xffff
80003f78:	f69f ffff 1344      	.byte	0x9f, 0xf6, 0xff, 0xff, 0x44, 0x13
80003f7e:	0000                	unimp
80003f80:	e92e                	fsw	fa1,144(sp)
80003f82:	ffff                	.2byte	0xffff
80003f84:	0000172b          	.4byte	0x172b
80003f88:	1875                	addi	a6,a6,-3 # ffffeffd <__global_pointer$+0x7fff8a55>
80003f8a:	0000                	unimp
80003f8c:	f924                	fsw	fs1,112(a0)
80003f8e:	ffff                	.2byte	0xffff
80003f90:	3084                	.2byte	0x3084
80003f92:	0000                	unimp
80003f94:	00003137          	lui	sp,0x3
80003f98:	0000244f          	fnmadd.s	fs0,ft0,ft0,ft0,rdn
80003f9c:	fffff6bb          	.4byte	0xfffff6bb
80003fa0:	ffffddeb          	.4byte	0xffffddeb
80003fa4:	d15a                	sw	s6,160(sp)
80003fa6:	ffff                	.2byte	0xffff
80003fa8:	ffffd5c7          	.4byte	0xffffd5c7
80003fac:	2adf 0000 2b2f      	.byte	0xdf, 0x2a, 0x00, 0x00, 0x2f, 0x2b
80003fb2:	0000                	unimp
80003fb4:	f714                	fsw	fa3,40(a4)
80003fb6:	ffff                	.2byte	0xffff
80003fb8:	ffffe163          	bltu	t6,t6,8000379a <data+0x8d2>
80003fbc:	0bc8                	addi	a0,sp,468
80003fbe:	0000                	unimp
80003fc0:	22c8                	.2byte	0x22c8
80003fc2:	0000                	unimp
80003fc4:	000023c7          	fmsub.s	ft7,ft0,ft0,ft0,rdn
80003fc8:	285d                	jal	8000407e <data+0x11b6>
80003fca:	0000                	unimp
80003fcc:	0a96                	slli	s5,s5,0x5
80003fce:	0000                	unimp
80003fd0:	d651                	beqz	a2,80003f5c <data+0x1094>
80003fd2:	ffff                	.2byte	0xffff
80003fd4:	f871                	bnez	s0,80003fa8 <data+0x10e0>
80003fd6:	ffff                	.2byte	0xffff
80003fd8:	eccd                	bnez	s1,80004092 <data+0x11ca>
80003fda:	ffff                	.2byte	0xffff
80003fdc:	2f89                	jal	8000472e <data+0x1866>
80003fde:	0000                	unimp
80003fe0:	0c81                	addi	s9,s9,0
80003fe2:	0000                	unimp
80003fe4:	d444                	sw	s1,44(s0)
80003fe6:	ffff                	.2byte	0xffff
80003fe8:	d475                	beqz	s0,80003fd4 <data+0x110c>
80003fea:	ffff                	.2byte	0xffff
80003fec:	e014                	fsw	fa3,0(s0)
80003fee:	ffff                	.2byte	0xffff
80003ff0:	d8a4                	sw	s1,112(s1)
80003ff2:	ffff                	.2byte	0xffff
80003ff4:	fd14                	fsw	fa3,56(a0)
80003ff6:	ffff                	.2byte	0xffff
80003ff8:	2559                	jal	8000467e <data+0x17b6>
80003ffa:	0000                	unimp
80003ffc:	f3d2                	fsw	fs4,228(sp)
80003ffe:	ffff                	.2byte	0xffff
80004000:	ffffe23f 00000bce 	.8byte	0xbceffffe23f
80004008:	1ef6                	slli	t4,t4,0x3d
8000400a:	0000                	unimp
8000400c:	ffffe0c3          	.4byte	0xffffe0c3
80004010:	0b05                	addi	s6,s6,1 # 800025c9 <__udivdi3+0x107>
80004012:	0000                	unimp
80004014:	1145                	addi	sp,sp,-15 # 2ff1 <buflen.3+0x2f71>
80004016:	0000                	unimp
80004018:	097e                	slli	s2,s2,0x1f
8000401a:	0000                	unimp
8000401c:	00001aef          	jal	s5,8000501c <coeffs+0x214>
80004020:	149f 0000 1145      	.byte	0x9f, 0x14, 0x00, 0x00, 0x45, 0x11
80004026:	0000                	unimp
80004028:	000013cf          	fnmadd.s	ft7,ft0,ft0,ft0,rtz
8000402c:	0dcd                	addi	s11,s11,19
8000402e:	0000                	unimp
80004030:	d659                	beqz	a2,80003fbe <data+0x10f6>
80004032:	ffff                	.2byte	0xffff
80004034:	2732                	.2byte	0x2732
80004036:	0000                	unimp
80004038:	e795                	bnez	a5,80004064 <data+0x119c>
8000403a:	ffff                	.2byte	0xffff
8000403c:	2b21                	jal	80004554 <data+0x168c>
8000403e:	0000                	unimp
80004040:	18f8                	addi	a4,sp,124
80004042:	0000                	unimp
80004044:	ffffddf3          	csrrwi	s11,0xfff,31
80004048:	03b8                	addi	a4,sp,456
8000404a:	0000                	unimp
8000404c:	2149                	jal	800044ce <data+0x1606>
8000404e:	0000                	unimp
80004050:	00000863          	beqz	zero,80004060 <data+0x1198>
80004054:	2285                	jal	800041b4 <data+0x12ec>
80004056:	0000                	unimp
80004058:	1ed2                	slli	t4,t4,0x34
8000405a:	0000                	unimp
8000405c:	e2e4                	fsw	fs1,68(a3)
8000405e:	ffff                	.2byte	0xffff
80004060:	28c9                	jal	80004132 <data+0x126a>
80004062:	0000                	unimp
80004064:	00002547          	fmsub.s	fa0,ft0,ft0,ft0,rdn
80004068:	f4f9                	bnez	s1,80004036 <data+0x116e>
8000406a:	ffff                	.2byte	0xffff
8000406c:	cf6d                	beqz	a4,80004166 <data+0x129e>
8000406e:	ffff                	.2byte	0xffff
80004070:	fffff05b          	.4byte	0xfffff05b
80004074:	e852                	fsw	fs4,16(sp)
80004076:	ffff                	.2byte	0xffff
80004078:	fffff53f 0000049a 	.8byte	0x49afffff53f
80004080:	2620                	.2byte	0x2620
80004082:	0000                	unimp
80004084:	e236                	fsw	fa3,4(sp)
80004086:	ffff                	.2byte	0xffff
80004088:	175d                	addi	a4,a4,-9
8000408a:	0000                	unimp
8000408c:	ff25                	bnez	a4,80004004 <data+0x113c>
8000408e:	ffff                	.2byte	0xffff
80004090:	0000257b          	.4byte	0x257b
80004094:	eedc                	fsw	fa5,28(a3)
80004096:	ffff                	.2byte	0xffff
80004098:	e814                	fsw	fa3,16(s0)
8000409a:	ffff                	.2byte	0xffff
8000409c:	081a                	slli	a6,a6,0x6
8000409e:	0000                	unimp
800040a0:	ce21                	beqz	a2,800040f8 <data+0x1230>
800040a2:	ffff                	.2byte	0xffff
800040a4:	00002de3          	.4byte	0x2de3
800040a8:	ffffe3e7          	.4byte	0xffffe3e7
800040ac:	d67a                	sw	t5,44(sp)
800040ae:	ffff                	.2byte	0xffff
800040b0:	2315                	jal	800045d4 <data+0x170c>
800040b2:	0000                	unimp
800040b4:	fd7c                	fsw	fa5,124(a0)
800040b6:	ffff                	.2byte	0xffff
800040b8:	ffffcf9b          	.4byte	0xffffcf9b
800040bc:	0a0d                	addi	s4,s4,3
800040be:	0000                	unimp
800040c0:	00000d6f          	jal	s10,800040c0 <data+0x11f8>
800040c4:	00000553          	fadd.s	fa0,ft0,ft0,rne
800040c8:	f956                	fsw	fs5,176(sp)
800040ca:	ffff                	.2byte	0xffff
800040cc:	e3d2                	fsw	fs4,196(sp)
800040ce:	ffff                	.2byte	0xffff
800040d0:	f5d8                	fsw	fa4,44(a1)
800040d2:	ffff                	.2byte	0xffff
800040d4:	ffffe627          	.4byte	0xffffe627
800040d8:	f8b6                	fsw	fa3,112(sp)
800040da:	ffff                	.2byte	0xffff
800040dc:	eca1                	bnez	s1,80004134 <data+0x126c>
800040de:	ffff                	.2byte	0xffff
800040e0:	ffffd96f          	jal	s2,800020de <sprintf+0xb0>
800040e4:	00001faf          	.4byte	0x1faf
800040e8:	ee0e                	fsw	ft3,28(sp)
800040ea:	ffff                	.2byte	0xffff
800040ec:	fbca                	fsw	fs2,244(sp)
800040ee:	ffff                	.2byte	0xffff
800040f0:	d601                	beqz	a2,80003ff8 <data+0x1130>
800040f2:	ffff                	.2byte	0xffff
800040f4:	154d                	addi	a0,a0,-13
800040f6:	0000                	unimp
800040f8:	ce64                	sw	s1,92(a2)
800040fa:	ffff                	.2byte	0xffff
800040fc:	2e21                	jal	80004414 <data+0x154c>
800040fe:	0000                	unimp
80004100:	00002983          	lw	s3,0(zero) # 0 <threadsense.5>
80004104:	17c1                	addi	a5,a5,-16
80004106:	0000                	unimp
80004108:	fb46                	fsw	fa7,180(sp)
8000410a:	ffff                	.2byte	0xffff
8000410c:	1cfe                	slli	s9,s9,0x3f
8000410e:	0000                	unimp
80004110:	d49d                	beqz	s1,8000403e <data+0x1176>
80004112:	ffff                	.2byte	0xffff
80004114:	155a                	slli	a0,a0,0x36
80004116:	0000                	unimp
80004118:	fffff317          	auipc	t1,0xfffff
8000411c:	d4bd                	beqz	s1,8000408a <data+0x11c2>
8000411e:	ffff                	.2byte	0xffff
80004120:	113d                	addi	sp,sp,-17
80004122:	0000                	unimp
80004124:	08fe                	slli	a7,a7,0x1f
80004126:	0000                	unimp
80004128:	ffffdd37          	lui	s10,0xffffd
8000412c:	0252                	slli	tp,tp,0x14
8000412e:	0000                	unimp
80004130:	ffffd47b          	.4byte	0xffffd47b
80004134:	ded2                	sw	s4,124(sp)
80004136:	ffff                	.2byte	0xffff
80004138:	da5f ffff 13ea      	.byte	0x5f, 0xda, 0xff, 0xff, 0xea, 0x13
8000413e:	0000                	unimp
80004140:	1625                	addi	a2,a2,-23
80004142:	0000                	unimp
80004144:	05b4                	addi	a3,sp,712
80004146:	0000                	unimp
80004148:	29bc                	.2byte	0x29bc
8000414a:	0000                	unimp
8000414c:	d9fd                	beqz	a1,80004142 <data+0x127a>
8000414e:	ffff                	.2byte	0xffff
80004150:	1ddc                	addi	a5,sp,756
80004152:	0000                	unimp
80004154:	f072                	fsw	ft8,32(sp)
80004156:	ffff                	.2byte	0xffff
80004158:	f89e                	fsw	ft7,112(sp)
8000415a:	ffff                	.2byte	0xffff
8000415c:	294a                	.2byte	0x294a
8000415e:	0000                	unimp
80004160:	de21                	beqz	a2,800040b8 <data+0x11f0>
80004162:	ffff                	.2byte	0xffff
80004164:	000018ab          	.4byte	0x18ab
80004168:	f314                	fsw	fa3,32(a4)
8000416a:	ffff                	.2byte	0xffff
8000416c:	ffffe623          	.4byte	0xffffe623
80004170:	fbf8                	fsw	fa4,116(a5)
80004172:	ffff                	.2byte	0xffff
80004174:	f378                	fsw	fa4,100(a4)
80004176:	ffff                	.2byte	0xffff
80004178:	e244                	fsw	fs1,4(a2)
8000417a:	ffff                	.2byte	0xffff
8000417c:	fffff37b          	.4byte	0xfffff37b
80004180:	d939                	beqz	a0,800040d6 <data+0x120e>
80004182:	ffff                	.2byte	0xffff
80004184:	0f8a                	slli	t6,t6,0x2
80004186:	0000                	unimp
80004188:	de79                	beqz	a2,80004166 <data+0x129e>
8000418a:	ffff                	.2byte	0xffff
8000418c:	dfd6                	sw	s5,252(sp)
8000418e:	ffff                	.2byte	0xffff
80004190:	f2e4                	fsw	fs1,100(a3)
80004192:	ffff                	.2byte	0xffff
80004194:	0390                	addi	a2,sp,448
80004196:	0000                	unimp
80004198:	ffffe693          	ori	a3,t6,-1
8000419c:	d221                	beqz	a2,800040dc <data+0x1214>
8000419e:	ffff                	.2byte	0xffff
800041a0:	da8e                	sw	gp,116(sp)
800041a2:	ffff                	.2byte	0xffff
800041a4:	f5ca                	fsw	fs2,232(sp)
800041a6:	ffff                	.2byte	0xffff
800041a8:	00000673          	.4byte	0x673
800041ac:	e109                	bnez	a0,800041ae <data+0x12e6>
800041ae:	ffff                	.2byte	0xffff
800041b0:	069c                	addi	a5,sp,832
800041b2:	0000                	unimp
800041b4:	12d2                	slli	t0,t0,0x34
800041b6:	0000                	unimp
800041b8:	000026f3          	csrr	a3,ustatus
800041bc:	eac1                	bnez	a3,8000424c <data+0x1384>
800041be:	ffff                	.2byte	0xffff
800041c0:	ffffe687          	.4byte	0xffffe687
800041c4:	1eae                	slli	t4,t4,0x2b
800041c6:	0000                	unimp
800041c8:	f6be                	fsw	fa5,108(sp)
800041ca:	ffff                	.2byte	0xffff
800041cc:	d262                	sw	s8,36(sp)
800041ce:	ffff                	.2byte	0xffff
800041d0:	dd20                	sw	s0,120(a0)
800041d2:	ffff                	.2byte	0xffff
800041d4:	215c                	.2byte	0x215c
800041d6:	0000                	unimp
800041d8:	2dad                	jal	80004852 <data+0x198a>
800041da:	0000                	unimp
800041dc:	ed41                	bnez	a0,80004274 <data+0x13ac>
800041de:	ffff                	.2byte	0xffff
800041e0:	00000807          	.4byte	0x807
800041e4:	eec1                	bnez	a3,8000427c <data+0x13b4>
800041e6:	ffff                	.2byte	0xffff
800041e8:	0564                	addi	s1,sp,652
800041ea:	0000                	unimp
800041ec:	d1ff                	.2byte	0xd1ff
800041ee:	ffff                	.2byte	0xffff
800041f0:	1439                	addi	s0,s0,-18
800041f2:	0000                	unimp
800041f4:	19a8                	addi	a0,sp,248
800041f6:	0000                	unimp
800041f8:	f77a                	fsw	ft10,172(sp)
800041fa:	ffff                	.2byte	0xffff
800041fc:	1f72                	slli	t5,t5,0x3c
800041fe:	0000                	unimp
80004200:	f731                	bnez	a4,8000414c <data+0x1284>
80004202:	ffff                	.2byte	0xffff
80004204:	000007f3          	.4byte	0x7f3
80004208:	00003147          	fmsub.s	ft2,ft0,ft0,ft0,rup
8000420c:	1c16                	slli	s8,s8,0x25
8000420e:	0000                	unimp
80004210:	ffffd983          	lhu	s3,-1(t6)
80004214:	e5da                	fsw	fs6,200(sp)
80004216:	ffff                	.2byte	0xffff
80004218:	00002037          	lui	zero,0x2
8000421c:	e611                	bnez	a2,80004228 <data+0x1360>
8000421e:	ffff                	.2byte	0xffff
80004220:	0da4                	addi	s1,sp,728
80004222:	0000                	unimp
80004224:	f4aa                	fsw	fa0,104(sp)
80004226:	ffff                	.2byte	0xffff
80004228:	f91a                	fsw	ft6,176(sp)
8000422a:	ffff                	.2byte	0xffff
8000422c:	e240                	fsw	fs0,4(a2)
8000422e:	ffff                	.2byte	0xffff
80004230:	d57c                	sw	a5,108(a0)
80004232:	ffff                	.2byte	0xffff
80004234:	ee0c                	fsw	fa1,24(a2)
80004236:	ffff                	.2byte	0xffff
80004238:	ff01                	bnez	a4,80004150 <data+0x1288>
8000423a:	ffff                	.2byte	0xffff
8000423c:	ffffee03          	.4byte	0xffffee03
80004240:	ffffdabb          	.4byte	0xffffdabb
80004244:	000027bf fffff265 	.8byte	0xfffff265000027bf
8000424c:	ffffe9db          	.4byte	0xffffe9db
80004250:	171a                	slli	a4,a4,0x26
80004252:	0000                	unimp
80004254:	ee12                	fsw	ft4,28(sp)
80004256:	ffff                	.2byte	0xffff
80004258:	091c                	addi	a5,sp,144
8000425a:	0000                	unimp
8000425c:	ed21                	bnez	a0,800042b4 <data+0x13ec>
8000425e:	ffff                	.2byte	0xffff
80004260:	00000ed3          	fadd.s	ft9,ft0,ft0,rne
80004264:	dc80                	sw	s0,56(s1)
80004266:	ffff                	.2byte	0xffff
80004268:	f120                	fsw	fs0,96(a0)
8000426a:	ffff                	.2byte	0xffff
8000426c:	f10c                	fsw	fa1,32(a0)
8000426e:	ffff                	.2byte	0xffff
80004270:	2828                	.2byte	0x2828
80004272:	0000                	unimp
80004274:	1a9a                	slli	s5,s5,0x26
80004276:	0000                	unimp
80004278:	de7d                	beqz	a2,80004276 <data+0x13ae>
8000427a:	ffff                	.2byte	0xffff
8000427c:	ed59                	bnez	a0,8000431a <data+0x1452>
8000427e:	ffff                	.2byte	0xffff
80004280:	f08d                	bnez	s1,800041a2 <data+0x12da>
80004282:	ffff                	.2byte	0xffff
80004284:	ddc4                	sw	s1,60(a1)
80004286:	ffff                	.2byte	0xffff
80004288:	d76e                	sw	s11,172(sp)
8000428a:	ffff                	.2byte	0xffff
8000428c:	fffffc0f          	.4byte	0xfffffc0f
80004290:	f59e                	fsw	ft7,232(sp)
80004292:	ffff                	.2byte	0xffff
80004294:	29a5                	jal	8000470c <data+0x1844>
80004296:	0000                	unimp
80004298:	1420                	addi	s0,sp,552
8000429a:	0000                	unimp
8000429c:	d142                	sw	a6,160(sp)
8000429e:	ffff                	.2byte	0xffff
800042a0:	ec50                	fsw	fa2,28(s0)
800042a2:	ffff                	.2byte	0xffff
800042a4:	db3a                	sw	a4,180(sp)
800042a6:	ffff                	.2byte	0xffff
800042a8:	e581                	bnez	a1,800042b0 <data+0x13e8>
800042aa:	ffff                	.2byte	0xffff
800042ac:	f3cc                	fsw	fa1,36(a5)
800042ae:	ffff                	.2byte	0xffff
800042b0:	fb46                	fsw	fa7,180(sp)
800042b2:	ffff                	.2byte	0xffff
800042b4:	1682                	slli	a3,a3,0x20
800042b6:	0000                	unimp
800042b8:	000013cf          	fnmadd.s	ft7,ft0,ft0,ft0,rtz
800042bc:	0801                	addi	a6,a6,0
800042be:	0000                	unimp
800042c0:	0c40                	addi	s0,sp,532
800042c2:	0000                	unimp
800042c4:	d434                	sw	a3,104(s0)
800042c6:	ffff                	.2byte	0xffff
800042c8:	23dc                	.2byte	0x23dc
800042ca:	0000                	unimp
800042cc:	fffff15b          	.4byte	0xfffff15b
800042d0:	f446                	fsw	fa7,40(sp)
800042d2:	ffff                	.2byte	0xffff
800042d4:	faf8                	fsw	fa4,116(a3)
800042d6:	ffff                	.2byte	0xffff
800042d8:	107c                	addi	a5,sp,44
800042da:	0000                	unimp
800042dc:	d119                	beqz	a0,800041e2 <data+0x131a>
800042de:	ffff                	.2byte	0xffff
800042e0:	0978                	addi	a4,sp,156
800042e2:	0000                	unimp
800042e4:	cf9c                	sw	a5,24(a5)
800042e6:	ffff                	.2byte	0xffff
800042e8:	f425                	bnez	s0,80004250 <data+0x1388>
800042ea:	ffff                	.2byte	0xffff
800042ec:	ff9f ffff 1c36      	.byte	0x9f, 0xff, 0xff, 0xff, 0x36, 0x1c
800042f2:	0000                	unimp
800042f4:	04a2                	slli	s1,s1,0x8
800042f6:	0000                	unimp
800042f8:	1ef8                	addi	a4,sp,892
800042fa:	0000                	unimp
800042fc:	dac2                	sw	a6,116(sp)
800042fe:	ffff                	.2byte	0xffff
80004300:	1466                	slli	s0,s0,0x39
80004302:	0000                	unimp
80004304:	00002867          	.4byte	0x2867
80004308:	08d1                	addi	a7,a7,20
8000430a:	0000                	unimp
8000430c:	d805                	beqz	s0,8000423c <data+0x1374>
8000430e:	ffff                	.2byte	0xffff
80004310:	200c                	.2byte	0x200c
80004312:	0000                	unimp
80004314:	eaf1                	bnez	a3,800043e8 <data+0x1520>
80004316:	ffff                	.2byte	0xffff
80004318:	db46                	sw	a7,180(sp)
8000431a:	ffff                	.2byte	0xffff
8000431c:	da5c                	sw	a5,52(a2)
8000431e:	ffff                	.2byte	0xffff
80004320:	fffff82b          	.4byte	0xfffff82b
80004324:	f2c8                	fsw	fa0,36(a3)
80004326:	ffff                	.2byte	0xffff
80004328:	00000027          	.4byte	0x27
8000432c:	2571                	jal	800049b8 <data+0x1af0>
8000432e:	0000                	unimp
80004330:	d74a                	sw	s2,172(sp)
80004332:	ffff                	.2byte	0xffff
80004334:	e1f6                	fsw	ft9,192(sp)
80004336:	ffff                	.2byte	0xffff
80004338:	fb72                	fsw	ft8,180(sp)
8000433a:	ffff                	.2byte	0xffff
8000433c:	158a                	slli	a1,a1,0x22
8000433e:	0000                	unimp
80004340:	e82a                	fsw	fa0,16(sp)
80004342:	ffff                	.2byte	0xffff
80004344:	ed4e                	fsw	fs3,152(sp)
80004346:	ffff                	.2byte	0xffff
80004348:	d4e5                	beqz	s1,80004330 <data+0x1468>
8000434a:	ffff                	.2byte	0xffff
8000434c:	0e70                	addi	a2,sp,796
8000434e:	0000                	unimp
80004350:	1a46                	slli	s4,s4,0x31
80004352:	0000                	unimp
80004354:	1760                	addi	s0,sp,940
80004356:	0000                	unimp
80004358:	1189                	addi	gp,gp,-30 # 8000658a <_tbss_end+0x746>
8000435a:	0000                	unimp
8000435c:	f1bd                	bnez	a1,800042c2 <data+0x13fa>
8000435e:	ffff                	.2byte	0xffff
80004360:	18fc                	addi	a5,sp,124
80004362:	0000                	unimp
80004364:	d3ae                	sw	a1,228(sp)
80004366:	ffff                	.2byte	0xffff
80004368:	235c                	.2byte	0x235c
8000436a:	0000                	unimp
8000436c:	0331                	addi	t1,t1,12 # 80003124 <data+0x25c>
8000436e:	0000                	unimp
80004370:	0a50                	addi	a2,sp,276
80004372:	0000                	unimp
80004374:	1054                	addi	a3,sp,36
80004376:	0000                	unimp
80004378:	00000ff3          	.4byte	0xff3
8000437c:	ecb6                	fsw	fa3,88(sp)
8000437e:	ffff                	.2byte	0xffff
80004380:	000006bb          	fir_exec	a3
80004384:	e6c5                	bnez	a3,8000442c <data+0x1564>
80004386:	ffff                	.2byte	0xffff
80004388:	fffff6bb          	.4byte	0xfffff6bb
8000438c:	fffff4c7          	.4byte	0xfffff4c7
80004390:	03b6                	slli	t2,t2,0xd
80004392:	0000                	unimp
80004394:	0401                	addi	s0,s0,0
80004396:	0000                	unimp
80004398:	0122                	slli	sp,sp,0x8
8000439a:	0000                	unimp
8000439c:	2de1                	jal	80004a74 <data+0x1bac>
8000439e:	0000                	unimp
800043a0:	28c9                	jal	80004472 <data+0x15aa>
800043a2:	0000                	unimp
800043a4:	cf4a                	sw	s2,156(sp)
800043a6:	ffff                	.2byte	0xffff
800043a8:	2152                	.2byte	0x2152
800043aa:	0000                	unimp
800043ac:	ffffce13          	not	t3,t6
800043b0:	e340                	fsw	fs0,4(a4)
800043b2:	ffff                	.2byte	0xffff
800043b4:	eac5                	bnez	a3,80004464 <data+0x159c>
800043b6:	ffff                	.2byte	0xffff
800043b8:	159d                	addi	a1,a1,-25
800043ba:	0000                	unimp
800043bc:	fd6a                	fsw	fs10,184(sp)
800043be:	ffff                	.2byte	0xffff
800043c0:	00000a13          	li	s4,0
800043c4:	1c82                	slli	s9,s9,0x20
800043c6:	0000                	unimp
800043c8:	d9da                	sw	s6,240(sp)
800043ca:	ffff                	.2byte	0xffff
800043cc:	f258                	fsw	fa4,36(a2)
800043ce:	ffff                	.2byte	0xffff
800043d0:	01e2                	slli	gp,gp,0x18
800043d2:	0000                	unimp
800043d4:	1d64                	addi	s1,sp,700
800043d6:	0000                	unimp
800043d8:	1615                	addi	a2,a2,-27
800043da:	0000                	unimp
800043dc:	e8de                	fsw	fs7,80(sp)
800043de:	ffff                	.2byte	0xffff
800043e0:	2312                	.2byte	0x2312
800043e2:	0000                	unimp
800043e4:	0771                	addi	a4,a4,28
800043e6:	0000                	unimp
800043e8:	00001e0f          	.4byte	0x1e0f
800043ec:	fb62                	fsw	fs8,180(sp)
800043ee:	ffff                	.2byte	0xffff
800043f0:	e5c6                	fsw	fa7,200(sp)
800043f2:	ffff                	.2byte	0xffff
800043f4:	fffffc03          	.4byte	0xfffffc03
800043f8:	1a18                	addi	a4,sp,304
800043fa:	0000                	unimp
800043fc:	1e80                	addi	s0,sp,880
800043fe:	0000                	unimp
80004400:	000014c7          	fmsub.s	fs1,ft0,ft0,ft0,rtz
80004404:	ffffded3          	.4byte	0xffffded3
80004408:	ffffe147          	.4byte	0xffffe147
8000440c:	e67d                	bnez	a2,800044fa <data+0x1632>
8000440e:	ffff                	.2byte	0xffff
80004410:	14d4                	addi	a3,sp,612
80004412:	0000                	unimp
80004414:	1469                	addi	s0,s0,-6
80004416:	0000                	unimp
80004418:	e25e                	fsw	fs7,4(sp)
8000441a:	ffff                	.2byte	0xffff
8000441c:	0b9d                	addi	s7,s7,7
8000441e:	0000                	unimp
80004420:	000015b3          	sll	a1,zero,zero
80004424:	d1b0                	sw	a2,96(a1)
80004426:	ffff                	.2byte	0xffff
80004428:	0bb0                	addi	a2,sp,472
8000442a:	0000                	unimp
8000442c:	00002af3          	csrr	s5,ustatus
80004430:	ee75                	bnez	a2,8000452c <data+0x1664>
80004432:	ffff                	.2byte	0xffff
80004434:	ef4d                	bnez	a4,800044ee <data+0x1626>
80004436:	ffff                	.2byte	0xffff
80004438:	f65d                	bnez	a2,800043e6 <data+0x151e>
8000443a:	ffff                	.2byte	0xffff
8000443c:	2a88                	.2byte	0x2a88
8000443e:	0000                	unimp
80004440:	ffffd9cf          	.4byte	0xffffd9cf
80004444:	0238                	addi	a4,sp,264
80004446:	0000                	unimp
80004448:	eae0                	fsw	fs0,84(a3)
8000444a:	ffff                	.2byte	0xffff
8000444c:	0db1                	addi	s11,s11,12
8000444e:	0000                	unimp
80004450:	ffffed9b          	.4byte	0xffffed9b
80004454:	cef5                	beqz	a3,80004550 <data+0x1688>
80004456:	ffff                	.2byte	0xffff
80004458:	0000288f          	.4byte	0x288f
8000445c:	dead                	beqz	a3,800043d6 <data+0x150e>
8000445e:	ffff                	.2byte	0xffff
80004460:	00000867          	jalr	a6,zero # 0 <threadsense.5>
80004464:	149e                	slli	s1,s1,0x27
80004466:	0000                	unimp
80004468:	00000c0f          	.4byte	0xc0f
8000446c:	202c                	.2byte	0x202c
8000446e:	0000                	unimp
80004470:	dea1                	beqz	a3,800043c8 <data+0x1500>
80004472:	ffff                	.2byte	0xffff
80004474:	fffff427          	.4byte	0xfffff427
80004478:	0cad                	addi	s9,s9,11
8000447a:	0000                	unimp
8000447c:	2569                	jal	80004b06 <data+0x1c3e>
8000447e:	0000                	unimp
80004480:	04fa                	slli	s1,s1,0x1e
80004482:	0000                	unimp
80004484:	1ff4                	addi	a3,sp,1020
80004486:	0000                	unimp
80004488:	d9e6                	sw	s9,240(sp)
8000448a:	ffff                	.2byte	0xffff
8000448c:	ffffe7cf          	.4byte	0xffffe7cf
80004490:	025d                	addi	tp,tp,23 # 17 <threadsense.5+0x17>
80004492:	0000                	unimp
80004494:	ee44                	fsw	fs1,28(a2)
80004496:	ffff                	.2byte	0xffff
80004498:	256c                	.2byte	0x256c
8000449a:	0000                	unimp
8000449c:	e610                	fsw	fa2,8(a2)
8000449e:	ffff                	.2byte	0xffff
800044a0:	f1f4                	fsw	fa3,100(a1)
800044a2:	ffff                	.2byte	0xffff
800044a4:	ff1c                	fsw	fa5,56(a4)
800044a6:	ffff                	.2byte	0xffff
800044a8:	ffffdf03          	lhu	t5,-1(t6)
800044ac:	1269                	addi	tp,tp,-6 # fffffffa <__global_pointer$+0x7fff9a52>
800044ae:	0000                	unimp
800044b0:	2069                	jal	8000453a <data+0x1672>
800044b2:	0000                	unimp
800044b4:	0760                	addi	s0,sp,908
800044b6:	0000                	unimp
800044b8:	0af1                	addi	s5,s5,28
800044ba:	0000                	unimp
800044bc:	2c38                	.2byte	0x2c38
800044be:	0000                	unimp
800044c0:	d798                	sw	a4,40(a5)
800044c2:	ffff                	.2byte	0xffff
800044c4:	27d1                	jal	80004c88 <data+0x1dc0>
800044c6:	0000                	unimp
800044c8:	07ea                	slli	a5,a5,0x1a
800044ca:	0000                	unimp
800044cc:	fffff733          	.4byte	0xfffff733
800044d0:	28c6                	.2byte	0x28c6
800044d2:	0000                	unimp
800044d4:	fe79                	bnez	a2,800044b2 <data+0x15ea>
800044d6:	ffff                	.2byte	0xffff
800044d8:	07e0                	addi	s0,sp,972
800044da:	0000                	unimp
800044dc:	ff2c                	fsw	fa1,120(a4)
800044de:	ffff                	.2byte	0xffff
800044e0:	ffffe117          	auipc	sp,0xffffe
800044e4:	ffffe1ef          	jal	gp,800034e2 <data+0x61a>
800044e8:	ed59                	bnez	a0,80004586 <data+0x16be>
800044ea:	ffff                	.2byte	0xffff
800044ec:	f1b9                	bnez	a1,80004432 <data+0x156a>
800044ee:	ffff                	.2byte	0xffff
800044f0:	0816                	slli	a6,a6,0x5
800044f2:	0000                	unimp
800044f4:	2c06                	.2byte	0x2c06
800044f6:	0000                	unimp
800044f8:	e521                	bnez	a0,80004540 <data+0x1678>
800044fa:	ffff                	.2byte	0xffff
800044fc:	db10                	sw	a2,48(a4)
800044fe:	ffff                	.2byte	0xffff
80004500:	19f9                	addi	s3,s3,-2
80004502:	0000                	unimp
80004504:	fffff107          	.4byte	0xfffff107
80004508:	f4df ffff ea57      	.byte	0xdf, 0xf4, 0xff, 0xff, 0x57, 0xea
8000450e:	ffff                	.2byte	0xffff
80004510:	0000114b          	fnmsub.s	ft2,ft0,ft0,ft0,rtz
80004514:	ffffe84b          	.4byte	0xffffe84b
80004518:	00000267          	jalr	tp,zero # 0 <threadsense.5>
8000451c:	ffffd13f 00001967 	.8byte	0x1967ffffd13f
80004524:	136a                	slli	t1,t1,0x3a
80004526:	0000                	unimp
80004528:	15a8                	addi	a0,sp,744
8000452a:	0000                	unimp
8000452c:	07d1                	addi	a5,a5,20
8000452e:	0000                	unimp
80004530:	e8ca                	fsw	fs2,80(sp)
80004532:	ffff                	.2byte	0xffff
80004534:	ee99                	bnez	a3,80004552 <data+0x168a>
80004536:	ffff                	.2byte	0xffff
80004538:	0209                	addi	tp,tp,2 # 2 <threadsense.5+0x2>
8000453a:	0000                	unimp
8000453c:	f262                	fsw	fs8,36(sp)
8000453e:	ffff                	.2byte	0xffff
80004540:	e46a                	fsw	fs10,8(sp)
80004542:	ffff                	.2byte	0xffff
80004544:	ffffd7f3          	csrrwi	a5,0xfff,31
80004548:	1b95                	addi	s7,s7,-27
8000454a:	0000                	unimp
8000454c:	db30                	sw	a2,112(a4)
8000454e:	ffff                	.2byte	0xffff
80004550:	086c                	addi	a1,sp,28
80004552:	0000                	unimp
80004554:	f176                	fsw	ft9,160(sp)
80004556:	ffff                	.2byte	0xffff
80004558:	0c5c                	addi	a5,sp,532
8000455a:	0000                	unimp
8000455c:	00001b83          	lh	s7,0(zero) # 0 <threadsense.5>
80004560:	0565                	addi	a0,a0,25
80004562:	0000                	unimp
80004564:	2bb5                	jal	80004ae0 <data+0x1c18>
80004566:	0000                	unimp
80004568:	ffffdb3b          	.4byte	0xffffdb3b
8000456c:	ffffdb7b          	.4byte	0xffffdb7b
80004570:	000025bb          	.4byte	0x25bb
80004574:	f25d                	bnez	a2,8000451a <data+0x1652>
80004576:	ffff                	.2byte	0xffff
80004578:	ffffe88b          	.4byte	0xffffe88b
8000457c:	0db4                	addi	a3,sp,728
8000457e:	0000                	unimp
80004580:	1564                	addi	s1,sp,684
80004582:	0000                	unimp
80004584:	0f6a                	slli	t5,t5,0x1a
80004586:	0000                	unimp
80004588:	00002a0b          	.4byte	0x2a0b
8000458c:	fffff4af          	.4byte	0xfffff4af
80004590:	29b5                	jal	80004a0c <data+0x1b44>
80004592:	0000                	unimp
80004594:	fa72                	fsw	ft8,52(sp)
80004596:	ffff                	.2byte	0xffff
80004598:	f7ee                	fsw	fs11,236(sp)
8000459a:	ffff                	.2byte	0xffff
8000459c:	111d                	addi	sp,sp,-25 # 800024c7 <__udivdi3+0x5>
8000459e:	0000                	unimp
800045a0:	dbdc                	sw	a5,52(a5)
800045a2:	ffff                	.2byte	0xffff
800045a4:	db96                	sw	t0,244(sp)
800045a6:	ffff                	.2byte	0xffff
800045a8:	e6ed                	bnez	a3,80004692 <data+0x17ca>
800045aa:	ffff                	.2byte	0xffff
800045ac:	f6a6                	fsw	fs1,108(sp)
800045ae:	ffff                	.2byte	0xffff
800045b0:	fc30                	fsw	fa2,120(s0)
800045b2:	ffff                	.2byte	0xffff
800045b4:	1af6                	slli	s5,s5,0x3d
800045b6:	0000                	unimp
800045b8:	1b08                	addi	a0,sp,432
800045ba:	0000                	unimp
800045bc:	1299                	addi	t0,t0,-26
800045be:	0000                	unimp
800045c0:	24e9                	jal	8000488a <data+0x19c2>
800045c2:	0000                	unimp
800045c4:	049e                	slli	s1,s1,0x7
800045c6:	0000                	unimp
800045c8:	1fc9                	addi	t6,t6,-14
800045ca:	0000                	unimp
800045cc:	fb55                	bnez	a4,80004580 <data+0x16b8>
800045ce:	ffff                	.2byte	0xffff
800045d0:	00002813          	slti	a6,zero,0
800045d4:	fa25                	bnez	a2,80004544 <data+0x167c>
800045d6:	ffff                	.2byte	0xffff
800045d8:	e4d8                	fsw	fa4,12(s1)
800045da:	ffff                	.2byte	0xffff
800045dc:	fb78                	fsw	fa4,116(a4)
800045de:	ffff                	.2byte	0xffff
800045e0:	f3da                	fsw	fs6,228(sp)
800045e2:	ffff                	.2byte	0xffff
800045e4:	fffff213          	andi	tp,t6,-1
800045e8:	000008f3          	.4byte	0x8f3
800045ec:	e795                	bnez	a5,80004618 <data+0x1750>
800045ee:	ffff                	.2byte	0xffff
800045f0:	1670                	addi	a2,sp,812
800045f2:	0000                	unimp
800045f4:	237e                	.2byte	0x237e
800045f6:	0000                	unimp
800045f8:	2749                	jal	80004d7a <data+0x1eb2>
800045fa:	0000                	unimp
800045fc:	f9d4                	fsw	fa3,52(a1)
800045fe:	ffff                	.2byte	0xffff
80004600:	00e9                	addi	ra,ra,26 # 301a <buflen.3+0x2f9a>
80004602:	0000                	unimp
80004604:	00001f53          	fadd.s	ft10,ft0,ft0,rtz
80004608:	2082                	.2byte	0x2082
8000460a:	0000                	unimp
8000460c:	f89e                	fsw	ft7,112(sp)
8000460e:	ffff                	.2byte	0xffff
80004610:	e7c5                	bnez	a5,800046b8 <data+0x17f0>
80004612:	ffff                	.2byte	0xffff
80004614:	e670                	fsw	fa2,76(a2)
80004616:	ffff                	.2byte	0xffff
80004618:	ffffd7bb          	.4byte	0xffffd7bb
8000461c:	f5a1                	bnez	a1,80004564 <data+0x169c>
8000461e:	ffff                	.2byte	0xffff
80004620:	fffff407          	.4byte	0xfffff407
80004624:	f0a8                	fsw	fa0,96(s1)
80004626:	ffff                	.2byte	0xffff
80004628:	00001e47          	fmsub.s	ft8,ft0,ft0,ft0,rtz
8000462c:	2236                	.2byte	0x2236
8000462e:	0000                	unimp
80004630:	d99e                	sw	t2,240(sp)
80004632:	ffff                	.2byte	0xffff
80004634:	0000074f          	fnmadd.s	fa4,ft0,ft0,ft0,rne
80004638:	02d0                	addi	a2,sp,324
8000463a:	0000                	unimp
8000463c:	3088                	.2byte	0x3088
8000463e:	0000                	unimp
80004640:	d9ed                	beqz	a1,80004632 <data+0x176a>
80004642:	ffff                	.2byte	0xffff
80004644:	f099                	bnez	s1,8000454a <data+0x1682>
80004646:	ffff                	.2byte	0xffff
80004648:	f9dc                	fsw	fa5,52(a1)
8000464a:	ffff                	.2byte	0xffff
8000464c:	d000                	sw	s0,32(s0)
8000464e:	ffff                	.2byte	0xffff
80004650:	1cbe                	slli	s9,s9,0x2f
80004652:	0000                	unimp
80004654:	10b4                	addi	a3,sp,104
80004656:	0000                	unimp
80004658:	fd78                	fsw	fa4,124(a0)
8000465a:	ffff                	.2byte	0xffff
8000465c:	de98                	sw	a4,56(a3)
8000465e:	ffff                	.2byte	0xffff
80004660:	ffffd0c7          	.4byte	0xffffd0c7
80004664:	ffffd46b          	.4byte	0xffffd46b
80004668:	f82d                	bnez	s0,800045da <data+0x1712>
8000466a:	ffff                	.2byte	0xffff
8000466c:	00001937          	lui	s2,0x1
80004670:	29e9                	jal	80004b4a <data+0x1c82>
80004672:	0000                	unimp
80004674:	ed75                	bnez	a0,80004770 <data+0x18a8>
80004676:	ffff                	.2byte	0xffff
80004678:	ffffe10b          	.4byte	0xffffe10b
8000467c:	f8d2                	fsw	fs4,112(sp)
8000467e:	ffff                	.2byte	0xffff
80004680:	dac9                	beqz	a3,80004612 <data+0x174a>
80004682:	ffff                	.2byte	0xffff
80004684:	cf8d                	beqz	a5,800046be <data+0x17f6>
80004686:	ffff                	.2byte	0xffff
80004688:	2370                	.2byte	0x2370
8000468a:	0000                	unimp
8000468c:	f48e                	fsw	ft3,104(sp)
8000468e:	ffff                	.2byte	0xffff
80004690:	e7fe                	fsw	ft11,204(sp)
80004692:	ffff                	.2byte	0xffff
80004694:	00002d2b          	.4byte	0x2d2b
80004698:	00001c2f          	.4byte	0x1c2f
8000469c:	0e05                	addi	t3,t3,1
8000469e:	0000                	unimp
800046a0:	ffffebd3          	.4byte	0xffffebd3
800046a4:	0875                	addi	a6,a6,29
800046a6:	0000                	unimp
800046a8:	fffffe3b          	.4byte	0xfffffe3b
800046ac:	f771                	bnez	a4,80004678 <data+0x17b0>
800046ae:	ffff                	.2byte	0xffff
800046b0:	ddc5                	beqz	a1,80004668 <data+0x17a0>
800046b2:	ffff                	.2byte	0xffff
800046b4:	ffffcf0b          	.4byte	0xffffcf0b
800046b8:	f5f9                	bnez	a1,80004686 <data+0x17be>
800046ba:	ffff                	.2byte	0xffff
800046bc:	e9b2                	fsw	fa2,208(sp)
800046be:	ffff                	.2byte	0xffff
800046c0:	fffff1a3          	.4byte	0xfffff1a3
800046c4:	21d5                	jal	80004ba8 <data+0x1ce0>
800046c6:	0000                	unimp
800046c8:	ebb2                	fsw	fa2,212(sp)
800046ca:	ffff                	.2byte	0xffff
800046cc:	dc61                	beqz	s0,800046a4 <data+0x17dc>
800046ce:	ffff                	.2byte	0xffff
800046d0:	0089                	addi	ra,ra,2
800046d2:	0000                	unimp
800046d4:	1b2a                	slli	s6,s6,0x2a
800046d6:	0000                	unimp
800046d8:	ecf9                	bnez	s1,800047b6 <data+0x18ee>
800046da:	ffff                	.2byte	0xffff
800046dc:	0351                	addi	t1,t1,20
800046de:	0000                	unimp
800046e0:	2195                	jal	80004b44 <data+0x1c7c>
800046e2:	0000                	unimp
800046e4:	1726                	slli	a4,a4,0x29
800046e6:	0000                	unimp
800046e8:	ea88                	fsw	fa0,16(a3)
800046ea:	ffff                	.2byte	0xffff
800046ec:	197e                	slli	s2,s2,0x3f
800046ee:	0000                	unimp
800046f0:	d29c                	sw	a5,32(a3)
800046f2:	ffff                	.2byte	0xffff
800046f4:	fffffd93          	andi	s11,t6,-1
800046f8:	e050                	fsw	fa2,4(s0)
800046fa:	ffff                	.2byte	0xffff
800046fc:	df64                	sw	s1,124(a4)
800046fe:	ffff                	.2byte	0xffff
80004700:	ff20                	fsw	fs0,120(a4)
80004702:	ffff                	.2byte	0xffff
80004704:	d1c1                	beqz	a1,80004684 <data+0x17bc>
80004706:	ffff                	.2byte	0xffff
80004708:	05f2                	slli	a1,a1,0x1c
8000470a:	0000                	unimp
8000470c:	191e                	slli	s2,s2,0x27
8000470e:	0000                	unimp
80004710:	000030eb          	.4byte	0x30eb
80004714:	f021                	bnez	s0,80004654 <data+0x178c>
80004716:	ffff                	.2byte	0xffff
80004718:	fffff523          	.4byte	0xfffff523
8000471c:	eabe                	fsw	fa5,84(sp)
8000471e:	ffff                	.2byte	0xffff
80004720:	2a96                	.2byte	0x2a96
80004722:	0000                	unimp
80004724:	255d                	jal	80004dca <data+0x1f02>
80004726:	0000                	unimp
80004728:	1430                	addi	a2,sp,552
8000472a:	0000                	unimp
8000472c:	ffffd65b          	.4byte	0xffffd65b
80004730:	2668                	.2byte	0x2668
80004732:	0000                	unimp
80004734:	d829                	beqz	s0,80004686 <data+0x17be>
80004736:	ffff                	.2byte	0xffff
80004738:	f20d                	bnez	a2,8000465a <data+0x1792>
8000473a:	ffff                	.2byte	0xffff
8000473c:	e60c                	fsw	fa1,8(a2)
8000473e:	ffff                	.2byte	0xffff
80004740:	2bfe                	.2byte	0x2bfe
80004742:	0000                	unimp
80004744:	00000fbf fffff46d 	.8byte	0xfffff46d00000fbf
8000474c:	fffffa87          	.4byte	0xfffffa87
80004750:	f8e8                	fsw	fa0,116(s1)
80004752:	ffff                	.2byte	0xffff
80004754:	1366                	slli	t1,t1,0x39
80004756:	0000                	unimp
80004758:	2fd8                	.2byte	0x2fd8
8000475a:	0000                	unimp
8000475c:	e87d                	bnez	s0,80004852 <data+0x198a>
8000475e:	ffff                	.2byte	0xffff
80004760:	f88c                	fsw	fa1,48(s1)
80004762:	ffff                	.2byte	0xffff
80004764:	e85f ffff cffc      	.byte	0x5f, 0xe8, 0xff, 0xff, 0xfc, 0xcf
8000476a:	ffff                	.2byte	0xffff
8000476c:	fd28                	fsw	fa0,120(a0)
8000476e:	ffff                	.2byte	0xffff
80004770:	17f2                	slli	a5,a5,0x3c
80004772:	0000                	unimp
80004774:	e24c                	fsw	fa1,4(a2)
80004776:	ffff                	.2byte	0xffff
80004778:	0e8c                	addi	a1,sp,848
8000477a:	0000                	unimp
8000477c:	e512                	fsw	ft4,136(sp)
8000477e:	ffff                	.2byte	0xffff
80004780:	e60d                	bnez	a2,800047aa <data+0x18e2>
80004782:	ffff                	.2byte	0xffff
80004784:	e27f                	.2byte	0xe27f
80004786:	ffff                	.2byte	0xffff
80004788:	3030                	.2byte	0x3030
8000478a:	0000                	unimp
8000478c:	e4f8                	fsw	fa4,76(s1)
8000478e:	ffff                	.2byte	0xffff
80004790:	049f 0000 f353      	.byte	0x9f, 0x04, 0x00, 0x00, 0x53, 0xf3
80004796:	ffff                	.2byte	0xffff
80004798:	000001b7          	lui	gp,0x0
8000479c:	fd36                	fsw	fa3,184(sp)
8000479e:	ffff                	.2byte	0xffff
800047a0:	e6b0                	fsw	fa2,72(a3)
800047a2:	ffff                	.2byte	0xffff
800047a4:	e3e6                	fsw	fs9,196(sp)
800047a6:	ffff                	.2byte	0xffff
800047a8:	0591                	addi	a1,a1,4
800047aa:	0000                	unimp
800047ac:	db18                	sw	a4,48(a4)
800047ae:	ffff                	.2byte	0xffff
800047b0:	ffffee0f          	.4byte	0xffffee0f
800047b4:	299d                	jal	80004c2a <data+0x1d62>
800047b6:	0000                	unimp
800047b8:	f324                	fsw	fs1,96(a4)
800047ba:	ffff                	.2byte	0xffff
800047bc:	e80c                	fsw	fa1,16(s0)
800047be:	ffff                	.2byte	0xffff
800047c0:	075c                	addi	a5,sp,900
800047c2:	0000                	unimp
800047c4:	1991                	addi	s3,s3,-28
800047c6:	0000                	unimp
800047c8:	00001493          	slli	s1,zero,0x0
800047cc:	ce44                	sw	s1,28(a2)
800047ce:	ffff                	.2byte	0xffff
800047d0:	fffffaf7          	.4byte	0xfffffaf7
800047d4:	0000126b          	.4byte	0x126b
800047d8:	e8c2                	fsw	fa6,80(sp)
800047da:	ffff                	.2byte	0xffff
800047dc:	00002583          	lw	a1,0(zero) # 0 <threadsense.5>
800047e0:	2cca                	.2byte	0x2cca
800047e2:	0000                	unimp
800047e4:	eabd                	bnez	a3,8000485a <data+0x1992>
800047e6:	ffff                	.2byte	0xffff
800047e8:	fffff0ab          	.4byte	0xfffff0ab
800047ec:	12bd                	addi	t0,t0,-17
800047ee:	0000                	unimp
800047f0:	ff0a                	fsw	ft2,188(sp)
800047f2:	ffff                	.2byte	0xffff
800047f4:	3138                	.2byte	0x3138
800047f6:	0000                	unimp
800047f8:	000029cf          	fnmadd.s	fs3,ft0,ft0,ft0,rdn
800047fc:	1716                	slli	a4,a4,0x25
800047fe:	0000                	unimp
80004800:	e1b6                	fsw	fa3,192(sp)
80004802:	ffff                	.2byte	0xffff
80004804:	27ff                	.2byte	0x27ff
80004806:	0000                	unimp
80004808:	2e0e                	.2byte	0x2e0e
8000480a:	0000                	unimp
8000480c:	1856                	slli	a6,a6,0x35
8000480e:	0000                	unimp
80004810:	e952                	fsw	fs4,144(sp)
80004812:	ffff                	.2byte	0xffff
80004814:	fdc5                	bnez	a1,800047cc <data+0x1904>
80004816:	ffff                	.2byte	0xffff
80004818:	ffffe38b          	.4byte	0xffffe38b
8000481c:	0202                	c.slli64	tp
8000481e:	0000                	unimp
80004820:	000013ab          	.4byte	0x13ab
80004824:	1b1c                	addi	a5,sp,432
80004826:	0000                	unimp
80004828:	0f1a                	slli	t5,t5,0x6
8000482a:	0000                	unimp
8000482c:	cfba                	sw	a4,220(sp)
8000482e:	ffff                	.2byte	0xffff
80004830:	12b9                	addi	t0,t0,-18
80004832:	0000                	unimp
80004834:	d03e                	sw	a5,32(sp)
80004836:	ffff                	.2byte	0xffff
80004838:	e9c6                	fsw	fa7,208(sp)
8000483a:	ffff                	.2byte	0xffff
8000483c:	e815                	bnez	s0,80004870 <data+0x19a8>
8000483e:	ffff                	.2byte	0xffff
80004840:	00001bcf          	fnmadd.s	fs7,ft0,ft0,ft0,rtz
80004844:	305a                	.2byte	0x305a
80004846:	0000                	unimp
80004848:	e859                	bnez	s0,800048de <data+0x1a16>
8000484a:	ffff                	.2byte	0xffff
8000484c:	e4c6                	fsw	fa7,72(sp)
8000484e:	ffff                	.2byte	0xffff
80004850:	10c5                	addi	ra,ra,-15
80004852:	0000                	unimp
80004854:	0000031b          	.4byte	0x31b
80004858:	d849                	beqz	s0,800047ea <data+0x1922>
8000485a:	ffff                	.2byte	0xffff
8000485c:	00000b8f          	.4byte	0xb8f
80004860:	1fd8                	addi	a4,sp,1012
80004862:	0000                	unimp
80004864:	faf5                	bnez	a3,80004858 <data+0x1990>
80004866:	ffff                	.2byte	0xffff
80004868:	ec4c                	fsw	fa1,28(s0)
8000486a:	ffff                	.2byte	0xffff
8000486c:	ece2                	fsw	fs8,88(sp)
8000486e:	ffff                	.2byte	0xffff
80004870:	fa2d                	bnez	a2,800047e2 <data+0x191a>
80004872:	ffff                	.2byte	0xffff
80004874:	e41a                	fsw	ft6,8(sp)
80004876:	ffff                	.2byte	0xffff
80004878:	d1f8                	sw	a4,100(a1)
8000487a:	ffff                	.2byte	0xffff
8000487c:	00000de3          	beqz	zero,80005096 <coeffs+0x28e>
80004880:	da19                	beqz	a2,80004796 <data+0x18ce>
80004882:	ffff                	.2byte	0xffff
80004884:	ce06                	sw	ra,28(sp)
80004886:	ffff                	.2byte	0xffff
80004888:	f439                	bnez	s0,800047d6 <data+0x190e>
8000488a:	ffff                	.2byte	0xffff
8000488c:	fffff56b          	.4byte	0xfffff56b
80004890:	fffffdcb          	.4byte	0xfffffdcb
80004894:	09c4                	addi	s1,sp,212
80004896:	0000                	unimp
80004898:	296d                	jal	80004d52 <data+0x1e8a>
8000489a:	0000                	unimp
8000489c:	df76                	sw	t4,188(sp)
8000489e:	ffff                	.2byte	0xffff
800048a0:	f2e0                	fsw	fs0,100(a3)
800048a2:	ffff                	.2byte	0xffff
800048a4:	00000687          	.4byte	0x687
800048a8:	e130                	fsw	fa2,64(a0)
800048aa:	ffff                	.2byte	0xffff
800048ac:	d399                	beqz	a5,800047b2 <data+0x18ea>
800048ae:	ffff                	.2byte	0xffff
800048b0:	08c5                	addi	a7,a7,17
800048b2:	0000                	unimp
800048b4:	fcf6                	fsw	ft9,120(sp)
800048b6:	ffff                	.2byte	0xffff
800048b8:	edae                	fsw	fa1,216(sp)
800048ba:	ffff                	.2byte	0xffff
800048bc:	f294                	fsw	fa3,32(a3)
800048be:	ffff                	.2byte	0xffff
800048c0:	fb50                	fsw	fa2,52(a4)
800048c2:	ffff                	.2byte	0xffff
800048c4:	00000807          	.4byte	0x807
800048c8:	095a                	slli	s2,s2,0x16
800048ca:	0000                	unimp
800048cc:	da14                	sw	a3,48(a2)
800048ce:	ffff                	.2byte	0xffff
800048d0:	d921                	beqz	a0,80004820 <data+0x1958>
800048d2:	ffff                	.2byte	0xffff
800048d4:	13a4                	addi	s1,sp,488
800048d6:	0000                	unimp
800048d8:	17a4                	addi	s1,sp,1000
800048da:	0000                	unimp
800048dc:	2afa                	.2byte	0x2afa
800048de:	0000                	unimp
800048e0:	dc98                	sw	a4,56(s1)
800048e2:	ffff                	.2byte	0xffff
800048e4:	ffffd1ef          	jal	gp,800028e2 <__umoddi3+0xc2>
800048e8:	ffffe5db          	.4byte	0xffffe5db
800048ec:	08c5                	addi	a7,a7,17
800048ee:	0000                	unimp
800048f0:	e80a                	fsw	ft2,16(sp)
800048f2:	ffff                	.2byte	0xffff
800048f4:	ffffe9d3          	.4byte	0xffffe9d3
800048f8:	e4a8                	fsw	fa0,72(s1)
800048fa:	ffff                	.2byte	0xffff
800048fc:	fffff423          	.4byte	0xfffff423
80004900:	e9d9                	bnez	a1,80004996 <data+0x1ace>
80004902:	ffff                	.2byte	0xffff
80004904:	0ae1                	addi	s5,s5,24
80004906:	0000                	unimp
80004908:	1b8e                	slli	s7,s7,0x23
8000490a:	0000                	unimp
8000490c:	19a5                	addi	s3,s3,-23
8000490e:	0000                	unimp
80004910:	e2a5                	bnez	a3,80004970 <data+0x1aa8>
80004912:	ffff                	.2byte	0xffff
80004914:	000012fb          	.4byte	0x12fb
80004918:	00002b1b          	.4byte	0x2b1b
8000491c:	0784                	addi	s1,sp,960
8000491e:	0000                	unimp
80004920:	e782                	fsw	ft0,204(sp)
80004922:	ffff                	.2byte	0xffff
80004924:	ffffda4b          	.4byte	0xffffda4b
80004928:	0d1d                	addi	s10,s10,7 # ffffd007 <__global_pointer$+0x7fff6a5f>
8000492a:	0000                	unimp
8000492c:	00002247          	fmsub.s	ft4,ft0,ft0,ft0,rdn
80004930:	0941                	addi	s2,s2,16 # 1010 <buflen.3+0xf90>
80004932:	0000                	unimp
80004934:	00002ccb          	fnmsub.s	fs9,ft0,ft0,ft0,rdn
80004938:	ffffe2db          	.4byte	0xffffe2db
8000493c:	d291                	beqz	a3,80004840 <data+0x1978>
8000493e:	ffff                	.2byte	0xffff
80004940:	02d2                	slli	t0,t0,0x14
80004942:	0000                	unimp
80004944:	1e35                	addi	t3,t3,-19
80004946:	0000                	unimp
80004948:	dea5                	beqz	a3,800048c0 <data+0x19f8>
8000494a:	ffff                	.2byte	0xffff
8000494c:	00000df3          	.4byte	0xdf3
80004950:	ffd9                	bnez	a5,800048ee <data+0x1a26>
80004952:	ffff                	.2byte	0xffff
80004954:	2849                	jal	800049e6 <data+0x1b1e>
80004956:	0000                	unimp
80004958:	06ed                	addi	a3,a3,27
8000495a:	0000                	unimp
8000495c:	0e71                	addi	t3,t3,28
8000495e:	0000                	unimp
80004960:	2c38                	.2byte	0x2c38
80004962:	0000                	unimp
80004964:	1ec8                	addi	a0,sp,884
80004966:	0000                	unimp
80004968:	e536                	fsw	fa3,136(sp)
8000496a:	ffff                	.2byte	0xffff
8000496c:	e241                	bnez	a2,800049ec <data+0x1b24>
8000496e:	ffff                	.2byte	0xffff
80004970:	ffffd69b          	.4byte	0xffffd69b
80004974:	fbde                	fsw	fs7,244(sp)
80004976:	ffff                	.2byte	0xffff
80004978:	0864                	addi	s1,sp,28
8000497a:	0000                	unimp
8000497c:	f275                	bnez	a2,80004960 <data+0x1a98>
8000497e:	ffff                	.2byte	0xffff
80004980:	ffffd4bf fffff1f2 	.8byte	0xfffff1f2ffffd4bf
80004988:	da19                	beqz	a2,8000489e <data+0x19d6>
8000498a:	ffff                	.2byte	0xffff
8000498c:	ffffe963          	bltu	t6,t6,8000417e <data+0x12b6>
80004990:	d2ed                	beqz	a3,80004972 <data+0x1aaa>
80004992:	ffff                	.2byte	0xffff
80004994:	d334                	sw	a3,96(a4)
80004996:	ffff                	.2byte	0xffff
80004998:	22e8                	.2byte	0x22e8
8000499a:	0000                	unimp
8000499c:	ffffec6f          	jal	s8,8000399a <data+0xad2>
800049a0:	df7f                	.2byte	0xdf7f
800049a2:	ffff                	.2byte	0xffff
800049a4:	fe05                	bnez	a2,800048dc <data+0x1a14>
800049a6:	ffff                	.2byte	0xffff
800049a8:	dcb6                	sw	a3,120(sp)
800049aa:	ffff                	.2byte	0xffff
800049ac:	1ac0                	addi	s0,sp,372
800049ae:	0000                	unimp
800049b0:	f8d0                	fsw	fa2,52(s1)
800049b2:	ffff                	.2byte	0xffff
800049b4:	f191                	bnez	a1,800048b8 <data+0x19f0>
800049b6:	ffff                	.2byte	0xffff
800049b8:	1f51                	addi	t5,t5,-12
800049ba:	0000                	unimp
800049bc:	2da1                	jal	80005014 <coeffs+0x20c>
800049be:	0000                	unimp
800049c0:	ddc6                	sw	a7,248(sp)
800049c2:	ffff                	.2byte	0xffff
800049c4:	2ff6                	.2byte	0x2ff6
800049c6:	0000                	unimp
800049c8:	0994                	addi	a3,sp,208
800049ca:	0000                	unimp
800049cc:	0f9f 0000 263f      	.byte	0x9f, 0x0f, 0x00, 0x00, 0x3f, 0x26
800049d2:	0000                	unimp
800049d4:	de81                	beqz	a3,800048ec <data+0x1a24>
800049d6:	ffff                	.2byte	0xffff
800049d8:	ec10                	fsw	fa2,24(s0)
800049da:	ffff                	.2byte	0xffff
800049dc:	00002077          	.4byte	0x2077
800049e0:	2f49                	jal	80005172 <coeffs+0x36a>
800049e2:	0000                	unimp
800049e4:	0346                	slli	t1,t1,0x11
800049e6:	0000                	unimp
800049e8:	d0b8                	sw	a4,96(s1)
800049ea:	ffff                	.2byte	0xffff
800049ec:	d3e4                	sw	s1,100(a5)
800049ee:	ffff                	.2byte	0xffff
800049f0:	3124                	.2byte	0x3124
800049f2:	0000                	unimp
800049f4:	0b1c                	addi	a5,sp,400
800049f6:	0000                	unimp
800049f8:	f859                	bnez	s0,8000498e <data+0x1ac6>
800049fa:	ffff                	.2byte	0xffff
800049fc:	ffffd3e3          	bge	t6,t6,800049e2 <data+0x1b1a>
80004a00:	2f0e                	.2byte	0x2f0e
80004a02:	0000                	unimp
80004a04:	0472                	slli	s0,s0,0x1c
80004a06:	0000                	unimp
80004a08:	ef46                	fsw	fa7,156(sp)
80004a0a:	ffff                	.2byte	0xffff
80004a0c:	ffffcffb          	.4byte	0xffffcffb
80004a10:	09a6                	slli	s3,s3,0x9
80004a12:	0000                	unimp
80004a14:	e02e                	fsw	fa1,0(sp)
80004a16:	ffff                	.2byte	0xffff
80004a18:	ee6a                	fsw	fs10,28(sp)
80004a1a:	ffff                	.2byte	0xffff
80004a1c:	1b25                	addi	s6,s6,-23
80004a1e:	0000                	unimp
80004a20:	00001033          	sll	zero,zero,zero
80004a24:	fd1f ffff 03e5      	.byte	0x1f, 0xfd, 0xff, 0xff, 0xe5, 0x03
80004a2a:	0000                	unimp
80004a2c:	ffffd703          	lhu	a4,-1(t6)
80004a30:	20b0                	.2byte	0x20b0
80004a32:	0000                	unimp
80004a34:	f135                	bnez	a0,80004998 <data+0x1ad0>
80004a36:	ffff                	.2byte	0xffff
80004a38:	d2a4                	sw	s1,96(a3)
80004a3a:	ffff                	.2byte	0xffff
80004a3c:	00003077          	.4byte	0x3077
80004a40:	ffffef2b          	.4byte	0xffffef2b
80004a44:	0e39                	addi	t3,t3,14
80004a46:	0000                	unimp
80004a48:	0e16                	slli	t3,t3,0x5
80004a4a:	0000                	unimp
80004a4c:	e36a                	fsw	fs10,132(sp)
80004a4e:	ffff                	.2byte	0xffff
80004a50:	1eba                	slli	t4,t4,0x2e
80004a52:	0000                	unimp
80004a54:	2c26                	.2byte	0x2c26
80004a56:	0000                	unimp
80004a58:	d1e1                	beqz	a1,80004a18 <data+0x1b50>
80004a5a:	ffff                	.2byte	0xffff
80004a5c:	1c02                	slli	s8,s8,0x20
80004a5e:	0000                	unimp
80004a60:	fd6c                	fsw	fa1,124(a0)
80004a62:	ffff                	.2byte	0xffff
80004a64:	d499                	beqz	s1,80004972 <data+0x1aaa>
80004a66:	ffff                	.2byte	0xffff
80004a68:	000021e7          	.4byte	0x21e7
80004a6c:	fc91                	bnez	s1,80004988 <data+0x1ac0>
80004a6e:	ffff                	.2byte	0xffff
80004a70:	11b5                	addi	gp,gp,-19 # ffffffed <__global_pointer$+0x7fff9a45>
80004a72:	0000                	unimp
80004a74:	ffffe83f 00000274 	.8byte	0x274ffffe83f
80004a7c:	00000ec3          	fmadd.s	ft9,ft0,ft0,ft0,rne
80004a80:	1eb1                	addi	t4,t4,-20 # fec <buflen.3+0xf6c>
80004a82:	0000                	unimp
80004a84:	23ba                	.2byte	0x23ba
80004a86:	0000                	unimp
80004a88:	10be                	slli	ra,ra,0x2f
80004a8a:	0000                	unimp
80004a8c:	fffff657          	.4byte	0xfffff657
80004a90:	d1e9                	beqz	a1,80004a52 <data+0x1b8a>
80004a92:	ffff                	.2byte	0xffff
80004a94:	3128                	.2byte	0x3128
80004a96:	0000                	unimp
80004a98:	df7c                	sw	a5,124(a4)
80004a9a:	ffff                	.2byte	0xffff
80004a9c:	141c                	addi	a5,sp,544
80004a9e:	0000                	unimp
80004aa0:	fffffc47          	.4byte	0xfffffc47
80004aa4:	1561                	addi	a0,a0,-8
80004aa6:	0000                	unimp
80004aa8:	1d1f 0000 eaf8      	.byte	0x1f, 0x1d, 0x00, 0x00, 0xf8, 0xea
80004aae:	ffff                	.2byte	0xffff
80004ab0:	d496                	sw	t0,104(sp)
80004ab2:	ffff                	.2byte	0xffff
80004ab4:	000021c3          	fmadd.s	ft3,ft0,ft0,ft0,rdn
80004ab8:	e96e                	fsw	fs11,144(sp)
80004aba:	ffff                	.2byte	0xffff
80004abc:	f5c1                	bnez	a1,80004a44 <data+0x1b7c>
80004abe:	ffff                	.2byte	0xffff
80004ac0:	fffffdfb          	.4byte	0xfffffdfb
80004ac4:	2984                	.2byte	0x2984
80004ac6:	0000                	unimp
80004ac8:	00000b2b          	fir_data_st	s6,zero
80004acc:	eab5                	bnez	a3,80004b40 <data+0x1c78>
80004ace:	ffff                	.2byte	0xffff
80004ad0:	23aa                	.2byte	0x23aa
80004ad2:	0000                	unimp
80004ad4:	0f0c                	addi	a1,sp,912
80004ad6:	0000                	unimp
80004ad8:	d4b8                	sw	a4,104(s1)
80004ada:	ffff                	.2byte	0xffff
80004adc:	ef16                	fsw	ft5,156(sp)
80004ade:	ffff                	.2byte	0xffff
80004ae0:	15a4                	addi	s1,sp,744
80004ae2:	0000                	unimp
80004ae4:	289e                	.2byte	0x289e
80004ae6:	0000                	unimp
80004ae8:	00001da7          	.4byte	0x1da7
80004aec:	f559                	bnez	a0,80004a7a <data+0x1bb2>
80004aee:	ffff                	.2byte	0xffff
80004af0:	dedd                	beqz	a3,80004aae <data+0x1be6>
80004af2:	ffff                	.2byte	0xffff
80004af4:	ffffee1b          	.4byte	0xffffee1b
80004af8:	d21c                	sw	a5,32(a2)
80004afa:	ffff                	.2byte	0xffff
80004afc:	2f8e                	.2byte	0x2f8e
80004afe:	0000                	unimp
80004b00:	dfd6                	sw	s5,252(sp)
80004b02:	ffff                	.2byte	0xffff
80004b04:	000014db          	.4byte	0x14db
80004b08:	f3e5                	bnez	a5,80004ae8 <data+0x1c20>
80004b0a:	ffff                	.2byte	0xffff
80004b0c:	e3be                	fsw	fa5,196(sp)
80004b0e:	ffff                	.2byte	0xffff
80004b10:	00001403          	lh	s0,0(zero) # 0 <threadsense.5>
80004b14:	0561                	addi	a0,a0,24
80004b16:	0000                	unimp
80004b18:	29da                	.2byte	0x29da
80004b1a:	0000                	unimp
80004b1c:	de4a                	sw	s2,60(sp)
80004b1e:	ffff                	.2byte	0xffff
80004b20:	e8c2                	fsw	fa6,80(sp)
80004b22:	ffff                	.2byte	0xffff
80004b24:	14f8                	addi	a4,sp,620
80004b26:	0000                	unimp
80004b28:	fb42                	fsw	fa6,180(sp)
80004b2a:	ffff                	.2byte	0xffff
80004b2c:	ef58                	fsw	fa4,28(a4)
80004b2e:	ffff                	.2byte	0xffff
80004b30:	000004bb          	fir_exec	s1
80004b34:	16b0                	addi	a2,sp,872
80004b36:	0000                	unimp
80004b38:	1719                	addi	a4,a4,-26
80004b3a:	0000                	unimp
80004b3c:	ffffd0b7          	lui	ra,0xffffd
80004b40:	0e34                	addi	a3,sp,792
80004b42:	0000                	unimp
80004b44:	f044                	fsw	fs1,36(s0)
80004b46:	ffff                	.2byte	0xffff
80004b48:	ed6c                	fsw	fa1,92(a0)
80004b4a:	ffff                	.2byte	0xffff
80004b4c:	ffdf ffff 3150      	.byte	0xdf, 0xff, 0xff, 0xff, 0x50, 0x31
80004b52:	0000                	unimp
80004b54:	fffff423          	.4byte	0xfffff423
80004b58:	20f5                	jal	80004c44 <data+0x1d7c>
80004b5a:	0000                	unimp
80004b5c:	14f5                	addi	s1,s1,-3
80004b5e:	0000                	unimp
80004b60:	eac1                	bnez	a3,80004bf0 <data+0x1d28>
80004b62:	ffff                	.2byte	0xffff
80004b64:	0c9c                	addi	a5,sp,592
80004b66:	0000                	unimp
80004b68:	d84e                	sw	s3,48(sp)
80004b6a:	ffff                	.2byte	0xffff
80004b6c:	fb9f ffff 2cb8      	.byte	0x9f, 0xfb, 0xff, 0xff, 0xb8, 0x2c
80004b72:	0000                	unimp
80004b74:	dc6a                	sw	s10,56(sp)
80004b76:	ffff                	.2byte	0xffff
80004b78:	f92d                	bnez	a0,80004aea <data+0x1c22>
80004b7a:	ffff                	.2byte	0xffff
80004b7c:	da8d                	beqz	a3,80004aae <data+0x1be6>
80004b7e:	ffff                	.2byte	0xffff
80004b80:	2345                	jal	80005120 <coeffs+0x318>
80004b82:	0000                	unimp
80004b84:	1f12                	slli	t5,t5,0x24
80004b86:	0000                	unimp
80004b88:	fffff04b          	.4byte	0xfffff04b
80004b8c:	00000547          	fmsub.s	fa0,ft0,ft0,ft0,rne
80004b90:	f274                	fsw	fa3,100(a2)
80004b92:	ffff                	.2byte	0xffff
80004b94:	e825                	bnez	s0,80004c04 <data+0x1d3c>
80004b96:	ffff                	.2byte	0xffff
80004b98:	1591                	addi	a1,a1,-28
80004b9a:	0000                	unimp
80004b9c:	0d36                	slli	s10,s10,0xd
80004b9e:	0000                	unimp
80004ba0:	2f1e                	.2byte	0x2f1e
80004ba2:	0000                	unimp
80004ba4:	ffffded3          	.4byte	0xffffded3
80004ba8:	2e8e                	.2byte	0x2e8e
80004baa:	0000                	unimp
80004bac:	01d9                	addi	gp,gp,22 # 800065be <__global_pointer$+0x16>
80004bae:	0000                	unimp
80004bb0:	2784                	.2byte	0x2784
80004bb2:	0000                	unimp
80004bb4:	000013a7          	.4byte	0x13a7
80004bb8:	0000048f          	.4byte	0x48f
80004bbc:	03b8                	addi	a4,sp,456
80004bbe:	0000                	unimp
80004bc0:	ffffd1eb          	.4byte	0xffffd1eb
80004bc4:	000023fb          	.4byte	0x23fb
80004bc8:	ffffd197          	auipc	gp,0xffffd
80004bcc:	d13c                	sw	a5,96(a0)
80004bce:	ffff                	.2byte	0xffff
80004bd0:	e61e                	fsw	ft7,12(sp)
80004bd2:	ffff                	.2byte	0xffff
80004bd4:	248c                	.2byte	0x248c
80004bd6:	0000                	unimp
80004bd8:	1830                	addi	a2,sp,56
80004bda:	0000                	unimp
80004bdc:	02e0                	addi	s0,sp,332
80004bde:	0000                	unimp
80004be0:	ff28                	fsw	fa0,120(a4)
80004be2:	ffff                	.2byte	0xffff
80004be4:	227f                	.2byte	0x227f
80004be6:	0000                	unimp
80004be8:	307e                	.2byte	0x307e
80004bea:	0000                	unimp
80004bec:	f9e0                	fsw	fs0,116(a1)
80004bee:	ffff                	.2byte	0xffff
80004bf0:	30e9                	jal	800044ba <data+0x15f2>
80004bf2:	0000                	unimp
80004bf4:	fffff7ab          	.4byte	0xfffff7ab
80004bf8:	066d                	addi	a2,a2,27
80004bfa:	0000                	unimp
80004bfc:	222e                	.2byte	0x222e
80004bfe:	0000                	unimp
80004c00:	e4be                	fsw	fa5,72(sp)
80004c02:	ffff                	.2byte	0xffff
80004c04:	28b8                	.2byte	0x28b8
80004c06:	0000                	unimp
80004c08:	f575                	bnez	a0,80004bf4 <data+0x1d2c>
80004c0a:	ffff                	.2byte	0xffff
80004c0c:	0931                	addi	s2,s2,12
80004c0e:	0000                	unimp
80004c10:	dede                	sw	s7,124(sp)
80004c12:	ffff                	.2byte	0xffff
80004c14:	ffffd907          	.4byte	0xffffd907
80004c18:	ffffe467          	.4byte	0xffffe467
80004c1c:	ffffdbfb          	.4byte	0xffffdbfb
80004c20:	e9da                	fsw	fs6,208(sp)
80004c22:	ffff                	.2byte	0xffff
80004c24:	e0f4                	fsw	fa3,68(s1)
80004c26:	ffff                	.2byte	0xffff
80004c28:	0fd4                	addi	a3,sp,980
80004c2a:	0000                	unimp
80004c2c:	df5e                	sw	s7,188(sp)
80004c2e:	ffff                	.2byte	0xffff
80004c30:	0000269b          	.4byte	0x269b
80004c34:	ffffe263          	bltu	t6,t6,80004418 <data+0x1550>
80004c38:	1516                	slli	a0,a0,0x25
80004c3a:	0000                	unimp
80004c3c:	2a86                	.2byte	0x2a86
80004c3e:	0000                	unimp
80004c40:	d45e                	sw	s7,40(sp)
80004c42:	ffff                	.2byte	0xffff
80004c44:	18ac                	addi	a1,sp,120
80004c46:	0000                	unimp
80004c48:	2dc2                	.2byte	0x2dc2
80004c4a:	0000                	unimp
80004c4c:	ec7d                	bnez	s0,80004d4a <data+0x1e82>
80004c4e:	ffff                	.2byte	0xffff
80004c50:	0b38                	addi	a4,sp,408
80004c52:	0000                	unimp
80004c54:	13f2                	slli	t2,t2,0x3c
80004c56:	0000                	unimp
80004c58:	215c                	.2byte	0x215c
80004c5a:	0000                	unimp
80004c5c:	d860                	sw	s0,116(s0)
80004c5e:	ffff                	.2byte	0xffff
80004c60:	0471                	addi	s0,s0,28
80004c62:	0000                	unimp
80004c64:	00001fdb          	.4byte	0x1fdb
80004c68:	0440                	addi	s0,sp,516
80004c6a:	0000                	unimp
80004c6c:	035a                	slli	t1,t1,0x16
80004c6e:	0000                	unimp
80004c70:	e586                	fsw	ft1,200(sp)
80004c72:	ffff                	.2byte	0xffff
80004c74:	d8ad                	beqz	s1,80004be6 <data+0x1d1e>
80004c76:	ffff                	.2byte	0xffff
80004c78:	f388                	fsw	fa0,32(a5)
80004c7a:	ffff                	.2byte	0xffff
80004c7c:	fc44                	fsw	fs1,60(s0)
80004c7e:	ffff                	.2byte	0xffff
80004c80:	cf66                	sw	s9,156(sp)
80004c82:	ffff                	.2byte	0xffff
80004c84:	1afd                	addi	s5,s5,-1
80004c86:	0000                	unimp
80004c88:	d375                	beqz	a4,80004c6c <data+0x1da4>
80004c8a:	ffff                	.2byte	0xffff
80004c8c:	ffffe043          	.4byte	0xffffe043
80004c90:	2604                	.2byte	0x2604
80004c92:	0000                	unimp
80004c94:	e9dc                	fsw	fa5,20(a1)
80004c96:	ffff                	.2byte	0xffff
80004c98:	ee3e                	fsw	fa5,28(sp)
80004c9a:	ffff                	.2byte	0xffff
80004c9c:	ddde                	sw	s7,248(sp)
80004c9e:	ffff                	.2byte	0xffff
80004ca0:	fcd0                	fsw	fa2,60(s1)
80004ca2:	ffff                	.2byte	0xffff
80004ca4:	3012                	.2byte	0x3012
80004ca6:	0000                	unimp
80004ca8:	ef3c                	fsw	fa5,88(a4)
80004caa:	ffff                	.2byte	0xffff
80004cac:	fffff16b          	.4byte	0xfffff16b
80004cb0:	e075                	bnez	s0,80004d94 <data+0x1ecc>
80004cb2:	ffff                	.2byte	0xffff
80004cb4:	d252                	sw	s4,36(sp)
80004cb6:	ffff                	.2byte	0xffff
80004cb8:	e9f2                	fsw	ft8,208(sp)
80004cba:	ffff                	.2byte	0xffff
80004cbc:	e6d4                	fsw	fa3,12(a3)
80004cbe:	ffff                	.2byte	0xffff
80004cc0:	1cfe                	slli	s9,s9,0x3f
80004cc2:	0000                	unimp
80004cc4:	e5b4                	fsw	fa3,72(a1)
80004cc6:	ffff                	.2byte	0xffff
80004cc8:	0550                	addi	a2,sp,644
80004cca:	0000                	unimp
80004ccc:	f636                	fsw	fa3,44(sp)
80004cce:	ffff                	.2byte	0xffff
80004cd0:	2ba6                	.2byte	0x2ba6
80004cd2:	0000                	unimp
80004cd4:	f4ad                	bnez	s1,80004c3e <data+0x1d76>
80004cd6:	ffff                	.2byte	0xffff
80004cd8:	00000097          	auipc	ra,0x0
80004cdc:	fffffe17          	auipc	t3,0xfffff
80004ce0:	e288                	fsw	fa0,0(a3)
80004ce2:	ffff                	.2byte	0xffff
80004ce4:	ffffd2d7          	.4byte	0xffffd2d7
80004ce8:	cf71                	beqz	a4,80004dc4 <data+0x1efc>
80004cea:	ffff                	.2byte	0xffff
80004cec:	fa0e                	fsw	ft3,52(sp)
80004cee:	ffff                	.2byte	0xffff
80004cf0:	dd84                	sw	s1,56(a1)
80004cf2:	ffff                	.2byte	0xffff
80004cf4:	f4f9                	bnez	s1,80004cc2 <data+0x1dfa>
80004cf6:	ffff                	.2byte	0xffff
80004cf8:	2851                	jal	80004d8c <data+0x1ec4>
80004cfa:	0000                	unimp
80004cfc:	deea                	sw	s10,124(sp)
80004cfe:	ffff                	.2byte	0xffff
80004d00:	ddf6                	sw	t4,248(sp)
80004d02:	ffff                	.2byte	0xffff
80004d04:	2dc6                	.2byte	0x2dc6
80004d06:	0000                	unimp
80004d08:	f12d                	bnez	a0,80004c6a <data+0x1da2>
80004d0a:	ffff                	.2byte	0xffff
80004d0c:	d1fa                	sw	t5,224(sp)
80004d0e:	ffff                	.2byte	0xffff
80004d10:	e5a2                	fsw	fs0,200(sp)
80004d12:	ffff                	.2byte	0xffff
80004d14:	0000116b          	.4byte	0x116b
80004d18:	e1d9                	bnez	a1,80004d9e <data+0x1ed6>
80004d1a:	ffff                	.2byte	0xffff
80004d1c:	1472                	slli	s0,s0,0x3c
80004d1e:	0000                	unimp
80004d20:	0f7d                	addi	t5,t5,31
80004d22:	0000                	unimp
80004d24:	0315                	addi	t1,t1,5
80004d26:	0000                	unimp
80004d28:	d3dd                	beqz	a5,80004cce <data+0x1e06>
80004d2a:	ffff                	.2byte	0xffff
80004d2c:	000021f3          	csrr	gp,ustatus
80004d30:	0766                	slli	a4,a4,0x19
80004d32:	0000                	unimp
80004d34:	ffffefcf          	.4byte	0xffffefcf
80004d38:	d6c6                	sw	a7,108(sp)
80004d3a:	ffff                	.2byte	0xffff
80004d3c:	f264                	fsw	fs1,100(a2)
80004d3e:	ffff                	.2byte	0xffff
80004d40:	00000783          	lb	a5,0(zero) # 0 <threadsense.5>
80004d44:	00000e17          	auipc	t3,0x0
80004d48:	1a9a                	slli	s5,s5,0x26
80004d4a:	0000                	unimp
80004d4c:	0129                	addi	sp,sp,10
80004d4e:	0000                	unimp
80004d50:	ffffd0c3          	.4byte	0xffffd0c3
80004d54:	e931                	bnez	a0,80004da8 <data+0x1ee0>
80004d56:	ffff                	.2byte	0xffff
80004d58:	3140                	.2byte	0x3140
80004d5a:	0000                	unimp
80004d5c:	ffffe54b          	.4byte	0xffffe54b
80004d60:	ee08                	fsw	fa0,24(a2)
80004d62:	ffff                	.2byte	0xffff
80004d64:	ceb1                	beqz	a3,80004dc0 <data+0x1ef8>
80004d66:	ffff                	.2byte	0xffff
80004d68:	1158                	addi	a4,sp,164
80004d6a:	0000                	unimp
80004d6c:	fd8c                	fsw	fa1,56(a1)
80004d6e:	ffff                	.2byte	0xffff
80004d70:	f5aa                	fsw	fa0,232(sp)
80004d72:	ffff                	.2byte	0xffff
80004d74:	07aa                	slli	a5,a5,0xa
80004d76:	0000                	unimp
80004d78:	0e76                	slli	t3,t3,0x1d
80004d7a:	0000                	unimp
80004d7c:	05a0                	addi	s0,sp,712
80004d7e:	0000                	unimp
80004d80:	0370                	addi	a2,sp,396
80004d82:	0000                	unimp
80004d84:	000031a3          	.4byte	0x31a3
80004d88:	099a                	slli	s3,s3,0x6
80004d8a:	0000                	unimp
80004d8c:	1b12                	slli	s6,s6,0x24
80004d8e:	0000                	unimp
80004d90:	110e                	slli	sp,sp,0x23
80004d92:	0000                	unimp
80004d94:	00001d73          	csrrw	s10,ustatus,zero
80004d98:	fd84                	fsw	fs1,56(a1)
80004d9a:	ffff                	.2byte	0xffff
80004d9c:	ffffee8b          	.4byte	0xffffee8b
80004da0:	ee88                	fsw	fa0,24(a3)
80004da2:	ffff                	.2byte	0xffff
80004da4:	0361                	addi	t1,t1,24
80004da6:	0000                	unimp
80004da8:	de7e                	sw	t6,60(sp)
80004daa:	ffff                	.2byte	0xffff
80004dac:	27ee                	.2byte	0x27ee
80004dae:	0000                	unimp
80004db0:	2530                	.2byte	0x2530
80004db2:	0000                	unimp
80004db4:	e744                	fsw	fs1,12(a4)
80004db6:	ffff                	.2byte	0xffff
80004db8:	e852                	fsw	fs4,16(sp)
80004dba:	ffff                	.2byte	0xffff
80004dbc:	fffffab3          	.4byte	0xfffffab3
80004dc0:	0000275b          	.4byte	0x275b
80004dc4:	d0ed                	beqz	s1,80004da6 <data+0x1ede>
80004dc6:	ffff                	.2byte	0xffff
80004dc8:	2ddc                	.2byte	0x2ddc
80004dca:	0000                	unimp
80004dcc:	2a1f 0000 ec1e      	.byte	0x1f, 0x2a, 0x00, 0x00, 0x1e, 0xec
80004dd2:	ffff                	.2byte	0xffff
80004dd4:	2d1c                	.2byte	0x2d1c
80004dd6:	0000                	unimp
80004dd8:	dd69                	beqz	a0,80004db2 <data+0x1eea>
80004dda:	ffff                	.2byte	0xffff
80004ddc:	0c26                	slli	s8,s8,0x9
80004dde:	0000                	unimp
80004de0:	2dcd                	jal	800054d2 <coeffs+0x6ca>
80004de2:	0000                	unimp
80004de4:	20c2                	.2byte	0x20c2
80004de6:	0000                	unimp
80004de8:	d7b2                	sw	a2,236(sp)
80004dea:	ffff                	.2byte	0xffff
80004dec:	fffff177          	.4byte	0xfffff177
80004df0:	f66c                	fsw	fa1,108(a2)
80004df2:	ffff                	.2byte	0xffff
80004df4:	1828                	addi	a0,sp,56
80004df6:	0000                	unimp
80004df8:	00002917          	auipc	s2,0x2
80004dfc:	00002bdb          	.4byte	0x2bdb
80004e00:	000017cb          	fnmsub.s	fa5,ft0,ft0,ft0,rtz
80004e04:	00b1                	addi	ra,ra,12 # 80004ce4 <data+0x1e1c>
80004e06:	0000                	unimp

80004e08 <coeffs>:
80004e08:	1b05                	addi	s6,s6,-31
80004e0a:	0000                	unimp
80004e0c:	ee39                	bnez	a2,80004e6a <coeffs+0x62>
80004e0e:	ffff                	.2byte	0xffff
80004e10:	1c5c                	addi	a5,sp,564
80004e12:	0000                	unimp
80004e14:	dc3a                	sw	a4,56(sp)
80004e16:	ffff                	.2byte	0xffff
80004e18:	000029c7          	fmsub.s	fs3,ft0,ft0,ft0,rdn
80004e1c:	13b0                	addi	a2,sp,488
80004e1e:	0000                	unimp
80004e20:	13e4                	addi	s1,sp,492
80004e22:	0000                	unimp
80004e24:	00001c97          	auipc	s9,0x1
80004e28:	f42e                	fsw	fa1,40(sp)
80004e2a:	ffff                	.2byte	0xffff
80004e2c:	ffffedf3          	csrrsi	s11,0xfff,31
80004e30:	2c74                	.2byte	0x2c74
80004e32:	0000                	unimp
80004e34:	01d5                	addi	gp,gp,21 # 80001bdd <getint+0x1>
80004e36:	0000                	unimp
80004e38:	05c4                	addi	s1,sp,708
80004e3a:	0000                	unimp
80004e3c:	ceec                	sw	a1,92(a3)
80004e3e:	ffff                	.2byte	0xffff
80004e40:	02c1                	addi	t0,t0,16
80004e42:	0000                	unimp
80004e44:	00fd                	addi	ra,ra,31
80004e46:	0000                	unimp
80004e48:	e3d4                	fsw	fa3,4(a5)
80004e4a:	ffff                	.2byte	0xffff
80004e4c:	fffff07b          	.4byte	0xfffff07b
80004e50:	1ab4                	addi	a3,sp,376
80004e52:	0000                	unimp
80004e54:	083e                	slli	a6,a6,0xf
80004e56:	0000                	unimp
80004e58:	00002107          	flw	ft2,0(zero) # 0 <threadsense.5>
80004e5c:	d1dc                	sw	a5,36(a1)
80004e5e:	ffff                	.2byte	0xffff
80004e60:	e2f4                	fsw	fa3,68(a3)
80004e62:	ffff                	.2byte	0xffff
80004e64:	1d4e                	slli	s10,s10,0x33
80004e66:	0000                	unimp
80004e68:	d7a2                	sw	s0,236(sp)
80004e6a:	ffff                	.2byte	0xffff
80004e6c:	2024                	.2byte	0x2024
80004e6e:	0000                	unimp
80004e70:	00002abb          	.4byte	0x2abb
80004e74:	17d8                	addi	a4,sp,996
80004e76:	0000                	unimp
80004e78:	d7c0                	sw	s0,44(a5)
80004e7a:	ffff                	.2byte	0xffff
80004e7c:	f8f1                	bnez	s1,80004e50 <coeffs+0x48>
80004e7e:	ffff                	.2byte	0xffff
80004e80:	d511                	beqz	a0,80004d8c <data+0x1ec4>
80004e82:	ffff                	.2byte	0xffff
80004e84:	24c4                	.2byte	0x24c4
80004e86:	0000                	unimp
80004e88:	192a                	slli	s2,s2,0x2a
80004e8a:	0000                	unimp
80004e8c:	236d                	jal	80005436 <coeffs+0x62e>
80004e8e:	0000                	unimp
80004e90:	cefe                	sw	t6,92(sp)
80004e92:	ffff                	.2byte	0xffff
80004e94:	10f1                	addi	ra,ra,-4
80004e96:	0000                	unimp
80004e98:	051d                	addi	a0,a0,7
80004e9a:	0000                	unimp
80004e9c:	14e2                	slli	s1,s1,0x38
80004e9e:	0000                	unimp
80004ea0:	fb89                	bnez	a5,80004db2 <data+0x1eea>
80004ea2:	ffff                	.2byte	0xffff
80004ea4:	2b4a                	.2byte	0x2b4a
80004ea6:	0000                	unimp
80004ea8:	d0d5                	beqz	s1,80004e4c <coeffs+0x44>
80004eaa:	ffff                	.2byte	0xffff
80004eac:	f5fc                	fsw	fa5,108(a1)
80004eae:	ffff                	.2byte	0xffff
80004eb0:	fb20                	fsw	fs0,112(a4)
80004eb2:	ffff                	.2byte	0xffff
80004eb4:	0899                	addi	a7,a7,6
80004eb6:	0000                	unimp
80004eb8:	f6e8                	fsw	fa0,108(a3)
80004eba:	ffff                	.2byte	0xffff
80004ebc:	2fe0                	.2byte	0x2fe0
80004ebe:	0000                	unimp
80004ec0:	d796                	sw	t0,236(sp)
80004ec2:	ffff                	.2byte	0xffff
80004ec4:	0cbc                	addi	a5,sp,600
80004ec6:	0000                	unimp
80004ec8:	ffffee5b          	.4byte	0xffffee5b
80004ecc:	244a                	.2byte	0x244a
80004ece:	0000                	unimp
80004ed0:	e2fa                	fsw	ft10,68(sp)
80004ed2:	ffff                	.2byte	0xffff
80004ed4:	dd62                	sw	s8,184(sp)
80004ed6:	ffff                	.2byte	0xffff
80004ed8:	2825                	jal	80004f10 <coeffs+0x108>
80004eda:	0000                	unimp
80004edc:	f7ed                	bnez	a5,80004ec6 <coeffs+0xbe>
80004ede:	ffff                	.2byte	0xffff
80004ee0:	2cb0                	.2byte	0x2cb0
80004ee2:	0000                	unimp
80004ee4:	31c8                	.2byte	0x31c8
80004ee6:	0000                	unimp
80004ee8:	e611                	bnez	a2,80004ef4 <coeffs+0xec>
80004eea:	ffff                	.2byte	0xffff
80004eec:	256c                	.2byte	0x256c
80004eee:	0000                	unimp
80004ef0:	17a0                	addi	s0,sp,1000
80004ef2:	0000                	unimp
80004ef4:	efd1                	bnez	a5,80004f90 <coeffs+0x188>
80004ef6:	ffff                	.2byte	0xffff
80004ef8:	ec5c                	fsw	fa5,28(s0)
80004efa:	ffff                	.2byte	0xffff
80004efc:	1eb1                	addi	t4,t4,-20
80004efe:	0000                	unimp
80004f00:	e295                	bnez	a3,80004f24 <coeffs+0x11c>
80004f02:	ffff                	.2byte	0xffff
80004f04:	d386                	sw	ra,228(sp)
80004f06:	ffff                	.2byte	0xffff
80004f08:	101d                	c.nop	-25
80004f0a:	0000                	unimp
80004f0c:	ffffe393          	ori	t2,t6,-1
80004f10:	00001677          	.4byte	0x1677
80004f14:	e33a                	fsw	fa4,132(sp)
80004f16:	ffff                	.2byte	0xffff
80004f18:	2a75                	jal	800050d4 <coeffs+0x2cc>
80004f1a:	0000                	unimp
80004f1c:	e000                	fsw	fs0,0(s0)
80004f1e:	ffff                	.2byte	0xffff
80004f20:	dc84                	sw	s1,56(s1)
80004f22:	ffff                	.2byte	0xffff
80004f24:	00002d4b          	fnmsub.s	fs10,ft0,ft0,ft0,rdn
80004f28:	07fc                	addi	a5,sp,972
80004f2a:	0000                	unimp
80004f2c:	09a4                	addi	s1,sp,216
80004f2e:	0000                	unimp
80004f30:	03e4                	addi	s1,sp,460
80004f32:	0000                	unimp
80004f34:	30e5                	jal	8000481c <data+0x1954>
80004f36:	0000                	unimp
80004f38:	0784                	addi	s1,sp,960
80004f3a:	0000                	unimp
80004f3c:	0d7a                	slli	s10,s10,0x1e
80004f3e:	0000                	unimp
80004f40:	0ba1                	addi	s7,s7,8
80004f42:	0000                	unimp
80004f44:	27df 0000 ffc3      	.byte	0xdf, 0x27, 0x00, 0x00, 0xc3, 0xff
80004f4a:	ffff                	.2byte	0xffff
80004f4c:	209a                	.2byte	0x209a
80004f4e:	0000                	unimp
80004f50:	d341                	beqz	a4,80004ed0 <coeffs+0xc8>
80004f52:	ffff                	.2byte	0xffff
80004f54:	f5e9                	bnez	a1,80004f1e <coeffs+0x116>
80004f56:	ffff                	.2byte	0xffff
80004f58:	ffffe687          	.4byte	0xffffe687
80004f5c:	31f2                	.2byte	0x31f2
80004f5e:	0000                	unimp
80004f60:	f5b1                	bnez	a1,80004eac <coeffs+0xa4>
80004f62:	ffff                	.2byte	0xffff
80004f64:	fe98                	fsw	fa4,56(a3)
80004f66:	ffff                	.2byte	0xffff
80004f68:	255d                	jal	8000560e <coeffs+0x806>
80004f6a:	0000                	unimp
80004f6c:	db51                	beqz	a4,80004f00 <coeffs+0xf8>
80004f6e:	ffff                	.2byte	0xffff
80004f70:	2069                	jal	80004ffa <coeffs+0x1f2>
80004f72:	0000                	unimp
80004f74:	dfba                	sw	a4,252(sp)
80004f76:	ffff                	.2byte	0xffff
80004f78:	2c01                	jal	80005188 <coeffs+0x380>
80004f7a:	0000                	unimp
80004f7c:	d0fd                	beqz	s1,80004f62 <coeffs+0x15a>
80004f7e:	ffff                	.2byte	0xffff
80004f80:	e540                	fsw	fs0,12(a0)
80004f82:	ffff                	.2byte	0xffff
80004f84:	0a1f 0000 e690      	.byte	0x1f, 0x0a, 0x00, 0x00, 0x90, 0xe6
80004f8a:	ffff                	.2byte	0xffff
80004f8c:	00002db7          	lui	s11,0x2
80004f90:	1f59                	addi	t5,t5,-10
80004f92:	0000                	unimp
80004f94:	df06                	sw	ra,188(sp)
80004f96:	ffff                	.2byte	0xffff
80004f98:	ffffdbb7          	lui	s7,0xffffd
80004f9c:	2ddd                	jal	80005692 <coeffs+0x88a>
80004f9e:	0000                	unimp
80004fa0:	da50                	sw	a2,52(a2)
80004fa2:	ffff                	.2byte	0xffff
80004fa4:	000015b3          	sll	a1,zero,zero
80004fa8:	0581                	addi	a1,a1,0
80004faa:	0000                	unimp
80004fac:	1034                	addi	a3,sp,40
80004fae:	0000                	unimp
80004fb0:	1498                	addi	a4,sp,608
80004fb2:	0000                	unimp
80004fb4:	db06                	sw	ra,180(sp)
80004fb6:	ffff                	.2byte	0xffff
80004fb8:	ebae                	fsw	fa1,212(sp)
80004fba:	ffff                	.2byte	0xffff
80004fbc:	ee38                	fsw	fa4,88(a2)
80004fbe:	ffff                	.2byte	0xffff
80004fc0:	d0e5                	beqz	s1,80004fa0 <coeffs+0x198>
80004fc2:	ffff                	.2byte	0xffff
80004fc4:	1d71                	addi	s10,s10,-4
80004fc6:	0000                	unimp
80004fc8:	dcd2                	sw	s4,120(sp)
80004fca:	ffff                	.2byte	0xffff
80004fcc:	ffffd627          	.4byte	0xffffd627
80004fd0:	e15a                	fsw	fs6,128(sp)
80004fd2:	ffff                	.2byte	0xffff
80004fd4:	f55a                	fsw	fs6,168(sp)
80004fd6:	ffff                	.2byte	0xffff
80004fd8:	d618                	sw	a4,40(a2)
80004fda:	ffff                	.2byte	0xffff
80004fdc:	0000090b          	fir_coeff_st	s2,zero,zero
80004fe0:	25f2                	.2byte	0x25f2
80004fe2:	0000                	unimp
80004fe4:	2d76                	.2byte	0x2d76
80004fe6:	0000                	unimp
80004fe8:	0000165b          	.4byte	0x165b
80004fec:	145a                	slli	s0,s0,0x36
80004fee:	0000                	unimp
80004ff0:	ffffdb2f          	.4byte	0xffffdb2f
80004ff4:	105d                	c.nop	-9
80004ff6:	0000                	unimp
80004ff8:	1758                	addi	a4,sp,932
80004ffa:	0000                	unimp
80004ffc:	fffff26f          	jal	tp,80004ffa <coeffs+0x1f2>
80005000:	ffffe87b          	.4byte	0xffffe87b
80005004:	2fe8                	.2byte	0x2fe8
80005006:	0000                	unimp
80005008:	ee26                	fsw	fs1,28(sp)
8000500a:	ffff                	.2byte	0xffff
8000500c:	d5d4                	sw	a3,44(a1)
8000500e:	ffff                	.2byte	0xffff
80005010:	dcee                	sw	s11,120(sp)
80005012:	ffff                	.2byte	0xffff
80005014:	fbdd                	bnez	a5,80004fca <coeffs+0x1c2>
80005016:	ffff                	.2byte	0xffff
80005018:	d1b1                	beqz	a1,80004f5c <coeffs+0x154>
8000501a:	ffff                	.2byte	0xffff
8000501c:	e93e                	fsw	fa5,144(sp)
8000501e:	ffff                	.2byte	0xffff
80005020:	df90                	sw	a2,56(a5)
80005022:	ffff                	.2byte	0xffff
80005024:	00000933          	add	s2,zero,zero
80005028:	00002b73          	csrr	s6,ustatus
8000502c:	2628                	.2byte	0x2628
8000502e:	0000                	unimp
80005030:	1639                	addi	a2,a2,-18
80005032:	0000                	unimp
80005034:	e520                	fsw	fs0,72(a0)
80005036:	ffff                	.2byte	0xffff
80005038:	e261                	bnez	a2,800050f8 <coeffs+0x2f0>
8000503a:	ffff                	.2byte	0xffff
8000503c:	191e                	slli	s2,s2,0x27
8000503e:	0000                	unimp
80005040:	d091                	beqz	s1,80004f44 <coeffs+0x13c>
80005042:	ffff                	.2byte	0xffff
80005044:	fffff133          	.4byte	0xfffff133
80005048:	2145                	jal	800054e8 <coeffs+0x6e0>
8000504a:	0000                	unimp
8000504c:	e3ec                	fsw	fa1,68(a5)
8000504e:	ffff                	.2byte	0xffff
80005050:	188d                	addi	a7,a7,-29
80005052:	0000                	unimp
80005054:	295d                	jal	8000550a <coeffs+0x702>
80005056:	0000                	unimp
80005058:	1ef6                	slli	t4,t4,0x3d
8000505a:	0000                	unimp
8000505c:	0c7f                	.2byte	0xc7f
8000505e:	0000                	unimp
80005060:	000024d3          	fadd.s	fs1,ft0,ft0,rdn
80005064:	0352                	slli	t1,t1,0x14
80005066:	0000                	unimp
80005068:	eed9                	bnez	a3,80005106 <coeffs+0x2fe>
8000506a:	ffff                	.2byte	0xffff
8000506c:	ce02                	sw	zero,28(sp)
8000506e:	ffff                	.2byte	0xffff
80005070:	e1ae                	fsw	fa1,192(sp)
80005072:	ffff                	.2byte	0xffff
80005074:	d431                	beqz	s0,80004fc0 <coeffs+0x1b8>
80005076:	ffff                	.2byte	0xffff
80005078:	f271                	bnez	a2,8000503c <coeffs+0x234>
8000507a:	ffff                	.2byte	0xffff
8000507c:	fc2a                	fsw	fa0,56(sp)
8000507e:	ffff                	.2byte	0xffff
80005080:	d21a                	sw	t1,36(sp)
80005082:	ffff                	.2byte	0xffff
80005084:	00001297          	auipc	t0,0x1
80005088:	03fe                	slli	t2,t2,0x1f
8000508a:	0000                	unimp
8000508c:	e108                	fsw	fa0,0(a0)
8000508e:	ffff                	.2byte	0xffff
80005090:	dc74                	sw	a3,124(s0)
80005092:	ffff                	.2byte	0xffff
80005094:	000007af          	.4byte	0x7af
80005098:	fc46                	fsw	fa7,56(sp)
8000509a:	ffff                	.2byte	0xffff
8000509c:	ee04                	fsw	fs1,24(a2)
8000509e:	ffff                	.2byte	0xffff
800050a0:	dee2                	sw	s8,124(sp)
800050a2:	ffff                	.2byte	0xffff
800050a4:	f5b9                	bnez	a1,80004ff2 <coeffs+0x1ea>
800050a6:	ffff                	.2byte	0xffff
800050a8:	e22d                	bnez	a2,8000510a <coeffs+0x302>
800050aa:	ffff                	.2byte	0xffff
800050ac:	0000271b          	.4byte	0x271b
800050b0:	0cd9                	addi	s9,s9,22 # 80005e3a <_end+0x7a>
800050b2:	0000                	unimp
800050b4:	f68e                	fsw	ft3,108(sp)
800050b6:	ffff                	.2byte	0xffff
800050b8:	0e39                	addi	t3,t3,14 # 80004d52 <data+0x1e8a>
800050ba:	0000                	unimp
800050bc:	00000f6b          	.4byte	0xf6b
800050c0:	19c1                	addi	s3,s3,-16
800050c2:	0000                	unimp
800050c4:	fd7f                	.2byte	0xfd7f
800050c6:	ffff                	.2byte	0xffff
800050c8:	2556                	.2byte	0x2556
800050ca:	0000                	unimp
800050cc:	004e                	c.slli	zero,0x13
800050ce:	0000                	unimp
800050d0:	f4dc                	fsw	fa5,44(s1)
800050d2:	ffff                	.2byte	0xffff
800050d4:	124d                	addi	tp,tp,-13 # fffffff3 <__global_pointer$+0x7fff9a4b>
800050d6:	0000                	unimp
800050d8:	dacd                	beqz	a3,8000508a <coeffs+0x282>
800050da:	ffff                	.2byte	0xffff
800050dc:	ffffe7af          	.4byte	0xffffe7af
800050e0:	e39e                	fsw	ft7,196(sp)
800050e2:	ffff                	.2byte	0xffff
800050e4:	fffffba7          	.4byte	0xfffffba7
800050e8:	e7b1                	bnez	a5,80005134 <coeffs+0x32c>
800050ea:	ffff                	.2byte	0xffff
800050ec:	f74d                	bnez	a4,80005096 <coeffs+0x28e>
800050ee:	ffff                	.2byte	0xffff
800050f0:	01d8                	addi	a4,sp,196
800050f2:	0000                	unimp
800050f4:	0c22                	slli	s8,s8,0x8
800050f6:	0000                	unimp
800050f8:	2576                	.2byte	0x2576
800050fa:	0000                	unimp
800050fc:	05f2                	slli	a1,a1,0x1c
800050fe:	0000                	unimp
80005100:	ecb9                	bnez	s1,8000515e <coeffs+0x356>
80005102:	ffff                	.2byte	0xffff
80005104:	f774                	fsw	fa3,108(a4)
80005106:	ffff                	.2byte	0xffff
80005108:	18fa                	slli	a7,a7,0x3e
8000510a:	0000                	unimp
8000510c:	fb2d                	bnez	a4,8000507e <coeffs+0x276>
8000510e:	ffff                	.2byte	0xffff
80005110:	00003123          	.4byte	0x3123
80005114:	e340                	fsw	fs0,4(a4)
80005116:	ffff                	.2byte	0xffff
80005118:	1b31                	addi	s6,s6,-20
8000511a:	0000                	unimp
8000511c:	de06                	sw	ra,60(sp)
8000511e:	ffff                	.2byte	0xffff
80005120:	0af9                	addi	s5,s5,30
80005122:	0000                	unimp
80005124:	2f5e                	.2byte	0x2f5e
80005126:	0000                	unimp
80005128:	d321                	beqz	a4,80005068 <coeffs+0x260>
8000512a:	ffff                	.2byte	0xffff
8000512c:	e5d2                	fsw	fs4,200(sp)
8000512e:	ffff                	.2byte	0xffff
80005130:	f3ec                	fsw	fa1,100(a5)
80005132:	ffff                	.2byte	0xffff
80005134:	135a                	slli	t1,t1,0x36
80005136:	0000                	unimp
80005138:	273d                	jal	80005866 <coeffs+0xa5e>
8000513a:	0000                	unimp
8000513c:	dbad                	beqz	a5,800050ae <coeffs+0x2a6>
8000513e:	ffff                	.2byte	0xffff
80005140:	ded9                	beqz	a3,800050de <coeffs+0x2d6>
80005142:	ffff                	.2byte	0xffff
80005144:	00001a93          	slli	s5,zero,0x0
80005148:	00000dfb          	.4byte	0xdfb
8000514c:	05b5                	addi	a1,a1,13
8000514e:	0000                	unimp
80005150:	fae0                	fsw	fs0,116(a3)
80005152:	ffff                	.2byte	0xffff
80005154:	1ac9                	addi	s5,s5,-14
80005156:	0000                	unimp
80005158:	00001f63          	bnez	zero,80005176 <coeffs+0x36e>
8000515c:	107e                	c.slli	zero,0x3f
8000515e:	0000                	unimp
80005160:	ffffe46f          	jal	s0,8000415e <data+0x1296>
80005164:	d514                	sw	a3,40(a0)
80005166:	ffff                	.2byte	0xffff
80005168:	ffffd5cb          	.4byte	0xffffd5cb
8000516c:	00001847          	fmsub.s	fa6,ft0,ft0,ft0,rtz
80005170:	1336                	slli	t1,t1,0x2d
80005172:	0000                	unimp
80005174:	2d41                	jal	80005804 <coeffs+0x9fc>
80005176:	0000                	unimp
80005178:	ec39                	bnez	s0,800051d6 <coeffs+0x3ce>
8000517a:	ffff                	.2byte	0xffff
8000517c:	000031ef          	jal	gp,8000817c <__global_pointer$+0x1bd4>
80005180:	f2b5                	bnez	a3,800050e4 <coeffs+0x2dc>
80005182:	ffff                	.2byte	0xffff
80005184:	ffffd333          	.4byte	0xffffd333
80005188:	fb1c                	fsw	fa5,48(a4)
8000518a:	ffff                	.2byte	0xffff
8000518c:	f1d9                	bnez	a1,80005112 <coeffs+0x30a>
8000518e:	ffff                	.2byte	0xffff
80005190:	ffffe873          	csrrsi	a6,0xfff,31
80005194:	e44d                	bnez	s0,8000523e <coeffs+0x436>
80005196:	ffff                	.2byte	0xffff
80005198:	01de                	slli	gp,gp,0x17
8000519a:	0000                	unimp
8000519c:	256c                	.2byte	0x256c
8000519e:	0000                	unimp
800051a0:	ffffe1ab          	.4byte	0xffffe1ab
800051a4:	06ff                	.2byte	0x6ff
800051a6:	0000                	unimp
800051a8:	d93e                	sw	a5,176(sp)
800051aa:	ffff                	.2byte	0xffff
800051ac:	00000797          	auipc	a5,0x0
800051b0:	e859                	bnez	s0,80005246 <coeffs+0x43e>
800051b2:	ffff                	.2byte	0xffff
800051b4:	ffffce7b          	.4byte	0xffffce7b
800051b8:	1544                	addi	s1,sp,676
800051ba:	0000                	unimp
800051bc:	f932                	fsw	fa2,176(sp)
800051be:	ffff                	.2byte	0xffff
800051c0:	00001b0f          	.4byte	0x1b0f
800051c4:	fffff13f 000030e7 	.8byte	0x30e7fffff13f
800051cc:	ffffe3ef          	jal	t2,800041ca <data+0x1302>
800051d0:	ffffda07          	.4byte	0xffffda07
800051d4:	1e4a                	slli	t3,t3,0x32
800051d6:	0000                	unimp
800051d8:	266d                	jal	80005582 <coeffs+0x77a>
800051da:	0000                	unimp
800051dc:	fffff077          	.4byte	0xfffff077
800051e0:	255f 0000 2e38      	.byte	0x5f, 0x25, 0x00, 0x00, 0x38, 0x2e
800051e6:	0000                	unimp
800051e8:	d6be                	sw	a5,108(sp)
800051ea:	ffff                	.2byte	0xffff
800051ec:	0695                	addi	a3,a3,5
800051ee:	0000                	unimp
800051f0:	2979                	jal	8000568e <coeffs+0x886>
800051f2:	0000                	unimp
800051f4:	fffff4f7          	.4byte	0xfffff4f7
800051f8:	0684                	addi	s1,sp,832
800051fa:	0000                	unimp
800051fc:	ea2e                	fsw	fa1,20(sp)
800051fe:	ffff                	.2byte	0xffff
80005200:	fa2a                	fsw	fa0,52(sp)
80005202:	ffff                	.2byte	0xffff
80005204:	cf9f ffff 0e07      	.byte	0x9f, 0xcf, 0xff, 0xff, 0x07, 0x0e
8000520a:	0000                	unimp
8000520c:	149d                	addi	s1,s1,-25
8000520e:	0000                	unimp
80005210:	e5ec                	fsw	fa1,76(a1)
80005212:	ffff                	.2byte	0xffff
80005214:	dde5                	beqz	a1,8000520c <coeffs+0x404>
80005216:	ffff                	.2byte	0xffff
80005218:	0809                	addi	a6,a6,2
8000521a:	0000                	unimp
8000521c:	fffff997          	auipc	s3,0xfffff
80005220:	16e4                	addi	s1,sp,876
80005222:	0000                	unimp
80005224:	1348                	addi	a0,sp,420
80005226:	0000                	unimp
80005228:	cf2e                	sw	a1,156(sp)
8000522a:	ffff                	.2byte	0xffff
8000522c:	313d                	jal	80004e5a <coeffs+0x52>
8000522e:	0000                	unimp
80005230:	000013c3          	fmadd.s	ft7,ft0,ft0,ft0,rtz
80005234:	1671                	addi	a2,a2,-4
80005236:	0000                	unimp
80005238:	fffff86f          	jal	a6,80005236 <coeffs+0x42e>
8000523c:	fcd2                	fsw	fs4,120(sp)
8000523e:	ffff                	.2byte	0xffff
80005240:	d5b0                	sw	a2,104(a1)
80005242:	ffff                	.2byte	0xffff
80005244:	f756                	fsw	fs5,172(sp)
80005246:	ffff                	.2byte	0xffff
80005248:	12c0                	addi	s0,sp,356
8000524a:	0000                	unimp
8000524c:	e1b8                	fsw	fa4,64(a1)
8000524e:	ffff                	.2byte	0xffff
80005250:	e3a0                	fsw	fs0,64(a5)
80005252:	ffff                	.2byte	0xffff
80005254:	072d                	addi	a4,a4,11
80005256:	0000                	unimp
80005258:	042e                	slli	s0,s0,0xb
8000525a:	0000                	unimp
8000525c:	d6ff                	.2byte	0xd6ff
8000525e:	ffff                	.2byte	0xffff
80005260:	0365                	addi	t1,t1,25
80005262:	0000                	unimp
80005264:	0cec                	addi	a1,sp,604
80005266:	0000                	unimp
80005268:	00000f93          	li	t6,0
8000526c:	fade                	fsw	fs7,116(sp)
8000526e:	ffff                	.2byte	0xffff
80005270:	ffffcfe3          	blt	t6,t6,8000526e <coeffs+0x466>
80005274:	ffffe417          	auipc	s0,0xffffe
80005278:	170d                	addi	a4,a4,-29
8000527a:	0000                	unimp
8000527c:	fc0d                	bnez	s0,800051b6 <coeffs+0x3ae>
8000527e:	ffff                	.2byte	0xffff
80005280:	e5b6                	fsw	fa3,200(sp)
80005282:	ffff                	.2byte	0xffff
80005284:	fffff313          	andi	t1,t6,-1
80005288:	deaa                	sw	a0,124(sp)
8000528a:	ffff                	.2byte	0xffff
8000528c:	fda2                	fsw	fs0,248(sp)
8000528e:	ffff                	.2byte	0xffff
80005290:	02f8                	addi	a4,sp,332
80005292:	0000                	unimp
80005294:	18b4                	addi	a3,sp,120
80005296:	0000                	unimp
80005298:	2939                	jal	800056b6 <coeffs+0x8ae>
8000529a:	0000                	unimp
8000529c:	e7dc                	fsw	fa5,12(a5)
8000529e:	ffff                	.2byte	0xffff
800052a0:	fffff9fb          	.4byte	0xfffff9fb
800052a4:	00002a67          	.4byte	0x2a67
800052a8:	e719                	bnez	a4,800052b6 <coeffs+0x4ae>
800052aa:	ffff                	.2byte	0xffff
800052ac:	dbbe                	sw	a5,244(sp)
800052ae:	ffff                	.2byte	0xffff
800052b0:	0ed8                	addi	a4,sp,852
800052b2:	0000                	unimp
800052b4:	1188                	addi	a0,sp,224
800052b6:	0000                	unimp
800052b8:	0a90                	addi	a2,sp,336
800052ba:	0000                	unimp
800052bc:	1688                	addi	a0,sp,864
800052be:	0000                	unimp
800052c0:	d6de                	sw	s7,108(sp)
800052c2:	ffff                	.2byte	0xffff
800052c4:	eb50                	fsw	fa2,20(a4)
800052c6:	ffff                	.2byte	0xffff
800052c8:	2a40                	.2byte	0x2a40
800052ca:	0000                	unimp
800052cc:	ec7e                	fsw	ft11,24(sp)
800052ce:	ffff                	.2byte	0xffff
800052d0:	247e                	.2byte	0x247e
800052d2:	0000                	unimp
800052d4:	fc6e                	fsw	fs11,56(sp)
800052d6:	ffff                	.2byte	0xffff
800052d8:	f57d                	bnez	a0,800052c6 <coeffs+0x4be>
800052da:	ffff                	.2byte	0xffff
800052dc:	fffff5e3          	bgeu	t6,t6,800052c6 <coeffs+0x4be>
800052e0:	d75a                	sw	s6,172(sp)
800052e2:	ffff                	.2byte	0xffff
800052e4:	d311                	beqz	a4,800051e8 <coeffs+0x3e0>
800052e6:	ffff                	.2byte	0xffff
800052e8:	22c2                	.2byte	0x22c2
800052ea:	0000                	unimp
800052ec:	d93d                	beqz	a0,80005262 <coeffs+0x45a>
800052ee:	ffff                	.2byte	0xffff
800052f0:	e928                	fsw	fa0,80(a0)
800052f2:	ffff                	.2byte	0xffff
800052f4:	07ce                	slli	a5,a5,0x13
800052f6:	0000                	unimp
800052f8:	0000074b          	fnmsub.s	fa4,ft0,ft0,ft0,rne
800052fc:	00de                	slli	ra,ra,0x17
800052fe:	0000                	unimp
80005300:	2ce1                	jal	800055d8 <coeffs+0x7d0>
80005302:	0000                	unimp
80005304:	17f5                	addi	a5,a5,-3 # 800051a9 <coeffs+0x3a1>
80005306:	0000                	unimp
80005308:	3080                	.2byte	0x3080
8000530a:	0000                	unimp
8000530c:	fdda                	fsw	fs6,248(sp)
8000530e:	ffff                	.2byte	0xffff
80005310:	fea9                	bnez	a3,8000526a <coeffs+0x462>
80005312:	ffff                	.2byte	0xffff
80005314:	27b9                	jal	80005a62 <coeffs+0xc5a>
80005316:	0000                	unimp
80005318:	17b6                	slli	a5,a5,0x2d
8000531a:	0000                	unimp
8000531c:	2aa4                	.2byte	0x2aa4
8000531e:	0000                	unimp
80005320:	2020                	.2byte	0x2020
80005322:	0000                	unimp
80005324:	000030cf          	fnmadd.s	ft1,ft0,ft0,ft0,rup
80005328:	d462                	sw	s8,40(sp)
8000532a:	ffff                	.2byte	0xffff
8000532c:	fcf8                	fsw	fa4,124(s1)
8000532e:	ffff                	.2byte	0xffff
80005330:	00001057          	.4byte	0x1057
80005334:	10f2                	slli	ra,ra,0x3c
80005336:	0000                	unimp
80005338:	e180                	fsw	fs0,0(a1)
8000533a:	ffff                	.2byte	0xffff
8000533c:	1935                	addi	s2,s2,-19 # 80006de5 <__global_pointer$+0x83d>
8000533e:	0000                	unimp
80005340:	2e42                	.2byte	0x2e42
80005342:	0000                	unimp
80005344:	d9c0                	sw	s0,52(a1)
80005346:	ffff                	.2byte	0xffff
80005348:	d3b4                	sw	a3,96(a5)
8000534a:	ffff                	.2byte	0xffff
8000534c:	20c0                	.2byte	0x20c0
8000534e:	0000                	unimp
80005350:	082d                	addi	a6,a6,11
80005352:	0000                	unimp
80005354:	fb31                	bnez	a4,800052a8 <coeffs+0x4a0>
80005356:	ffff                	.2byte	0xffff
80005358:	ffffe4a3          	.4byte	0xffffe4a3
8000535c:	1188                	addi	a0,sp,224
8000535e:	0000                	unimp
80005360:	0042                	c.slli	zero,0x10
80005362:	0000                	unimp
80005364:	d565                	beqz	a0,8000534c <coeffs+0x544>
80005366:	ffff                	.2byte	0xffff
80005368:	1cc5                	addi	s9,s9,-15
8000536a:	0000                	unimp
8000536c:	1b69                	addi	s6,s6,-6
8000536e:	0000                	unimp
80005370:	00000f33          	add	t5,zero,zero
80005374:	f210                	fsw	fa2,32(a2)
80005376:	ffff                	.2byte	0xffff
80005378:	ffffea47          	.4byte	0xffffea47
8000537c:	0a14                	addi	a3,sp,272
8000537e:	0000                	unimp
80005380:	d805                	beqz	s0,800052b0 <coeffs+0x4a8>
80005382:	ffff                	.2byte	0xffff
80005384:	e8c8                	fsw	fa0,20(s1)
80005386:	ffff                	.2byte	0xffff
80005388:	d5ee                	sw	s11,232(sp)
8000538a:	ffff                	.2byte	0xffff
8000538c:	08ae                	slli	a7,a7,0xb
8000538e:	0000                	unimp
80005390:	de81                	beqz	a3,800052a8 <coeffs+0x4a0>
80005392:	ffff                	.2byte	0xffff
80005394:	1fa4                	addi	s1,sp,1016
80005396:	0000                	unimp
80005398:	0152                	slli	sp,sp,0x14
8000539a:	0000                	unimp
8000539c:	30a1                	jal	80004be4 <data+0x1d1c>
8000539e:	0000                	unimp
800053a0:	1e72                	slli	t3,t3,0x3c
800053a2:	0000                	unimp
800053a4:	07b5                	addi	a5,a5,13
800053a6:	0000                	unimp
800053a8:	fb99                	bnez	a5,800052be <coeffs+0x4b6>
800053aa:	ffff                	.2byte	0xffff
800053ac:	fcc9                	bnez	s1,80005346 <coeffs+0x53e>
800053ae:	ffff                	.2byte	0xffff
800053b0:	ffffe6a7          	.4byte	0xffffe6a7
800053b4:	0f19                	addi	t5,t5,6
800053b6:	0000                	unimp
800053b8:	e3fe                	fsw	ft11,196(sp)
800053ba:	ffff                	.2byte	0xffff
800053bc:	e2e9                	bnez	a3,8000547e <coeffs+0x676>
800053be:	ffff                	.2byte	0xffff
800053c0:	1ad9                	addi	s5,s5,-10
800053c2:	0000                	unimp
800053c4:	e9b2                	fsw	fa2,208(sp)
800053c6:	ffff                	.2byte	0xffff
800053c8:	d1a9                	beqz	a1,8000530a <coeffs+0x502>
800053ca:	ffff                	.2byte	0xffff
800053cc:	f106                	fsw	ft1,160(sp)
800053ce:	ffff                	.2byte	0xffff
800053d0:	000016e3          	bnez	zero,80005bdc <coeffs+0xdd4>
800053d4:	e84c                	fsw	fa1,20(s0)
800053d6:	ffff                	.2byte	0xffff
800053d8:	d08e                	sw	gp,96(sp)
800053da:	ffff                	.2byte	0xffff
800053dc:	e525                	bnez	a0,80005444 <coeffs+0x63c>
800053de:	ffff                	.2byte	0xffff
800053e0:	efb1                	bnez	a5,8000543c <coeffs+0x634>
800053e2:	ffff                	.2byte	0xffff
800053e4:	00001f53          	fadd.s	ft10,ft0,ft0,rtz
800053e8:	ce8e                	sw	gp,92(sp)
800053ea:	ffff                	.2byte	0xffff
800053ec:	30e4                	.2byte	0x30e4
800053ee:	0000                	unimp
800053f0:	df62                	sw	s8,188(sp)
800053f2:	ffff                	.2byte	0xffff
800053f4:	ead5                	bnez	a3,800054a8 <coeffs+0x6a0>
800053f6:	ffff                	.2byte	0xffff
800053f8:	08f9                	addi	a7,a7,30
800053fa:	0000                	unimp
800053fc:	e968                	fsw	fa0,84(a0)
800053fe:	ffff                	.2byte	0xffff
80005400:	059d                	addi	a1,a1,7
80005402:	0000                	unimp
80005404:	000010e7          	.4byte	0x10e7
80005408:	2416                	.2byte	0x2416
8000540a:	0000                	unimp
8000540c:	161e                	slli	a2,a2,0x27
8000540e:	0000                	unimp
80005410:	fe8a                	fsw	ft2,124(sp)
80005412:	ffff                	.2byte	0xffff
80005414:	f368                	fsw	fa0,100(a4)
80005416:	ffff                	.2byte	0xffff
80005418:	000014bf ffffeafd 	.8byte	0xffffeafd000014bf
80005420:	2d1d                	jal	80005a56 <coeffs+0xc4e>
80005422:	0000                	unimp
80005424:	de58                	sw	a4,60(a2)
80005426:	ffff                	.2byte	0xffff
80005428:	19c6                	slli	s3,s3,0x31
8000542a:	0000                	unimp
8000542c:	e1c4                	fsw	fs1,4(a1)
8000542e:	ffff                	.2byte	0xffff
80005430:	1f71                	addi	t5,t5,-4
80005432:	0000                	unimp
80005434:	2fc5                	jal	80005c24 <coeffs+0xe1c>
80005436:	0000                	unimp
80005438:	f6ad                	bnez	a3,800053a2 <coeffs+0x59a>
8000543a:	ffff                	.2byte	0xffff
8000543c:	084a                	slli	a6,a6,0x12
8000543e:	0000                	unimp
80005440:	ffffe777          	.4byte	0xffffe777
80005444:	fa56                	fsw	fs5,52(sp)
80005446:	ffff                	.2byte	0xffff
80005448:	2b50                	.2byte	0x2b50
8000544a:	0000                	unimp
8000544c:	305a                	.2byte	0x305a
8000544e:	0000                	unimp
80005450:	000014a3          	sh	zero,9(zero) # 9 <threadsense.5+0x9>
80005454:	2dde                	.2byte	0x2dde
80005456:	0000                	unimp
80005458:	e37e                	fsw	ft11,132(sp)
8000545a:	ffff                	.2byte	0xffff
8000545c:	d254                	sw	a3,36(a2)
8000545e:	ffff                	.2byte	0xffff
80005460:	1b30                	addi	a2,sp,440
80005462:	0000                	unimp
80005464:	e40c                	fsw	fa1,8(s0)
80005466:	ffff                	.2byte	0xffff
80005468:	d138                	sw	a4,96(a0)
8000546a:	ffff                	.2byte	0xffff
8000546c:	00002c93          	slti	s9,zero,0
80005470:	00e1                	addi	ra,ra,24
80005472:	0000                	unimp
80005474:	0c31                	addi	s8,s8,12 # fffff00c <__global_pointer$+0x7fff8a64>
80005476:	0000                	unimp
80005478:	e3fa                	fsw	ft10,196(sp)
8000547a:	ffff                	.2byte	0xffff
8000547c:	d47e                	sw	t6,40(sp)
8000547e:	ffff                	.2byte	0xffff
80005480:	eb18                	fsw	fa4,16(a4)
80005482:	ffff                	.2byte	0xffff
80005484:	d610                	sw	a2,40(a2)
80005486:	ffff                	.2byte	0xffff
80005488:	1c9c                	addi	a5,sp,624
8000548a:	0000                	unimp
8000548c:	1ba2                	slli	s7,s7,0x28
8000548e:	0000                	unimp
80005490:	fb79                	bnez	a4,80005466 <coeffs+0x65e>
80005492:	ffff                	.2byte	0xffff
80005494:	ffffff5b          	.4byte	0xffffff5b
80005498:	d49f ffff f696      	.byte	0x9f, 0xd4, 0xff, 0xff, 0x96, 0xf6
8000549e:	ffff                	.2byte	0xffff
800054a0:	0fb4                	addi	a3,sp,984
800054a2:	0000                	unimp
800054a4:	2065                	jal	8000554c <coeffs+0x744>
800054a6:	0000                	unimp
800054a8:	0a59                	addi	s4,s4,22
800054aa:	0000                	unimp
800054ac:	fd25                	bnez	a0,80005424 <coeffs+0x61c>
800054ae:	ffff                	.2byte	0xffff
800054b0:	1e2a                	slli	t3,t3,0x2a
800054b2:	0000                	unimp
800054b4:	cf06                	sw	ra,156(sp)
800054b6:	ffff                	.2byte	0xffff
800054b8:	ffffd36f          	jal	t1,800034b6 <data+0x5ee>
800054bc:	d3a0                	sw	s0,96(a5)
800054be:	ffff                	.2byte	0xffff
800054c0:	fb5c                	fsw	fa5,52(a4)
800054c2:	ffff                	.2byte	0xffff
800054c4:	000030bf ffffd1fa 	.8byte	0xffffd1fa000030bf
800054cc:	ddff                	.2byte	0xddff
800054ce:	ffff                	.2byte	0xffff
800054d0:	2c9d                	jal	80005746 <coeffs+0x93e>
800054d2:	0000                	unimp
800054d4:	e778                	fsw	fa4,76(a4)
800054d6:	ffff                	.2byte	0xffff
800054d8:	ffffe253          	.4byte	0xffffe253
800054dc:	15cd                	addi	a1,a1,-13
800054de:	0000                	unimp
800054e0:	fd84                	fsw	fs1,56(a1)
800054e2:	ffff                	.2byte	0xffff
800054e4:	ffffe58b          	.4byte	0xffffe58b
800054e8:	1060                	addi	s0,sp,44
800054ea:	0000                	unimp
800054ec:	3066                	.2byte	0x3066
800054ee:	0000                	unimp
800054f0:	23bc                	.2byte	0x23bc
800054f2:	0000                	unimp
800054f4:	265a                	.2byte	0x265a
800054f6:	0000                	unimp
800054f8:	d2e4                	sw	s1,100(a3)
800054fa:	ffff                	.2byte	0xffff
800054fc:	ffffdcd3          	.4byte	0xffffdcd3
80005500:	2e6a                	.2byte	0x2e6a
80005502:	0000                	unimp
80005504:	2180                	.2byte	0x2180
80005506:	0000                	unimp
80005508:	2a75                	jal	800056c4 <coeffs+0x8bc>
8000550a:	0000                	unimp
8000550c:	fffff7e3          	bgeu	t6,t6,800054fa <coeffs+0x6f2>
80005510:	eedc                	fsw	fa5,28(a3)
80005512:	ffff                	.2byte	0xffff
80005514:	3114                	.2byte	0x3114
80005516:	0000                	unimp
80005518:	2078                	.2byte	0x2078
8000551a:	0000                	unimp
8000551c:	3090                	.2byte	0x3090
8000551e:	0000                	unimp
80005520:	1f79                	addi	t5,t5,-2
80005522:	0000                	unimp
80005524:	f8d1                	bnez	s1,800054b8 <coeffs+0x6b0>
80005526:	ffff                	.2byte	0xffff
80005528:	fbb5                	bnez	a5,8000549c <coeffs+0x694>
8000552a:	ffff                	.2byte	0xffff
8000552c:	0ba2                	slli	s7,s7,0x8
8000552e:	0000                	unimp
80005530:	f9d8                	fsw	fa4,52(a1)
80005532:	ffff                	.2byte	0xffff
80005534:	0124                	addi	s1,sp,136
80005536:	0000                	unimp
80005538:	00001143          	fmadd.s	ft2,ft0,ft0,ft0,rtz
8000553c:	2734                	.2byte	0x2734
8000553e:	0000                	unimp
80005540:	ffffffe3          	bgeu	t6,t6,8000553e <coeffs+0x736>
80005544:	153d                	addi	a0,a0,-17
80005546:	0000                	unimp
80005548:	ffffd333          	.4byte	0xffffd333
8000554c:	fa80                	fsw	fs0,48(a3)
8000554e:	ffff                	.2byte	0xffff
80005550:	2eb5                	jal	800058cc <coeffs+0xac4>
80005552:	0000                	unimp
80005554:	e786                	fsw	ft1,204(sp)
80005556:	ffff                	.2byte	0xffff
80005558:	de4d                	beqz	a2,80005512 <coeffs+0x70a>
8000555a:	ffff                	.2byte	0xffff
8000555c:	fa39                	bnez	a2,800054b2 <coeffs+0x6aa>
8000555e:	ffff                	.2byte	0xffff
80005560:	ff11                	bnez	a4,8000547c <coeffs+0x674>
80005562:	ffff                	.2byte	0xffff
80005564:	20ad                	jal	800055ce <coeffs+0x7c6>
80005566:	0000                	unimp
80005568:	f89f ffff f0cc      	.byte	0x9f, 0xf8, 0xff, 0xff, 0xcc, 0xf0
8000556e:	ffff                	.2byte	0xffff
80005570:	1506                	slli	a0,a0,0x21
80005572:	0000                	unimp
80005574:	fffffd83          	.4byte	0xfffffd83
80005578:	ff9f ffff 1170      	.byte	0x9f, 0xff, 0xff, 0xff, 0x70, 0x11
8000557e:	0000                	unimp
80005580:	ffffed03          	.4byte	0xffffed03
80005584:	f814                	fsw	fa3,48(s0)
80005586:	ffff                	.2byte	0xffff
80005588:	ffffd753          	.4byte	0xffffd753
8000558c:	0ddf 0000 f728      	.byte	0xdf, 0x0d, 0x00, 0x00, 0x28, 0xf7
80005592:	ffff                	.2byte	0xffff
80005594:	000029cb          	fnmsub.s	fs3,ft0,ft0,ft0,rdn
80005598:	00000c6f          	jal	s8,80005598 <coeffs+0x790>
8000559c:	e4a1                	bnez	s1,800055e4 <coeffs+0x7dc>
8000559e:	ffff                	.2byte	0xffff
800055a0:	f09c                	fsw	fa5,32(s1)
800055a2:	ffff                	.2byte	0xffff
800055a4:	ffffd623          	.4byte	0xffffd623
800055a8:	00002243          	fmadd.s	ft4,ft0,ft0,ft0,rdn
800055ac:	1c74                	addi	a3,sp,572
800055ae:	0000                	unimp
800055b0:	00000947          	fmsub.s	fs2,ft0,ft0,ft0,rne
800055b4:	0186                	slli	gp,gp,0x1
800055b6:	0000                	unimp
800055b8:	11a8                	addi	a0,sp,232
800055ba:	0000                	unimp
800055bc:	ffffd72b          	.4byte	0xffffd72b
800055c0:	ffffe4c3          	.4byte	0xffffe4c3
800055c4:	000016db          	.4byte	0x16db
800055c8:	000003ab          	fir_data_st	t2,zero
800055cc:	e178                	fsw	fa4,68(a0)
800055ce:	ffff                	.2byte	0xffff
800055d0:	3061                	jal	80004e58 <coeffs+0x50>
800055d2:	0000                	unimp
800055d4:	13f8                	addi	a4,sp,492
800055d6:	0000                	unimp
800055d8:	0db1                	addi	s11,s11,12 # 200c <buflen.3+0x1f8c>
800055da:	0000                	unimp
800055dc:	fd71                	bnez	a0,800055b8 <coeffs+0x7b0>
800055de:	ffff                	.2byte	0xffff
800055e0:	02a5                	addi	t0,t0,9 # 8000608d <_tbss_end+0x249>
800055e2:	0000                	unimp
800055e4:	d450                	sw	a2,44(s0)
800055e6:	ffff                	.2byte	0xffff
800055e8:	203d                	jal	80005616 <coeffs+0x80e>
800055ea:	0000                	unimp
800055ec:	ffffe5ab          	.4byte	0xffffe5ab
800055f0:	000003d3          	fadd.s	ft7,ft0,ft0,rne
800055f4:	eddd                	bnez	a1,800056b2 <coeffs+0x8aa>
800055f6:	ffff                	.2byte	0xffff
800055f8:	291c                	.2byte	0x291c
800055fa:	0000                	unimp
800055fc:	000022d7          	.4byte	0x22d7
80005600:	17f1                	addi	a5,a5,-4
80005602:	0000                	unimp
80005604:	ffffce6f          	jal	t3,80002602 <__udivdi3+0x140>
80005608:	feb6                	fsw	fa3,124(sp)
8000560a:	ffff                	.2byte	0xffff
8000560c:	dd19                	beqz	a0,8000552a <coeffs+0x722>
8000560e:	ffff                	.2byte	0xffff
80005610:	2a3a                	.2byte	0x2a3a
80005612:	0000                	unimp
80005614:	d924                	sw	s1,112(a0)
80005616:	ffff                	.2byte	0xffff
80005618:	f3ba                	fsw	fa4,228(sp)
8000561a:	ffff                	.2byte	0xffff
8000561c:	e8d6                	fsw	fs5,80(sp)
8000561e:	ffff                	.2byte	0xffff
80005620:	e148                	fsw	fa0,4(a0)
80005622:	ffff                	.2byte	0xffff
80005624:	e3fd                	bnez	a5,8000570a <coeffs+0x902>
80005626:	ffff                	.2byte	0xffff
80005628:	d34a                	sw	s2,164(sp)
8000562a:	ffff                	.2byte	0xffff
8000562c:	00001c8f          	.4byte	0x1c8f
80005630:	00001783          	lh	a5,0(zero) # 0 <threadsense.5>
80005634:	16f2                	slli	a3,a3,0x3c
80005636:	0000                	unimp
80005638:	25ba                	.2byte	0x25ba
8000563a:	0000                	unimp
8000563c:	2e46                	.2byte	0x2e46
8000563e:	0000                	unimp
80005640:	fbcc                	fsw	fa1,52(a5)
80005642:	ffff                	.2byte	0xffff
80005644:	f765                	bnez	a4,8000562c <coeffs+0x824>
80005646:	ffff                	.2byte	0xffff
80005648:	ddbe                	sw	a5,248(sp)
8000564a:	ffff                	.2byte	0xffff
8000564c:	fa2d                	bnez	a2,800055be <coeffs+0x7b6>
8000564e:	ffff                	.2byte	0xffff
80005650:	d95d                	beqz	a0,80005606 <coeffs+0x7fe>
80005652:	ffff                	.2byte	0xffff
80005654:	00001d6f          	jal	s10,80006654 <__global_pointer$+0xac>
80005658:	299e                	.2byte	0x299e
8000565a:	0000                	unimp
8000565c:	0e02                	c.slli64	t3
8000565e:	0000                	unimp
80005660:	000023bf 000017dc 	.8byte	0x17dc000023bf
80005668:	25ad                	jal	80005cd2 <coeffs+0xeca>
8000566a:	0000                	unimp
8000566c:	fffff593          	andi	a1,t6,-1
80005670:	d3b8                	sw	a4,96(a5)
80005672:	ffff                	.2byte	0xffff
80005674:	1cc9                	addi	s9,s9,-14
80005676:	0000                	unimp
80005678:	e669                	bnez	a2,80005742 <coeffs+0x93a>
8000567a:	ffff                	.2byte	0xffff
8000567c:	1da9                	addi	s11,s11,-22
8000567e:	0000                	unimp
80005680:	1d38                	addi	a4,sp,696
80005682:	0000                	unimp
80005684:	171f 0000 2cc2      	.byte	0x1f, 0x17, 0x00, 0x00, 0xc2, 0x2c
8000568a:	0000                	unimp
8000568c:	1572                	slli	a0,a0,0x3c
8000568e:	0000                	unimp
80005690:	2244                	.2byte	0x2244
80005692:	0000                	unimp
80005694:	ee7c                	fsw	fa5,92(a2)
80005696:	ffff                	.2byte	0xffff
80005698:	3048                	.2byte	0x3048
8000569a:	0000                	unimp
8000569c:	ffffd18b          	.4byte	0xffffd18b
800056a0:	047a                	slli	s0,s0,0x1e
800056a2:	0000                	unimp
800056a4:	d191                	beqz	a1,800055a8 <coeffs+0x7a0>
800056a6:	ffff                	.2byte	0xffff
800056a8:	0000201b          	.4byte	0x201b
800056ac:	e9fd                	bnez	a1,800057a2 <coeffs+0x99a>
800056ae:	ffff                	.2byte	0xffff
800056b0:	00001a83          	lh	s5,0(zero) # 0 <threadsense.5>
800056b4:	13d5                	addi	t2,t2,-11 # ffffcff5 <__global_pointer$+0x7fff6a4d>
800056b6:	0000                	unimp
800056b8:	ffffe643          	.4byte	0xffffe643
800056bc:	ffffe44f          	.4byte	0xffffe44f
800056c0:	d93a                	sw	a4,176(sp)
800056c2:	ffff                	.2byte	0xffff
800056c4:	f601                	bnez	a2,800055cc <coeffs+0x7c4>
800056c6:	ffff                	.2byte	0xffff
800056c8:	107c                	addi	a5,sp,44
800056ca:	0000                	unimp
800056cc:	ffffe497          	auipc	s1,0xffffe
800056d0:	e170                	fsw	fa2,68(a0)
800056d2:	ffff                	.2byte	0xffff
800056d4:	0000081b          	.4byte	0x81b
800056d8:	2499                	jal	8000591e <coeffs+0xb16>
800056da:	0000                	unimp
800056dc:	ffffd32f          	.4byte	0xffffd32f
800056e0:	edf6                	fsw	ft9,216(sp)
800056e2:	ffff                	.2byte	0xffff
800056e4:	00001847          	fmsub.s	fa6,ft0,ft0,ft0,rtz
800056e8:	fac2                	fsw	fa6,116(sp)
800056ea:	ffff                	.2byte	0xffff
800056ec:	f3ae                	fsw	fa1,228(sp)
800056ee:	ffff                	.2byte	0xffff
800056f0:	0310                	addi	a2,sp,384
800056f2:	0000                	unimp
800056f4:	0000132b          	.4byte	0x132b
800056f8:	df58                	sw	a4,60(a4)
800056fa:	ffff                	.2byte	0xffff
800056fc:	ee48                	fsw	fa0,28(a2)
800056fe:	ffff                	.2byte	0xffff
80005700:	f84a                	fsw	fs2,48(sp)
80005702:	ffff                	.2byte	0xffff
80005704:	da1a                	sw	t1,52(sp)
80005706:	ffff                	.2byte	0xffff
80005708:	d1b9                	beqz	a1,8000564e <coeffs+0x846>
8000570a:	ffff                	.2byte	0xffff
8000570c:	e88e                	fsw	ft3,80(sp)
8000570e:	ffff                	.2byte	0xffff
80005710:	fa96                	fsw	ft5,116(sp)
80005712:	ffff                	.2byte	0xffff
80005714:	d001                	beqz	s0,80005614 <coeffs+0x80c>
80005716:	ffff                	.2byte	0xffff
80005718:	ec19                	bnez	s0,80005736 <coeffs+0x92e>
8000571a:	ffff                	.2byte	0xffff
8000571c:	3110                	.2byte	0x3110
8000571e:	0000                	unimp
80005720:	d392                	sw	tp,228(sp)
80005722:	ffff                	.2byte	0xffff
80005724:	da34                	sw	a3,112(a2)
80005726:	ffff                	.2byte	0xffff
80005728:	e90e                	fsw	ft3,144(sp)
8000572a:	ffff                	.2byte	0xffff
8000572c:	2015                	jal	80005750 <coeffs+0x948>
8000572e:	0000                	unimp
80005730:	2008                	.2byte	0x2008
80005732:	0000                	unimp
80005734:	0151                	addi	sp,sp,20
80005736:	0000                	unimp
80005738:	d265                	beqz	a2,80005718 <coeffs+0x910>
8000573a:	ffff                	.2byte	0xffff
8000573c:	2b42                	.2byte	0x2b42
8000573e:	0000                	unimp
80005740:	2952                	.2byte	0x2952
80005742:	0000                	unimp
80005744:	14e1                	addi	s1,s1,-8 # 800036c4 <data+0x7fc>
80005746:	0000                	unimp
80005748:	ddda                	sw	s6,248(sp)
8000574a:	ffff                	.2byte	0xffff
8000574c:	d8c2                	sw	a6,112(sp)
8000574e:	ffff                	.2byte	0xffff
80005750:	eafc                	fsw	fa5,84(a3)
80005752:	ffff                	.2byte	0xffff
80005754:	ffffd073          	csrwi	0xfff,31
80005758:	ddf1                	beqz	a1,80005734 <coeffs+0x92c>
8000575a:	ffff                	.2byte	0xffff
8000575c:	0af2                	slli	s5,s5,0x1c
8000575e:	0000                	unimp
80005760:	1aba                	slli	s5,s5,0x2e
80005762:	0000                	unimp
80005764:	00000ab3          	add	s5,zero,zero
80005768:	30a0                	.2byte	0x30a0
8000576a:	0000                	unimp
8000576c:	ebca                	fsw	fs2,212(sp)
8000576e:	ffff                	.2byte	0xffff
80005770:	ebde                	fsw	fs7,212(sp)
80005772:	ffff                	.2byte	0xffff
80005774:	ddf8                	sw	a4,124(a1)
80005776:	ffff                	.2byte	0xffff
80005778:	0c12                	slli	s8,s8,0x4
8000577a:	0000                	unimp
8000577c:	1628                	addi	a0,sp,808
8000577e:	0000                	unimp
80005780:	ea12                	fsw	ft4,20(sp)
80005782:	ffff                	.2byte	0xffff
80005784:	00000fcb          	fnmsub.s	ft11,ft0,ft0,ft0,rne
80005788:	30b5                	jal	80004ff4 <coeffs+0x1ec>
8000578a:	0000                	unimp
8000578c:	16a8                	addi	a0,sp,872
8000578e:	0000                	unimp
80005790:	11cc                	addi	a1,sp,228
80005792:	0000                	unimp
80005794:	eace                	fsw	fs3,84(sp)
80005796:	ffff                	.2byte	0xffff
80005798:	15b9                	addi	a1,a1,-18
8000579a:	0000                	unimp
8000579c:	175e                	slli	a4,a4,0x37
8000579e:	0000                	unimp
800057a0:	f702                	fsw	ft0,172(sp)
800057a2:	ffff                	.2byte	0xffff
800057a4:	30c6                	.2byte	0x30c6
800057a6:	0000                	unimp
800057a8:	0574                	addi	a3,sp,652
800057aa:	0000                	unimp
800057ac:	e50a                	fsw	ft2,136(sp)
800057ae:	ffff                	.2byte	0xffff
800057b0:	0018                	.2byte	0x18
800057b2:	0000                	unimp
800057b4:	09d9                	addi	s3,s3,22 # 80004232 <data+0x136a>
800057b6:	0000                	unimp
800057b8:	de4c                	sw	a1,60(a2)
800057ba:	ffff                	.2byte	0xffff
800057bc:	f76a                	fsw	fs10,172(sp)
800057be:	ffff                	.2byte	0xffff
800057c0:	ecba                	fsw	fa4,88(sp)
800057c2:	ffff                	.2byte	0xffff
800057c4:	ee26                	fsw	fs1,28(sp)
800057c6:	ffff                	.2byte	0xffff
800057c8:	022c                	addi	a1,sp,264
800057ca:	0000                	unimp
800057cc:	09b6                	slli	s3,s3,0xd
800057ce:	0000                	unimp
800057d0:	f099                	bnez	s1,800056d6 <coeffs+0x8ce>
800057d2:	ffff                	.2byte	0xffff
800057d4:	121d                	addi	tp,tp,-25 # ffffffe7 <__global_pointer$+0x7fff9a3f>
800057d6:	0000                	unimp
800057d8:	e2a8                	fsw	fa0,64(a3)
800057da:	ffff                	.2byte	0xffff
800057dc:	ffffd953          	.4byte	0xffffd953
800057e0:	ead0                	fsw	fa2,20(a3)
800057e2:	ffff                	.2byte	0xffff
800057e4:	e148                	fsw	fa0,4(a0)
800057e6:	ffff                	.2byte	0xffff
800057e8:	f71c                	fsw	fa5,40(a4)
800057ea:	ffff                	.2byte	0xffff
800057ec:	08ad                	addi	a7,a7,11
800057ee:	0000                	unimp
800057f0:	f140                	fsw	fs0,36(a0)
800057f2:	ffff                	.2byte	0xffff
800057f4:	d12e                	sw	a1,160(sp)
800057f6:	ffff                	.2byte	0xffff
800057f8:	ecd5                	bnez	s1,800058b4 <coeffs+0xaac>
800057fa:	ffff                	.2byte	0xffff
800057fc:	0d52                	slli	s10,s10,0x14
800057fe:	0000                	unimp
80005800:	12f9                	addi	t0,t0,-2
80005802:	0000                	unimp
80005804:	eb8a                	fsw	ft2,212(sp)
80005806:	ffff                	.2byte	0xffff
80005808:	fffff1fb          	.4byte	0xfffff1fb
8000580c:	f2c5                	bnez	a3,800057ac <coeffs+0x9a4>
8000580e:	ffff                	.2byte	0xffff
80005810:	0858                	addi	a4,sp,20
80005812:	0000                	unimp
80005814:	ffffd5b3          	.4byte	0xffffd5b3
80005818:	ffffd823          	.4byte	0xffffd823
8000581c:	315a                	.2byte	0x315a
8000581e:	0000                	unimp
80005820:	d47a                	sw	t5,40(sp)
80005822:	ffff                	.2byte	0xffff
80005824:	00000f97          	auipc	t6,0x0
80005828:	e464                	fsw	fs1,76(s0)
8000582a:	ffff                	.2byte	0xffff
8000582c:	0691                	addi	a3,a3,4
8000582e:	0000                	unimp
80005830:	ffffe76f          	jal	a4,8000482e <data+0x1966>
80005834:	f4b1                	bnez	s1,80005780 <coeffs+0x978>
80005836:	ffff                	.2byte	0xffff
80005838:	00002ffb          	.4byte	0x2ffb
8000583c:	0629                	addi	a2,a2,10
8000583e:	0000                	unimp
80005840:	000014d7          	.4byte	0x14d7
80005844:	00000027          	.4byte	0x27
80005848:	dddf ffff d36f      	.byte	0xdf, 0xdd, 0xff, 0xff, 0x6f, 0xd3
8000584e:	ffff                	.2byte	0xffff
80005850:	e044                	fsw	fs1,4(s0)
80005852:	ffff                	.2byte	0xffff
80005854:	f286                	fsw	ft1,100(sp)
80005856:	ffff                	.2byte	0xffff
80005858:	dec2                	sw	a6,124(sp)
8000585a:	ffff                	.2byte	0xffff
8000585c:	fd14                	fsw	fa3,56(a0)
8000585e:	ffff                	.2byte	0xffff
80005860:	000005cf          	fnmadd.s	fa1,ft0,ft0,ft0,rne
80005864:	07de                	slli	a5,a5,0x17
80005866:	0000                	unimp
80005868:	d3c1                	beqz	a5,800057e8 <coeffs+0x9e0>
8000586a:	ffff                	.2byte	0xffff
8000586c:	0000290f          	.4byte	0x290f
80005870:	0b0c                	addi	a1,sp,400
80005872:	0000                	unimp
80005874:	f296                	fsw	ft5,100(sp)
80005876:	ffff                	.2byte	0xffff
80005878:	0461                	addi	s0,s0,24 # 8000328c <data+0x3c4>
8000587a:	0000                	unimp
8000587c:	ec05                	bnez	s0,800058b4 <coeffs+0xaac>
8000587e:	ffff                	.2byte	0xffff
80005880:	1020                	addi	s0,sp,40
80005882:	0000                	unimp
80005884:	285c                	.2byte	0x285c
80005886:	0000                	unimp
80005888:	10c9                	addi	ra,ra,-14
8000588a:	0000                	unimp
8000588c:	e678                	fsw	fa4,76(a2)
8000588e:	ffff                	.2byte	0xffff
80005890:	0000300f          	.4byte	0x300f
80005894:	1aed                	addi	s5,s5,-5
80005896:	0000                	unimp
80005898:	e5d2                	fsw	fs4,200(sp)
8000589a:	ffff                	.2byte	0xffff
8000589c:	d289                	beqz	a3,8000579e <coeffs+0x996>
8000589e:	ffff                	.2byte	0xffff
800058a0:	fffff883          	.4byte	0xfffff883
800058a4:	fffffc37          	lui	s8,0xfffff
800058a8:	0b1a                	slli	s6,s6,0x6
800058aa:	0000                	unimp
800058ac:	000011f3          	csrrw	gp,ustatus,zero
800058b0:	000022e7          	.4byte	0x22e7
800058b4:	0915                	addi	s2,s2,5
800058b6:	0000                	unimp
800058b8:	e61c                	fsw	fa5,8(a2)
800058ba:	ffff                	.2byte	0xffff
800058bc:	05be                	slli	a1,a1,0xf
800058be:	0000                	unimp
800058c0:	d73c                	sw	a5,104(a4)
800058c2:	ffff                	.2byte	0xffff
800058c4:	fffff5fb          	.4byte	0xfffff5fb
800058c8:	0b2d                	addi	s6,s6,11
800058ca:	0000                	unimp
800058cc:	e980                	fsw	fs0,16(a1)
800058ce:	ffff                	.2byte	0xffff
800058d0:	1a81                	addi	s5,s5,-32
800058d2:	0000                	unimp
800058d4:	00001bef          	jal	s7,800068d4 <__global_pointer$+0x32c>
800058d8:	00001893          	slli	a7,zero,0x0
800058dc:	ee50                	fsw	fa2,28(a2)
800058de:	ffff                	.2byte	0xffff
800058e0:	f1ce                	fsw	fs3,224(sp)
800058e2:	ffff                	.2byte	0xffff
800058e4:	1e54                	addi	a3,sp,820
800058e6:	0000                	unimp
800058e8:	e55f ffff 2ed9      	.byte	0x5f, 0xe5, 0xff, 0xff, 0xd9, 0x2e
800058ee:	0000                	unimp
800058f0:	deea                	sw	s10,124(sp)
800058f2:	ffff                	.2byte	0xffff
800058f4:	1bc0                	addi	s0,sp,500
800058f6:	0000                	unimp
800058f8:	e8de                	fsw	fs7,80(sp)
800058fa:	ffff                	.2byte	0xffff
800058fc:	210a                	.2byte	0x210a
800058fe:	0000                	unimp
80005900:	0000121b          	.4byte	0x121b
80005904:	00002ba7          	fsw	ft0,23(zero) # 17 <threadsense.5+0x17>
80005908:	ffffd583          	lhu	a1,-1(t6) # 80005823 <coeffs+0xa1b>
8000590c:	102a                	c.slli	zero,0x2a
8000590e:	0000                	unimp
80005910:	1494                	addi	a3,sp,608
80005912:	0000                	unimp
80005914:	ed55                	bnez	a0,800059d0 <coeffs+0xbc8>
80005916:	ffff                	.2byte	0xffff
80005918:	000014b3          	sll	s1,zero,zero
8000591c:	ffffdb17          	auipc	s6,0xffffd
80005920:	1b8c                	addi	a1,sp,496
80005922:	0000                	unimp
80005924:	edcd                	bnez	a1,800059de <coeffs+0xbd6>
80005926:	ffff                	.2byte	0xffff
80005928:	1f0a                	slli	t5,t5,0x22
8000592a:	0000                	unimp
8000592c:	00000c73          	.4byte	0xc73
80005930:	28e2                	.2byte	0x28e2
80005932:	0000                	unimp
80005934:	d326                	sw	s1,164(sp)
80005936:	ffff                	.2byte	0xffff
80005938:	e031                	bnez	s0,8000597c <coeffs+0xb74>
8000593a:	ffff                	.2byte	0xffff
8000593c:	ce1e                	sw	t2,28(sp)
8000593e:	ffff                	.2byte	0xffff
80005940:	fb21                	bnez	a4,80005890 <coeffs+0xa88>
80005942:	ffff                	.2byte	0xffff
80005944:	1d5e                	slli	s10,s10,0x37
80005946:	0000                	unimp
80005948:	e99e                	fsw	ft7,208(sp)
8000594a:	ffff                	.2byte	0xffff
8000594c:	e3a2                	fsw	fs0,196(sp)
8000594e:	ffff                	.2byte	0xffff
80005950:	074e                	slli	a4,a4,0x13
80005952:	0000                	unimp
80005954:	d031                	beqz	s0,80005898 <coeffs+0xa90>
80005956:	ffff                	.2byte	0xffff
80005958:	03f2                	slli	t2,t2,0x1c
8000595a:	0000                	unimp
8000595c:	00002b1b          	.4byte	0x2b1b
80005960:	2085                	jal	800059c0 <coeffs+0xbb8>
80005962:	0000                	unimp
80005964:	1b51                	addi	s6,s6,-12 # 80002910 <__umoddi3+0xf0>
80005966:	0000                	unimp
80005968:	27f5                	jal	80006154 <_tbss_end+0x310>
8000596a:	0000                	unimp
8000596c:	0000316f          	jal	sp,8000896c <__global_pointer$+0x23c4>
80005970:	0511                	addi	a0,a0,4
80005972:	0000                	unimp
80005974:	ffffded3          	.4byte	0xffffded3
80005978:	2079                	jal	80005a06 <coeffs+0xbfe>
8000597a:	0000                	unimp
8000597c:	e52c                	fsw	fa1,72(a0)
8000597e:	ffff                	.2byte	0xffff
80005980:	d87a                	sw	t5,48(sp)
80005982:	ffff                	.2byte	0xffff
80005984:	27fc                	.2byte	0x27fc
80005986:	0000                	unimp
80005988:	2756                	.2byte	0x2756
8000598a:	0000                	unimp
8000598c:	1f0e                	slli	t5,t5,0x23
8000598e:	0000                	unimp
80005990:	e351                	bnez	a4,80005a14 <coeffs+0xc0c>
80005992:	ffff                	.2byte	0xffff
80005994:	0a09                	addi	s4,s4,2
80005996:	0000                	unimp
80005998:	2c25                	jal	80005bd0 <coeffs+0xdc8>
8000599a:	0000                	unimp
8000599c:	30dd                	jal	80005282 <coeffs+0x47a>
8000599e:	0000                	unimp
800059a0:	29d6                	.2byte	0x29d6
800059a2:	0000                	unimp
800059a4:	1930                	addi	a2,sp,184
800059a6:	0000                	unimp
800059a8:	0b50                	addi	a2,sp,404
800059aa:	0000                	unimp
800059ac:	20b8                	.2byte	0x20b8
800059ae:	0000                	unimp
800059b0:	1e56                	slli	t3,t3,0x35
800059b2:	0000                	unimp
800059b4:	1d81                	addi	s11,s11,-32
800059b6:	0000                	unimp
800059b8:	20d6                	.2byte	0x20d6
800059ba:	0000                	unimp
800059bc:	ffffe777          	.4byte	0xffffe777
800059c0:	08df 0000 d873      	.byte	0xdf, 0x08, 0x00, 0x00, 0x73, 0xd8
800059c6:	ffff                	.2byte	0xffff
800059c8:	fd19                	bnez	a0,800058e6 <coeffs+0xade>
800059ca:	ffff                	.2byte	0xffff
800059cc:	de2d                	beqz	a2,80005946 <coeffs+0xb3e>
800059ce:	ffff                	.2byte	0xffff
800059d0:	daa4                	sw	s1,112(a3)
800059d2:	ffff                	.2byte	0xffff
800059d4:	ffffcf0b          	.4byte	0xffffcf0b
800059d8:	d748                	sw	a0,44(a4)
800059da:	ffff                	.2byte	0xffff
800059dc:	2d29                	jal	80005ff6 <_tbss_end+0x1b2>
800059de:	0000                	unimp
800059e0:	1c5c                	addi	a5,sp,564
800059e2:	0000                	unimp
800059e4:	313d                	jal	80005612 <coeffs+0x80a>
800059e6:	0000                	unimp
800059e8:	2c98                	.2byte	0x2c98
800059ea:	0000                	unimp
800059ec:	ef6c                	fsw	fa1,92(a4)
800059ee:	ffff                	.2byte	0xffff
800059f0:	de10                	sw	a2,56(a2)
800059f2:	ffff                	.2byte	0xffff
800059f4:	1b11                	addi	s6,s6,-28
800059f6:	0000                	unimp
800059f8:	0698                	addi	a4,sp,832
800059fa:	0000                	unimp
800059fc:	e88a                	fsw	ft2,80(sp)
800059fe:	ffff                	.2byte	0xffff
80005a00:	110d                	addi	sp,sp,-29
80005a02:	0000                	unimp
80005a04:	fbee                	fsw	fs11,244(sp)
80005a06:	ffff                	.2byte	0xffff
80005a08:	d598                	sw	a4,40(a1)
80005a0a:	ffff                	.2byte	0xffff
80005a0c:	265e                	.2byte	0x265e
80005a0e:	0000                	unimp
80005a10:	ffffd3f7          	.4byte	0xffffd3f7
80005a14:	cfbd                	beqz	a5,80005a92 <coeffs+0xc8a>
80005a16:	ffff                	.2byte	0xffff
80005a18:	0000253b          	.4byte	0x253b
80005a1c:	2fcd                	jal	8000620e <_tbss_end+0x3ca>
80005a1e:	0000                	unimp
80005a20:	1aed                	addi	s5,s5,-5
80005a22:	0000                	unimp
80005a24:	fffffe8b          	.4byte	0xfffffe8b
80005a28:	1e85                	addi	t4,t4,-31
80005a2a:	0000                	unimp
80005a2c:	00000743          	fmadd.s	fa4,ft0,ft0,ft0,rne
80005a30:	ffffea0b          	.4byte	0xffffea0b
80005a34:	0d5a                	slli	s10,s10,0x16
80005a36:	0000                	unimp
80005a38:	20ba                	.2byte	0x20ba
80005a3a:	0000                	unimp
80005a3c:	000024eb          	.4byte	0x24eb
80005a40:	17cd                	addi	a5,a5,-13
80005a42:	0000                	unimp
80005a44:	ffffebd3          	.4byte	0xffffebd3
80005a48:	d118                	sw	a4,32(a0)
80005a4a:	ffff                	.2byte	0xffff
80005a4c:	2471                	jal	80005cd8 <coeffs+0xed0>
80005a4e:	0000                	unimp
80005a50:	ecde                	fsw	fs7,88(sp)
80005a52:	ffff                	.2byte	0xffff
80005a54:	da60                	sw	s0,116(a2)
80005a56:	ffff                	.2byte	0xffff
80005a58:	1f9a                	slli	t6,t6,0x26
80005a5a:	0000                	unimp
80005a5c:	d73a                	sw	a4,172(sp)
80005a5e:	ffff                	.2byte	0xffff
80005a60:	d99d                	beqz	a1,80005996 <coeffs+0xb8e>
80005a62:	ffff                	.2byte	0xffff
80005a64:	1a32                	slli	s4,s4,0x2c
80005a66:	0000                	unimp
80005a68:	f8a6                	fsw	fs1,112(sp)
80005a6a:	ffff                	.2byte	0xffff
80005a6c:	e9ad                	bnez	a1,80005ade <coeffs+0xcd6>
80005a6e:	ffff                	.2byte	0xffff
80005a70:	0344                	addi	s1,sp,388
80005a72:	0000                	unimp
80005a74:	313e                	.2byte	0x313e
80005a76:	0000                	unimp
80005a78:	00000437          	lui	s0,0x0
80005a7c:	e251                	bnez	a2,80005b00 <coeffs+0xcf8>
80005a7e:	ffff                	.2byte	0xffff
80005a80:	fb2d                	bnez	a4,800059f2 <coeffs+0xbea>
80005a82:	ffff                	.2byte	0xffff
80005a84:	00000bcf          	fnmadd.s	fs7,ft0,ft0,ft0,rne
80005a88:	ffffd6af          	.4byte	0xffffd6af
80005a8c:	0124                	addi	s1,sp,136
80005a8e:	0000                	unimp
80005a90:	0d8c                	addi	a1,sp,720
80005a92:	0000                	unimp
80005a94:	2dea                	.2byte	0x2dea
80005a96:	0000                	unimp
80005a98:	fef1                	bnez	a3,80005a74 <coeffs+0xc6c>
80005a9a:	ffff                	.2byte	0xffff
80005a9c:	f679                	bnez	a2,80005a6a <coeffs+0xc62>
80005a9e:	ffff                	.2byte	0xffff
80005aa0:	fa74                	fsw	fa3,116(a2)
80005aa2:	ffff                	.2byte	0xffff
80005aa4:	eb75                	bnez	a4,80005b98 <coeffs+0xd90>
80005aa6:	ffff                	.2byte	0xffff
80005aa8:	2fbc                	.2byte	0x2fbc
80005aaa:	0000                	unimp
80005aac:	1680                	addi	s0,sp,864
80005aae:	0000                	unimp
80005ab0:	00002acf          	fnmadd.s	fs5,ft0,ft0,ft0,rdn
80005ab4:	1e76                	slli	t3,t3,0x3d
80005ab6:	0000                	unimp
80005ab8:	0000096b          	.4byte	0x96b
80005abc:	109c                	addi	a5,sp,96
80005abe:	0000                	unimp
80005ac0:	d849                	beqz	s0,80005a52 <coeffs+0xc4a>
80005ac2:	ffff                	.2byte	0xffff
80005ac4:	0c82                	c.slli64	s9
80005ac6:	0000                	unimp
80005ac8:	030e                	slli	t1,t1,0x3
80005aca:	0000                	unimp
80005acc:	f726                	fsw	fs1,172(sp)
80005ace:	ffff                	.2byte	0xffff
80005ad0:	18e2                	slli	a7,a7,0x38
80005ad2:	0000                	unimp
80005ad4:	f0a8                	fsw	fa0,96(s1)
80005ad6:	ffff                	.2byte	0xffff
80005ad8:	0060                	addi	s0,sp,12
80005ada:	0000                	unimp
80005adc:	247f                	.2byte	0x247f
80005ade:	0000                	unimp
80005ae0:	d8da                	sw	s6,112(sp)
80005ae2:	ffff                	.2byte	0xffff
80005ae4:	2b06                	.2byte	0x2b06
80005ae6:	0000                	unimp
80005ae8:	dc2c                	sw	a1,120(s0)
80005aea:	ffff                	.2byte	0xffff
80005aec:	0e1e                	slli	t3,t3,0x7
80005aee:	0000                	unimp
80005af0:	2a45                	jal	80005ca0 <coeffs+0xe98>
80005af2:	0000                	unimp
80005af4:	1262                	slli	tp,tp,0x38
80005af6:	0000                	unimp
80005af8:	226e                	.2byte	0x226e
80005afa:	0000                	unimp
80005afc:	f371                	bnez	a4,80005ac0 <coeffs+0xcb8>
80005afe:	ffff                	.2byte	0xffff
80005b00:	ec31                	bnez	s0,80005b5c <coeffs+0xd54>
80005b02:	ffff                	.2byte	0xffff
80005b04:	2b1d                	jal	8000603a <_tbss_end+0x1f6>
80005b06:	0000                	unimp
80005b08:	2695                	jal	80005e6c <_tbss_end+0x28>
80005b0a:	0000                	unimp
80005b0c:	2bbd                	jal	8000608a <_tbss_end+0x246>
80005b0e:	0000                	unimp
80005b10:	00002707          	flw	fa4,0(zero) # 0 <threadsense.5>
80005b14:	f386                	fsw	ft1,228(sp)
80005b16:	ffff                	.2byte	0xffff
80005b18:	f036                	fsw	fa3,32(sp)
80005b1a:	ffff                	.2byte	0xffff
80005b1c:	ffffef7b          	.4byte	0xffffef7b
80005b20:	000010fb          	.4byte	0x10fb
80005b24:	edf2                	fsw	ft8,216(sp)
80005b26:	ffff                	.2byte	0xffff
80005b28:	ffffd3fb          	.4byte	0xffffd3fb
80005b2c:	09ca                	slli	s3,s3,0x12
80005b2e:	0000                	unimp
80005b30:	da68                	sw	a0,116(a2)
80005b32:	ffff                	.2byte	0xffff
80005b34:	0f66                	slli	t5,t5,0x19
80005b36:	0000                	unimp
80005b38:	e866                	fsw	fs9,16(sp)
80005b3a:	ffff                	.2byte	0xffff
80005b3c:	e4b1                	bnez	s1,80005b88 <coeffs+0xd80>
80005b3e:	ffff                	.2byte	0xffff
80005b40:	e9e8                	fsw	fa0,84(a1)
80005b42:	ffff                	.2byte	0xffff
80005b44:	1d74                	addi	a3,sp,700
80005b46:	0000                	unimp
80005b48:	00000dd7          	.4byte	0xdd7
80005b4c:	d0ca                	sw	s2,96(sp)
80005b4e:	ffff                	.2byte	0xffff
80005b50:	dc1c                	sw	a5,56(s0)
80005b52:	ffff                	.2byte	0xffff
80005b54:	ffffdc37          	lui	s8,0xffffd
80005b58:	2749                	jal	800062da <_tbss_end+0x496>
80005b5a:	0000                	unimp
80005b5c:	e6f6                	fsw	ft9,76(sp)
80005b5e:	ffff                	.2byte	0xffff
80005b60:	d53d                	beqz	a0,80005ace <coeffs+0xcc6>
80005b62:	ffff                	.2byte	0xffff
80005b64:	d175                	beqz	a0,80005b48 <coeffs+0xd40>
80005b66:	ffff                	.2byte	0xffff
80005b68:	00002713          	slti	a4,zero,0
80005b6c:	3182                	.2byte	0x3182
80005b6e:	0000                	unimp
80005b70:	15d8                	addi	a4,sp,740
80005b72:	0000                	unimp
80005b74:	1782                	slli	a5,a5,0x20
80005b76:	0000                	unimp
80005b78:	fffff2f3          	csrrci	t0,0xfff,31
80005b7c:	d008                	sw	a0,32(s0)
80005b7e:	ffff                	.2byte	0xffff
80005b80:	109f 0000 e788      	.byte	0x9f, 0x10, 0x00, 0x00, 0x88, 0xe7
80005b86:	ffff                	.2byte	0xffff
80005b88:	2dc5                	jal	80006278 <_tbss_end+0x434>
80005b8a:	0000                	unimp
80005b8c:	05a6                	slli	a1,a1,0x9
80005b8e:	0000                	unimp
80005b90:	0d0e                	slli	s10,s10,0x3
80005b92:	0000                	unimp
80005b94:	ffffebfb          	.4byte	0xffffebfb
80005b98:	2721                	jal	800062a0 <_tbss_end+0x45c>
80005b9a:	0000                	unimp
80005b9c:	ec09                	bnez	s0,80005bb6 <coeffs+0xdae>
80005b9e:	ffff                	.2byte	0xffff
80005ba0:	0bee                	slli	s7,s7,0x1b
80005ba2:	0000                	unimp
80005ba4:	2d1c                	.2byte	0x2d1c
80005ba6:	0000                	unimp
80005ba8:	000027d3          	fadd.s	fa5,ft0,ft0,rdn
80005bac:	1856                	slli	a6,a6,0x35
80005bae:	0000                	unimp
80005bb0:	0a82                	c.slli64	s5
80005bb2:	0000                	unimp
80005bb4:	de39                	beqz	a2,80005b12 <coeffs+0xd0a>
80005bb6:	ffff                	.2byte	0xffff
80005bb8:	2f06                	.2byte	0x2f06
80005bba:	0000                	unimp
80005bbc:	266a                	.2byte	0x266a
80005bbe:	0000                	unimp
80005bc0:	2dad                	jal	8000623a <_tbss_end+0x3f6>
80005bc2:	0000                	unimp
80005bc4:	0add                	addi	s5,s5,23
80005bc6:	0000                	unimp
80005bc8:	2935                	jal	80006004 <_tbss_end+0x1c0>
80005bca:	0000                	unimp
80005bcc:	d7c9                	beqz	a5,80005b56 <coeffs+0xd4e>
80005bce:	ffff                	.2byte	0xffff
80005bd0:	1914                	addi	a3,sp,176
80005bd2:	0000                	unimp
80005bd4:	1e7e                	slli	t3,t3,0x3f
80005bd6:	0000                	unimp
80005bd8:	fffff0bf 00002052 	.8byte	0x2052fffff0bf
80005be0:	000021f3          	csrr	gp,ustatus
80005be4:	e5d2                	fsw	fs4,200(sp)
80005be6:	ffff                	.2byte	0xffff
80005be8:	1fd4                	addi	a3,sp,1012
80005bea:	0000                	unimp
80005bec:	000005cb          	fnmsub.s	fa1,ft0,ft0,ft0,rne
80005bf0:	2f54                	.2byte	0x2f54
80005bf2:	0000                	unimp
80005bf4:	ffffe0c7          	.4byte	0xffffe0c7
80005bf8:	000007d3          	fadd.s	fa5,ft0,ft0,rne
80005bfc:	0df2                	slli	s11,s11,0x1c
80005bfe:	0000                	unimp
80005c00:	fa50                	fsw	fa2,52(a2)
80005c02:	ffff                	.2byte	0xffff
80005c04:	0399                	addi	t2,t2,6
80005c06:	0000                	unimp
80005c08:	e198                	fsw	fa4,0(a1)
80005c0a:	ffff                	.2byte	0xffff
80005c0c:	d55e                	sw	s7,168(sp)
80005c0e:	ffff                	.2byte	0xffff
80005c10:	2194                	.2byte	0x2194
80005c12:	0000                	unimp
80005c14:	d6b9                	beqz	a3,80005b62 <coeffs+0xd5a>
80005c16:	ffff                	.2byte	0xffff
80005c18:	f366                	fsw	fs9,164(sp)
80005c1a:	ffff                	.2byte	0xffff
80005c1c:	fb82                	fsw	ft0,244(sp)
80005c1e:	ffff                	.2byte	0xffff
80005c20:	d1d5                	beqz	a1,80005bc4 <coeffs+0xdbc>
80005c22:	ffff                	.2byte	0xffff
80005c24:	e939                	bnez	a0,80005c7a <coeffs+0xe72>
80005c26:	ffff                	.2byte	0xffff
80005c28:	e1d8                	fsw	fa4,4(a1)
80005c2a:	ffff                	.2byte	0xffff
80005c2c:	00000e57          	.4byte	0xe57
80005c30:	f972                	fsw	ft8,176(sp)
80005c32:	ffff                	.2byte	0xffff
80005c34:	dede                	sw	s7,124(sp)
80005c36:	ffff                	.2byte	0xffff
80005c38:	02c2                	slli	t0,t0,0x10
80005c3a:	0000                	unimp
80005c3c:	f51f ffff 1bbb      	.byte	0x1f, 0xf5, 0xff, 0xff, 0xbb, 0x1b
80005c42:	0000                	unimp
80005c44:	f9f6                	fsw	ft9,240(sp)
80005c46:	ffff                	.2byte	0xffff
80005c48:	fffffee7          	.4byte	0xfffffee7
80005c4c:	02d0                	addi	a2,sp,324
80005c4e:	0000                	unimp
80005c50:	e674                	fsw	fa3,76(a2)
80005c52:	ffff                	.2byte	0xffff
80005c54:	21a6                	.2byte	0x21a6
80005c56:	0000                	unimp
80005c58:	f122                	fsw	fs0,160(sp)
80005c5a:	ffff                	.2byte	0xffff
80005c5c:	d668                	sw	a0,108(a2)
80005c5e:	ffff                	.2byte	0xffff
80005c60:	d578                	sw	a4,108(a0)
80005c62:	ffff                	.2byte	0xffff
80005c64:	def6                	sw	t4,124(sp)
80005c66:	ffff                	.2byte	0xffff
80005c68:	00000e33          	add	t3,zero,zero
80005c6c:	ffffd2cb          	.4byte	0xffffd2cb
80005c70:	f1bd                	bnez	a1,80005bd6 <coeffs+0xdce>
80005c72:	ffff                	.2byte	0xffff
80005c74:	e406                	fsw	ft1,8(sp)
80005c76:	ffff                	.2byte	0xffff
80005c78:	12be                	slli	t0,t0,0x2f
80005c7a:	0000                	unimp
80005c7c:	1e0c                	addi	a1,sp,816
80005c7e:	0000                	unimp
80005c80:	199f 0000 2656      	.byte	0x9f, 0x19, 0x00, 0x00, 0x56, 0x26
80005c86:	0000                	unimp
80005c88:	256a                	.2byte	0x256a
80005c8a:	0000                	unimp
80005c8c:	00000933          	add	s2,zero,zero
80005c90:	00002f0f          	.4byte	0x2f0f
80005c94:	e6d1                	bnez	a3,80005d20 <coeffs+0xf18>
80005c96:	ffff                	.2byte	0xffff
80005c98:	d2b5                	beqz	a3,80005bfc <coeffs+0xdf4>
80005c9a:	ffff                	.2byte	0xffff
80005c9c:	cee4                	sw	s1,92(a3)
80005c9e:	ffff                	.2byte	0xffff
80005ca0:	0209                	addi	tp,tp,2 # 2 <threadsense.5+0x2>
80005ca2:	0000                	unimp
80005ca4:	e68c                	fsw	fa1,8(a3)
80005ca6:	ffff                	.2byte	0xffff
80005ca8:	00000f3b          	fir_exec	t5
80005cac:	00002d7b          	.4byte	0x2d7b
80005cb0:	f76a                	fsw	fs10,172(sp)
80005cb2:	ffff                	.2byte	0xffff
80005cb4:	dffd                	beqz	a5,80005cb2 <coeffs+0xeaa>
80005cb6:	ffff                	.2byte	0xffff
80005cb8:	f09a                	fsw	ft6,96(sp)
80005cba:	ffff                	.2byte	0xffff
80005cbc:	e126                	fsw	fs1,128(sp)
80005cbe:	ffff                	.2byte	0xffff
80005cc0:	00000bf3          	.4byte	0xbf3
80005cc4:	2181                	jal	80006104 <_tbss_end+0x2c0>
80005cc6:	0000                	unimp
80005cc8:	15f5                	addi	a1,a1,-3
80005cca:	0000                	unimp
80005ccc:	2468                	.2byte	0x2468
80005cce:	0000                	unimp
80005cd0:	00001127          	.4byte	0x1127
80005cd4:	ffffd517          	auipc	a0,0xffffd
80005cd8:	2cd0                	.2byte	0x2cd0
80005cda:	0000                	unimp
80005cdc:	189f 0000 e60d      	.byte	0x9f, 0x18, 0x00, 0x00, 0x0d, 0xe6
80005ce2:	ffff                	.2byte	0xffff
80005ce4:	0902                	c.slli64	s2
80005ce6:	0000                	unimp
80005ce8:	1d6a                	slli	s10,s10,0x3a
80005cea:	0000                	unimp
80005cec:	09c9                	addi	s3,s3,18
80005cee:	0000                	unimp
80005cf0:	1f08                	addi	a0,sp,944
80005cf2:	0000                	unimp
80005cf4:	fe28                	fsw	fa0,120(a2)
80005cf6:	ffff                	.2byte	0xffff
80005cf8:	f5d6                	fsw	fs5,232(sp)
80005cfa:	ffff                	.2byte	0xffff
80005cfc:	000006a7          	.4byte	0x6a7
80005d00:	f27d                	bnez	a2,80005ce6 <coeffs+0xede>
80005d02:	ffff                	.2byte	0xffff
80005d04:	e940                	fsw	fs0,20(a0)
80005d06:	ffff                	.2byte	0xffff
80005d08:	ddd9                	beqz	a1,80005ca6 <coeffs+0xe9e>
80005d0a:	ffff                	.2byte	0xffff
80005d0c:	ef8c                	fsw	fa1,24(a5)
80005d0e:	ffff                	.2byte	0xffff
80005d10:	0210                	addi	a2,sp,256
80005d12:	0000                	unimp
80005d14:	e28e                	fsw	ft3,68(sp)
80005d16:	ffff                	.2byte	0xffff
80005d18:	f070                	fsw	fa2,100(s0)
80005d1a:	ffff                	.2byte	0xffff
80005d1c:	d21a                	sw	t1,36(sp)
80005d1e:	ffff                	.2byte	0xffff
80005d20:	fb1a                	fsw	ft6,180(sp)
80005d22:	ffff                	.2byte	0xffff
80005d24:	000031ab          	.4byte	0x31ab
80005d28:	3195                	jal	8000598c <coeffs+0xb84>
80005d2a:	0000                	unimp
80005d2c:	2484                	.2byte	0x2484
80005d2e:	0000                	unimp
80005d30:	dfa8                	sw	a0,120(a5)
80005d32:	ffff                	.2byte	0xffff
80005d34:	fffff02f          	.4byte	0xfffff02f
80005d38:	d3aa                	sw	a0,228(sp)
80005d3a:	ffff                	.2byte	0xffff
80005d3c:	1d9c                	addi	a5,sp,752
80005d3e:	0000                	unimp
80005d40:	dfb0                	sw	a2,120(a5)
80005d42:	ffff                	.2byte	0xffff
80005d44:	1b9f 0000 1004      	.byte	0x9f, 0x1b, 0x00, 0x00, 0x04, 0x10
80005d4a:	0000                	unimp
80005d4c:	000022d7          	.4byte	0x22d7
80005d50:	22b6                	.2byte	0x22b6
80005d52:	0000                	unimp
80005d54:	00000ad3          	fadd.s	fs5,ft0,ft0,rne
80005d58:	0976                	slli	s2,s2,0x1d
80005d5a:	0000                	unimp
80005d5c:	ffffd6c3          	.4byte	0xffffd6c3
80005d60:	e1d5                	bnez	a1,80005e04 <_end+0x44>
80005d62:	ffff                	.2byte	0xffff
80005d64:	f4e0                	fsw	fs0,108(s1)
80005d66:	ffff                	.2byte	0xffff
80005d68:	128c                	addi	a1,sp,352
80005d6a:	0000                	unimp
80005d6c:	cedd                	beqz	a3,80005e2a <_end+0x6a>
80005d6e:	ffff                	.2byte	0xffff
80005d70:	2508                	.2byte	0x2508
80005d72:	0000                	unimp
80005d74:	d662                	sw	s8,44(sp)
80005d76:	ffff                	.2byte	0xffff
80005d78:	0784                	addi	s1,sp,960
80005d7a:	0000                	unimp
80005d7c:	e585                	bnez	a1,80005da4 <coeffs+0xf9c>
80005d7e:	ffff                	.2byte	0xffff
80005d80:	f1a2                	fsw	fs0,224(sp)
80005d82:	ffff                	.2byte	0xffff
80005d84:	175d                	addi	a4,a4,-9
80005d86:	0000                	unimp
80005d88:	0711                	addi	a4,a4,4
80005d8a:	0000                	unimp
80005d8c:	25b2                	.2byte	0x25b2
80005d8e:	0000                	unimp
80005d90:	00002beb          	.4byte	0x2beb
80005d94:	2981                	jal	800061e4 <_tbss_end+0x3a0>
80005d96:	0000                	unimp
80005d98:	29cc                	.2byte	0x29cc
80005d9a:	0000                	unimp
80005d9c:	f505                	bnez	a0,80005cc4 <coeffs+0xebc>
80005d9e:	ffff                	.2byte	0xffff
80005da0:	292c                	.2byte	0x292c
80005da2:	0000                	unimp
80005da4:	2961                	jal	8000623c <_tbss_end+0x3f8>
80005da6:	0000                	unimp
