
baseline.riscv:     file format elf32-littleriscv


Disassembly of section .text.init:

80000000 <_start>:
80000000:	4081                	li	ra,0
80000002:	4101                	li	sp,0
80000004:	4181                	li	gp,0
80000006:	4201                	li	tp,0
80000008:	4281                	li	t0,0
8000000a:	4301                	li	t1,0
8000000c:	4381                	li	t2,0
8000000e:	4401                	li	s0,0
80000010:	4481                	li	s1,0
80000012:	4501                	li	a0,0
80000014:	4581                	li	a1,0
80000016:	4601                	li	a2,0
80000018:	4681                	li	a3,0
8000001a:	4701                	li	a4,0
8000001c:	4781                	li	a5,0
8000001e:	4801                	li	a6,0
80000020:	4881                	li	a7,0
80000022:	4901                	li	s2,0
80000024:	4981                	li	s3,0
80000026:	4a01                	li	s4,0
80000028:	4a81                	li	s5,0
8000002a:	4b01                	li	s6,0
8000002c:	4b81                	li	s7,0
8000002e:	4c01                	li	s8,0
80000030:	4c81                	li	s9,0
80000032:	4d01                	li	s10,0
80000034:	4d81                	li	s11,0
80000036:	4e01                	li	t3,0
80000038:	4e81                	li	t4,0
8000003a:	4f01                	li	t5,0
8000003c:	4f81                	li	t6,0
8000003e:	62f9                	lui	t0,0x1e
80000040:	3002a073          	csrs	mstatus,t0
80000044:	4285                	li	t0,1
80000046:	02fe                	slli	t0,t0,0x1f
80000048:	0002c863          	bltz	t0,80000058 <_start+0x58>
8000004c:	4505                	li	a0,1
8000004e:	00001297          	auipc	t0,0x1
80000052:	faa2a923          	sw	a0,-78(t0) # 80001000 <tohost>
80000056:	bfdd                	j	8000004c <_start+0x4c>
80000058:	00000297          	auipc	t0,0x0
8000005c:	09028293          	addi	t0,t0,144 # 800000e8 <_start+0xe8>
80000060:	30529073          	csrw	mtvec,t0
80000064:	00301073          	fscsr	zero
80000068:	f0000053          	fmv.w.x	ft0,zero
8000006c:	f00000d3          	fmv.w.x	ft1,zero
80000070:	f0000153          	fmv.w.x	ft2,zero
80000074:	f00001d3          	fmv.w.x	ft3,zero
80000078:	f0000253          	fmv.w.x	ft4,zero
8000007c:	f00002d3          	fmv.w.x	ft5,zero
80000080:	f0000353          	fmv.w.x	ft6,zero
80000084:	f00003d3          	fmv.w.x	ft7,zero
80000088:	f0000453          	fmv.w.x	fs0,zero
8000008c:	f00004d3          	fmv.w.x	fs1,zero
80000090:	f0000553          	fmv.w.x	fa0,zero
80000094:	f00005d3          	fmv.w.x	fa1,zero
80000098:	f0000653          	fmv.w.x	fa2,zero
8000009c:	f00006d3          	fmv.w.x	fa3,zero
800000a0:	f0000753          	fmv.w.x	fa4,zero
800000a4:	f00007d3          	fmv.w.x	fa5,zero
800000a8:	f0000853          	fmv.w.x	fa6,zero
800000ac:	f00008d3          	fmv.w.x	fa7,zero
800000b0:	f0000953          	fmv.w.x	fs2,zero
800000b4:	f00009d3          	fmv.w.x	fs3,zero
800000b8:	f0000a53          	fmv.w.x	fs4,zero
800000bc:	f0000ad3          	fmv.w.x	fs5,zero
800000c0:	f0000b53          	fmv.w.x	fs6,zero
800000c4:	f0000bd3          	fmv.w.x	fs7,zero
800000c8:	f0000c53          	fmv.w.x	fs8,zero
800000cc:	f0000cd3          	fmv.w.x	fs9,zero
800000d0:	f0000d53          	fmv.w.x	fs10,zero
800000d4:	f0000dd3          	fmv.w.x	fs11,zero
800000d8:	f0000e53          	fmv.w.x	ft8,zero
800000dc:	f0000ed3          	fmv.w.x	ft9,zero
800000e0:	f0000f53          	fmv.w.x	ft10,zero
800000e4:	f0000fd3          	fmv.w.x	ft11,zero
800000e8:	00000297          	auipc	t0,0x0
800000ec:	03828293          	addi	t0,t0,56 # 80000120 <trap_entry>
800000f0:	30529073          	csrw	mtvec,t0
800000f4:	00007197          	auipc	gp,0x7
800000f8:	d4818193          	addi	gp,gp,-696 # 80006e3c <__global_pointer$>
800000fc:	88318213          	addi	tp,gp,-1917 # 800066bf <_end+0x3f>
80000100:	fc027213          	andi	tp,tp,-64
80000104:	f1402573          	csrr	a0,mhartid
80000108:	4585                	li	a1,1
8000010a:	00b57063          	bgeu	a0,a1,8000010a <_start+0x10a>
8000010e:	00150113          	addi	sp,a0,1
80000112:	0146                	slli	sp,sp,0x11
80000114:	9112                	add	sp,sp,tp
80000116:	01151613          	slli	a2,a0,0x11
8000011a:	9232                	add	tp,tp,a2
8000011c:	5be0206f          	j	800026da <_init>

80000120 <trap_entry>:
80000120:	716d                	addi	sp,sp,-272
80000122:	c206                	sw	ra,4(sp)
80000124:	c40a                	sw	sp,8(sp)
80000126:	c60e                	sw	gp,12(sp)
80000128:	c812                	sw	tp,16(sp)
8000012a:	ca16                	sw	t0,20(sp)
8000012c:	cc1a                	sw	t1,24(sp)
8000012e:	ce1e                	sw	t2,28(sp)
80000130:	d022                	sw	s0,32(sp)
80000132:	d226                	sw	s1,36(sp)
80000134:	d42a                	sw	a0,40(sp)
80000136:	d62e                	sw	a1,44(sp)
80000138:	d832                	sw	a2,48(sp)
8000013a:	da36                	sw	a3,52(sp)
8000013c:	dc3a                	sw	a4,56(sp)
8000013e:	de3e                	sw	a5,60(sp)
80000140:	c0c2                	sw	a6,64(sp)
80000142:	c2c6                	sw	a7,68(sp)
80000144:	c4ca                	sw	s2,72(sp)
80000146:	c6ce                	sw	s3,76(sp)
80000148:	c8d2                	sw	s4,80(sp)
8000014a:	cad6                	sw	s5,84(sp)
8000014c:	ccda                	sw	s6,88(sp)
8000014e:	cede                	sw	s7,92(sp)
80000150:	d0e2                	sw	s8,96(sp)
80000152:	d2e6                	sw	s9,100(sp)
80000154:	d4ea                	sw	s10,104(sp)
80000156:	d6ee                	sw	s11,108(sp)
80000158:	d8f2                	sw	t3,112(sp)
8000015a:	daf6                	sw	t4,116(sp)
8000015c:	dcfa                	sw	t5,120(sp)
8000015e:	defe                	sw	t6,124(sp)
80000160:	34202573          	csrr	a0,mcause
80000164:	341025f3          	csrr	a1,mepc
80000168:	860a                	mv	a2,sp
8000016a:	042020ef          	jal	ra,800021ac <handle_trap>
8000016e:	34151073          	csrw	mepc,a0
80000172:	6289                	lui	t0,0x2
80000174:	80028293          	addi	t0,t0,-2048 # 1800 <buflen.1+0x17c0>
80000178:	3002a073          	csrs	mstatus,t0
8000017c:	4092                	lw	ra,4(sp)
8000017e:	4122                	lw	sp,8(sp)
80000180:	41b2                	lw	gp,12(sp)
80000182:	4242                	lw	tp,16(sp)
80000184:	42d2                	lw	t0,20(sp)
80000186:	4362                	lw	t1,24(sp)
80000188:	43f2                	lw	t2,28(sp)
8000018a:	5402                	lw	s0,32(sp)
8000018c:	5492                	lw	s1,36(sp)
8000018e:	5522                	lw	a0,40(sp)
80000190:	55b2                	lw	a1,44(sp)
80000192:	5642                	lw	a2,48(sp)
80000194:	56d2                	lw	a3,52(sp)
80000196:	5762                	lw	a4,56(sp)
80000198:	57f2                	lw	a5,60(sp)
8000019a:	4806                	lw	a6,64(sp)
8000019c:	4896                	lw	a7,68(sp)
8000019e:	4926                	lw	s2,72(sp)
800001a0:	49b6                	lw	s3,76(sp)
800001a2:	4a46                	lw	s4,80(sp)
800001a4:	4ad6                	lw	s5,84(sp)
800001a6:	4b66                	lw	s6,88(sp)
800001a8:	4bf6                	lw	s7,92(sp)
800001aa:	5c06                	lw	s8,96(sp)
800001ac:	5c96                	lw	s9,100(sp)
800001ae:	5d26                	lw	s10,104(sp)
800001b0:	5db6                	lw	s11,108(sp)
800001b2:	5e46                	lw	t3,112(sp)
800001b4:	5ed6                	lw	t4,116(sp)
800001b6:	5f66                	lw	t5,120(sp)
800001b8:	5ff6                	lw	t6,124(sp)
800001ba:	6151                	addi	sp,sp,272
800001bc:	30200073          	mret
800001c0:	0000                	unimp

Disassembly of section .text:

80001048 <sprintf_putch.0>:
80001048:	419c                	lw	a5,0(a1)
8000104a:	00a78023          	sb	a0,0(a5)
8000104e:	419c                	lw	a5,0(a1)
80001050:	0785                	addi	a5,a5,1
80001052:	c19c                	sw	a5,0(a1)
80001054:	8082                	ret

80001056 <putchar>:
80001056:	04022803          	lw	a6,64(tp) # 40 <buflen.1>
8000105a:	00020793          	mv	a5,tp
8000105e:	97c2                	add	a5,a5,a6
80001060:	7119                	addi	sp,sp,-128
80001062:	00180713          	addi	a4,a6,1
80001066:	04e22023          	sw	a4,64(tp) # 40 <buflen.1>
8000106a:	00a78023          	sb	a0,0(a5)
8000106e:	03f10693          	addi	a3,sp,63
80001072:	47a9                	li	a5,10
80001074:	fc06f693          	andi	a3,a3,-64
80001078:	00f50963          	beq	a0,a5,8000108a <putchar+0x34>
8000107c:	04000793          	li	a5,64
80001080:	00f70563          	beq	a4,a5,8000108a <putchar+0x34>
80001084:	4501                	li	a0,0
80001086:	6109                	addi	sp,sp,128
80001088:	8082                	ret
8000108a:	04000813          	li	a6,64
8000108e:	0106a023          	sw	a6,0(a3)
80001092:	4881                	li	a7,0
80001094:	0116a223          	sw	a7,4(a3)
80001098:	4e05                	li	t3,1
8000109a:	01c6a423          	sw	t3,8(a3)
8000109e:	4e81                	li	t4,0
800010a0:	01d6a623          	sw	t4,12(a3)
800010a4:	00020313          	mv	t1,tp
800010a8:	0066a823          	sw	t1,16(a3)
800010ac:	4381                	li	t2,0
800010ae:	0076aa23          	sw	t2,20(a3)
800010b2:	ce98                	sw	a4,24(a3)
800010b4:	41f75893          	srai	a7,a4,0x1f
800010b8:	0116ae23          	sw	a7,28(a3)
800010bc:	0ff0000f          	fence
800010c0:	00000617          	auipc	a2,0x0
800010c4:	f4060613          	addi	a2,a2,-192 # 80001000 <tohost>
800010c8:	c214                	sw	a3,0(a2)
800010ca:	4781                	li	a5,0
800010cc:	c25c                	sw	a5,4(a2)
800010ce:	00000617          	auipc	a2,0x0
800010d2:	f7260613          	addi	a2,a2,-142 # 80001040 <fromhost>
800010d6:	4218                	lw	a4,0(a2)
800010d8:	425c                	lw	a5,4(a2)
800010da:	8f5d                	or	a4,a4,a5
800010dc:	df6d                	beqz	a4,800010d6 <putchar+0x80>
800010de:	4781                	li	a5,0
800010e0:	c21c                	sw	a5,0(a2)
800010e2:	4801                	li	a6,0
800010e4:	01062223          	sw	a6,4(a2)
800010e8:	0ff0000f          	fence
800010ec:	04022023          	sw	zero,64(tp) # 40 <buflen.1>
800010f0:	4298                	lw	a4,0(a3)
800010f2:	4501                	li	a0,0
800010f4:	42dc                	lw	a5,4(a3)
800010f6:	6109                	addi	sp,sp,128
800010f8:	8082                	ret

800010fa <vprintfmt.constprop.1>:
800010fa:	714d                	addi	sp,sp,-336
800010fc:	14912223          	sw	s1,324(sp)
80001100:	13912223          	sw	s9,292(sp)
80001104:	13a12023          	sw	s10,288(sp)
80001108:	11b12e23          	sw	s11,284(sp)
8000110c:	14112623          	sw	ra,332(sp)
80001110:	14812423          	sw	s0,328(sp)
80001114:	15212023          	sw	s2,320(sp)
80001118:	13312e23          	sw	s3,316(sp)
8000111c:	13412c23          	sw	s4,312(sp)
80001120:	13512a23          	sw	s5,308(sp)
80001124:	13612823          	sw	s6,304(sp)
80001128:	13712623          	sw	s7,300(sp)
8000112c:	13812423          	sw	s8,296(sp)
80001130:	8caa                	mv	s9,a0
80001132:	8d2e                	mv	s10,a1
80001134:	c632                	sw	a2,12(sp)
80001136:	02500d93          	li	s11,37
8000113a:	44a5                	li	s1,9
8000113c:	a821                	j	80001154 <vprintfmt.constprop.1+0x5a>
8000113e:	cf21                	beqz	a4,80001196 <vprintfmt.constprop.1+0x9c>
80001140:	000ca683          	lw	a3,0(s9)
80001144:	0d05                	addi	s10,s10,1
80001146:	00e68023          	sb	a4,0(a3)
8000114a:	000ca703          	lw	a4,0(s9)
8000114e:	0705                	addi	a4,a4,1
80001150:	00eca023          	sw	a4,0(s9)
80001154:	000d4703          	lbu	a4,0(s10)
80001158:	ffb713e3          	bne	a4,s11,8000113e <vprintfmt.constprop.1+0x44>
8000115c:	001d4883          	lbu	a7,1(s10)
80001160:	001d0513          	addi	a0,s10,1
80001164:	862a                	mv	a2,a0
80001166:	02000993          	li	s3,32
8000116a:	56fd                	li	a3,-1
8000116c:	547d                	li	s0,-1
8000116e:	4581                	li	a1,0
80001170:	fdd88713          	addi	a4,a7,-35
80001174:	0ff77713          	zext.b	a4,a4
80001178:	05500793          	li	a5,85
8000117c:	00160d13          	addi	s10,a2,1
80001180:	06e7e563          	bltu	a5,a4,800011ea <vprintfmt.constprop.1+0xf0>
80001184:	00002797          	auipc	a5,0x2
80001188:	1d878793          	addi	a5,a5,472 # 8000335c <main+0xd4>
8000118c:	070a                	slli	a4,a4,0x2
8000118e:	973e                	add	a4,a4,a5
80001190:	4318                	lw	a4,0(a4)
80001192:	973e                	add	a4,a4,a5
80001194:	8702                	jr	a4
80001196:	14c12083          	lw	ra,332(sp)
8000119a:	14812403          	lw	s0,328(sp)
8000119e:	14412483          	lw	s1,324(sp)
800011a2:	14012903          	lw	s2,320(sp)
800011a6:	13c12983          	lw	s3,316(sp)
800011aa:	13812a03          	lw	s4,312(sp)
800011ae:	13412a83          	lw	s5,308(sp)
800011b2:	13012b03          	lw	s6,304(sp)
800011b6:	12c12b83          	lw	s7,300(sp)
800011ba:	12812c03          	lw	s8,296(sp)
800011be:	12412c83          	lw	s9,292(sp)
800011c2:	12012d03          	lw	s10,288(sp)
800011c6:	11c12d83          	lw	s11,284(sp)
800011ca:	6171                	addi	sp,sp,336
800011cc:	8082                	ret
800011ce:	89c6                	mv	s3,a7
800011d0:	00164883          	lbu	a7,1(a2)
800011d4:	05500793          	li	a5,85
800011d8:	866a                	mv	a2,s10
800011da:	fdd88713          	addi	a4,a7,-35
800011de:	0ff77713          	zext.b	a4,a4
800011e2:	00160d13          	addi	s10,a2,1
800011e6:	f8e7ffe3          	bgeu	a5,a4,80001184 <vprintfmt.constprop.1+0x8a>
800011ea:	000ca703          	lw	a4,0(s9)
800011ee:	8d2a                	mv	s10,a0
800011f0:	01b70023          	sb	s11,0(a4)
800011f4:	000ca703          	lw	a4,0(s9)
800011f8:	0705                	addi	a4,a4,1
800011fa:	00eca023          	sw	a4,0(s9)
800011fe:	bf99                	j	80001154 <vprintfmt.constprop.1+0x5a>
80001200:	00164e03          	lbu	t3,1(a2)
80001204:	fd088693          	addi	a3,a7,-48
80001208:	866a                	mv	a2,s10
8000120a:	fd0e0713          	addi	a4,t3,-48
8000120e:	88f2                	mv	a7,t3
80001210:	02e4e163          	bltu	s1,a4,80001232 <vprintfmt.constprop.1+0x138>
80001214:	00269713          	slli	a4,a3,0x2
80001218:	9736                	add	a4,a4,a3
8000121a:	0605                	addi	a2,a2,1
8000121c:	0706                	slli	a4,a4,0x1
8000121e:	9772                	add	a4,a4,t3
80001220:	00064e03          	lbu	t3,0(a2)
80001224:	fd070693          	addi	a3,a4,-48
80001228:	fd0e0713          	addi	a4,t3,-48
8000122c:	88f2                	mv	a7,t3
8000122e:	fee4f3e3          	bgeu	s1,a4,80001214 <vprintfmt.constprop.1+0x11a>
80001232:	f2045fe3          	bgez	s0,80001170 <vprintfmt.constprop.1+0x76>
80001236:	8436                	mv	s0,a3
80001238:	56fd                	li	a3,-1
8000123a:	bf1d                	j	80001170 <vprintfmt.constprop.1+0x76>
8000123c:	00164883          	lbu	a7,1(a2)
80001240:	866a                	mv	a2,s10
80001242:	b73d                	j	80001170 <vprintfmt.constprop.1+0x76>
80001244:	000ca703          	lw	a4,0(s9)
80001248:	01b70023          	sb	s11,0(a4)
8000124c:	000ca703          	lw	a4,0(s9)
80001250:	0705                	addi	a4,a4,1
80001252:	00eca023          	sw	a4,0(s9)
80001256:	bdfd                	j	80001154 <vprintfmt.constprop.1+0x5a>
80001258:	47b2                	lw	a5,12(sp)
8000125a:	00164883          	lbu	a7,1(a2)
8000125e:	866a                	mv	a2,s10
80001260:	4394                	lw	a3,0(a5)
80001262:	0791                	addi	a5,a5,4
80001264:	c63e                	sw	a5,12(sp)
80001266:	b7f1                	j	80001232 <vprintfmt.constprop.1+0x138>
80001268:	000ca703          	lw	a4,0(s9)
8000126c:	03000793          	li	a5,48
80001270:	4a41                	li	s4,16
80001272:	00f70023          	sb	a5,0(a4)
80001276:	000ca703          	lw	a4,0(s9)
8000127a:	47b2                	lw	a5,12(sp)
8000127c:	c402                	sw	zero,8(sp)
8000127e:	00170593          	addi	a1,a4,1
80001282:	00bca023          	sw	a1,0(s9)
80001286:	00478693          	addi	a3,a5,4
8000128a:	07800793          	li	a5,120
8000128e:	00f700a3          	sb	a5,1(a4)
80001292:	000ca703          	lw	a4,0(s9)
80001296:	00170c13          	addi	s8,a4,1
8000129a:	018ca023          	sw	s8,0(s9)
8000129e:	47b2                	lw	a5,12(sp)
800012a0:	4a81                	li	s5,0
800012a2:	0007a903          	lw	s2,0(a5)
800012a6:	c636                	sw	a3,12(sp)
800012a8:	8652                	mv	a2,s4
800012aa:	4681                	li	a3,0
800012ac:	854a                	mv	a0,s2
800012ae:	85d6                	mv	a1,s5
800012b0:	4bb010ef          	jal	ra,80002f6a <__umoddi3>
800012b4:	c82a                	sw	a0,16(sp)
800012b6:	4781                	li	a5,0
800012b8:	21578663          	beq	a5,s5,800014c4 <vprintfmt.constprop.1+0x3ca>
800012bc:	01410b13          	addi	s6,sp,20
800012c0:	4b85                	li	s7,1
800012c2:	8652                	mv	a2,s4
800012c4:	4681                	li	a3,0
800012c6:	854a                	mv	a0,s2
800012c8:	85d6                	mv	a1,s5
800012ca:	143010ef          	jal	ra,80002c0c <__udivdi3>
800012ce:	4681                	li	a3,0
800012d0:	8652                	mv	a2,s4
800012d2:	892a                	mv	s2,a0
800012d4:	8aae                	mv	s5,a1
800012d6:	495010ef          	jal	ra,80002f6a <__umoddi3>
800012da:	47a2                	lw	a5,8(sp)
800012dc:	00ab2023          	sw	a0,0(s6)
800012e0:	86de                	mv	a3,s7
800012e2:	0b11                	addi	s6,s6,4
800012e4:	0b85                	addi	s7,s7,1
800012e6:	fd579ee3          	bne	a5,s5,800012c2 <vprintfmt.constprop.1+0x1c8>
800012ea:	fd497ce3          	bgeu	s2,s4,800012c2 <vprintfmt.constprop.1+0x1c8>
800012ee:	008bdd63          	bge	s7,s0,80001308 <vprintfmt.constprop.1+0x20e>
800012f2:	013c0023          	sb	s3,0(s8)
800012f6:	000ca703          	lw	a4,0(s9)
800012fa:	147d                	addi	s0,s0,-1
800012fc:	00170c13          	addi	s8,a4,1
80001300:	018ca023          	sw	s8,0(s9)
80001304:	fe8bc7e3          	blt	s7,s0,800012f2 <vprintfmt.constprop.1+0x1f8>
80001308:	068a                	slli	a3,a3,0x2
8000130a:	01068793          	addi	a5,a3,16
8000130e:	002786b3          	add	a3,a5,sp
80001312:	a00d                	j	80001334 <vprintfmt.constprop.1+0x23a>
80001314:	03060613          	addi	a2,a2,48
80001318:	00cc0023          	sb	a2,0(s8)
8000131c:	000ca703          	lw	a4,0(s9)
80001320:	081c                	addi	a5,sp,16
80001322:	ffc68613          	addi	a2,a3,-4
80001326:	00170c13          	addi	s8,a4,1
8000132a:	018ca023          	sw	s8,0(s9)
8000132e:	e2d783e3          	beq	a5,a3,80001154 <vprintfmt.constprop.1+0x5a>
80001332:	86b2                	mv	a3,a2
80001334:	4290                	lw	a2,0(a3)
80001336:	fcc4ffe3          	bgeu	s1,a2,80001314 <vprintfmt.constprop.1+0x21a>
8000133a:	05760613          	addi	a2,a2,87
8000133e:	bfe9                	j	80001318 <vprintfmt.constprop.1+0x21e>
80001340:	4785                	li	a5,1
80001342:	18b7c963          	blt	a5,a1,800014d4 <vprintfmt.constprop.1+0x3da>
80001346:	47b2                	lw	a5,12(sp)
80001348:	4388                	lw	a0,0(a5)
8000134a:	0791                	addi	a5,a5,4
8000134c:	c63e                	sw	a5,12(sp)
8000134e:	41f55893          	srai	a7,a0,0x1f
80001352:	000cac03          	lw	s8,0(s9)
80001356:	1a08c263          	bltz	a7,800014fa <vprintfmt.constprop.1+0x400>
8000135a:	892a                	mv	s2,a0
8000135c:	8ac6                	mv	s5,a7
8000135e:	4a29                	li	s4,10
80001360:	c402                	sw	zero,8(sp)
80001362:	b799                	j	800012a8 <vprintfmt.constprop.1+0x1ae>
80001364:	4a41                	li	s4,16
80001366:	c402                	sw	zero,8(sp)
80001368:	4785                	li	a5,1
8000136a:	000cac03          	lw	s8,0(s9)
8000136e:	12b7cf63          	blt	a5,a1,800014ac <vprintfmt.constprop.1+0x3b2>
80001372:	47b2                	lw	a5,12(sp)
80001374:	00478693          	addi	a3,a5,4
80001378:	f19d                	bnez	a1,8000129e <vprintfmt.constprop.1+0x1a4>
8000137a:	0007a903          	lw	s2,0(a5)
8000137e:	4a81                	li	s5,0
80001380:	c636                	sw	a3,12(sp)
80001382:	b71d                	j	800012a8 <vprintfmt.constprop.1+0x1ae>
80001384:	00164883          	lbu	a7,1(a2)
80001388:	0585                	addi	a1,a1,1
8000138a:	866a                	mv	a2,s10
8000138c:	b3d5                	j	80001170 <vprintfmt.constprop.1+0x76>
8000138e:	fff44713          	not	a4,s0
80001392:	877d                	srai	a4,a4,0x1f
80001394:	00164883          	lbu	a7,1(a2)
80001398:	8c79                	and	s0,s0,a4
8000139a:	866a                	mv	a2,s10
8000139c:	bbd1                	j	80001170 <vprintfmt.constprop.1+0x76>
8000139e:	47b2                	lw	a5,12(sp)
800013a0:	000ca703          	lw	a4,0(s9)
800013a4:	4394                	lw	a3,0(a5)
800013a6:	0791                	addi	a5,a5,4
800013a8:	c63e                	sw	a5,12(sp)
800013aa:	00d70023          	sb	a3,0(a4)
800013ae:	000ca703          	lw	a4,0(s9)
800013b2:	0705                	addi	a4,a4,1
800013b4:	00eca023          	sw	a4,0(s9)
800013b8:	bb71                	j	80001154 <vprintfmt.constprop.1+0x5a>
800013ba:	47b2                	lw	a5,12(sp)
800013bc:	4390                	lw	a2,0(a5)
800013be:	00478913          	addi	s2,a5,4
800013c2:	16060163          	beqz	a2,80001524 <vprintfmt.constprop.1+0x42a>
800013c6:	08805c63          	blez	s0,8000145e <vprintfmt.constprop.1+0x364>
800013ca:	02d00793          	li	a5,45
800013ce:	04f99e63          	bne	s3,a5,8000142a <vprintfmt.constprop.1+0x330>
800013d2:	00064703          	lbu	a4,0(a2)
800013d6:	c71d                	beqz	a4,80001404 <vprintfmt.constprop.1+0x30a>
800013d8:	0806c863          	bltz	a3,80001468 <vprintfmt.constprop.1+0x36e>
800013dc:	16fd                	addi	a3,a3,-1
800013de:	57fd                	li	a5,-1
800013e0:	02f68063          	beq	a3,a5,80001400 <vprintfmt.constprop.1+0x306>
800013e4:	000ca583          	lw	a1,0(s9)
800013e8:	0605                	addi	a2,a2,1
800013ea:	147d                	addi	s0,s0,-1
800013ec:	00e58023          	sb	a4,0(a1)
800013f0:	000ca703          	lw	a4,0(s9)
800013f4:	0705                	addi	a4,a4,1
800013f6:	00eca023          	sw	a4,0(s9)
800013fa:	00064703          	lbu	a4,0(a2)
800013fe:	ff69                	bnez	a4,800013d8 <vprintfmt.constprop.1+0x2de>
80001400:	00805f63          	blez	s0,8000141e <vprintfmt.constprop.1+0x324>
80001404:	000ca703          	lw	a4,0(s9)
80001408:	02000793          	li	a5,32
8000140c:	00f70023          	sb	a5,0(a4)
80001410:	000ca703          	lw	a4,0(s9)
80001414:	147d                	addi	s0,s0,-1
80001416:	0705                	addi	a4,a4,1
80001418:	00eca023          	sw	a4,0(s9)
8000141c:	f475                	bnez	s0,80001408 <vprintfmt.constprop.1+0x30e>
8000141e:	c64a                	sw	s2,12(sp)
80001420:	bb15                	j	80001154 <vprintfmt.constprop.1+0x5a>
80001422:	00002617          	auipc	a2,0x2
80001426:	efa60613          	addi	a2,a2,-262 # 8000331c <main+0x94>
8000142a:	8732                	mv	a4,a2
8000142c:	00d60533          	add	a0,a2,a3
80001430:	e689                	bnez	a3,8000143a <vprintfmt.constprop.1+0x340>
80001432:	a819                	j	80001448 <vprintfmt.constprop.1+0x34e>
80001434:	0705                	addi	a4,a4,1
80001436:	00a70563          	beq	a4,a0,80001440 <vprintfmt.constprop.1+0x346>
8000143a:	00074583          	lbu	a1,0(a4)
8000143e:	f9fd                	bnez	a1,80001434 <vprintfmt.constprop.1+0x33a>
80001440:	8f11                	sub	a4,a4,a2
80001442:	8c19                	sub	s0,s0,a4
80001444:	00805d63          	blez	s0,8000145e <vprintfmt.constprop.1+0x364>
80001448:	000ca703          	lw	a4,0(s9)
8000144c:	01370023          	sb	s3,0(a4)
80001450:	000ca703          	lw	a4,0(s9)
80001454:	147d                	addi	s0,s0,-1
80001456:	0705                	addi	a4,a4,1
80001458:	00eca023          	sw	a4,0(s9)
8000145c:	f865                	bnez	s0,8000144c <vprintfmt.constprop.1+0x352>
8000145e:	00064703          	lbu	a4,0(a2)
80001462:	df55                	beqz	a4,8000141e <vprintfmt.constprop.1+0x324>
80001464:	f606dce3          	bgez	a3,800013dc <vprintfmt.constprop.1+0x2e2>
80001468:	000ca683          	lw	a3,0(s9)
8000146c:	00160593          	addi	a1,a2,1
80001470:	fff40513          	addi	a0,s0,-1
80001474:	00e68023          	sb	a4,0(a3)
80001478:	000ca703          	lw	a4,0(s9)
8000147c:	0705                	addi	a4,a4,1
8000147e:	00eca023          	sw	a4,0(s9)
80001482:	00164603          	lbu	a2,1(a2)
80001486:	ce45                	beqz	a2,8000153e <vprintfmt.constprop.1+0x444>
80001488:	86ae                	mv	a3,a1
8000148a:	00c70023          	sb	a2,0(a4)
8000148e:	000ca703          	lw	a4,0(s9)
80001492:	0685                	addi	a3,a3,1
80001494:	40d58433          	sub	s0,a1,a3
80001498:	0705                	addi	a4,a4,1
8000149a:	00eca023          	sw	a4,0(s9)
8000149e:	0006c603          	lbu	a2,0(a3)
800014a2:	942a                	add	s0,s0,a0
800014a4:	f27d                	bnez	a2,8000148a <vprintfmt.constprop.1+0x390>
800014a6:	f4804fe3          	bgtz	s0,80001404 <vprintfmt.constprop.1+0x30a>
800014aa:	bf95                	j	8000141e <vprintfmt.constprop.1+0x324>
800014ac:	47b2                	lw	a5,12(sp)
800014ae:	00778913          	addi	s2,a5,7
800014b2:	ff897793          	andi	a5,s2,-8
800014b6:	0007a903          	lw	s2,0(a5)
800014ba:	0047aa83          	lw	s5,4(a5)
800014be:	07a1                	addi	a5,a5,8
800014c0:	c63e                	sw	a5,12(sp)
800014c2:	b3dd                	j	800012a8 <vprintfmt.constprop.1+0x1ae>
800014c4:	df497ce3          	bgeu	s2,s4,800012bc <vprintfmt.constprop.1+0x1c2>
800014c8:	4785                	li	a5,1
800014ca:	4681                	li	a3,0
800014cc:	4b85                	li	s7,1
800014ce:	e287c2e3          	blt	a5,s0,800012f2 <vprintfmt.constprop.1+0x1f8>
800014d2:	bd1d                	j	80001308 <vprintfmt.constprop.1+0x20e>
800014d4:	47b2                	lw	a5,12(sp)
800014d6:	00778913          	addi	s2,a5,7
800014da:	ff897913          	andi	s2,s2,-8
800014de:	00890793          	addi	a5,s2,8
800014e2:	00092503          	lw	a0,0(s2)
800014e6:	00492883          	lw	a7,4(s2)
800014ea:	c63e                	sw	a5,12(sp)
800014ec:	b59d                	j	80001352 <vprintfmt.constprop.1+0x258>
800014ee:	4a21                	li	s4,8
800014f0:	c402                	sw	zero,8(sp)
800014f2:	bd9d                	j	80001368 <vprintfmt.constprop.1+0x26e>
800014f4:	4a29                	li	s4,10
800014f6:	c402                	sw	zero,8(sp)
800014f8:	bd85                	j	80001368 <vprintfmt.constprop.1+0x26e>
800014fa:	02d00793          	li	a5,45
800014fe:	00fc0023          	sb	a5,0(s8)
80001502:	000ca703          	lw	a4,0(s9)
80001506:	00a036b3          	snez	a3,a0
8000150a:	411008b3          	neg	a7,a7
8000150e:	00170c13          	addi	s8,a4,1
80001512:	018ca023          	sw	s8,0(s9)
80001516:	40a00933          	neg	s2,a0
8000151a:	40d88ab3          	sub	s5,a7,a3
8000151e:	4a29                	li	s4,10
80001520:	c402                	sw	zero,8(sp)
80001522:	b359                	j	800012a8 <vprintfmt.constprop.1+0x1ae>
80001524:	00805663          	blez	s0,80001530 <vprintfmt.constprop.1+0x436>
80001528:	02d00793          	li	a5,45
8000152c:	eef99be3          	bne	s3,a5,80001422 <vprintfmt.constprop.1+0x328>
80001530:	00002617          	auipc	a2,0x2
80001534:	dec60613          	addi	a2,a2,-532 # 8000331c <main+0x94>
80001538:	02800713          	li	a4,40
8000153c:	bd71                	j	800013d8 <vprintfmt.constprop.1+0x2de>
8000153e:	842a                	mv	s0,a0
80001540:	ec8042e3          	bgtz	s0,80001404 <vprintfmt.constprop.1+0x30a>
80001544:	bde9                	j	8000141e <vprintfmt.constprop.1+0x324>

80001546 <vprintfmt.constprop.0>:
80001546:	a4010113          	addi	sp,sp,-1472
8000154a:	27f10813          	addi	a6,sp,639
8000154e:	fc087813          	andi	a6,a6,-64
80001552:	d03e                	sw	a5,32(sp)
80001554:	00020e93          	mv	t4,tp
80001558:	2c080713          	addi	a4,a6,704
8000155c:	00020793          	mv	a5,tp
80001560:	5a812c23          	sw	s0,1464(sp)
80001564:	5a912a23          	sw	s1,1460(sp)
80001568:	59812c23          	sw	s8,1432(sp)
8000156c:	59912a23          	sw	s9,1428(sp)
80001570:	59a12823          	sw	s10,1424(sp)
80001574:	59b12623          	sw	s11,1420(sp)
80001578:	5a112e23          	sw	ra,1468(sp)
8000157c:	5b212823          	sw	s2,1456(sp)
80001580:	5b312623          	sw	s3,1452(sp)
80001584:	5b412423          	sw	s4,1448(sp)
80001588:	5b512223          	sw	s5,1444(sp)
8000158c:	5b612023          	sw	s6,1440(sp)
80001590:	59712e23          	sw	s7,1436(sp)
80001594:	d22e                	sw	a1,36(sp)
80001596:	04000c13          	li	s8,64
8000159a:	4c81                	li	s9,0
8000159c:	d43a                	sw	a4,40(sp)
8000159e:	00000d17          	auipc	s10,0x0
800015a2:	a62d0d13          	addi	s10,s10,-1438 # 80001000 <tohost>
800015a6:	00000417          	auipc	s0,0x0
800015aa:	a9a40413          	addi	s0,s0,-1382 # 80001040 <fromhost>
800015ae:	d63e                	sw	a5,44(sp)
800015b0:	84c2                	mv	s1,a6
800015b2:	8daa                	mv	s11,a0
800015b4:	000dc783          	lbu	a5,0(s11)
800015b8:	02500713          	li	a4,37
800015bc:	02e78c63          	beq	a5,a4,800015f4 <vprintfmt.constprop.0+0xae>
800015c0:	5802                	lw	a6,32(sp)
800015c2:	58a2                	lw	a7,40(sp)
800015c4:	4629                	li	a2,10
800015c6:	04000593          	li	a1,64
800015ca:	02500693          	li	a3,37
800015ce:	c7e1                	beqz	a5,80001696 <vprintfmt.constprop.0+0x150>
800015d0:	04022703          	lw	a4,64(tp) # 40 <buflen.1>
800015d4:	0d85                	addi	s11,s11,1
800015d6:	00170513          	addi	a0,a4,1
800015da:	9776                	add	a4,a4,t4
800015dc:	04a22023          	sw	a0,64(tp) # 40 <buflen.1>
800015e0:	00f70023          	sb	a5,0(a4)
800015e4:	04c78863          	beq	a5,a2,80001634 <vprintfmt.constprop.0+0xee>
800015e8:	04b50663          	beq	a0,a1,80001634 <vprintfmt.constprop.0+0xee>
800015ec:	000dc783          	lbu	a5,0(s11)
800015f0:	fcd79fe3          	bne	a5,a3,800015ce <vprintfmt.constprop.0+0x88>
800015f4:	02000793          	li	a5,32
800015f8:	001dc683          	lbu	a3,1(s11)
800015fc:	001d8e13          	addi	t3,s11,1
80001600:	d83e                	sw	a5,48(sp)
80001602:	57fd                	li	a5,-1
80001604:	8772                	mv	a4,t3
80001606:	567d                	li	a2,-1
80001608:	cc3e                	sw	a5,24(sp)
8000160a:	4f01                	li	t5,0
8000160c:	05500513          	li	a0,85
80001610:	00002597          	auipc	a1,0x2
80001614:	ea458593          	addi	a1,a1,-348 # 800034b4 <main+0x22c>
80001618:	4825                	li	a6,9
8000161a:	fdd68793          	addi	a5,a3,-35
8000161e:	0ff7f793          	zext.b	a5,a5
80001622:	00170d93          	addi	s11,a4,1
80001626:	0cf56163          	bltu	a0,a5,800016e8 <vprintfmt.constprop.0+0x1a2>
8000162a:	078a                	slli	a5,a5,0x2
8000162c:	97ae                	add	a5,a5,a1
8000162e:	439c                	lw	a5,0(a5)
80001630:	97ae                	add	a5,a5,a1
80001632:	8782                	jr	a5
80001634:	2d84a023          	sw	s8,704(s1)
80001638:	2d94a223          	sw	s9,708(s1)
8000163c:	4705                	li	a4,1
8000163e:	2ce4a423          	sw	a4,712(s1)
80001642:	4781                	li	a5,0
80001644:	2cf4a623          	sw	a5,716(s1)
80001648:	00020913          	mv	s2,tp
8000164c:	2d24a823          	sw	s2,720(s1)
80001650:	4981                	li	s3,0
80001652:	2d34aa23          	sw	s3,724(s1)
80001656:	2ca4ac23          	sw	a0,728(s1)
8000165a:	41f55a93          	srai	s5,a0,0x1f
8000165e:	2d54ae23          	sw	s5,732(s1)
80001662:	8a2a                	mv	s4,a0
80001664:	0ff0000f          	fence
80001668:	4b81                	li	s7,0
8000166a:	011d2023          	sw	a7,0(s10)
8000166e:	8b46                	mv	s6,a7
80001670:	017d2223          	sw	s7,4(s10)
80001674:	4018                	lw	a4,0(s0)
80001676:	405c                	lw	a5,4(s0)
80001678:	8f5d                	or	a4,a4,a5
8000167a:	df6d                	beqz	a4,80001674 <vprintfmt.constprop.0+0x12e>
8000167c:	4701                	li	a4,0
8000167e:	c018                	sw	a4,0(s0)
80001680:	4781                	li	a5,0
80001682:	c05c                	sw	a5,4(s0)
80001684:	0ff0000f          	fence
80001688:	2c04a703          	lw	a4,704(s1)
8000168c:	04022023          	sw	zero,64(tp) # 40 <buflen.1>
80001690:	2c44a783          	lw	a5,708(s1)
80001694:	bfa1                	j	800015ec <vprintfmt.constprop.0+0xa6>
80001696:	5bc12083          	lw	ra,1468(sp)
8000169a:	5b812403          	lw	s0,1464(sp)
8000169e:	5b412483          	lw	s1,1460(sp)
800016a2:	5b012903          	lw	s2,1456(sp)
800016a6:	5ac12983          	lw	s3,1452(sp)
800016aa:	5a812a03          	lw	s4,1448(sp)
800016ae:	5a412a83          	lw	s5,1444(sp)
800016b2:	5a012b03          	lw	s6,1440(sp)
800016b6:	59c12b83          	lw	s7,1436(sp)
800016ba:	59812c03          	lw	s8,1432(sp)
800016be:	59412c83          	lw	s9,1428(sp)
800016c2:	59012d03          	lw	s10,1424(sp)
800016c6:	58c12d83          	lw	s11,1420(sp)
800016ca:	5c010113          	addi	sp,sp,1472
800016ce:	8082                	ret
800016d0:	d836                	sw	a3,48(sp)
800016d2:	00174683          	lbu	a3,1(a4)
800016d6:	876e                	mv	a4,s11
800016d8:	00170d93          	addi	s11,a4,1
800016dc:	fdd68793          	addi	a5,a3,-35
800016e0:	0ff7f793          	zext.b	a5,a5
800016e4:	f4f573e3          	bgeu	a0,a5,8000162a <vprintfmt.constprop.0+0xe4>
800016e8:	04022783          	lw	a5,64(tp) # 40 <buflen.1>
800016ec:	02500613          	li	a2,37
800016f0:	04000693          	li	a3,64
800016f4:	00178713          	addi	a4,a5,1
800016f8:	97f6                	add	a5,a5,t4
800016fa:	04e22023          	sw	a4,64(tp) # 40 <buflen.1>
800016fe:	00c78023          	sb	a2,0(a5)
80001702:	8df2                	mv	s11,t3
80001704:	ead718e3          	bne	a4,a3,800015b4 <vprintfmt.constprop.0+0x6e>
80001708:	5782                	lw	a5,32(sp)
8000170a:	0184a023          	sw	s8,0(s1)
8000170e:	0194a223          	sw	s9,4(s1)
80001712:	00020793          	mv	a5,tp
80001716:	10f12823          	sw	a5,272(sp)
8000171a:	4785                	li	a5,1
8000171c:	c49c                	sw	a5,8(s1)
8000171e:	10012a23          	sw	zero,276(sp)
80001722:	11012783          	lw	a5,272(sp)
80001726:	4801                	li	a6,0
80001728:	0104a623          	sw	a6,12(s1)
8000172c:	11412803          	lw	a6,276(sp)
80001730:	c89c                	sw	a5,16(s1)
80001732:	0104aa23          	sw	a6,20(s1)
80001736:	0184ac23          	sw	s8,24(s1)
8000173a:	0194ae23          	sw	s9,28(s1)
8000173e:	0ff0000f          	fence
80001742:	10912c23          	sw	s1,280(sp)
80001746:	11812783          	lw	a5,280(sp)
8000174a:	10012e23          	sw	zero,284(sp)
8000174e:	11c12803          	lw	a6,284(sp)
80001752:	00fd2023          	sw	a5,0(s10)
80001756:	010d2223          	sw	a6,4(s10)
8000175a:	4018                	lw	a4,0(s0)
8000175c:	405c                	lw	a5,4(s0)
8000175e:	8f5d                	or	a4,a4,a5
80001760:	df6d                	beqz	a4,8000175a <vprintfmt.constprop.0+0x214>
80001762:	4781                	li	a5,0
80001764:	c01c                	sw	a5,0(s0)
80001766:	4801                	li	a6,0
80001768:	01042223          	sw	a6,4(s0)
8000176c:	0ff0000f          	fence
80001770:	4098                	lw	a4,0(s1)
80001772:	04022023          	sw	zero,64(tp) # 40 <buflen.1>
80001776:	40dc                	lw	a5,4(s1)
80001778:	8df2                	mv	s11,t3
8000177a:	bd2d                	j	800015b4 <vprintfmt.constprop.0+0x6e>
8000177c:	00174883          	lbu	a7,1(a4)
80001780:	fd068613          	addi	a2,a3,-48
80001784:	876e                	mv	a4,s11
80001786:	fd088793          	addi	a5,a7,-48
8000178a:	86c6                	mv	a3,a7
8000178c:	02f86163          	bltu	a6,a5,800017ae <vprintfmt.constprop.0+0x268>
80001790:	00261793          	slli	a5,a2,0x2
80001794:	97b2                	add	a5,a5,a2
80001796:	0705                	addi	a4,a4,1
80001798:	0786                	slli	a5,a5,0x1
8000179a:	97c6                	add	a5,a5,a7
8000179c:	00074883          	lbu	a7,0(a4)
800017a0:	fd078613          	addi	a2,a5,-48
800017a4:	fd088793          	addi	a5,a7,-48
800017a8:	86c6                	mv	a3,a7
800017aa:	fef873e3          	bgeu	a6,a5,80001790 <vprintfmt.constprop.0+0x24a>
800017ae:	47e2                	lw	a5,24(sp)
800017b0:	e607d5e3          	bgez	a5,8000161a <vprintfmt.constprop.0+0xd4>
800017b4:	cc32                	sw	a2,24(sp)
800017b6:	567d                	li	a2,-1
800017b8:	b58d                	j	8000161a <vprintfmt.constprop.0+0xd4>
800017ba:	00174683          	lbu	a3,1(a4)
800017be:	876e                	mv	a4,s11
800017c0:	bda9                	j	8000161a <vprintfmt.constprop.0+0xd4>
800017c2:	04022783          	lw	a5,64(tp) # 40 <buflen.1>
800017c6:	02500613          	li	a2,37
800017ca:	04000693          	li	a3,64
800017ce:	00178713          	addi	a4,a5,1
800017d2:	97f6                	add	a5,a5,t4
800017d4:	04e22023          	sw	a4,64(tp) # 40 <buflen.1>
800017d8:	00c78023          	sb	a2,0(a5)
800017dc:	dcd71ce3          	bne	a4,a3,800015b4 <vprintfmt.constprop.0+0x6e>
800017e0:	5782                	lw	a5,32(sp)
800017e2:	0584a023          	sw	s8,64(s1)
800017e6:	0594a223          	sw	s9,68(s1)
800017ea:	00020793          	mv	a5,tp
800017ee:	10f12023          	sw	a5,256(sp)
800017f2:	4785                	li	a5,1
800017f4:	c4bc                	sw	a5,72(s1)
800017f6:	10012223          	sw	zero,260(sp)
800017fa:	10012783          	lw	a5,256(sp)
800017fe:	4801                	li	a6,0
80001800:	0504a623          	sw	a6,76(s1)
80001804:	10412803          	lw	a6,260(sp)
80001808:	c8bc                	sw	a5,80(s1)
8000180a:	0504aa23          	sw	a6,84(s1)
8000180e:	0584ac23          	sw	s8,88(s1)
80001812:	0594ae23          	sw	s9,92(s1)
80001816:	0ff0000f          	fence
8000181a:	04048793          	addi	a5,s1,64
8000181e:	10f12423          	sw	a5,264(sp)
80001822:	10812783          	lw	a5,264(sp)
80001826:	10012623          	sw	zero,268(sp)
8000182a:	10c12803          	lw	a6,268(sp)
8000182e:	00fd2023          	sw	a5,0(s10)
80001832:	010d2223          	sw	a6,4(s10)
80001836:	4018                	lw	a4,0(s0)
80001838:	405c                	lw	a5,4(s0)
8000183a:	8f5d                	or	a4,a4,a5
8000183c:	df6d                	beqz	a4,80001836 <vprintfmt.constprop.0+0x2f0>
8000183e:	4781                	li	a5,0
80001840:	c01c                	sw	a5,0(s0)
80001842:	4801                	li	a6,0
80001844:	01042223          	sw	a6,4(s0)
80001848:	0ff0000f          	fence
8000184c:	40b8                	lw	a4,64(s1)
8000184e:	04022023          	sw	zero,64(tp) # 40 <buflen.1>
80001852:	40fc                	lw	a5,68(s1)
80001854:	b385                	j	800015b4 <vprintfmt.constprop.0+0x6e>
80001856:	5792                	lw	a5,36(sp)
80001858:	00174683          	lbu	a3,1(a4)
8000185c:	876e                	mv	a4,s11
8000185e:	4390                	lw	a2,0(a5)
80001860:	0791                	addi	a5,a5,4
80001862:	d23e                	sw	a5,36(sp)
80001864:	b7a9                	j	800017ae <vprintfmt.constprop.0+0x268>
80001866:	04022803          	lw	a6,64(tp) # 40 <buflen.1>
8000186a:	03000693          	li	a3,48
8000186e:	04000613          	li	a2,64
80001872:	00180793          	addi	a5,a6,1
80001876:	010e8733          	add	a4,t4,a6
8000187a:	04f22023          	sw	a5,64(tp) # 40 <buflen.1>
8000187e:	00d70023          	sb	a3,0(a4)
80001882:	70c78463          	beq	a5,a2,80001f8a <vprintfmt.constprop.0+0xa44>
80001886:	0809                	addi	a6,a6,2
80001888:	97f6                	add	a5,a5,t4
8000188a:	07800713          	li	a4,120
8000188e:	05022023          	sw	a6,64(tp) # 40 <buflen.1>
80001892:	00e78023          	sb	a4,0(a5)
80001896:	68c81963          	bne	a6,a2,80001f28 <vprintfmt.constprop.0+0x9e2>
8000189a:	5782                	lw	a5,32(sp)
8000189c:	1184a023          	sw	s8,256(s1)
800018a0:	1194a223          	sw	s9,260(s1)
800018a4:	00020793          	mv	a5,tp
800018a8:	d1be                	sw	a5,224(sp)
800018aa:	4785                	li	a5,1
800018ac:	10f4a423          	sw	a5,264(s1)
800018b0:	d382                	sw	zero,228(sp)
800018b2:	578e                	lw	a5,224(sp)
800018b4:	4801                	li	a6,0
800018b6:	1104a623          	sw	a6,268(s1)
800018ba:	581e                	lw	a6,228(sp)
800018bc:	10f4a823          	sw	a5,272(s1)
800018c0:	1104aa23          	sw	a6,276(s1)
800018c4:	1184ac23          	sw	s8,280(s1)
800018c8:	1194ae23          	sw	s9,284(s1)
800018cc:	0ff0000f          	fence
800018d0:	10048793          	addi	a5,s1,256
800018d4:	ddbe                	sw	a5,248(sp)
800018d6:	57ee                	lw	a5,248(sp)
800018d8:	df82                	sw	zero,252(sp)
800018da:	587e                	lw	a6,252(sp)
800018dc:	00fd2023          	sw	a5,0(s10)
800018e0:	010d2223          	sw	a6,4(s10)
800018e4:	4018                	lw	a4,0(s0)
800018e6:	405c                	lw	a5,4(s0)
800018e8:	8f5d                	or	a4,a4,a5
800018ea:	df6d                	beqz	a4,800018e4 <vprintfmt.constprop.0+0x39e>
800018ec:	4781                	li	a5,0
800018ee:	c01c                	sw	a5,0(s0)
800018f0:	4801                	li	a6,0
800018f2:	01042223          	sw	a6,4(s0)
800018f6:	0ff0000f          	fence
800018fa:	1004a703          	lw	a4,256(s1)
800018fe:	1044a783          	lw	a5,260(s1)
80001902:	5792                	lw	a5,36(sp)
80001904:	4801                	li	a6,0
80001906:	04022023          	sw	zero,64(tp) # 40 <buflen.1>
8000190a:	4641                	li	a2,16
8000190c:	c802                	sw	zero,16(sp)
8000190e:	00478693          	addi	a3,a5,4
80001912:	ac45                	j	80001bc2 <vprintfmt.constprop.0+0x67c>
80001914:	4785                	li	a5,1
80001916:	61e7c163          	blt	a5,t5,80001f18 <vprintfmt.constprop.0+0x9d2>
8000191a:	5792                	lw	a5,36(sp)
8000191c:	438c                	lw	a1,0(a5)
8000191e:	0791                	addi	a5,a5,4
80001920:	d23e                	sw	a5,36(sp)
80001922:	41f5d513          	srai	a0,a1,0x1f
80001926:	04022803          	lw	a6,64(tp) # 40 <buflen.1>
8000192a:	60054863          	bltz	a0,80001f3a <vprintfmt.constprop.0+0x9f4>
8000192e:	872e                	mv	a4,a1
80001930:	87aa                	mv	a5,a0
80001932:	4629                	li	a2,10
80001934:	c802                	sw	zero,16(sp)
80001936:	4681                	li	a3,0
80001938:	853a                	mv	a0,a4
8000193a:	85be                	mv	a1,a5
8000193c:	d576                	sw	t4,168(sp)
8000193e:	d31a                	sw	t1,164(sp)
80001940:	d142                	sw	a6,160(sp)
80001942:	cd32                	sw	a2,152(sp)
80001944:	c93a                	sw	a4,144(sp)
80001946:	c53e                	sw	a5,136(sp)
80001948:	622010ef          	jal	ra,80002f6a <__umoddi3>
8000194c:	47aa                	lw	a5,136(sp)
8000194e:	14a12023          	sw	a0,320(sp)
80001952:	4681                	li	a3,0
80001954:	474a                	lw	a4,144(sp)
80001956:	466a                	lw	a2,152(sp)
80001958:	580a                	lw	a6,160(sp)
8000195a:	531a                	lw	t1,164(sp)
8000195c:	5eaa                	lw	t4,168(sp)
8000195e:	5af68563          	beq	a3,a5,80001f08 <vprintfmt.constprop.0+0x9c2>
80001962:	14410e13          	addi	t3,sp,324
80001966:	4885                	li	a7,1
80001968:	c74e                	sw	s3,140(sp)
8000196a:	cb56                	sw	s5,148(sp)
8000196c:	cf5e                	sw	s7,156(sp)
8000196e:	d126                	sw	s1,160(sp)
80001970:	d36e                	sw	s11,164(sp)
80001972:	db66                	sw	s9,180(sp)
80001974:	c54a                	sw	s2,136(sp)
80001976:	89c6                	mv	s3,a7
80001978:	c952                	sw	s4,144(sp)
8000197a:	cd5a                	sw	s6,152(sp)
8000197c:	8af2                	mv	s5,t3
8000197e:	8dc2                	mv	s11,a6
80001980:	8bba                	mv	s7,a4
80001982:	84be                	mv	s1,a5
80001984:	d51a                	sw	t1,168(sp)
80001986:	d776                	sw	t4,172(sp)
80001988:	d962                	sw	s8,176(sp)
8000198a:	8cb2                	mv	s9,a2
8000198c:	8666                	mv	a2,s9
8000198e:	4681                	li	a3,0
80001990:	855e                	mv	a0,s7
80001992:	85a6                	mv	a1,s1
80001994:	278010ef          	jal	ra,80002c0c <__udivdi3>
80001998:	4681                	li	a3,0
8000199a:	8666                	mv	a2,s9
8000199c:	8baa                	mv	s7,a0
8000199e:	84ae                	mv	s1,a1
800019a0:	5ca010ef          	jal	ra,80002f6a <__umoddi3>
800019a4:	47c2                	lw	a5,16(sp)
800019a6:	00aaa023          	sw	a0,0(s5)
800019aa:	86ce                	mv	a3,s3
800019ac:	0a91                	addi	s5,s5,4
800019ae:	0985                	addi	s3,s3,1
800019b0:	fc979ee3          	bne	a5,s1,8000198c <vprintfmt.constprop.0+0x446>
800019b4:	fd9bfce3          	bgeu	s7,s9,8000198c <vprintfmt.constprop.0+0x446>
800019b8:	47e2                	lw	a5,24(sp)
800019ba:	88ce                	mv	a7,s3
800019bc:	886e                	mv	a6,s11
800019be:	492a                	lw	s2,136(sp)
800019c0:	49ba                	lw	s3,140(sp)
800019c2:	4a4a                	lw	s4,144(sp)
800019c4:	4ada                	lw	s5,148(sp)
800019c6:	4b6a                	lw	s6,152(sp)
800019c8:	4bfa                	lw	s7,156(sp)
800019ca:	548a                	lw	s1,160(sp)
800019cc:	5d9a                	lw	s11,164(sp)
800019ce:	532a                	lw	t1,168(sp)
800019d0:	5eba                	lw	t4,172(sp)
800019d2:	5c4a                	lw	s8,176(sp)
800019d4:	5cda                	lw	s9,180(sp)
800019d6:	0cf8d463          	bge	a7,a5,80001a9e <vprintfmt.constprop.0+0x558>
800019da:	00020e13          	mv	t3,tp
800019de:	0c048f93          	addi	t6,s1,192
800019e2:	4662                	lw	a2,24(sp)
800019e4:	ca4e                	sw	s3,20(sp)
800019e6:	ce56                	sw	s5,28(sp)
800019e8:	87c2                	mv	a5,a6
800019ea:	83f2                	mv	t2,t3
800019ec:	887e                	mv	a6,t6
800019ee:	899a                	mv	s3,t1
800019f0:	8af6                	mv	s5,t4
800019f2:	8336                	mv	t1,a3
800019f4:	52c2                	lw	t0,48(sp)
800019f6:	86fa                	mv	a3,t5
800019f8:	5fd6                	lw	t6,116(sp)
800019fa:	5f46                	lw	t5,112(sp)
800019fc:	5e26                	lw	t3,104(sp)
800019fe:	5eb6                	lw	t4,108(sp)
80001a00:	04000513          	li	a0,64
80001a04:	c84a                	sw	s2,16(sp)
80001a06:	cc52                	sw	s4,24(sp)
80001a08:	a021                	j	80001a10 <vprintfmt.constprop.0+0x4ca>
80001a0a:	167d                	addi	a2,a2,-1
80001a0c:	06c8dd63          	bge	a7,a2,80001a86 <vprintfmt.constprop.0+0x540>
80001a10:	00178713          	addi	a4,a5,1
80001a14:	979e                	add	a5,a5,t2
80001a16:	00578023          	sb	t0,0(a5)
80001a1a:	04e22023          	sw	a4,64(tp) # 40 <buflen.1>
80001a1e:	87ba                	mv	a5,a4
80001a20:	fea715e3          	bne	a4,a0,80001a0a <vprintfmt.constprop.0+0x4c4>
80001a24:	0d84a023          	sw	s8,192(s1)
80001a28:	0d94a223          	sw	s9,196(s1)
80001a2c:	4705                	li	a4,1
80001a2e:	0ce4a423          	sw	a4,200(s1)
80001a32:	4781                	li	a5,0
80001a34:	0cf4a623          	sw	a5,204(s1)
80001a38:	00020e13          	mv	t3,tp
80001a3c:	0dc4a823          	sw	t3,208(s1)
80001a40:	4e81                	li	t4,0
80001a42:	0dd4aa23          	sw	t4,212(s1)
80001a46:	0d84ac23          	sw	s8,216(s1)
80001a4a:	0d94ae23          	sw	s9,220(s1)
80001a4e:	0ff0000f          	fence
80001a52:	4f81                	li	t6,0
80001a54:	010d2023          	sw	a6,0(s10)
80001a58:	8f42                	mv	t5,a6
80001a5a:	01fd2223          	sw	t6,4(s10)
80001a5e:	4018                	lw	a4,0(s0)
80001a60:	405c                	lw	a5,4(s0)
80001a62:	8f5d                	or	a4,a4,a5
80001a64:	df6d                	beqz	a4,80001a5e <vprintfmt.constprop.0+0x518>
80001a66:	4701                	li	a4,0
80001a68:	c018                	sw	a4,0(s0)
80001a6a:	4781                	li	a5,0
80001a6c:	c05c                	sw	a5,4(s0)
80001a6e:	0ff0000f          	fence
80001a72:	0c04a703          	lw	a4,192(s1)
80001a76:	0c44a783          	lw	a5,196(s1)
80001a7a:	04022023          	sw	zero,64(tp) # 40 <buflen.1>
80001a7e:	167d                	addi	a2,a2,-1
80001a80:	4781                	li	a5,0
80001a82:	f8c8c7e3          	blt	a7,a2,80001a10 <vprintfmt.constprop.0+0x4ca>
80001a86:	d6f6                	sw	t4,108(sp)
80001a88:	869a                	mv	a3,t1
80001a8a:	8ed6                	mv	t4,s5
80001a8c:	834e                	mv	t1,s3
80001a8e:	4942                	lw	s2,16(sp)
80001a90:	49d2                	lw	s3,20(sp)
80001a92:	4a62                	lw	s4,24(sp)
80001a94:	4af2                	lw	s5,28(sp)
80001a96:	d4f2                	sw	t3,104(sp)
80001a98:	d8fa                	sw	t5,112(sp)
80001a9a:	dafe                	sw	t6,116(sp)
80001a9c:	883e                	mv	a6,a5
80001a9e:	028c                	addi	a1,sp,320
80001aa0:	068a                	slli	a3,a3,0x2
80001aa2:	96ae                	add	a3,a3,a1
80001aa4:	4298                	lw	a4,0(a3)
80001aa6:	ca4e                	sw	s3,20(sp)
80001aa8:	ce56                	sw	s5,28(sp)
80001aaa:	48a5                	li	a7,9
80001aac:	c84a                	sw	s2,16(sp)
80001aae:	cc52                	sw	s4,24(sp)
80001ab0:	d85a                	sw	s6,48(sp)
80001ab2:	da5e                	sw	s7,52(sp)
80001ab4:	00020513          	mv	a0,tp
80001ab8:	87c2                	mv	a5,a6
80001aba:	899a                	mv	s3,t1
80001abc:	887a                	mv	a6,t5
80001abe:	8af6                	mv	s5,t4
80001ac0:	5366                	lw	t1,120(sp)
80001ac2:	53f6                	lw	t2,124(sp)
80001ac4:	4e8a                	lw	t4,128(sp)
80001ac6:	4f1a                	lw	t5,132(sp)
80001ac8:	08048293          	addi	t0,s1,128
80001acc:	04000e13          	li	t3,64
80001ad0:	4fa9                	li	t6,10
80001ad2:	02e8f863          	bgeu	a7,a4,80001b02 <vprintfmt.constprop.0+0x5bc>
80001ad6:	00178b93          	addi	s7,a5,1
80001ada:	05770713          	addi	a4,a4,87
80001ade:	97aa                	add	a5,a5,a0
80001ae0:	00e78023          	sb	a4,0(a5)
80001ae4:	05722023          	sw	s7,64(tp) # 40 <buflen.1>
80001ae8:	87de                	mv	a5,s7
80001aea:	03f70863          	beq	a4,t6,80001b1a <vprintfmt.constprop.0+0x5d4>
80001aee:	03c78663          	beq	a5,t3,80001b1a <vprintfmt.constprop.0+0x5d4>
80001af2:	ffc68713          	addi	a4,a3,-4
80001af6:	08d58a63          	beq	a1,a3,80001b8a <vprintfmt.constprop.0+0x644>
80001afa:	86ba                	mv	a3,a4
80001afc:	4298                	lw	a4,0(a3)
80001afe:	fce8ece3          	bltu	a7,a4,80001ad6 <vprintfmt.constprop.0+0x590>
80001b02:	00178b93          	addi	s7,a5,1
80001b06:	03070713          	addi	a4,a4,48
80001b0a:	97aa                	add	a5,a5,a0
80001b0c:	00e78023          	sb	a4,0(a5)
80001b10:	05722023          	sw	s7,64(tp) # 40 <buflen.1>
80001b14:	87de                	mv	a5,s7
80001b16:	fdc79ee3          	bne	a5,t3,80001af2 <vprintfmt.constprop.0+0x5ac>
80001b1a:	0984a023          	sw	s8,128(s1)
80001b1e:	00020713          	mv	a4,tp
80001b22:	0994a223          	sw	s9,132(s1)
80001b26:	c43a                	sw	a4,8(sp)
80001b28:	4b05                	li	s6,1
80001b2a:	0964a423          	sw	s6,136(s1)
80001b2e:	c602                	sw	zero,12(sp)
80001b30:	4b22                	lw	s6,8(sp)
80001b32:	4b81                	li	s7,0
80001b34:	0974a623          	sw	s7,140(s1)
80001b38:	4bb2                	lw	s7,12(sp)
80001b3a:	0964a823          	sw	s6,144(s1)
80001b3e:	41f7d393          	srai	t2,a5,0x1f
80001b42:	0974aa23          	sw	s7,148(s1)
80001b46:	08f4ac23          	sw	a5,152(s1)
80001b4a:	0874ae23          	sw	t2,156(s1)
80001b4e:	833e                	mv	t1,a5
80001b50:	0ff0000f          	fence
80001b54:	4f01                	li	t5,0
80001b56:	005d2023          	sw	t0,0(s10)
80001b5a:	8e96                	mv	t4,t0
80001b5c:	01ed2223          	sw	t5,4(s10)
80001b60:	4018                	lw	a4,0(s0)
80001b62:	405c                	lw	a5,4(s0)
80001b64:	8f5d                	or	a4,a4,a5
80001b66:	df6d                	beqz	a4,80001b60 <vprintfmt.constprop.0+0x61a>
80001b68:	4701                	li	a4,0
80001b6a:	c018                	sw	a4,0(s0)
80001b6c:	4781                	li	a5,0
80001b6e:	c05c                	sw	a5,4(s0)
80001b70:	0ff0000f          	fence
80001b74:	0804a703          	lw	a4,128(s1)
80001b78:	0844a783          	lw	a5,132(s1)
80001b7c:	04022023          	sw	zero,64(tp) # 40 <buflen.1>
80001b80:	4781                	li	a5,0
80001b82:	ffc68713          	addi	a4,a3,-4
80001b86:	f6d59ae3          	bne	a1,a3,80001afa <vprintfmt.constprop.0+0x5b4>
80001b8a:	dc9a                	sw	t1,120(sp)
80001b8c:	c176                	sw	t4,128(sp)
80001b8e:	834e                	mv	t1,s3
80001b90:	8ed6                	mv	t4,s5
80001b92:	5b42                	lw	s6,48(sp)
80001b94:	5bd2                	lw	s7,52(sp)
80001b96:	4942                	lw	s2,16(sp)
80001b98:	49d2                	lw	s3,20(sp)
80001b9a:	4a62                	lw	s4,24(sp)
80001b9c:	4af2                	lw	s5,28(sp)
80001b9e:	de9e                	sw	t2,124(sp)
80001ba0:	c37a                	sw	t5,132(sp)
80001ba2:	bc09                	j	800015b4 <vprintfmt.constprop.0+0x6e>
80001ba4:	00174683          	lbu	a3,1(a4)
80001ba8:	0f05                	addi	t5,t5,1
80001baa:	876e                	mv	a4,s11
80001bac:	b4bd                	j	8000161a <vprintfmt.constprop.0+0xd4>
80001bae:	4641                	li	a2,16
80001bb0:	c802                	sw	zero,16(sp)
80001bb2:	4785                	li	a5,1
80001bb4:	04022803          	lw	a6,64(tp) # 40 <buflen.1>
80001bb8:	29e7c263          	blt	a5,t5,80001e3c <vprintfmt.constprop.0+0x8f6>
80001bbc:	5792                	lw	a5,36(sp)
80001bbe:	00478693          	addi	a3,a5,4
80001bc2:	4398                	lw	a4,0(a5)
80001bc4:	4781                	li	a5,0
80001bc6:	d236                	sw	a3,36(sp)
80001bc8:	b3bd                	j	80001936 <vprintfmt.constprop.0+0x3f0>
80001bca:	5792                	lw	a5,36(sp)
80001bcc:	4394                	lw	a3,0(a5)
80001bce:	00478293          	addi	t0,a5,4
80001bd2:	47e2                	lw	a5,24(sp)
80001bd4:	38068b63          	beqz	a3,80001f6a <vprintfmt.constprop.0+0xa24>
80001bd8:	02f05763          	blez	a5,80001c06 <vprintfmt.constprop.0+0x6c0>
80001bdc:	5742                	lw	a4,48(sp)
80001bde:	02d00793          	li	a5,45
80001be2:	42f71663          	bne	a4,a5,8000200e <vprintfmt.constprop.0+0xac8>
80001be6:	0006c783          	lbu	a5,0(a3)
80001bea:	88be                	mv	a7,a5
80001bec:	e395                	bnez	a5,80001c10 <vprintfmt.constprop.0+0x6ca>
80001bee:	4662                	lw	a2,24(sp)
80001bf0:	acb5                	j	80001e6c <vprintfmt.constprop.0+0x926>
80001bf2:	13d12223          	sw	t4,292(sp)
80001bf6:	cc42                	sw	a6,24(sp)
80001bf8:	13c12023          	sw	t3,288(sp)
80001bfc:	13e12423          	sw	t5,296(sp)
80001c00:	13f12623          	sw	t6,300(sp)
80001c04:	8e9e                	mv	t4,t2
80001c06:	0006c783          	lbu	a5,0(a3)
80001c0a:	88be                	mv	a7,a5
80001c0c:	24078a63          	beqz	a5,80001e60 <vprintfmt.constprop.0+0x91a>
80001c10:	4862                	lw	a6,24(sp)
80001c12:	5f7d                	li	t5,-1
80001c14:	4529                	li	a0,10
80001c16:	20048f93          	addi	t6,s1,512
80001c1a:	04000e13          	li	t3,64
80001c1e:	02064f63          	bltz	a2,80001c5c <vprintfmt.constprop.0+0x716>
80001c22:	fff60593          	addi	a1,a2,-1
80001c26:	25e58063          	beq	a1,t5,80001e66 <vprintfmt.constprop.0+0x920>
80001c2a:	04022703          	lw	a4,64(tp) # 40 <buflen.1>
80001c2e:	00170393          	addi	t2,a4,1
80001c32:	9776                	add	a4,a4,t4
80001c34:	04722023          	sw	t2,64(tp) # 40 <buflen.1>
80001c38:	00f70023          	sb	a5,0(a4)
80001c3c:	18a88663          	beq	a7,a0,80001dc8 <vprintfmt.constprop.0+0x882>
80001c40:	19c38463          	beq	t2,t3,80001dc8 <vprintfmt.constprop.0+0x882>
80001c44:	0016c783          	lbu	a5,1(a3)
80001c48:	187d                	addi	a6,a6,-1
80001c4a:	0685                	addi	a3,a3,1
80001c4c:	88be                	mv	a7,a5
80001c4e:	20078c63          	beqz	a5,80001e66 <vprintfmt.constprop.0+0x920>
80001c52:	0c064463          	bltz	a2,80001d1a <vprintfmt.constprop.0+0x7d4>
80001c56:	862e                	mv	a2,a1
80001c58:	fc0655e3          	bgez	a2,80001c22 <vprintfmt.constprop.0+0x6dc>
80001c5c:	85b2                	mv	a1,a2
80001c5e:	b7f1                	j	80001c2a <vprintfmt.constprop.0+0x6e4>
80001c60:	48e2                	lw	a7,24(sp)
80001c62:	00174683          	lbu	a3,1(a4)
80001c66:	876e                	mv	a4,s11
80001c68:	fff8c793          	not	a5,a7
80001c6c:	87fd                	srai	a5,a5,0x1f
80001c6e:	00f8f7b3          	and	a5,a7,a5
80001c72:	cc3e                	sw	a5,24(sp)
80001c74:	b25d                	j	8000161a <vprintfmt.constprop.0+0xd4>
80001c76:	5592                	lw	a1,36(sp)
80001c78:	04022683          	lw	a3,64(tp) # 40 <buflen.1>
80001c7c:	4629                	li	a2,10
80001c7e:	4198                	lw	a4,0(a1)
80001c80:	00168793          	addi	a5,a3,1
80001c84:	96f6                	add	a3,a3,t4
80001c86:	00e68023          	sb	a4,0(a3)
80001c8a:	04f22023          	sw	a5,64(tp) # 40 <buflen.1>
80001c8e:	00458693          	addi	a3,a1,4
80001c92:	00c70763          	beq	a4,a2,80001ca0 <vprintfmt.constprop.0+0x75a>
80001c96:	04000713          	li	a4,64
80001c9a:	d236                	sw	a3,36(sp)
80001c9c:	90e79ce3          	bne	a5,a4,800015b4 <vprintfmt.constprop.0+0x6e>
80001ca0:	5702                	lw	a4,32(sp)
80001ca2:	2984a023          	sw	s8,640(s1)
80001ca6:	2994a223          	sw	s9,644(s1)
80001caa:	00020713          	mv	a4,tp
80001cae:	dd3a                	sw	a4,184(sp)
80001cb0:	4585                	li	a1,1
80001cb2:	28b4a423          	sw	a1,648(s1)
80001cb6:	df02                	sw	zero,188(sp)
80001cb8:	55ea                	lw	a1,184(sp)
80001cba:	4601                	li	a2,0
80001cbc:	28c4a623          	sw	a2,652(s1)
80001cc0:	c1be                	sw	a5,192(sp)
80001cc2:	567a                	lw	a2,188(sp)
80001cc4:	87fd                	srai	a5,a5,0x1f
80001cc6:	c3be                	sw	a5,196(sp)
80001cc8:	478e                	lw	a5,192(sp)
80001cca:	28b4a823          	sw	a1,656(s1)
80001cce:	481e                	lw	a6,196(sp)
80001cd0:	28c4aa23          	sw	a2,660(s1)
80001cd4:	28f4ac23          	sw	a5,664(s1)
80001cd8:	2904ae23          	sw	a6,668(s1)
80001cdc:	0ff0000f          	fence
80001ce0:	28048793          	addi	a5,s1,640
80001ce4:	c5be                	sw	a5,200(sp)
80001ce6:	47ae                	lw	a5,200(sp)
80001ce8:	c782                	sw	zero,204(sp)
80001cea:	483e                	lw	a6,204(sp)
80001cec:	00fd2023          	sw	a5,0(s10)
80001cf0:	010d2223          	sw	a6,4(s10)
80001cf4:	4018                	lw	a4,0(s0)
80001cf6:	405c                	lw	a5,4(s0)
80001cf8:	8f5d                	or	a4,a4,a5
80001cfa:	df6d                	beqz	a4,80001cf4 <vprintfmt.constprop.0+0x7ae>
80001cfc:	4781                	li	a5,0
80001cfe:	c01c                	sw	a5,0(s0)
80001d00:	4801                	li	a6,0
80001d02:	01042223          	sw	a6,4(s0)
80001d06:	0ff0000f          	fence
80001d0a:	2804a703          	lw	a4,640(s1)
80001d0e:	04022023          	sw	zero,64(tp) # 40 <buflen.1>
80001d12:	2844a783          	lw	a5,644(s1)
80001d16:	d236                	sw	a3,36(sp)
80001d18:	b871                	j	800015b4 <vprintfmt.constprop.0+0x6e>
80001d1a:	01068533          	add	a0,a3,a6
80001d1e:	45a9                	li	a1,10
80001d20:	20048893          	addi	a7,s1,512
80001d24:	04000813          	li	a6,64
80001d28:	a801                	j	80001d38 <vprintfmt.constprop.0+0x7f2>
80001d2a:	0016c783          	lbu	a5,1(a3)
80001d2e:	0685                	addi	a3,a3,1
80001d30:	40d50633          	sub	a2,a0,a3
80001d34:	12078a63          	beqz	a5,80001e68 <vprintfmt.constprop.0+0x922>
80001d38:	04022703          	lw	a4,64(tp) # 40 <buflen.1>
80001d3c:	5e32                	lw	t3,44(sp)
80001d3e:	00170613          	addi	a2,a4,1
80001d42:	9772                	add	a4,a4,t3
80001d44:	04c22023          	sw	a2,64(tp) # 40 <buflen.1>
80001d48:	00f70023          	sb	a5,0(a4)
80001d4c:	00b78463          	beq	a5,a1,80001d54 <vprintfmt.constprop.0+0x80e>
80001d50:	fd061de3          	bne	a2,a6,80001d2a <vprintfmt.constprop.0+0x7e4>
80001d54:	5782                	lw	a5,32(sp)
80001d56:	2184a023          	sw	s8,512(s1)
80001d5a:	2194a223          	sw	s9,516(s1)
80001d5e:	00020793          	mv	a5,tp
80001d62:	d0be                	sw	a5,96(sp)
80001d64:	4705                	li	a4,1
80001d66:	20e4a423          	sw	a4,520(s1)
80001d6a:	d282                	sw	zero,100(sp)
80001d6c:	5706                	lw	a4,96(sp)
80001d6e:	4781                	li	a5,0
80001d70:	20f4a623          	sw	a5,524(s1)
80001d74:	5796                	lw	a5,100(sp)
80001d76:	20e4a823          	sw	a4,528(s1)
80001d7a:	ccb2                	sw	a2,88(sp)
80001d7c:	20f4aa23          	sw	a5,532(s1)
80001d80:	41f65793          	srai	a5,a2,0x1f
80001d84:	4766                	lw	a4,88(sp)
80001d86:	cebe                	sw	a5,92(sp)
80001d88:	47f6                	lw	a5,92(sp)
80001d8a:	20e4ac23          	sw	a4,536(s1)
80001d8e:	20f4ae23          	sw	a5,540(s1)
80001d92:	0ff0000f          	fence
80001d96:	c8c6                	sw	a7,80(sp)
80001d98:	4746                	lw	a4,80(sp)
80001d9a:	ca82                	sw	zero,84(sp)
80001d9c:	47d6                	lw	a5,84(sp)
80001d9e:	00ed2023          	sw	a4,0(s10)
80001da2:	00fd2223          	sw	a5,4(s10)
80001da6:	4018                	lw	a4,0(s0)
80001da8:	405c                	lw	a5,4(s0)
80001daa:	8f5d                	or	a4,a4,a5
80001dac:	df6d                	beqz	a4,80001da6 <vprintfmt.constprop.0+0x860>
80001dae:	4701                	li	a4,0
80001db0:	c018                	sw	a4,0(s0)
80001db2:	4781                	li	a5,0
80001db4:	c05c                	sw	a5,4(s0)
80001db6:	0ff0000f          	fence
80001dba:	2004a703          	lw	a4,512(s1)
80001dbe:	04022023          	sw	zero,64(tp) # 40 <buflen.1>
80001dc2:	2044a783          	lw	a5,516(s1)
80001dc6:	b795                	j	80001d2a <vprintfmt.constprop.0+0x7e4>
80001dc8:	5782                	lw	a5,32(sp)
80001dca:	2184a023          	sw	s8,512(s1)
80001dce:	2194a223          	sw	s9,516(s1)
80001dd2:	00020793          	mv	a5,tp
80001dd6:	dc3e                	sw	a5,56(sp)
80001dd8:	4705                	li	a4,1
80001dda:	20e4a423          	sw	a4,520(s1)
80001dde:	de02                	sw	zero,60(sp)
80001de0:	5762                	lw	a4,56(sp)
80001de2:	4781                	li	a5,0
80001de4:	20f4a623          	sw	a5,524(s1)
80001de8:	57f2                	lw	a5,60(sp)
80001dea:	20e4a823          	sw	a4,528(s1)
80001dee:	c09e                	sw	t2,64(sp)
80001df0:	20f4aa23          	sw	a5,532(s1)
80001df4:	41f3d793          	srai	a5,t2,0x1f
80001df8:	4706                	lw	a4,64(sp)
80001dfa:	c2be                	sw	a5,68(sp)
80001dfc:	4796                	lw	a5,68(sp)
80001dfe:	20e4ac23          	sw	a4,536(s1)
80001e02:	20f4ae23          	sw	a5,540(s1)
80001e06:	0ff0000f          	fence
80001e0a:	c4fe                	sw	t6,72(sp)
80001e0c:	4726                	lw	a4,72(sp)
80001e0e:	c682                	sw	zero,76(sp)
80001e10:	47b6                	lw	a5,76(sp)
80001e12:	00ed2023          	sw	a4,0(s10)
80001e16:	00fd2223          	sw	a5,4(s10)
80001e1a:	4018                	lw	a4,0(s0)
80001e1c:	405c                	lw	a5,4(s0)
80001e1e:	8f5d                	or	a4,a4,a5
80001e20:	df6d                	beqz	a4,80001e1a <vprintfmt.constprop.0+0x8d4>
80001e22:	4701                	li	a4,0
80001e24:	c018                	sw	a4,0(s0)
80001e26:	4781                	li	a5,0
80001e28:	c05c                	sw	a5,4(s0)
80001e2a:	0ff0000f          	fence
80001e2e:	2004a703          	lw	a4,512(s1)
80001e32:	04022023          	sw	zero,64(tp) # 40 <buflen.1>
80001e36:	2044a783          	lw	a5,516(s1)
80001e3a:	b529                	j	80001c44 <vprintfmt.constprop.0+0x6fe>
80001e3c:	5792                	lw	a5,36(sp)
80001e3e:	00778693          	addi	a3,a5,7
80001e42:	9ae1                	andi	a3,a3,-8
80001e44:	4298                	lw	a4,0(a3)
80001e46:	42dc                	lw	a5,4(a3)
80001e48:	06a1                	addi	a3,a3,8
80001e4a:	d236                	sw	a3,36(sp)
80001e4c:	b4ed                	j	80001936 <vprintfmt.constprop.0+0x3f0>
80001e4e:	13d12e23          	sw	t4,316(sp)
80001e52:	13012823          	sw	a6,304(sp)
80001e56:	13112a23          	sw	a7,308(sp)
80001e5a:	13c12c23          	sw	t3,312(sp)
80001e5e:	8efa                	mv	t4,t5
80001e60:	d216                	sw	t0,36(sp)
80001e62:	f52ff06f          	j	800015b4 <vprintfmt.constprop.0+0x6e>
80001e66:	8642                	mv	a2,a6
80001e68:	fec05ce3          	blez	a2,80001e60 <vprintfmt.constprop.0+0x91a>
80001e6c:	8f76                	mv	t5,t4
80001e6e:	04022783          	lw	a5,64(tp) # 40 <buflen.1>
80001e72:	13012803          	lw	a6,304(sp)
80001e76:	13412883          	lw	a7,308(sp)
80001e7a:	5f82                	lw	t6,32(sp)
80001e7c:	13812e03          	lw	t3,312(sp)
80001e80:	13c12e83          	lw	t4,316(sp)
80001e84:	02000593          	li	a1,32
80001e88:	04000693          	li	a3,64
80001e8c:	1c048513          	addi	a0,s1,448
80001e90:	a019                	j	80001e96 <vprintfmt.constprop.0+0x950>
80001e92:	167d                	addi	a2,a2,-1
80001e94:	de4d                	beqz	a2,80001e4e <vprintfmt.constprop.0+0x908>
80001e96:	00178713          	addi	a4,a5,1
80001e9a:	97fa                	add	a5,a5,t5
80001e9c:	00b78023          	sb	a1,0(a5)
80001ea0:	04e22023          	sw	a4,64(tp) # 40 <buflen.1>
80001ea4:	87ba                	mv	a5,a4
80001ea6:	fed716e3          	bne	a4,a3,80001e92 <vprintfmt.constprop.0+0x94c>
80001eaa:	1d84a023          	sw	s8,448(s1)
80001eae:	1d94a223          	sw	s9,452(s1)
80001eb2:	4705                	li	a4,1
80001eb4:	1ce4a423          	sw	a4,456(s1)
80001eb8:	4781                	li	a5,0
80001eba:	1cf4a623          	sw	a5,460(s1)
80001ebe:	00020813          	mv	a6,tp
80001ec2:	1d04a823          	sw	a6,464(s1)
80001ec6:	4881                	li	a7,0
80001ec8:	1d14aa23          	sw	a7,468(s1)
80001ecc:	1d84ac23          	sw	s8,472(s1)
80001ed0:	1d94ae23          	sw	s9,476(s1)
80001ed4:	0ff0000f          	fence
80001ed8:	4e81                	li	t4,0
80001eda:	00ad2023          	sw	a0,0(s10)
80001ede:	8e2a                	mv	t3,a0
80001ee0:	01dd2223          	sw	t4,4(s10)
80001ee4:	4018                	lw	a4,0(s0)
80001ee6:	405c                	lw	a5,4(s0)
80001ee8:	8f5d                	or	a4,a4,a5
80001eea:	df6d                	beqz	a4,80001ee4 <vprintfmt.constprop.0+0x99e>
80001eec:	4701                	li	a4,0
80001eee:	c018                	sw	a4,0(s0)
80001ef0:	4781                	li	a5,0
80001ef2:	c05c                	sw	a5,4(s0)
80001ef4:	0ff0000f          	fence
80001ef8:	1c04a703          	lw	a4,448(s1)
80001efc:	1c44a783          	lw	a5,452(s1)
80001f00:	04022023          	sw	zero,64(tp) # 40 <buflen.1>
80001f04:	4781                	li	a5,0
80001f06:	b771                	j	80001e92 <vprintfmt.constprop.0+0x94c>
80001f08:	a4c77de3          	bgeu	a4,a2,80001962 <vprintfmt.constprop.0+0x41c>
80001f0c:	4762                	lw	a4,24(sp)
80001f0e:	4785                	li	a5,1
80001f10:	4885                	li	a7,1
80001f12:	ace7c4e3          	blt	a5,a4,800019da <vprintfmt.constprop.0+0x494>
80001f16:	b661                	j	80001a9e <vprintfmt.constprop.0+0x558>
80001f18:	5792                	lw	a5,36(sp)
80001f1a:	079d                	addi	a5,a5,7
80001f1c:	9be1                	andi	a5,a5,-8
80001f1e:	438c                	lw	a1,0(a5)
80001f20:	43c8                	lw	a0,4(a5)
80001f22:	07a1                	addi	a5,a5,8
80001f24:	d23e                	sw	a5,36(sp)
80001f26:	b401                	j	80001926 <vprintfmt.constprop.0+0x3e0>
80001f28:	4641                	li	a2,16
80001f2a:	c802                	sw	zero,16(sp)
80001f2c:	b941                	j	80001bbc <vprintfmt.constprop.0+0x676>
80001f2e:	4621                	li	a2,8
80001f30:	c802                	sw	zero,16(sp)
80001f32:	b141                	j	80001bb2 <vprintfmt.constprop.0+0x66c>
80001f34:	4629                	li	a2,10
80001f36:	c802                	sw	zero,16(sp)
80001f38:	b9ad                	j	80001bb2 <vprintfmt.constprop.0+0x66c>
80001f3a:	00180693          	addi	a3,a6,1
80001f3e:	02d00793          	li	a5,45
80001f42:	9876                	add	a6,a6,t4
80001f44:	00f80023          	sb	a5,0(a6)
80001f48:	04d22023          	sw	a3,64(tp) # 40 <buflen.1>
80001f4c:	04000793          	li	a5,64
80001f50:	18f68063          	beq	a3,a5,800020d0 <vprintfmt.constprop.0+0xb8a>
80001f54:	00b03633          	snez	a2,a1
80001f58:	40a007b3          	neg	a5,a0
80001f5c:	8f91                	sub	a5,a5,a2
80001f5e:	40b00733          	neg	a4,a1
80001f62:	8836                	mv	a6,a3
80001f64:	4629                	li	a2,10
80001f66:	c802                	sw	zero,16(sp)
80001f68:	b2f9                	j	80001936 <vprintfmt.constprop.0+0x3f0>
80001f6a:	1cf05b63          	blez	a5,80002140 <vprintfmt.constprop.0+0xbfa>
80001f6e:	5742                	lw	a4,48(sp)
80001f70:	02d00793          	li	a5,45
80001f74:	00001697          	auipc	a3,0x1
80001f78:	3a868693          	addi	a3,a3,936 # 8000331c <main+0x94>
80001f7c:	08f71963          	bne	a4,a5,8000200e <vprintfmt.constprop.0+0xac8>
80001f80:	02800793          	li	a5,40
80001f84:	02800893          	li	a7,40
80001f88:	b161                	j	80001c10 <vprintfmt.constprop.0+0x6ca>
80001f8a:	5782                	lw	a5,32(sp)
80001f8c:	1584a023          	sw	s8,320(s1)
80001f90:	1594a223          	sw	s9,324(s1)
80001f94:	00020793          	mv	a5,tp
80001f98:	d5be                	sw	a5,232(sp)
80001f9a:	4785                	li	a5,1
80001f9c:	14f4a423          	sw	a5,328(s1)
80001fa0:	d782                	sw	zero,236(sp)
80001fa2:	57ae                	lw	a5,232(sp)
80001fa4:	4801                	li	a6,0
80001fa6:	1504a623          	sw	a6,332(s1)
80001faa:	583e                	lw	a6,236(sp)
80001fac:	14f4a823          	sw	a5,336(s1)
80001fb0:	1504aa23          	sw	a6,340(s1)
80001fb4:	1584ac23          	sw	s8,344(s1)
80001fb8:	1594ae23          	sw	s9,348(s1)
80001fbc:	0ff0000f          	fence
80001fc0:	14048793          	addi	a5,s1,320
80001fc4:	d9be                	sw	a5,240(sp)
80001fc6:	57ce                	lw	a5,240(sp)
80001fc8:	db82                	sw	zero,244(sp)
80001fca:	585e                	lw	a6,244(sp)
80001fcc:	00fd2023          	sw	a5,0(s10)
80001fd0:	010d2223          	sw	a6,4(s10)
80001fd4:	4018                	lw	a4,0(s0)
80001fd6:	405c                	lw	a5,4(s0)
80001fd8:	8f5d                	or	a4,a4,a5
80001fda:	df6d                	beqz	a4,80001fd4 <vprintfmt.constprop.0+0xa8e>
80001fdc:	4781                	li	a5,0
80001fde:	c01c                	sw	a5,0(s0)
80001fe0:	4801                	li	a6,0
80001fe2:	01042223          	sw	a6,4(s0)
80001fe6:	0ff0000f          	fence
80001fea:	1404a703          	lw	a4,320(s1)
80001fee:	1444a783          	lw	a5,324(s1)
80001ff2:	4805                	li	a6,1
80001ff4:	4785                	li	a5,1
80001ff6:	04f22023          	sw	a5,64(tp) # 40 <buflen.1>
80001ffa:	07800793          	li	a5,120
80001ffe:	00fe8023          	sb	a5,0(t4)
80002002:	5792                	lw	a5,36(sp)
80002004:	4641                	li	a2,16
80002006:	c802                	sw	zero,16(sp)
80002008:	00478693          	addi	a3,a5,4
8000200c:	be5d                	j	80001bc2 <vprintfmt.constprop.0+0x67c>
8000200e:	87b6                	mv	a5,a3
80002010:	00c685b3          	add	a1,a3,a2
80002014:	e609                	bnez	a2,8000201e <vprintfmt.constprop.0+0xad8>
80002016:	a831                	j	80002032 <vprintfmt.constprop.0+0xaec>
80002018:	0785                	addi	a5,a5,1
8000201a:	00b78563          	beq	a5,a1,80002024 <vprintfmt.constprop.0+0xade>
8000201e:	0007c703          	lbu	a4,0(a5)
80002022:	fb7d                	bnez	a4,80002018 <vprintfmt.constprop.0+0xad2>
80002024:	4762                	lw	a4,24(sp)
80002026:	8f95                	sub	a5,a5,a3
80002028:	40f707b3          	sub	a5,a4,a5
8000202c:	cc3e                	sw	a5,24(sp)
8000202e:	bcf05ce3          	blez	a5,80001c06 <vprintfmt.constprop.0+0x6c0>
80002032:	83f6                	mv	t2,t4
80002034:	04022783          	lw	a5,64(tp) # 40 <buflen.1>
80002038:	4862                	lw	a6,24(sp)
8000203a:	58c2                	lw	a7,48(sp)
8000203c:	12812f03          	lw	t5,296(sp)
80002040:	12c12f83          	lw	t6,300(sp)
80002044:	12012e03          	lw	t3,288(sp)
80002048:	12412e83          	lw	t4,292(sp)
8000204c:	04000593          	li	a1,64
80002050:	24048513          	addi	a0,s1,576
80002054:	a021                	j	8000205c <vprintfmt.constprop.0+0xb16>
80002056:	187d                	addi	a6,a6,-1
80002058:	b8080de3          	beqz	a6,80001bf2 <vprintfmt.constprop.0+0x6ac>
8000205c:	00178713          	addi	a4,a5,1
80002060:	979e                	add	a5,a5,t2
80002062:	01178023          	sb	a7,0(a5)
80002066:	04e22023          	sw	a4,64(tp) # 40 <buflen.1>
8000206a:	87ba                	mv	a5,a4
8000206c:	feb715e3          	bne	a4,a1,80002056 <vprintfmt.constprop.0+0xb10>
80002070:	5782                	lw	a5,32(sp)
80002072:	2584a023          	sw	s8,576(s1)
80002076:	2594a223          	sw	s9,580(s1)
8000207a:	4705                	li	a4,1
8000207c:	24e4a423          	sw	a4,584(s1)
80002080:	00020e13          	mv	t3,tp
80002084:	4781                	li	a5,0
80002086:	24f4a623          	sw	a5,588(s1)
8000208a:	25c4a823          	sw	t3,592(s1)
8000208e:	4e81                	li	t4,0
80002090:	25d4aa23          	sw	t4,596(s1)
80002094:	2584ac23          	sw	s8,600(s1)
80002098:	2594ae23          	sw	s9,604(s1)
8000209c:	0ff0000f          	fence
800020a0:	4f81                	li	t6,0
800020a2:	00ad2023          	sw	a0,0(s10)
800020a6:	8f2a                	mv	t5,a0
800020a8:	01fd2223          	sw	t6,4(s10)
800020ac:	4018                	lw	a4,0(s0)
800020ae:	405c                	lw	a5,4(s0)
800020b0:	8f5d                	or	a4,a4,a5
800020b2:	df6d                	beqz	a4,800020ac <vprintfmt.constprop.0+0xb66>
800020b4:	4701                	li	a4,0
800020b6:	c018                	sw	a4,0(s0)
800020b8:	4781                	li	a5,0
800020ba:	c05c                	sw	a5,4(s0)
800020bc:	0ff0000f          	fence
800020c0:	2404a703          	lw	a4,576(s1)
800020c4:	2444a783          	lw	a5,580(s1)
800020c8:	04022023          	sw	zero,64(tp) # 40 <buflen.1>
800020cc:	4781                	li	a5,0
800020ce:	b761                	j	80002056 <vprintfmt.constprop.0+0xb10>
800020d0:	5782                	lw	a5,32(sp)
800020d2:	1984a023          	sw	s8,384(s1)
800020d6:	1994a223          	sw	s9,388(s1)
800020da:	00020793          	mv	a5,tp
800020de:	c9be                	sw	a5,208(sp)
800020e0:	4785                	li	a5,1
800020e2:	18f4a423          	sw	a5,392(s1)
800020e6:	cb82                	sw	zero,212(sp)
800020e8:	47ce                	lw	a5,208(sp)
800020ea:	4801                	li	a6,0
800020ec:	1904a623          	sw	a6,396(s1)
800020f0:	485e                	lw	a6,212(sp)
800020f2:	18f4a823          	sw	a5,400(s1)
800020f6:	1904aa23          	sw	a6,404(s1)
800020fa:	1984ac23          	sw	s8,408(s1)
800020fe:	1994ae23          	sw	s9,412(s1)
80002102:	0ff0000f          	fence
80002106:	18048793          	addi	a5,s1,384
8000210a:	cdbe                	sw	a5,216(sp)
8000210c:	47ee                	lw	a5,216(sp)
8000210e:	cf82                	sw	zero,220(sp)
80002110:	487e                	lw	a6,220(sp)
80002112:	00fd2023          	sw	a5,0(s10)
80002116:	010d2223          	sw	a6,4(s10)
8000211a:	4018                	lw	a4,0(s0)
8000211c:	405c                	lw	a5,4(s0)
8000211e:	8f5d                	or	a4,a4,a5
80002120:	df6d                	beqz	a4,8000211a <vprintfmt.constprop.0+0xbd4>
80002122:	4781                	li	a5,0
80002124:	c01c                	sw	a5,0(s0)
80002126:	4801                	li	a6,0
80002128:	01042223          	sw	a6,4(s0)
8000212c:	0ff0000f          	fence
80002130:	4681                	li	a3,0
80002132:	1804a703          	lw	a4,384(s1)
80002136:	04022023          	sw	zero,64(tp) # 40 <buflen.1>
8000213a:	1844a783          	lw	a5,388(s1)
8000213e:	bd19                	j	80001f54 <vprintfmt.constprop.0+0xa0e>
80002140:	00001697          	auipc	a3,0x1
80002144:	1dc68693          	addi	a3,a3,476 # 8000331c <main+0x94>
80002148:	02800893          	li	a7,40
8000214c:	02800793          	li	a5,40
80002150:	b4c1                	j	80001c10 <vprintfmt.constprop.0+0x6ca>

80002152 <setStats>:
80002152:	b0002773          	csrr	a4,mcycle
80002156:	00004797          	auipc	a5,0x4
8000215a:	4f278793          	addi	a5,a5,1266 # 80006648 <counters>
8000215e:	e919                	bnez	a0,80002174 <setStats+0x22>
80002160:	4394                	lw	a3,0(a5)
80002162:	00001617          	auipc	a2,0x1
80002166:	1c260613          	addi	a2,a2,450 # 80003324 <main+0x9c>
8000216a:	00004597          	auipc	a1,0x4
8000216e:	4cc5ab23          	sw	a2,1238(a1) # 80006640 <counter_names>
80002172:	8f15                	sub	a4,a4,a3
80002174:	c398                	sw	a4,0(a5)
80002176:	b0202773          	csrr	a4,minstret
8000217a:	e919                	bnez	a0,80002190 <setStats+0x3e>
8000217c:	43d4                	lw	a3,4(a5)
8000217e:	00001617          	auipc	a2,0x1
80002182:	1ae60613          	addi	a2,a2,430 # 8000332c <main+0xa4>
80002186:	00004597          	auipc	a1,0x4
8000218a:	4ac5af23          	sw	a2,1214(a1) # 80006644 <counter_names+0x4>
8000218e:	8f15                	sub	a4,a4,a3
80002190:	c3d8                	sw	a4,4(a5)
80002192:	8082                	ret

80002194 <tohost_exit>:
80002194:	00151693          	slli	a3,a0,0x1
80002198:	0016e713          	ori	a4,a3,1
8000219c:	fffff697          	auipc	a3,0xfffff
800021a0:	e6468693          	addi	a3,a3,-412 # 80001000 <tohost>
800021a4:	4781                	li	a5,0
800021a6:	c298                	sw	a4,0(a3)
800021a8:	c2dc                	sw	a5,4(a3)
800021aa:	a001                	j	800021aa <tohost_exit+0x16>

800021ac <handle_trap>:
800021ac:	6605                	lui	a2,0x1
800021ae:	fffff797          	auipc	a5,0xfffff
800021b2:	e5278793          	addi	a5,a5,-430 # 80001000 <tohost>
800021b6:	a7360613          	addi	a2,a2,-1421 # a73 <buflen.1+0xa33>
800021ba:	4681                	li	a3,0
800021bc:	c390                	sw	a2,0(a5)
800021be:	c3d4                	sw	a3,4(a5)
800021c0:	a001                	j	800021c0 <handle_trap+0x14>

800021c2 <exit>:
800021c2:	1141                	addi	sp,sp,-16
800021c4:	c606                	sw	ra,12(sp)
800021c6:	37f9                	jal	80002194 <tohost_exit>

800021c8 <abort>:
800021c8:	fffff797          	auipc	a5,0xfffff
800021cc:	e3878793          	addi	a5,a5,-456 # 80001000 <tohost>
800021d0:	10d00613          	li	a2,269
800021d4:	4681                	li	a3,0
800021d6:	c390                	sw	a2,0(a5)
800021d8:	c3d4                	sw	a3,4(a5)
800021da:	a001                	j	800021da <abort+0x12>

800021dc <printstr>:
800021dc:	00054783          	lbu	a5,0(a0)
800021e0:	7119                	addi	sp,sp,-128
800021e2:	03f10613          	addi	a2,sp,63
800021e6:	882a                	mv	a6,a0
800021e8:	fc067613          	andi	a2,a2,-64
800021ec:	4881                	li	a7,0
800021ee:	c7b5                	beqz	a5,8000225a <printstr+0x7e>
800021f0:	87aa                	mv	a5,a0
800021f2:	0017c703          	lbu	a4,1(a5)
800021f6:	0785                	addi	a5,a5,1
800021f8:	ff6d                	bnez	a4,800021f2 <printstr+0x16>
800021fa:	40a78333          	sub	t1,a5,a0
800021fe:	4381                	li	t2,0
80002200:	04000713          	li	a4,64
80002204:	c218                	sw	a4,0(a2)
80002206:	4781                	li	a5,0
80002208:	c25c                	sw	a5,4(a2)
8000220a:	4705                	li	a4,1
8000220c:	c618                	sw	a4,8(a2)
8000220e:	4781                	li	a5,0
80002210:	c65c                	sw	a5,12(a2)
80002212:	01062823          	sw	a6,16(a2)
80002216:	01162a23          	sw	a7,20(a2)
8000221a:	00662c23          	sw	t1,24(a2)
8000221e:	00762e23          	sw	t2,28(a2)
80002222:	0ff0000f          	fence
80002226:	fffff697          	auipc	a3,0xfffff
8000222a:	dda68693          	addi	a3,a3,-550 # 80001000 <tohost>
8000222e:	c290                	sw	a2,0(a3)
80002230:	4781                	li	a5,0
80002232:	c2dc                	sw	a5,4(a3)
80002234:	fffff697          	auipc	a3,0xfffff
80002238:	e0c68693          	addi	a3,a3,-500 # 80001040 <fromhost>
8000223c:	4298                	lw	a4,0(a3)
8000223e:	42dc                	lw	a5,4(a3)
80002240:	8f5d                	or	a4,a4,a5
80002242:	df6d                	beqz	a4,8000223c <printstr+0x60>
80002244:	4781                	li	a5,0
80002246:	c29c                	sw	a5,0(a3)
80002248:	4801                	li	a6,0
8000224a:	0106a223          	sw	a6,4(a3)
8000224e:	0ff0000f          	fence
80002252:	4218                	lw	a4,0(a2)
80002254:	425c                	lw	a5,4(a2)
80002256:	6109                	addi	sp,sp,128
80002258:	8082                	ret
8000225a:	4301                	li	t1,0
8000225c:	4381                	li	t2,0
8000225e:	b74d                	j	80002200 <printstr+0x24>

80002260 <thread_entry>:
80002260:	c111                	beqz	a0,80002264 <thread_entry+0x4>
80002262:	a001                	j	80002262 <thread_entry+0x2>
80002264:	8082                	ret

80002266 <printhex>:
80002266:	7111                	addi	sp,sp,-256
80002268:	dfa2                	sw	s0,252(sp)
8000226a:	0105d413          	srli	s0,a1,0x10
8000226e:	47a5                	li	a5,9
80002270:	d222                	sw	s0,36(sp)
80002272:	00c5d713          	srli	a4,a1,0xc
80002276:	dda6                	sw	s1,248(sp)
80002278:	dbca                	sw	s2,244(sp)
8000227a:	0145d493          	srli	s1,a1,0x14
8000227e:	0185d913          	srli	s2,a1,0x18
80002282:	d7d2                	sw	s4,236(sp)
80002284:	d5d6                	sw	s5,232(sp)
80002286:	0085da13          	srli	s4,a1,0x8
8000228a:	0045da93          	srli	s5,a1,0x4
8000228e:	d3da                	sw	s6,228(sp)
80002290:	d1de                	sw	s7,224(sp)
80002292:	01855b13          	srli	s6,a0,0x18
80002296:	01455b93          	srli	s7,a0,0x14
8000229a:	cfe2                	sw	s8,220(sp)
8000229c:	cde6                	sw	s9,216(sp)
8000229e:	01055c13          	srli	s8,a0,0x10
800022a2:	00c55c93          	srli	s9,a0,0xc
800022a6:	cbea                	sw	s10,212(sp)
800022a8:	c9ee                	sw	s11,208(sp)
800022aa:	00855d13          	srli	s10,a0,0x8
800022ae:	00455d93          	srli	s11,a0,0x4
800022b2:	883d                	andi	s0,s0,15
800022b4:	d426                	sw	s1,40(sp)
800022b6:	c83a                	sw	a4,16(sp)
800022b8:	0087b433          	sltu	s0,a5,s0
800022bc:	d9ce                	sw	s3,240(sp)
800022be:	00f57393          	andi	t2,a0,15
800022c2:	01c5d993          	srli	s3,a1,0x1c
800022c6:	00fdf293          	andi	t0,s11,15
800022ca:	00fd7f93          	andi	t6,s10,15
800022ce:	00fcff13          	andi	t5,s9,15
800022d2:	00fc7e93          	andi	t4,s8,15
800022d6:	00fbfe13          	andi	t3,s7,15
800022da:	00fb7313          	andi	t1,s6,15
800022de:	01c55893          	srli	a7,a0,0x1c
800022e2:	00f5f813          	andi	a6,a1,15
800022e6:	00faf613          	andi	a2,s5,15
800022ea:	00fa7693          	andi	a3,s4,15
800022ee:	d64a                	sw	s2,44(sp)
800022f0:	8b3d                	andi	a4,a4,15
800022f2:	88bd                	andi	s1,s1,15
800022f4:	00f97913          	andi	s2,s2,15
800022f8:	0097b4b3          	sltu	s1,a5,s1
800022fc:	0127b933          	sltu	s2,a5,s2
80002300:	0077b3b3          	sltu	t2,a5,t2
80002304:	0057b2b3          	sltu	t0,a5,t0
80002308:	01f7bfb3          	sltu	t6,a5,t6
8000230c:	01e7bf33          	sltu	t5,a5,t5
80002310:	01d7beb3          	sltu	t4,a5,t4
80002314:	01c7be33          	sltu	t3,a5,t3
80002318:	0067b333          	sltu	t1,a5,t1
8000231c:	0117b8b3          	sltu	a7,a5,a7
80002320:	0107b833          	sltu	a6,a5,a6
80002324:	00c7b633          	sltu	a2,a5,a2
80002328:	00d7b6b3          	sltu	a3,a5,a3
8000232c:	00e7b733          	sltu	a4,a5,a4
80002330:	0137b7b3          	sltu	a5,a5,s3
80002334:	408009b3          	neg	s3,s0
80002338:	ca4e                	sw	s3,20(sp)
8000233a:	41200433          	neg	s0,s2
8000233e:	409009b3          	neg	s3,s1
80002342:	cc4e                	sw	s3,24(sp)
80002344:	405002b3          	neg	t0,t0
80002348:	89a2                	mv	s3,s0
8000234a:	41c00e33          	neg	t3,t3
8000234e:	407003b3          	neg	t2,t2
80002352:	41d00eb3          	neg	t4,t4
80002356:	41f00fb3          	neg	t6,t6
8000235a:	40600333          	neg	t1,t1
8000235e:	0273f393          	andi	t2,t2,39
80002362:	0272f913          	andi	s2,t0,39
80002366:	027efe93          	andi	t4,t4,39
8000236a:	027e7293          	andi	t0,t3,39
8000236e:	0279fe13          	andi	t3,s3,39
80002372:	00f57993          	andi	s3,a0,15
80002376:	c676                	sw	t4,12(sp)
80002378:	027ff493          	andi	s1,t6,39
8000237c:	02737f93          	andi	t6,t1,39
80002380:	4352                	lw	t1,20(sp)
80002382:	ca4e                	sw	s3,20(sp)
80002384:	03038993          	addi	s3,t2,48
80002388:	83ce                	mv	t2,s3
8000238a:	49b2                	lw	s3,12(sp)
8000238c:	40d006b3          	neg	a3,a3
80002390:	41e00f33          	neg	t5,t5
80002394:	03098993          	addi	s3,s3,48
80002398:	c64e                	sw	s3,12(sp)
8000239a:	01c55993          	srli	s3,a0,0x1c
8000239e:	4542                	lw	a0,16(sp)
800023a0:	0276f693          	andi	a3,a3,39
800023a4:	027f7413          	andi	s0,t5,39
800023a8:	893d                	andi	a0,a0,15
800023aa:	d02a                	sw	a0,32(sp)
800023ac:	5512                	lw	a0,36(sp)
800023ae:	02737f13          	andi	t5,t1,39
800023b2:	00fa7a13          	andi	s4,s4,15
800023b6:	893d                	andi	a0,a0,15
800023b8:	d22a                	sw	a0,36(sp)
800023ba:	5522                	lw	a0,40(sp)
800023bc:	4362                	lw	t1,24(sp)
800023be:	03068693          	addi	a3,a3,48
800023c2:	cc4e                	sw	s3,24(sp)
800023c4:	893d                	andi	a0,a0,15
800023c6:	00f5f993          	andi	s3,a1,15
800023ca:	ce4e                	sw	s3,28(sp)
800023cc:	96d2                	add	a3,a3,s4
800023ce:	40e00733          	neg	a4,a4
800023d2:	d42a                	sw	a0,40(sp)
800023d4:	5532                	lw	a0,44(sp)
800023d6:	5a02                	lw	s4,32(sp)
800023d8:	02777713          	andi	a4,a4,39
800023dc:	03070713          	addi	a4,a4,48
800023e0:	9752                	add	a4,a4,s4
800023e2:	5a12                	lw	s4,36(sp)
800023e4:	030f0f13          	addi	t5,t5,48
800023e8:	02737e93          	andi	t4,t1,39
800023ec:	9a7a                	add	s4,s4,t5
800023ee:	5f22                	lw	t5,40(sp)
800023f0:	893d                	andi	a0,a0,15
800023f2:	00fb7b13          	andi	s6,s6,15
800023f6:	030e8e93          	addi	t4,t4,48
800023fa:	d62a                	sw	a0,44(sp)
800023fc:	030f8f93          	addi	t6,t6,48
80002400:	9fda                	add	t6,t6,s6
80002402:	9f76                	add	t5,t5,t4
80002404:	4b62                	lw	s6,24(sp)
80002406:	49d2                	lw	s3,20(sp)
80002408:	5eb2                	lw	t4,44(sp)
8000240a:	411008b3          	neg	a7,a7
8000240e:	81f1                	srli	a1,a1,0x1c
80002410:	0278f893          	andi	a7,a7,39
80002414:	030e0e13          	addi	t3,t3,48
80002418:	c82e                	sw	a1,16(sp)
8000241a:	03088893          	addi	a7,a7,48
8000241e:	999e                	add	s3,s3,t2
80002420:	98da                	add	a7,a7,s6
80002422:	9ef2                	add	t4,t4,t3
80002424:	43b2                	lw	t2,12(sp)
80002426:	4e42                	lw	t3,16(sp)
80002428:	4b72                	lw	s6,28(sp)
8000242a:	41000833          	neg	a6,a6
8000242e:	40c00633          	neg	a2,a2
80002432:	40f007b3          	neg	a5,a5
80002436:	02787813          	andi	a6,a6,39
8000243a:	02767613          	andi	a2,a2,39
8000243e:	0277f793          	andi	a5,a5,39
80002442:	00fdfd93          	andi	s11,s11,15
80002446:	03090913          	addi	s2,s2,48
8000244a:	00fd7d13          	andi	s10,s10,15
8000244e:	03048493          	addi	s1,s1,48
80002452:	00fcfc93          	andi	s9,s9,15
80002456:	03040413          	addi	s0,s0,48
8000245a:	00fc7c13          	andi	s8,s8,15
8000245e:	00fbfb93          	andi	s7,s7,15
80002462:	03028293          	addi	t0,t0,48
80002466:	03080813          	addi	a6,a6,48
8000246a:	00fafa93          	andi	s5,s5,15
8000246e:	03060613          	addi	a2,a2,48
80002472:	03078793          	addi	a5,a5,48
80002476:	97f2                	add	a5,a5,t3
80002478:	03c10313          	addi	t1,sp,60
8000247c:	996e                	add	s2,s2,s11
8000247e:	94ea                	add	s1,s1,s10
80002480:	9466                	add	s0,s0,s9
80002482:	93e2                	add	t2,t2,s8
80002484:	92de                	add	t0,t0,s7
80002486:	985a                	add	a6,a6,s6
80002488:	9656                	add	a2,a2,s5
8000248a:	08f10e13          	addi	t3,sp,143
8000248e:	02f10e23          	sb	a5,60(sp)
80002492:	851a                	mv	a0,t1
80002494:	fc0e7e13          	andi	t3,t3,-64
80002498:	053105a3          	sb	s3,75(sp)
8000249c:	05210523          	sb	s2,74(sp)
800024a0:	049104a3          	sb	s1,73(sp)
800024a4:	04810423          	sb	s0,72(sp)
800024a8:	047103a3          	sb	t2,71(sp)
800024ac:	04510323          	sb	t0,70(sp)
800024b0:	05f102a3          	sb	t6,69(sp)
800024b4:	05110223          	sb	a7,68(sp)
800024b8:	050101a3          	sb	a6,67(sp)
800024bc:	04c10123          	sb	a2,66(sp)
800024c0:	04d100a3          	sb	a3,65(sp)
800024c4:	04e10023          	sb	a4,64(sp)
800024c8:	03410fa3          	sb	s4,63(sp)
800024cc:	03e10f23          	sb	t5,62(sp)
800024d0:	03d10ea3          	sb	t4,61(sp)
800024d4:	04010623          	sb	zero,76(sp)
800024d8:	4581                	li	a1,0
800024da:	879a                	mv	a5,t1
800024dc:	0017c703          	lbu	a4,1(a5)
800024e0:	0785                	addi	a5,a5,1
800024e2:	ff6d                	bnez	a4,800024dc <printhex+0x276>
800024e4:	04000613          	li	a2,64
800024e8:	00ce2023          	sw	a2,0(t3)
800024ec:	4681                	li	a3,0
800024ee:	00de2223          	sw	a3,4(t3)
800024f2:	4805                	li	a6,1
800024f4:	010e2423          	sw	a6,8(t3)
800024f8:	4881                	li	a7,0
800024fa:	011e2623          	sw	a7,12(t3)
800024fe:	00ae2823          	sw	a0,16(t3)
80002502:	00be2a23          	sw	a1,20(t3)
80002506:	40678633          	sub	a2,a5,t1
8000250a:	00ce2c23          	sw	a2,24(t3)
8000250e:	4681                	li	a3,0
80002510:	00de2e23          	sw	a3,28(t3)
80002514:	0ff0000f          	fence
80002518:	fffff697          	auipc	a3,0xfffff
8000251c:	ae868693          	addi	a3,a3,-1304 # 80001000 <tohost>
80002520:	01c6a023          	sw	t3,0(a3)
80002524:	4781                	li	a5,0
80002526:	c2dc                	sw	a5,4(a3)
80002528:	fffff697          	auipc	a3,0xfffff
8000252c:	b1868693          	addi	a3,a3,-1256 # 80001040 <fromhost>
80002530:	4298                	lw	a4,0(a3)
80002532:	42dc                	lw	a5,4(a3)
80002534:	8f5d                	or	a4,a4,a5
80002536:	df6d                	beqz	a4,80002530 <printhex+0x2ca>
80002538:	4781                	li	a5,0
8000253a:	c29c                	sw	a5,0(a3)
8000253c:	4801                	li	a6,0
8000253e:	0106a223          	sw	a6,4(a3)
80002542:	0ff0000f          	fence
80002546:	547e                	lw	s0,252(sp)
80002548:	000e2703          	lw	a4,0(t3)
8000254c:	54ee                	lw	s1,248(sp)
8000254e:	595e                	lw	s2,244(sp)
80002550:	59ce                	lw	s3,240(sp)
80002552:	5a3e                	lw	s4,236(sp)
80002554:	5aae                	lw	s5,232(sp)
80002556:	5b1e                	lw	s6,228(sp)
80002558:	5b8e                	lw	s7,224(sp)
8000255a:	4c7e                	lw	s8,220(sp)
8000255c:	4cee                	lw	s9,216(sp)
8000255e:	4d5e                	lw	s10,212(sp)
80002560:	4dce                	lw	s11,208(sp)
80002562:	004e2783          	lw	a5,4(t3)
80002566:	6111                	addi	sp,sp,256
80002568:	8082                	ret

8000256a <printf>:
8000256a:	7139                	addi	sp,sp,-64
8000256c:	02410313          	addi	t1,sp,36
80002570:	d22e                	sw	a1,36(sp)
80002572:	859a                	mv	a1,t1
80002574:	ce06                	sw	ra,28(sp)
80002576:	d432                	sw	a2,40(sp)
80002578:	d636                	sw	a3,44(sp)
8000257a:	d83a                	sw	a4,48(sp)
8000257c:	da3e                	sw	a5,52(sp)
8000257e:	dc42                	sw	a6,56(sp)
80002580:	de46                	sw	a7,60(sp)
80002582:	c61a                	sw	t1,12(sp)
80002584:	fc3fe0ef          	jal	ra,80001546 <vprintfmt.constprop.0>
80002588:	40f2                	lw	ra,28(sp)
8000258a:	4501                	li	a0,0
8000258c:	6121                	addi	sp,sp,64
8000258e:	8082                	ret

80002590 <sprintf>:
80002590:	715d                	addi	sp,sp,-80
80002592:	03810313          	addi	t1,sp,56
80002596:	d422                	sw	s0,40(sp)
80002598:	c62a                	sw	a0,12(sp)
8000259a:	dc32                	sw	a2,56(sp)
8000259c:	842a                	mv	s0,a0
8000259e:	861a                	mv	a2,t1
800025a0:	0068                	addi	a0,sp,12
800025a2:	d606                	sw	ra,44(sp)
800025a4:	de36                	sw	a3,60(sp)
800025a6:	c0ba                	sw	a4,64(sp)
800025a8:	c2be                	sw	a5,68(sp)
800025aa:	c4c2                	sw	a6,72(sp)
800025ac:	c6c6                	sw	a7,76(sp)
800025ae:	ce1a                	sw	t1,28(sp)
800025b0:	b4bfe0ef          	jal	ra,800010fa <vprintfmt.constprop.1>
800025b4:	4532                	lw	a0,12(sp)
800025b6:	00050023          	sb	zero,0(a0)
800025ba:	50b2                	lw	ra,44(sp)
800025bc:	8d01                	sub	a0,a0,s0
800025be:	5422                	lw	s0,40(sp)
800025c0:	6161                	addi	sp,sp,80
800025c2:	8082                	ret

800025c4 <memcpy>:
800025c4:	00b568b3          	or	a7,a0,a1
800025c8:	00c8e7b3          	or	a5,a7,a2
800025cc:	8b8d                	andi	a5,a5,3
800025ce:	00c506b3          	add	a3,a0,a2
800025d2:	c3d1                	beqz	a5,80002656 <memcpy+0x92>
800025d4:	0ad57863          	bgeu	a0,a3,80002684 <memcpy+0xc0>
800025d8:	00158793          	addi	a5,a1,1
800025dc:	40f50833          	sub	a6,a0,a5
800025e0:	fff60713          	addi	a4,a2,-1
800025e4:	00383813          	sltiu	a6,a6,3
800025e8:	00773713          	sltiu	a4,a4,7
800025ec:	00174713          	xori	a4,a4,1
800025f0:	00184813          	xori	a6,a6,1
800025f4:	00e87833          	and	a6,a6,a4
800025f8:	872a                	mv	a4,a0
800025fa:	06080963          	beqz	a6,8000266c <memcpy+0xa8>
800025fe:	0038f893          	andi	a7,a7,3
80002602:	06089563          	bnez	a7,8000266c <memcpy+0xa8>
80002606:	ffc67893          	andi	a7,a2,-4
8000260a:	87ae                	mv	a5,a1
8000260c:	98ae                	add	a7,a7,a1
8000260e:	0007a803          	lw	a6,0(a5)
80002612:	0791                	addi	a5,a5,4
80002614:	0711                	addi	a4,a4,4
80002616:	ff072e23          	sw	a6,-4(a4)
8000261a:	ff179ae3          	bne	a5,a7,8000260e <memcpy+0x4a>
8000261e:	ffc67713          	andi	a4,a2,-4
80002622:	95ba                	add	a1,a1,a4
80002624:	00e507b3          	add	a5,a0,a4
80002628:	04e60d63          	beq	a2,a4,80002682 <memcpy+0xbe>
8000262c:	0005c603          	lbu	a2,0(a1)
80002630:	00178713          	addi	a4,a5,1
80002634:	00c78023          	sb	a2,0(a5)
80002638:	04d77563          	bgeu	a4,a3,80002682 <memcpy+0xbe>
8000263c:	0015c603          	lbu	a2,1(a1)
80002640:	00278713          	addi	a4,a5,2
80002644:	00c780a3          	sb	a2,1(a5)
80002648:	02d77d63          	bgeu	a4,a3,80002682 <memcpy+0xbe>
8000264c:	0025c703          	lbu	a4,2(a1)
80002650:	00e78123          	sb	a4,2(a5)
80002654:	8082                	ret
80002656:	02d57663          	bgeu	a0,a3,80002682 <memcpy+0xbe>
8000265a:	87aa                	mv	a5,a0
8000265c:	4198                	lw	a4,0(a1)
8000265e:	0791                	addi	a5,a5,4
80002660:	0591                	addi	a1,a1,4
80002662:	fee7ae23          	sw	a4,-4(a5)
80002666:	fed7ebe3          	bltu	a5,a3,8000265c <memcpy+0x98>
8000266a:	8082                	ret
8000266c:	95b2                	add	a1,a1,a2
8000266e:	872a                	mv	a4,a0
80002670:	a011                	j	80002674 <memcpy+0xb0>
80002672:	0785                	addi	a5,a5,1
80002674:	fff7c683          	lbu	a3,-1(a5)
80002678:	0705                	addi	a4,a4,1
8000267a:	fed70fa3          	sb	a3,-1(a4)
8000267e:	feb79ae3          	bne	a5,a1,80002672 <memcpy+0xae>
80002682:	8082                	ret
80002684:	8082                	ret

80002686 <memset>:
80002686:	1141                	addi	sp,sp,-16
80002688:	00c567b3          	or	a5,a0,a2
8000268c:	c422                	sw	s0,8(sp)
8000268e:	c606                	sw	ra,12(sp)
80002690:	8b8d                	andi	a5,a5,3
80002692:	842a                	mv	s0,a0
80002694:	00c506b3          	add	a3,a0,a2
80002698:	cb99                	beqz	a5,800026ae <memset+0x28>
8000269a:	00d57563          	bgeu	a0,a3,800026a4 <memset+0x1e>
8000269e:	0ff5f593          	zext.b	a1,a1
800026a2:	37d5                	jal	80002686 <memset>
800026a4:	40b2                	lw	ra,12(sp)
800026a6:	8522                	mv	a0,s0
800026a8:	4422                	lw	s0,8(sp)
800026aa:	0141                	addi	sp,sp,16
800026ac:	8082                	ret
800026ae:	0ff5f593          	zext.b	a1,a1
800026b2:	00859793          	slli	a5,a1,0x8
800026b6:	00f5e733          	or	a4,a1,a5
800026ba:	01071793          	slli	a5,a4,0x10
800026be:	8f5d                	or	a4,a4,a5
800026c0:	fed572e3          	bgeu	a0,a3,800026a4 <memset+0x1e>
800026c4:	87aa                	mv	a5,a0
800026c6:	0791                	addi	a5,a5,4
800026c8:	fee7ae23          	sw	a4,-4(a5)
800026cc:	fed7ede3          	bltu	a5,a3,800026c6 <memset+0x40>
800026d0:	40b2                	lw	ra,12(sp)
800026d2:	8522                	mv	a0,s0
800026d4:	4422                	lw	s0,8(sp)
800026d6:	0141                	addi	sp,sp,16
800026d8:	8082                	ret

800026da <_init>:
800026da:	7135                	addi	sp,sp,-160
800026dc:	00004797          	auipc	a5,0x4
800026e0:	f7478793          	addi	a5,a5,-140 # 80006650 <_tdata_begin>
800026e4:	c552                	sw	s4,136(sp)
800026e6:	00004a17          	auipc	s4,0x4
800026ea:	f6aa0a13          	addi	s4,s4,-150 # 80006650 <_tdata_begin>
800026ee:	c74e                	sw	s3,140(sp)
800026f0:	40fa09b3          	sub	s3,s4,a5
800026f4:	cb26                	sw	s1,148(sp)
800026f6:	c94a                	sw	s2,144(sp)
800026f8:	84aa                	mv	s1,a0
800026fa:	892e                	mv	s2,a1
800026fc:	8512                	mv	a0,tp
800026fe:	85be                	mv	a1,a5
80002700:	864e                	mv	a2,s3
80002702:	cf06                	sw	ra,156(sp)
80002704:	cd22                	sw	s0,152(sp)
80002706:	c356                	sw	s5,132(sp)
80002708:	8a92                	mv	s5,tp
8000270a:	3d6d                	jal	800025c4 <memcpy>
8000270c:	88818613          	addi	a2,gp,-1912 # 800066c4 <_tbss_end>
80002710:	41460633          	sub	a2,a2,s4
80002714:	4581                	li	a1,0
80002716:	013a8533          	add	a0,s5,s3
8000271a:	37b5                	jal	80002686 <memset>
8000271c:	85ca                	mv	a1,s2
8000271e:	8526                	mv	a0,s1
80002720:	3681                	jal	80002260 <thread_entry>
80002722:	4581                	li	a1,0
80002724:	4501                	li	a0,0
80002726:	363000ef          	jal	ra,80003288 <main>
8000272a:	00004917          	auipc	s2,0x4
8000272e:	f1e90913          	addi	s2,s2,-226 # 80006648 <counters>
80002732:	00092683          	lw	a3,0(s2)
80002736:	03f10413          	addi	s0,sp,63
8000273a:	fc047413          	andi	s0,s0,-64
8000273e:	84aa                	mv	s1,a0
80002740:	ea8d                	bnez	a3,80002772 <_init+0x98>
80002742:	00492683          	lw	a3,4(s2)
80002746:	e299                	bnez	a3,8000274c <_init+0x72>
80002748:	8526                	mv	a0,s1
8000274a:	34a9                	jal	80002194 <tohost_exit>
8000274c:	8922                	mv	s2,s0
8000274e:	00004997          	auipc	s3,0x4
80002752:	ef298993          	addi	s3,s3,-270 # 80006640 <counter_names>
80002756:	0049a603          	lw	a2,4(s3)
8000275a:	854a                	mv	a0,s2
8000275c:	00001597          	auipc	a1,0x1
80002760:	bf458593          	addi	a1,a1,-1036 # 80003350 <main+0xc8>
80002764:	3535                	jal	80002590 <sprintf>
80002766:	992a                	add	s2,s2,a0
80002768:	ff2400e3          	beq	s0,s2,80002748 <_init+0x6e>
8000276c:	8522                	mv	a0,s0
8000276e:	34bd                	jal	800021dc <printstr>
80002770:	bfe1                	j	80002748 <_init+0x6e>
80002772:	00004997          	auipc	s3,0x4
80002776:	ece98993          	addi	s3,s3,-306 # 80006640 <counter_names>
8000277a:	0009a603          	lw	a2,0(s3)
8000277e:	00001597          	auipc	a1,0x1
80002782:	bd258593          	addi	a1,a1,-1070 # 80003350 <main+0xc8>
80002786:	8522                	mv	a0,s0
80002788:	3521                	jal	80002590 <sprintf>
8000278a:	00492683          	lw	a3,4(s2)
8000278e:	00a40933          	add	s2,s0,a0
80002792:	daf9                	beqz	a3,80002768 <_init+0x8e>
80002794:	b7c9                	j	80002756 <_init+0x7c>

80002796 <strlen>:
80002796:	00054783          	lbu	a5,0(a0)
8000279a:	cb89                	beqz	a5,800027ac <strlen+0x16>
8000279c:	87aa                	mv	a5,a0
8000279e:	0017c703          	lbu	a4,1(a5)
800027a2:	0785                	addi	a5,a5,1
800027a4:	ff6d                	bnez	a4,8000279e <strlen+0x8>
800027a6:	40a78533          	sub	a0,a5,a0
800027aa:	8082                	ret
800027ac:	4501                	li	a0,0
800027ae:	8082                	ret

800027b0 <strnlen>:
800027b0:	00b506b3          	add	a3,a0,a1
800027b4:	87aa                	mv	a5,a0
800027b6:	e589                	bnez	a1,800027c0 <strnlen+0x10>
800027b8:	a829                	j	800027d2 <strnlen+0x22>
800027ba:	0785                	addi	a5,a5,1
800027bc:	00f68863          	beq	a3,a5,800027cc <strnlen+0x1c>
800027c0:	0007c703          	lbu	a4,0(a5)
800027c4:	fb7d                	bnez	a4,800027ba <strnlen+0xa>
800027c6:	40a78533          	sub	a0,a5,a0
800027ca:	8082                	ret
800027cc:	40a68533          	sub	a0,a3,a0
800027d0:	8082                	ret
800027d2:	4501                	li	a0,0
800027d4:	8082                	ret

800027d6 <strcmp>:
800027d6:	00054783          	lbu	a5,0(a0)
800027da:	0585                	addi	a1,a1,1
800027dc:	0505                	addi	a0,a0,1
800027de:	fff5c703          	lbu	a4,-1(a1)
800027e2:	c791                	beqz	a5,800027ee <strcmp+0x18>
800027e4:	fee789e3          	beq	a5,a4,800027d6 <strcmp>
800027e8:	40e78533          	sub	a0,a5,a4
800027ec:	8082                	ret
800027ee:	4781                	li	a5,0
800027f0:	bfe5                	j	800027e8 <strcmp+0x12>

800027f2 <strcpy>:
800027f2:	87aa                	mv	a5,a0
800027f4:	0005c703          	lbu	a4,0(a1)
800027f8:	0785                	addi	a5,a5,1
800027fa:	0585                	addi	a1,a1,1
800027fc:	fee78fa3          	sb	a4,-1(a5)
80002800:	fb75                	bnez	a4,800027f4 <strcpy+0x2>
80002802:	8082                	ret

80002804 <atol>:
80002804:	00054683          	lbu	a3,0(a0)
80002808:	02000713          	li	a4,32
8000280c:	87aa                	mv	a5,a0
8000280e:	00e69763          	bne	a3,a4,8000281c <atol+0x18>
80002812:	0017c683          	lbu	a3,1(a5)
80002816:	0785                	addi	a5,a5,1
80002818:	fee68de3          	beq	a3,a4,80002812 <atol+0xe>
8000281c:	02d00713          	li	a4,45
80002820:	04e68063          	beq	a3,a4,80002860 <atol+0x5c>
80002824:	02b00713          	li	a4,43
80002828:	02e68563          	beq	a3,a4,80002852 <atol+0x4e>
8000282c:	4581                	li	a1,0
8000282e:	c69d                	beqz	a3,8000285c <atol+0x58>
80002830:	4501                	li	a0,0
80002832:	0785                	addi	a5,a5,1
80002834:	00251713          	slli	a4,a0,0x2
80002838:	fd068613          	addi	a2,a3,-48
8000283c:	0007c683          	lbu	a3,0(a5)
80002840:	972a                	add	a4,a4,a0
80002842:	0706                	slli	a4,a4,0x1
80002844:	00e60533          	add	a0,a2,a4
80002848:	f6ed                	bnez	a3,80002832 <atol+0x2e>
8000284a:	c991                	beqz	a1,8000285e <atol+0x5a>
8000284c:	40a00533          	neg	a0,a0
80002850:	8082                	ret
80002852:	0017c683          	lbu	a3,1(a5)
80002856:	4581                	li	a1,0
80002858:	0785                	addi	a5,a5,1
8000285a:	faf9                	bnez	a3,80002830 <atol+0x2c>
8000285c:	4501                	li	a0,0
8000285e:	8082                	ret
80002860:	0017c683          	lbu	a3,1(a5)
80002864:	4585                	li	a1,1
80002866:	0785                	addi	a5,a5,1
80002868:	f6e1                	bnez	a3,80002830 <atol+0x2c>
8000286a:	4501                	li	a0,0
8000286c:	bfcd                	j	8000285e <atol+0x5a>

8000286e <random>:
8000286e:	41c657b7          	lui	a5,0x41c65
80002872:	e6d78793          	addi	a5,a5,-403 # 41c64e6d <buflen.1+0x41c64e2d>
80002876:	02f507b3          	mul	a5,a0,a5
8000287a:	670d                	lui	a4,0x3
8000287c:	03970713          	addi	a4,a4,57 # 3039 <buflen.1+0x2ff9>
80002880:	97ba                	add	a5,a5,a4
80002882:	41f7d513          	srai	a0,a5,0x1f
80002886:	0542                	slli	a0,a0,0x10
80002888:	8141                	srli	a0,a0,0x10
8000288a:	953e                	add	a0,a0,a5
8000288c:	0506                	slli	a0,a0,0x1
8000288e:	8145                	srli	a0,a0,0x11
80002890:	8082                	ret

80002892 <__moddi3>:
80002892:	8e2e                	mv	t3,a1
80002894:	4801                	li	a6,0
80002896:	0005db63          	bgez	a1,800028ac <__moddi3+0x1a>
8000289a:	00a037b3          	snez	a5,a0
8000289e:	40b005b3          	neg	a1,a1
800028a2:	40f58e33          	sub	t3,a1,a5
800028a6:	40a00533          	neg	a0,a0
800028aa:	587d                	li	a6,-1
800028ac:	0006d963          	bgez	a3,800028be <__moddi3+0x2c>
800028b0:	00c037b3          	snez	a5,a2
800028b4:	40d006b3          	neg	a3,a3
800028b8:	8e9d                	sub	a3,a3,a5
800028ba:	40c00633          	neg	a2,a2
800028be:	88b2                	mv	a7,a2
800028c0:	87aa                	mv	a5,a0
800028c2:	85f2                	mv	a1,t3
800028c4:	1c069963          	bnez	a3,80002a96 <__moddi3+0x204>
800028c8:	80003737          	lui	a4,0x80003
800028cc:	60c70713          	addi	a4,a4,1548 # 8000360c <__global_pointer$+0xffffc7d0>
800028d0:	0ace7f63          	bgeu	t3,a2,8000298e <__moddi3+0xfc>
800028d4:	66c1                	lui	a3,0x10
800028d6:	0ad67563          	bgeu	a2,a3,80002980 <__moddi3+0xee>
800028da:	10063693          	sltiu	a3,a2,256
800028de:	0016c693          	xori	a3,a3,1
800028e2:	068e                	slli	a3,a3,0x3
800028e4:	00d65333          	srl	t1,a2,a3
800028e8:	971a                	add	a4,a4,t1
800028ea:	00074703          	lbu	a4,0(a4)
800028ee:	9736                	add	a4,a4,a3
800028f0:	02000693          	li	a3,32
800028f4:	40e68333          	sub	t1,a3,a4
800028f8:	00e68b63          	beq	a3,a4,8000290e <__moddi3+0x7c>
800028fc:	006e15b3          	sll	a1,t3,t1
80002900:	00e55733          	srl	a4,a0,a4
80002904:	006618b3          	sll	a7,a2,t1
80002908:	8dd9                	or	a1,a1,a4
8000290a:	006517b3          	sll	a5,a0,t1
8000290e:	0108d693          	srli	a3,a7,0x10
80002912:	02d5d733          	divu	a4,a1,a3
80002916:	01089513          	slli	a0,a7,0x10
8000291a:	8141                	srli	a0,a0,0x10
8000291c:	02d5f5b3          	remu	a1,a1,a3
80002920:	02a70733          	mul	a4,a4,a0
80002924:	01059613          	slli	a2,a1,0x10
80002928:	0107d593          	srli	a1,a5,0x10
8000292c:	8dd1                	or	a1,a1,a2
8000292e:	00e5f863          	bgeu	a1,a4,8000293e <__moddi3+0xac>
80002932:	95c6                	add	a1,a1,a7
80002934:	0115e563          	bltu	a1,a7,8000293e <__moddi3+0xac>
80002938:	00e5f363          	bgeu	a1,a4,8000293e <__moddi3+0xac>
8000293c:	95c6                	add	a1,a1,a7
8000293e:	8d99                	sub	a1,a1,a4
80002940:	02d5d733          	divu	a4,a1,a3
80002944:	07c2                	slli	a5,a5,0x10
80002946:	83c1                	srli	a5,a5,0x10
80002948:	02d5f5b3          	remu	a1,a1,a3
8000294c:	02a70733          	mul	a4,a4,a0
80002950:	05c2                	slli	a1,a1,0x10
80002952:	8fcd                	or	a5,a5,a1
80002954:	00e7f863          	bgeu	a5,a4,80002964 <__moddi3+0xd2>
80002958:	97c6                	add	a5,a5,a7
8000295a:	0117e563          	bltu	a5,a7,80002964 <__moddi3+0xd2>
8000295e:	00e7f363          	bgeu	a5,a4,80002964 <__moddi3+0xd2>
80002962:	97c6                	add	a5,a5,a7
80002964:	8f99                	sub	a5,a5,a4
80002966:	0067d533          	srl	a0,a5,t1
8000296a:	4581                	li	a1,0
8000296c:	00080963          	beqz	a6,8000297e <__moddi3+0xec>
80002970:	00a037b3          	snez	a5,a0
80002974:	40b005b3          	neg	a1,a1
80002978:	8d9d                	sub	a1,a1,a5
8000297a:	40a00533          	neg	a0,a0
8000297e:	8082                	ret
80002980:	01000337          	lui	t1,0x1000
80002984:	46c1                	li	a3,16
80002986:	f4666fe3          	bltu	a2,t1,800028e4 <__moddi3+0x52>
8000298a:	46e1                	li	a3,24
8000298c:	bfa1                	j	800028e4 <__moddi3+0x52>
8000298e:	e211                	bnez	a2,80002992 <__moddi3+0x100>
80002990:	9002                	ebreak
80002992:	66c1                	lui	a3,0x10
80002994:	08d67163          	bgeu	a2,a3,80002a16 <__moddi3+0x184>
80002998:	10063693          	sltiu	a3,a2,256
8000299c:	0016c693          	xori	a3,a3,1
800029a0:	068e                	slli	a3,a3,0x3
800029a2:	00d655b3          	srl	a1,a2,a3
800029a6:	972e                	add	a4,a4,a1
800029a8:	00074703          	lbu	a4,0(a4)
800029ac:	9736                	add	a4,a4,a3
800029ae:	02000693          	li	a3,32
800029b2:	40e68333          	sub	t1,a3,a4
800029b6:	06e69763          	bne	a3,a4,80002a24 <__moddi3+0x192>
800029ba:	40ce0733          	sub	a4,t3,a2
800029be:	0108d593          	srli	a1,a7,0x10
800029c2:	02b75633          	divu	a2,a4,a1
800029c6:	01089513          	slli	a0,a7,0x10
800029ca:	8141                	srli	a0,a0,0x10
800029cc:	0107d693          	srli	a3,a5,0x10
800029d0:	02b77733          	remu	a4,a4,a1
800029d4:	02a60633          	mul	a2,a2,a0
800029d8:	0742                	slli	a4,a4,0x10
800029da:	8f55                	or	a4,a4,a3
800029dc:	00c77863          	bgeu	a4,a2,800029ec <__moddi3+0x15a>
800029e0:	9746                	add	a4,a4,a7
800029e2:	01176563          	bltu	a4,a7,800029ec <__moddi3+0x15a>
800029e6:	00c77363          	bgeu	a4,a2,800029ec <__moddi3+0x15a>
800029ea:	9746                	add	a4,a4,a7
800029ec:	8f11                	sub	a4,a4,a2
800029ee:	02b756b3          	divu	a3,a4,a1
800029f2:	07c2                	slli	a5,a5,0x10
800029f4:	83c1                	srli	a5,a5,0x10
800029f6:	02b77733          	remu	a4,a4,a1
800029fa:	02a686b3          	mul	a3,a3,a0
800029fe:	0742                	slli	a4,a4,0x10
80002a00:	8fd9                	or	a5,a5,a4
80002a02:	00d7f863          	bgeu	a5,a3,80002a12 <__moddi3+0x180>
80002a06:	97c6                	add	a5,a5,a7
80002a08:	0117e563          	bltu	a5,a7,80002a12 <__moddi3+0x180>
80002a0c:	00d7f363          	bgeu	a5,a3,80002a12 <__moddi3+0x180>
80002a10:	97c6                	add	a5,a5,a7
80002a12:	8f95                	sub	a5,a5,a3
80002a14:	bf89                	j	80002966 <__moddi3+0xd4>
80002a16:	010005b7          	lui	a1,0x1000
80002a1a:	46c1                	li	a3,16
80002a1c:	f8b663e3          	bltu	a2,a1,800029a2 <__moddi3+0x110>
80002a20:	46e1                	li	a3,24
80002a22:	b741                	j	800029a2 <__moddi3+0x110>
80002a24:	006618b3          	sll	a7,a2,t1
80002a28:	00ee56b3          	srl	a3,t3,a4
80002a2c:	006e15b3          	sll	a1,t3,t1
80002a30:	00e55733          	srl	a4,a0,a4
80002a34:	006517b3          	sll	a5,a0,t1
80002a38:	0108d513          	srli	a0,a7,0x10
80002a3c:	8f4d                	or	a4,a4,a1
80002a3e:	02a6d5b3          	divu	a1,a3,a0
80002a42:	01089e13          	slli	t3,a7,0x10
80002a46:	010e5e13          	srli	t3,t3,0x10
80002a4a:	02a6f6b3          	remu	a3,a3,a0
80002a4e:	03c585b3          	mul	a1,a1,t3
80002a52:	01069613          	slli	a2,a3,0x10
80002a56:	01075693          	srli	a3,a4,0x10
80002a5a:	8ed1                	or	a3,a3,a2
80002a5c:	00b6f863          	bgeu	a3,a1,80002a6c <__moddi3+0x1da>
80002a60:	96c6                	add	a3,a3,a7
80002a62:	0116e563          	bltu	a3,a7,80002a6c <__moddi3+0x1da>
80002a66:	00b6f363          	bgeu	a3,a1,80002a6c <__moddi3+0x1da>
80002a6a:	96c6                	add	a3,a3,a7
80002a6c:	8e8d                	sub	a3,a3,a1
80002a6e:	02a6d633          	divu	a2,a3,a0
80002a72:	0742                	slli	a4,a4,0x10
80002a74:	8341                	srli	a4,a4,0x10
80002a76:	02a6f6b3          	remu	a3,a3,a0
80002a7a:	03c60633          	mul	a2,a2,t3
80002a7e:	06c2                	slli	a3,a3,0x10
80002a80:	8f55                	or	a4,a4,a3
80002a82:	00c77863          	bgeu	a4,a2,80002a92 <__moddi3+0x200>
80002a86:	9746                	add	a4,a4,a7
80002a88:	01176563          	bltu	a4,a7,80002a92 <__moddi3+0x200>
80002a8c:	00c77363          	bgeu	a4,a2,80002a92 <__moddi3+0x200>
80002a90:	9746                	add	a4,a4,a7
80002a92:	8f11                	sub	a4,a4,a2
80002a94:	b72d                	j	800029be <__moddi3+0x12c>
80002a96:	ecde6be3          	bltu	t3,a3,8000296c <__moddi3+0xda>
80002a9a:	6741                	lui	a4,0x10
80002a9c:	04e6f663          	bgeu	a3,a4,80002ae8 <__moddi3+0x256>
80002aa0:	1006b713          	sltiu	a4,a3,256
80002aa4:	00174713          	xori	a4,a4,1
80002aa8:	070e                	slli	a4,a4,0x3
80002aaa:	800038b7          	lui	a7,0x80003
80002aae:	00e6d333          	srl	t1,a3,a4
80002ab2:	60c88893          	addi	a7,a7,1548 # 8000360c <__global_pointer$+0xffffc7d0>
80002ab6:	989a                	add	a7,a7,t1
80002ab8:	0008c303          	lbu	t1,0(a7)
80002abc:	933a                	add	t1,t1,a4
80002abe:	02000713          	li	a4,32
80002ac2:	406708b3          	sub	a7,a4,t1
80002ac6:	02671863          	bne	a4,t1,80002af6 <__moddi3+0x264>
80002aca:	01c6e463          	bltu	a3,t3,80002ad2 <__moddi3+0x240>
80002ace:	00c56b63          	bltu	a0,a2,80002ae4 <__moddi3+0x252>
80002ad2:	40c50633          	sub	a2,a0,a2
80002ad6:	40de06b3          	sub	a3,t3,a3
80002ada:	00c535b3          	sltu	a1,a0,a2
80002ade:	40b685b3          	sub	a1,a3,a1
80002ae2:	87b2                	mv	a5,a2
80002ae4:	853e                	mv	a0,a5
80002ae6:	b559                	j	8000296c <__moddi3+0xda>
80002ae8:	010008b7          	lui	a7,0x1000
80002aec:	4741                	li	a4,16
80002aee:	fb16eee3          	bltu	a3,a7,80002aaa <__moddi3+0x218>
80002af2:	4761                	li	a4,24
80002af4:	bf5d                	j	80002aaa <__moddi3+0x218>
80002af6:	006657b3          	srl	a5,a2,t1
80002afa:	011696b3          	sll	a3,a3,a7
80002afe:	8edd                	or	a3,a3,a5
80002b00:	006e5733          	srl	a4,t3,t1
80002b04:	0106de93          	srli	t4,a3,0x10
80002b08:	03d75fb3          	divu	t6,a4,t4
80002b0c:	011e15b3          	sll	a1,t3,a7
80002b10:	01069e13          	slli	t3,a3,0x10
80002b14:	010e5e13          	srli	t3,t3,0x10
80002b18:	006557b3          	srl	a5,a0,t1
80002b1c:	8ddd                	or	a1,a1,a5
80002b1e:	0105d793          	srli	a5,a1,0x10
80002b22:	01161633          	sll	a2,a2,a7
80002b26:	01151533          	sll	a0,a0,a7
80002b2a:	03d77733          	remu	a4,a4,t4
80002b2e:	03fe0f33          	mul	t5,t3,t6
80002b32:	0742                	slli	a4,a4,0x10
80002b34:	8fd9                	or	a5,a5,a4
80002b36:	877e                	mv	a4,t6
80002b38:	01e7fc63          	bgeu	a5,t5,80002b50 <__moddi3+0x2be>
80002b3c:	97b6                	add	a5,a5,a3
80002b3e:	ffff8713          	addi	a4,t6,-1
80002b42:	00d7e763          	bltu	a5,a3,80002b50 <__moddi3+0x2be>
80002b46:	01e7f563          	bgeu	a5,t5,80002b50 <__moddi3+0x2be>
80002b4a:	ffef8713          	addi	a4,t6,-2
80002b4e:	97b6                	add	a5,a5,a3
80002b50:	41e787b3          	sub	a5,a5,t5
80002b54:	03d7df33          	divu	t5,a5,t4
80002b58:	05c2                	slli	a1,a1,0x10
80002b5a:	81c1                	srli	a1,a1,0x10
80002b5c:	03d7f7b3          	remu	a5,a5,t4
80002b60:	03ee0e33          	mul	t3,t3,t5
80002b64:	07c2                	slli	a5,a5,0x10
80002b66:	8ddd                	or	a1,a1,a5
80002b68:	87fa                	mv	a5,t5
80002b6a:	01c5fc63          	bgeu	a1,t3,80002b82 <__moddi3+0x2f0>
80002b6e:	95b6                	add	a1,a1,a3
80002b70:	ffff0793          	addi	a5,t5,-1
80002b74:	00d5e763          	bltu	a1,a3,80002b82 <__moddi3+0x2f0>
80002b78:	01c5f563          	bgeu	a1,t3,80002b82 <__moddi3+0x2f0>
80002b7c:	ffef0793          	addi	a5,t5,-2
80002b80:	95b6                	add	a1,a1,a3
80002b82:	0742                	slli	a4,a4,0x10
80002b84:	6fc1                	lui	t6,0x10
80002b86:	8f5d                	or	a4,a4,a5
80002b88:	41c585b3          	sub	a1,a1,t3
80002b8c:	ffff8e13          	addi	t3,t6,-1 # ffff <buflen.1+0xffbf>
80002b90:	01c777b3          	and	a5,a4,t3
80002b94:	01065e93          	srli	t4,a2,0x10
80002b98:	8341                	srli	a4,a4,0x10
80002b9a:	01c67e33          	and	t3,a2,t3
80002b9e:	03c78f33          	mul	t5,a5,t3
80002ba2:	03c70e33          	mul	t3,a4,t3
80002ba6:	03d787b3          	mul	a5,a5,t4
80002baa:	03d70733          	mul	a4,a4,t4
80002bae:	01c78eb3          	add	t4,a5,t3
80002bb2:	010f5793          	srli	a5,t5,0x10
80002bb6:	97f6                	add	a5,a5,t4
80002bb8:	01c7f363          	bgeu	a5,t3,80002bbe <__moddi3+0x32c>
80002bbc:	977e                	add	a4,a4,t6
80002bbe:	0107de13          	srli	t3,a5,0x10
80002bc2:	9772                	add	a4,a4,t3
80002bc4:	6e41                	lui	t3,0x10
80002bc6:	1e7d                	addi	t3,t3,-1 # ffff <buflen.1+0xffbf>
80002bc8:	01c7f7b3          	and	a5,a5,t3
80002bcc:	07c2                	slli	a5,a5,0x10
80002bce:	01cf7f33          	and	t5,t5,t3
80002bd2:	97fa                	add	a5,a5,t5
80002bd4:	00e5e663          	bltu	a1,a4,80002be0 <__moddi3+0x34e>
80002bd8:	00e59b63          	bne	a1,a4,80002bee <__moddi3+0x35c>
80002bdc:	00f57963          	bgeu	a0,a5,80002bee <__moddi3+0x35c>
80002be0:	40c78633          	sub	a2,a5,a2
80002be4:	00c7b7b3          	sltu	a5,a5,a2
80002be8:	97b6                	add	a5,a5,a3
80002bea:	8f1d                	sub	a4,a4,a5
80002bec:	87b2                	mv	a5,a2
80002bee:	40f507b3          	sub	a5,a0,a5
80002bf2:	00f53533          	sltu	a0,a0,a5
80002bf6:	8d99                	sub	a1,a1,a4
80002bf8:	8d89                	sub	a1,a1,a0
80002bfa:	00659333          	sll	t1,a1,t1
80002bfe:	0117d7b3          	srl	a5,a5,a7
80002c02:	00f36533          	or	a0,t1,a5
80002c06:	0115d5b3          	srl	a1,a1,a7
80002c0a:	b38d                	j	8000296c <__moddi3+0xda>

80002c0c <__udivdi3>:
80002c0c:	832a                	mv	t1,a0
80002c0e:	88ae                	mv	a7,a1
80002c10:	8732                	mv	a4,a2
80002c12:	882a                	mv	a6,a0
80002c14:	87ae                	mv	a5,a1
80002c16:	20069663          	bnez	a3,80002e22 <__udivdi3+0x216>
80002c1a:	800035b7          	lui	a1,0x80003
80002c1e:	60c58593          	addi	a1,a1,1548 # 8000360c <__global_pointer$+0xffffc7d0>
80002c22:	0cc8f163          	bgeu	a7,a2,80002ce4 <__udivdi3+0xd8>
80002c26:	66c1                	lui	a3,0x10
80002c28:	0ad67763          	bgeu	a2,a3,80002cd6 <__udivdi3+0xca>
80002c2c:	10063693          	sltiu	a3,a2,256
80002c30:	0016c693          	xori	a3,a3,1
80002c34:	068e                	slli	a3,a3,0x3
80002c36:	00d65533          	srl	a0,a2,a3
80002c3a:	95aa                	add	a1,a1,a0
80002c3c:	0005c583          	lbu	a1,0(a1)
80002c40:	02000513          	li	a0,32
80002c44:	96ae                	add	a3,a3,a1
80002c46:	40d505b3          	sub	a1,a0,a3
80002c4a:	00d50b63          	beq	a0,a3,80002c60 <__udivdi3+0x54>
80002c4e:	00b897b3          	sll	a5,a7,a1
80002c52:	00d356b3          	srl	a3,t1,a3
80002c56:	00b61733          	sll	a4,a2,a1
80002c5a:	8fd5                	or	a5,a5,a3
80002c5c:	00b31833          	sll	a6,t1,a1
80002c60:	01075593          	srli	a1,a4,0x10
80002c64:	02b7d333          	divu	t1,a5,a1
80002c68:	01071613          	slli	a2,a4,0x10
80002c6c:	8241                	srli	a2,a2,0x10
80002c6e:	02b7f7b3          	remu	a5,a5,a1
80002c72:	851a                	mv	a0,t1
80002c74:	026608b3          	mul	a7,a2,t1
80002c78:	01079693          	slli	a3,a5,0x10
80002c7c:	01085793          	srli	a5,a6,0x10
80002c80:	8fd5                	or	a5,a5,a3
80002c82:	0117fc63          	bgeu	a5,a7,80002c9a <__udivdi3+0x8e>
80002c86:	97ba                	add	a5,a5,a4
80002c88:	fff30513          	addi	a0,t1,-1 # ffffff <buflen.1+0xffffbf>
80002c8c:	00e7e763          	bltu	a5,a4,80002c9a <__udivdi3+0x8e>
80002c90:	0117f563          	bgeu	a5,a7,80002c9a <__udivdi3+0x8e>
80002c94:	ffe30513          	addi	a0,t1,-2
80002c98:	97ba                	add	a5,a5,a4
80002c9a:	411787b3          	sub	a5,a5,a7
80002c9e:	02b7d8b3          	divu	a7,a5,a1
80002ca2:	0842                	slli	a6,a6,0x10
80002ca4:	01085813          	srli	a6,a6,0x10
80002ca8:	02b7f7b3          	remu	a5,a5,a1
80002cac:	031606b3          	mul	a3,a2,a7
80002cb0:	07c2                	slli	a5,a5,0x10
80002cb2:	00f86833          	or	a6,a6,a5
80002cb6:	87c6                	mv	a5,a7
80002cb8:	00d87b63          	bgeu	a6,a3,80002cce <__udivdi3+0xc2>
80002cbc:	983a                	add	a6,a6,a4
80002cbe:	fff88793          	addi	a5,a7,-1 # ffffff <buflen.1+0xffffbf>
80002cc2:	00e86663          	bltu	a6,a4,80002cce <__udivdi3+0xc2>
80002cc6:	00d87463          	bgeu	a6,a3,80002cce <__udivdi3+0xc2>
80002cca:	ffe88793          	addi	a5,a7,-2
80002cce:	0542                	slli	a0,a0,0x10
80002cd0:	8d5d                	or	a0,a0,a5
80002cd2:	4581                	li	a1,0
80002cd4:	8082                	ret
80002cd6:	01000537          	lui	a0,0x1000
80002cda:	46c1                	li	a3,16
80002cdc:	f4a66de3          	bltu	a2,a0,80002c36 <__udivdi3+0x2a>
80002ce0:	46e1                	li	a3,24
80002ce2:	bf91                	j	80002c36 <__udivdi3+0x2a>
80002ce4:	e211                	bnez	a2,80002ce8 <__udivdi3+0xdc>
80002ce6:	9002                	ebreak
80002ce8:	67c1                	lui	a5,0x10
80002cea:	08f67f63          	bgeu	a2,a5,80002d88 <__udivdi3+0x17c>
80002cee:	10063693          	sltiu	a3,a2,256
80002cf2:	0016c693          	xori	a3,a3,1
80002cf6:	068e                	slli	a3,a3,0x3
80002cf8:	00d657b3          	srl	a5,a2,a3
80002cfc:	95be                	add	a1,a1,a5
80002cfe:	0005c783          	lbu	a5,0(a1)
80002d02:	97b6                	add	a5,a5,a3
80002d04:	02000693          	li	a3,32
80002d08:	40f685b3          	sub	a1,a3,a5
80002d0c:	08f69563          	bne	a3,a5,80002d96 <__udivdi3+0x18a>
80002d10:	40c887b3          	sub	a5,a7,a2
80002d14:	4585                	li	a1,1
80002d16:	01075893          	srli	a7,a4,0x10
80002d1a:	0317de33          	divu	t3,a5,a7
80002d1e:	01071613          	slli	a2,a4,0x10
80002d22:	8241                	srli	a2,a2,0x10
80002d24:	01085693          	srli	a3,a6,0x10
80002d28:	0317f7b3          	remu	a5,a5,a7
80002d2c:	8572                	mv	a0,t3
80002d2e:	03c60333          	mul	t1,a2,t3
80002d32:	07c2                	slli	a5,a5,0x10
80002d34:	8fd5                	or	a5,a5,a3
80002d36:	0067fc63          	bgeu	a5,t1,80002d4e <__udivdi3+0x142>
80002d3a:	97ba                	add	a5,a5,a4
80002d3c:	fffe0513          	addi	a0,t3,-1
80002d40:	00e7e763          	bltu	a5,a4,80002d4e <__udivdi3+0x142>
80002d44:	0067f563          	bgeu	a5,t1,80002d4e <__udivdi3+0x142>
80002d48:	ffee0513          	addi	a0,t3,-2
80002d4c:	97ba                	add	a5,a5,a4
80002d4e:	406787b3          	sub	a5,a5,t1
80002d52:	0317d333          	divu	t1,a5,a7
80002d56:	0842                	slli	a6,a6,0x10
80002d58:	01085813          	srli	a6,a6,0x10
80002d5c:	0317f7b3          	remu	a5,a5,a7
80002d60:	026606b3          	mul	a3,a2,t1
80002d64:	07c2                	slli	a5,a5,0x10
80002d66:	00f86833          	or	a6,a6,a5
80002d6a:	879a                	mv	a5,t1
80002d6c:	00d87b63          	bgeu	a6,a3,80002d82 <__udivdi3+0x176>
80002d70:	983a                	add	a6,a6,a4
80002d72:	fff30793          	addi	a5,t1,-1
80002d76:	00e86663          	bltu	a6,a4,80002d82 <__udivdi3+0x176>
80002d7a:	00d87463          	bgeu	a6,a3,80002d82 <__udivdi3+0x176>
80002d7e:	ffe30793          	addi	a5,t1,-2
80002d82:	0542                	slli	a0,a0,0x10
80002d84:	8d5d                	or	a0,a0,a5
80002d86:	8082                	ret
80002d88:	010007b7          	lui	a5,0x1000
80002d8c:	46c1                	li	a3,16
80002d8e:	f6f665e3          	bltu	a2,a5,80002cf8 <__udivdi3+0xec>
80002d92:	46e1                	li	a3,24
80002d94:	b795                	j	80002cf8 <__udivdi3+0xec>
80002d96:	00b61733          	sll	a4,a2,a1
80002d9a:	00f8d6b3          	srl	a3,a7,a5
80002d9e:	01075513          	srli	a0,a4,0x10
80002da2:	00f357b3          	srl	a5,t1,a5
80002da6:	00b31833          	sll	a6,t1,a1
80002daa:	02a6d333          	divu	t1,a3,a0
80002dae:	01071613          	slli	a2,a4,0x10
80002db2:	00b898b3          	sll	a7,a7,a1
80002db6:	8241                	srli	a2,a2,0x10
80002db8:	0117e7b3          	or	a5,a5,a7
80002dbc:	02a6f6b3          	remu	a3,a3,a0
80002dc0:	026608b3          	mul	a7,a2,t1
80002dc4:	01069593          	slli	a1,a3,0x10
80002dc8:	0107d693          	srli	a3,a5,0x10
80002dcc:	8ecd                	or	a3,a3,a1
80002dce:	859a                	mv	a1,t1
80002dd0:	0116fc63          	bgeu	a3,a7,80002de8 <__udivdi3+0x1dc>
80002dd4:	96ba                	add	a3,a3,a4
80002dd6:	fff30593          	addi	a1,t1,-1
80002dda:	00e6e763          	bltu	a3,a4,80002de8 <__udivdi3+0x1dc>
80002dde:	0116f563          	bgeu	a3,a7,80002de8 <__udivdi3+0x1dc>
80002de2:	ffe30593          	addi	a1,t1,-2
80002de6:	96ba                	add	a3,a3,a4
80002de8:	411686b3          	sub	a3,a3,a7
80002dec:	02a6d8b3          	divu	a7,a3,a0
80002df0:	07c2                	slli	a5,a5,0x10
80002df2:	83c1                	srli	a5,a5,0x10
80002df4:	02a6f6b3          	remu	a3,a3,a0
80002df8:	03160633          	mul	a2,a2,a7
80002dfc:	06c2                	slli	a3,a3,0x10
80002dfe:	8fd5                	or	a5,a5,a3
80002e00:	86c6                	mv	a3,a7
80002e02:	00c7fc63          	bgeu	a5,a2,80002e1a <__udivdi3+0x20e>
80002e06:	97ba                	add	a5,a5,a4
80002e08:	fff88693          	addi	a3,a7,-1
80002e0c:	00e7e763          	bltu	a5,a4,80002e1a <__udivdi3+0x20e>
80002e10:	00c7f563          	bgeu	a5,a2,80002e1a <__udivdi3+0x20e>
80002e14:	ffe88693          	addi	a3,a7,-2
80002e18:	97ba                	add	a5,a5,a4
80002e1a:	05c2                	slli	a1,a1,0x10
80002e1c:	8f91                	sub	a5,a5,a2
80002e1e:	8dd5                	or	a1,a1,a3
80002e20:	bddd                	j	80002d16 <__udivdi3+0x10a>
80002e22:	14d5e163          	bltu	a1,a3,80002f64 <__udivdi3+0x358>
80002e26:	67c1                	lui	a5,0x10
80002e28:	02f6ff63          	bgeu	a3,a5,80002e66 <__udivdi3+0x25a>
80002e2c:	1006b713          	sltiu	a4,a3,256
80002e30:	00174713          	xori	a4,a4,1
80002e34:	070e                	slli	a4,a4,0x3
80002e36:	800037b7          	lui	a5,0x80003
80002e3a:	00e6d5b3          	srl	a1,a3,a4
80002e3e:	60c78793          	addi	a5,a5,1548 # 8000360c <__global_pointer$+0xffffc7d0>
80002e42:	97ae                	add	a5,a5,a1
80002e44:	0007c783          	lbu	a5,0(a5)
80002e48:	97ba                	add	a5,a5,a4
80002e4a:	02000713          	li	a4,32
80002e4e:	40f705b3          	sub	a1,a4,a5
80002e52:	02f71163          	bne	a4,a5,80002e74 <__udivdi3+0x268>
80002e56:	4505                	li	a0,1
80002e58:	e716eee3          	bltu	a3,a7,80002cd4 <__udivdi3+0xc8>
80002e5c:	00c33533          	sltu	a0,t1,a2
80002e60:	00154513          	xori	a0,a0,1
80002e64:	8082                	ret
80002e66:	010007b7          	lui	a5,0x1000
80002e6a:	4741                	li	a4,16
80002e6c:	fcf6e5e3          	bltu	a3,a5,80002e36 <__udivdi3+0x22a>
80002e70:	4761                	li	a4,24
80002e72:	b7d1                	j	80002e36 <__udivdi3+0x22a>
80002e74:	00f65733          	srl	a4,a2,a5
80002e78:	00b696b3          	sll	a3,a3,a1
80002e7c:	8ed9                	or	a3,a3,a4
80002e7e:	00f8d733          	srl	a4,a7,a5
80002e82:	00b898b3          	sll	a7,a7,a1
80002e86:	00f357b3          	srl	a5,t1,a5
80002e8a:	0117e7b3          	or	a5,a5,a7
80002e8e:	0106d893          	srli	a7,a3,0x10
80002e92:	03175eb3          	divu	t4,a4,a7
80002e96:	01069813          	slli	a6,a3,0x10
80002e9a:	01085813          	srli	a6,a6,0x10
80002e9e:	00b61633          	sll	a2,a2,a1
80002ea2:	03177733          	remu	a4,a4,a7
80002ea6:	03d80e33          	mul	t3,a6,t4
80002eaa:	01071513          	slli	a0,a4,0x10
80002eae:	0107d713          	srli	a4,a5,0x10
80002eb2:	8f49                	or	a4,a4,a0
80002eb4:	8576                	mv	a0,t4
80002eb6:	01c77c63          	bgeu	a4,t3,80002ece <__udivdi3+0x2c2>
80002eba:	9736                	add	a4,a4,a3
80002ebc:	fffe8513          	addi	a0,t4,-1
80002ec0:	00d76763          	bltu	a4,a3,80002ece <__udivdi3+0x2c2>
80002ec4:	01c77563          	bgeu	a4,t3,80002ece <__udivdi3+0x2c2>
80002ec8:	ffee8513          	addi	a0,t4,-2
80002ecc:	9736                	add	a4,a4,a3
80002ece:	41c70733          	sub	a4,a4,t3
80002ed2:	03175e33          	divu	t3,a4,a7
80002ed6:	07c2                	slli	a5,a5,0x10
80002ed8:	83c1                	srli	a5,a5,0x10
80002eda:	03177733          	remu	a4,a4,a7
80002ede:	03c80833          	mul	a6,a6,t3
80002ee2:	0742                	slli	a4,a4,0x10
80002ee4:	8fd9                	or	a5,a5,a4
80002ee6:	8772                	mv	a4,t3
80002ee8:	0107fc63          	bgeu	a5,a6,80002f00 <__udivdi3+0x2f4>
80002eec:	97b6                	add	a5,a5,a3
80002eee:	fffe0713          	addi	a4,t3,-1
80002ef2:	00d7e763          	bltu	a5,a3,80002f00 <__udivdi3+0x2f4>
80002ef6:	0107f563          	bgeu	a5,a6,80002f00 <__udivdi3+0x2f4>
80002efa:	ffee0713          	addi	a4,t3,-2
80002efe:	97b6                	add	a5,a5,a3
80002f00:	0542                	slli	a0,a0,0x10
80002f02:	6e41                	lui	t3,0x10
80002f04:	8d59                	or	a0,a0,a4
80002f06:	fffe0693          	addi	a3,t3,-1 # ffff <buflen.1+0xffbf>
80002f0a:	00d57733          	and	a4,a0,a3
80002f0e:	410787b3          	sub	a5,a5,a6
80002f12:	8ef1                	and	a3,a3,a2
80002f14:	01055813          	srli	a6,a0,0x10
80002f18:	8241                	srli	a2,a2,0x10
80002f1a:	02d708b3          	mul	a7,a4,a3
80002f1e:	02d806b3          	mul	a3,a6,a3
80002f22:	02c70733          	mul	a4,a4,a2
80002f26:	02c80833          	mul	a6,a6,a2
80002f2a:	00d70633          	add	a2,a4,a3
80002f2e:	0108d713          	srli	a4,a7,0x10
80002f32:	9732                	add	a4,a4,a2
80002f34:	00d77363          	bgeu	a4,a3,80002f3a <__udivdi3+0x32e>
80002f38:	9872                	add	a6,a6,t3
80002f3a:	01075693          	srli	a3,a4,0x10
80002f3e:	96c2                	add	a3,a3,a6
80002f40:	02d7e063          	bltu	a5,a3,80002f60 <__udivdi3+0x354>
80002f44:	d8d797e3          	bne	a5,a3,80002cd2 <__udivdi3+0xc6>
80002f48:	67c1                	lui	a5,0x10
80002f4a:	17fd                	addi	a5,a5,-1 # ffff <buflen.1+0xffbf>
80002f4c:	8f7d                	and	a4,a4,a5
80002f4e:	0742                	slli	a4,a4,0x10
80002f50:	00f8f8b3          	and	a7,a7,a5
80002f54:	00b31333          	sll	t1,t1,a1
80002f58:	9746                	add	a4,a4,a7
80002f5a:	4581                	li	a1,0
80002f5c:	d6e37ce3          	bgeu	t1,a4,80002cd4 <__udivdi3+0xc8>
80002f60:	157d                	addi	a0,a0,-1 # ffffff <buflen.1+0xffffbf>
80002f62:	bb85                	j	80002cd2 <__udivdi3+0xc6>
80002f64:	4581                	li	a1,0
80002f66:	4501                	li	a0,0
80002f68:	8082                	ret

80002f6a <__umoddi3>:
80002f6a:	8832                	mv	a6,a2
80002f6c:	87aa                	mv	a5,a0
80002f6e:	872e                	mv	a4,a1
80002f70:	1a069363          	bnez	a3,80003116 <__umoddi3+0x1ac>
80002f74:	800038b7          	lui	a7,0x80003
80002f78:	60c88893          	addi	a7,a7,1548 # 8000360c <__global_pointer$+0xffffc7d0>
80002f7c:	0ac5f663          	bgeu	a1,a2,80003028 <__umoddi3+0xbe>
80002f80:	66c1                	lui	a3,0x10
80002f82:	08d67c63          	bgeu	a2,a3,8000301a <__umoddi3+0xb0>
80002f86:	10063693          	sltiu	a3,a2,256
80002f8a:	0016c693          	xori	a3,a3,1
80002f8e:	068e                	slli	a3,a3,0x3
80002f90:	00d65333          	srl	t1,a2,a3
80002f94:	989a                	add	a7,a7,t1
80002f96:	0008c883          	lbu	a7,0(a7)
80002f9a:	02000313          	li	t1,32
80002f9e:	96c6                	add	a3,a3,a7
80002fa0:	40d308b3          	sub	a7,t1,a3
80002fa4:	00d30b63          	beq	t1,a3,80002fba <__umoddi3+0x50>
80002fa8:	01159733          	sll	a4,a1,a7
80002fac:	00d556b3          	srl	a3,a0,a3
80002fb0:	01161833          	sll	a6,a2,a7
80002fb4:	8f55                	or	a4,a4,a3
80002fb6:	011517b3          	sll	a5,a0,a7
80002fba:	01085613          	srli	a2,a6,0x10
80002fbe:	02c756b3          	divu	a3,a4,a2
80002fc2:	01081513          	slli	a0,a6,0x10
80002fc6:	8141                	srli	a0,a0,0x10
80002fc8:	02c77733          	remu	a4,a4,a2
80002fcc:	02a686b3          	mul	a3,a3,a0
80002fd0:	01071593          	slli	a1,a4,0x10
80002fd4:	0107d713          	srli	a4,a5,0x10
80002fd8:	8f4d                	or	a4,a4,a1
80002fda:	00d77863          	bgeu	a4,a3,80002fea <__umoddi3+0x80>
80002fde:	9742                	add	a4,a4,a6
80002fe0:	01076563          	bltu	a4,a6,80002fea <__umoddi3+0x80>
80002fe4:	00d77363          	bgeu	a4,a3,80002fea <__umoddi3+0x80>
80002fe8:	9742                	add	a4,a4,a6
80002fea:	8f15                	sub	a4,a4,a3
80002fec:	02c756b3          	divu	a3,a4,a2
80002ff0:	02c77733          	remu	a4,a4,a2
80002ff4:	02a686b3          	mul	a3,a3,a0
80002ff8:	07c2                	slli	a5,a5,0x10
80002ffa:	0742                	slli	a4,a4,0x10
80002ffc:	83c1                	srli	a5,a5,0x10
80002ffe:	8fd9                	or	a5,a5,a4
80003000:	00d7f863          	bgeu	a5,a3,80003010 <__umoddi3+0xa6>
80003004:	97c2                	add	a5,a5,a6
80003006:	0107e563          	bltu	a5,a6,80003010 <__umoddi3+0xa6>
8000300a:	00d7f363          	bgeu	a5,a3,80003010 <__umoddi3+0xa6>
8000300e:	97c2                	add	a5,a5,a6
80003010:	8f95                	sub	a5,a5,a3
80003012:	0117d533          	srl	a0,a5,a7
80003016:	4581                	li	a1,0
80003018:	8082                	ret
8000301a:	01000337          	lui	t1,0x1000
8000301e:	46c1                	li	a3,16
80003020:	f66668e3          	bltu	a2,t1,80002f90 <__umoddi3+0x26>
80003024:	46e1                	li	a3,24
80003026:	b7ad                	j	80002f90 <__umoddi3+0x26>
80003028:	e211                	bnez	a2,8000302c <__umoddi3+0xc2>
8000302a:	9002                	ebreak
8000302c:	6741                	lui	a4,0x10
8000302e:	06e67463          	bgeu	a2,a4,80003096 <__umoddi3+0x12c>
80003032:	10063693          	sltiu	a3,a2,256
80003036:	0016c693          	xori	a3,a3,1
8000303a:	068e                	slli	a3,a3,0x3
8000303c:	00d65733          	srl	a4,a2,a3
80003040:	98ba                	add	a7,a7,a4
80003042:	0008c703          	lbu	a4,0(a7)
80003046:	9736                	add	a4,a4,a3
80003048:	02000693          	li	a3,32
8000304c:	40e688b3          	sub	a7,a3,a4
80003050:	04e69a63          	bne	a3,a4,800030a4 <__umoddi3+0x13a>
80003054:	40c58733          	sub	a4,a1,a2
80003058:	01085593          	srli	a1,a6,0x10
8000305c:	02b75633          	divu	a2,a4,a1
80003060:	01081513          	slli	a0,a6,0x10
80003064:	8141                	srli	a0,a0,0x10
80003066:	0107d693          	srli	a3,a5,0x10
8000306a:	02b77733          	remu	a4,a4,a1
8000306e:	02a60633          	mul	a2,a2,a0
80003072:	0742                	slli	a4,a4,0x10
80003074:	8f55                	or	a4,a4,a3
80003076:	00c77863          	bgeu	a4,a2,80003086 <__umoddi3+0x11c>
8000307a:	9742                	add	a4,a4,a6
8000307c:	01076563          	bltu	a4,a6,80003086 <__umoddi3+0x11c>
80003080:	00c77363          	bgeu	a4,a2,80003086 <__umoddi3+0x11c>
80003084:	9742                	add	a4,a4,a6
80003086:	8f11                	sub	a4,a4,a2
80003088:	02b756b3          	divu	a3,a4,a1
8000308c:	02b77733          	remu	a4,a4,a1
80003090:	02a686b3          	mul	a3,a3,a0
80003094:	b795                	j	80002ff8 <__umoddi3+0x8e>
80003096:	01000737          	lui	a4,0x1000
8000309a:	46c1                	li	a3,16
8000309c:	fae660e3          	bltu	a2,a4,8000303c <__umoddi3+0xd2>
800030a0:	46e1                	li	a3,24
800030a2:	bf69                	j	8000303c <__umoddi3+0xd2>
800030a4:	01161833          	sll	a6,a2,a7
800030a8:	00e5d6b3          	srl	a3,a1,a4
800030ac:	011517b3          	sll	a5,a0,a7
800030b0:	011595b3          	sll	a1,a1,a7
800030b4:	00e55733          	srl	a4,a0,a4
800030b8:	01085513          	srli	a0,a6,0x10
800030bc:	8f4d                	or	a4,a4,a1
800030be:	02a6d5b3          	divu	a1,a3,a0
800030c2:	01081313          	slli	t1,a6,0x10
800030c6:	01035313          	srli	t1,t1,0x10
800030ca:	02a6f6b3          	remu	a3,a3,a0
800030ce:	026585b3          	mul	a1,a1,t1
800030d2:	01069613          	slli	a2,a3,0x10
800030d6:	01075693          	srli	a3,a4,0x10
800030da:	8ed1                	or	a3,a3,a2
800030dc:	00b6f863          	bgeu	a3,a1,800030ec <__umoddi3+0x182>
800030e0:	96c2                	add	a3,a3,a6
800030e2:	0106e563          	bltu	a3,a6,800030ec <__umoddi3+0x182>
800030e6:	00b6f363          	bgeu	a3,a1,800030ec <__umoddi3+0x182>
800030ea:	96c2                	add	a3,a3,a6
800030ec:	8e8d                	sub	a3,a3,a1
800030ee:	02a6d633          	divu	a2,a3,a0
800030f2:	0742                	slli	a4,a4,0x10
800030f4:	8341                	srli	a4,a4,0x10
800030f6:	02a6f6b3          	remu	a3,a3,a0
800030fa:	02660633          	mul	a2,a2,t1
800030fe:	06c2                	slli	a3,a3,0x10
80003100:	8f55                	or	a4,a4,a3
80003102:	00c77863          	bgeu	a4,a2,80003112 <__umoddi3+0x1a8>
80003106:	9742                	add	a4,a4,a6
80003108:	01076563          	bltu	a4,a6,80003112 <__umoddi3+0x1a8>
8000310c:	00c77363          	bgeu	a4,a2,80003112 <__umoddi3+0x1a8>
80003110:	9742                	add	a4,a4,a6
80003112:	8f11                	sub	a4,a4,a2
80003114:	b791                	j	80003058 <__umoddi3+0xee>
80003116:	16d5e863          	bltu	a1,a3,80003286 <__umoddi3+0x31c>
8000311a:	6841                	lui	a6,0x10
8000311c:	0506f763          	bgeu	a3,a6,8000316a <__umoddi3+0x200>
80003120:	1006b813          	sltiu	a6,a3,256
80003124:	00184813          	xori	a6,a6,1
80003128:	080e                	slli	a6,a6,0x3
8000312a:	800038b7          	lui	a7,0x80003
8000312e:	0106d333          	srl	t1,a3,a6
80003132:	60c88893          	addi	a7,a7,1548 # 8000360c <__global_pointer$+0xffffc7d0>
80003136:	989a                	add	a7,a7,t1
80003138:	0008c883          	lbu	a7,0(a7)
8000313c:	02000313          	li	t1,32
80003140:	98c2                	add	a7,a7,a6
80003142:	41130833          	sub	a6,t1,a7
80003146:	03131963          	bne	t1,a7,80003178 <__umoddi3+0x20e>
8000314a:	00b6e463          	bltu	a3,a1,80003152 <__umoddi3+0x1e8>
8000314e:	00c56b63          	bltu	a0,a2,80003164 <__umoddi3+0x1fa>
80003152:	40c50633          	sub	a2,a0,a2
80003156:	40d586b3          	sub	a3,a1,a3
8000315a:	00c53733          	sltu	a4,a0,a2
8000315e:	40e68733          	sub	a4,a3,a4
80003162:	87b2                	mv	a5,a2
80003164:	853e                	mv	a0,a5
80003166:	85ba                	mv	a1,a4
80003168:	8082                	ret
8000316a:	010008b7          	lui	a7,0x1000
8000316e:	4841                	li	a6,16
80003170:	fb16ede3          	bltu	a3,a7,8000312a <__umoddi3+0x1c0>
80003174:	4861                	li	a6,24
80003176:	bf55                	j	8000312a <__umoddi3+0x1c0>
80003178:	010696b3          	sll	a3,a3,a6
8000317c:	01165333          	srl	t1,a2,a7
80003180:	00d36333          	or	t1,t1,a3
80003184:	01035e13          	srli	t3,t1,0x10
80003188:	0115d6b3          	srl	a3,a1,a7
8000318c:	03c6df33          	divu	t5,a3,t3
80003190:	01031713          	slli	a4,t1,0x10
80003194:	8341                	srli	a4,a4,0x10
80003196:	010597b3          	sll	a5,a1,a6
8000319a:	011555b3          	srl	a1,a0,a7
8000319e:	8ddd                	or	a1,a1,a5
800031a0:	0105d793          	srli	a5,a1,0x10
800031a4:	01061633          	sll	a2,a2,a6
800031a8:	01051533          	sll	a0,a0,a6
800031ac:	03c6f6b3          	remu	a3,a3,t3
800031b0:	03e70eb3          	mul	t4,a4,t5
800031b4:	06c2                	slli	a3,a3,0x10
800031b6:	8fd5                	or	a5,a5,a3
800031b8:	86fa                	mv	a3,t5
800031ba:	01d7fc63          	bgeu	a5,t4,800031d2 <__umoddi3+0x268>
800031be:	979a                	add	a5,a5,t1
800031c0:	ffff0693          	addi	a3,t5,-1
800031c4:	0067e763          	bltu	a5,t1,800031d2 <__umoddi3+0x268>
800031c8:	01d7f563          	bgeu	a5,t4,800031d2 <__umoddi3+0x268>
800031cc:	ffef0693          	addi	a3,t5,-2
800031d0:	979a                	add	a5,a5,t1
800031d2:	41d787b3          	sub	a5,a5,t4
800031d6:	03c7deb3          	divu	t4,a5,t3
800031da:	05c2                	slli	a1,a1,0x10
800031dc:	81c1                	srli	a1,a1,0x10
800031de:	03c7f7b3          	remu	a5,a5,t3
800031e2:	03d70733          	mul	a4,a4,t4
800031e6:	07c2                	slli	a5,a5,0x10
800031e8:	8ddd                	or	a1,a1,a5
800031ea:	87f6                	mv	a5,t4
800031ec:	00e5fc63          	bgeu	a1,a4,80003204 <__umoddi3+0x29a>
800031f0:	959a                	add	a1,a1,t1
800031f2:	fffe8793          	addi	a5,t4,-1
800031f6:	0065e763          	bltu	a1,t1,80003204 <__umoddi3+0x29a>
800031fa:	00e5f563          	bgeu	a1,a4,80003204 <__umoddi3+0x29a>
800031fe:	ffee8793          	addi	a5,t4,-2
80003202:	959a                	add	a1,a1,t1
80003204:	06c2                	slli	a3,a3,0x10
80003206:	6f41                	lui	t5,0x10
80003208:	8edd                	or	a3,a3,a5
8000320a:	ffff0793          	addi	a5,t5,-1 # ffff <buflen.1+0xffbf>
8000320e:	01065e13          	srli	t3,a2,0x10
80003212:	8d99                	sub	a1,a1,a4
80003214:	00f6f733          	and	a4,a3,a5
80003218:	82c1                	srli	a3,a3,0x10
8000321a:	8ff1                	and	a5,a5,a2
8000321c:	02f70eb3          	mul	t4,a4,a5
80003220:	02f687b3          	mul	a5,a3,a5
80003224:	03c70733          	mul	a4,a4,t3
80003228:	03c686b3          	mul	a3,a3,t3
8000322c:	00f70e33          	add	t3,a4,a5
80003230:	010ed713          	srli	a4,t4,0x10
80003234:	9772                	add	a4,a4,t3
80003236:	00f77363          	bgeu	a4,a5,8000323c <__umoddi3+0x2d2>
8000323a:	96fa                	add	a3,a3,t5
8000323c:	01075793          	srli	a5,a4,0x10
80003240:	97b6                	add	a5,a5,a3
80003242:	66c1                	lui	a3,0x10
80003244:	16fd                	addi	a3,a3,-1 # ffff <buflen.1+0xffbf>
80003246:	8f75                	and	a4,a4,a3
80003248:	0742                	slli	a4,a4,0x10
8000324a:	00defeb3          	and	t4,t4,a3
8000324e:	9776                	add	a4,a4,t4
80003250:	00f5e663          	bltu	a1,a5,8000325c <__umoddi3+0x2f2>
80003254:	00f59b63          	bne	a1,a5,8000326a <__umoddi3+0x300>
80003258:	00e57963          	bgeu	a0,a4,8000326a <__umoddi3+0x300>
8000325c:	40c70633          	sub	a2,a4,a2
80003260:	00c73733          	sltu	a4,a4,a2
80003264:	971a                	add	a4,a4,t1
80003266:	8f99                	sub	a5,a5,a4
80003268:	8732                	mv	a4,a2
8000326a:	40e50733          	sub	a4,a0,a4
8000326e:	00e53533          	sltu	a0,a0,a4
80003272:	8d9d                	sub	a1,a1,a5
80003274:	8d89                	sub	a1,a1,a0
80003276:	011598b3          	sll	a7,a1,a7
8000327a:	01075733          	srl	a4,a4,a6
8000327e:	00e8e533          	or	a0,a7,a4
80003282:	0105d5b3          	srl	a1,a1,a6
80003286:	8082                	ret

Disassembly of section .text.startup:

80003288 <main>:
80003288:	1141                	addi	sp,sp,-16
8000328a:	c606                	sw	ra,12(sp)
8000328c:	b80027f3          	csrr	a5,mcycleh
80003290:	b00025f3          	csrr	a1,mcycle
80003294:	00001817          	auipc	a6,0x1
80003298:	46880813          	addi	a6,a6,1128 # 800046fc <data>
8000329c:	4501                	li	a0,0
8000329e:	00001617          	auipc	a2,0x1
800032a2:	c8e60613          	addi	a2,a2,-882 # 80003f2c <coeffs+0x7d0>
800032a6:	7d000893          	li	a7,2000
800032aa:	f00007d3          	fmv.w.x	fa5,zero
800032ae:	872a                	mv	a4,a0
800032b0:	00000797          	auipc	a5,0x0
800032b4:	4ac78793          	addi	a5,a5,1196 # 8000375c <coeffs>
800032b8:	86c2                	mv	a3,a6
800032ba:	00074663          	bltz	a4,800032c6 <main+0x3e>
800032be:	6394                	flw	fa3,0(a5)
800032c0:	6298                	flw	fa4,0(a3)
800032c2:	78e6f7c3          	fmadd.s	fa5,fa3,fa4,fa5
800032c6:	0791                	addi	a5,a5,4
800032c8:	177d                	addi	a4,a4,-1 # ffffff <buflen.1+0xffffbf>
800032ca:	16f1                	addi	a3,a3,-4
800032cc:	fec797e3          	bne	a5,a2,800032ba <main+0x32>
800032d0:	0505                	addi	a0,a0,1
800032d2:	0811                	addi	a6,a6,4
800032d4:	fd151be3          	bne	a0,a7,800032aa <main+0x22>
800032d8:	00003797          	auipc	a5,0x3
800032dc:	36f7a227          	fsw	fa5,868(a5) # 8000663c <res.0>
800032e0:	b80027f3          	csrr	a5,mcycleh
800032e4:	b00027f3          	csrr	a5,mcycle
800032e8:	00000517          	auipc	a0,0x0
800032ec:	03050513          	addi	a0,a0,48 # 80003318 <main+0x90>
800032f0:	40b785b3          	sub	a1,a5,a1
800032f4:	a76ff0ef          	jal	ra,8000256a <printf>
800032f8:	40b2                	lw	ra,12(sp)
800032fa:	4501                	li	a0,0
800032fc:	0141                	addi	sp,sp,16
800032fe:	8082                	ret
80003300:	1141                	addi	sp,sp,-16
80003302:	00000517          	auipc	a0,0x0
80003306:	03650513          	addi	a0,a0,54 # 80003338 <main+0xb0>
8000330a:	c606                	sw	ra,12(sp)
8000330c:	ed1fe0ef          	jal	ra,800021dc <printstr>
80003310:	40b2                	lw	ra,12(sp)
80003312:	557d                	li	a0,-1
80003314:	0141                	addi	sp,sp,16
80003316:	8082                	ret

Disassembly of section .data:

8000375c <coeffs>:
8000375c:	2514                	.2byte	0x2514
8000375e:	41d8                	lw	a4,4(a1)
80003760:	3580                	.2byte	0x3580
80003762:	c18e                	sw	gp,192(sp)
80003764:	de34                	sw	a3,120(a2)
80003766:	41e2                	lw	gp,24(sp)
80003768:	18d0                	addi	a2,sp,116
8000376a:	1dccc20f          	.4byte	0x1dccc20f
8000376e:	80c44227          	.4byte	0x80c44227
80003772:	419d                	li	gp,7
80003774:	2068                	.2byte	0x2068
80003776:	419f b99c 41e4      	.byte	0x9f, 0x41, 0x9c, 0xb9, 0xe4, 0x41
8000377c:	2704                	.2byte	0x2704
8000377e:	c13d                	beqz	a0,800037e4 <coeffs+0x88>
80003780:	c19065d7          	.4byte	0xc19065d7
80003784:	cf6e                	sw	s11,156(sp)
80003786:	4231                	li	tp,12
80003788:	b724                	.2byte	0xb724
8000378a:	3fea                	.2byte	0x3fea
8000378c:	72d8                	flw	fa4,36(a3)
8000378e:	40b8                	lw	a4,64(s1)
80003790:	508a                	lw	ra,160(sp)
80003792:	c244                	sw	s1,4(a2)
80003794:	25c0                	.2byte	0x25c0
80003796:	4030                	lw	a2,64(s0)
80003798:	3f7ce23b          	.4byte	0x3f7ce23b
8000379c:	6236                	flw	ft4,76(sp)
8000379e:	c1e1                	beqz	a1,8000385e <coeffs+0x102>
800037a0:	5518                	lw	a4,40(a0)
800037a2:	c178                	sw	a4,68(a0)
800037a4:	9e84                	.2byte	0x9e84
800037a6:	41d5                	li	gp,21
800037a8:	d8b4                	sw	a3,112(s1)
800037aa:	1b4c4103          	lbu	sp,436(s8)
800037ae:	4204                	lw	s1,0(a2)
800037b0:	c238910f          	.4byte	0xc238910f
800037b4:	61ce                	flw	ft3,208(sp)
800037b6:	c1e8                	sw	a0,68(a1)
800037b8:	7388                	flw	fa0,32(a5)
800037ba:	41ea                	lw	gp,152(sp)
800037bc:	76f0                	flw	fa2,108(a3)
800037be:	c221                	beqz	a2,800037fe <coeffs+0xa2>
800037c0:	8e1e                	mv	t3,t2
800037c2:	4200                	lw	s0,0(a2)
800037c4:	edd4                	fsw	fa3,28(a1)
800037c6:	422a                	lw	tp,136(sp)
800037c8:	c120                	sw	s0,64(a0)
800037ca:	41be                	lw	gp,204(sp)
800037cc:	0126                	slli	sp,sp,0x9
800037ce:	c221                	beqz	a2,8000380e <coeffs+0xb2>
800037d0:	ee70                	fsw	fa2,92(a2)
800037d2:	c0e1                	beqz	s1,80003892 <coeffs+0x136>
800037d4:	bc89                	j	80003226 <__umoddi3+0x2bc>
800037d6:	1164c22b          	.4byte	0x1164c22b
800037da:	4ee44213          	xori	tp,s0,1262
800037de:	41c9                	li	gp,18
800037e0:	b290                	.2byte	0xb290
800037e2:	420d                	li	tp,3
800037e4:	076c                	addi	a1,sp,908
800037e6:	c244                	sw	s1,4(a2)
800037e8:	8a78                	.2byte	0x8a78
800037ea:	97874187          	.4byte	0x97874187
800037ee:	119040a3          	.4byte	0x119040a3
800037f2:	efa841a7          	.4byte	0xefa841a7
800037f6:	c08e                	sw	gp,64(sp)
800037f8:	2932                	.2byte	0x2932
800037fa:	422d                	li	tp,11
800037fc:	aa22                	.2byte	0xaa22
800037fe:	c23c                	sw	a5,64(a2)
80003800:	3a1c                	.2byte	0x3a1c
80003802:	c120                	sw	s0,64(a0)
80003804:	08a9                	addi	a7,a7,10 # 100000a <buflen.1+0xffffca>
80003806:	c09c                	sw	a5,0(s1)
80003808:	90e4                	.2byte	0x90e4
8000380a:	4109                	li	sp,2
8000380c:	7c44                	flw	fs1,60(s0)
8000380e:	c111                	beqz	a0,80003812 <coeffs+0xb6>
80003810:	8146                	mv	sp,a7
80003812:	a83e423f bf4cc221 	.8byte	0xbf4cc221a83e423f
8000381a:	2800414b          	fnmsub.s	ft2,ft0,ft0,ft5,rmm
8000381e:	c18d                	beqz	a1,80003840 <coeffs+0xe4>
80003820:	2704                	.2byte	0x2704
80003822:	4211                	li	tp,4
80003824:	33fe                	.2byte	0x33fe
80003826:	c1e8                	sw	a0,68(a1)
80003828:	78b4                	flw	fa3,112(s1)
8000382a:	c20a                	sw	sp,4(sp)
8000382c:	95f4                	.2byte	0x95f4
8000382e:	4220                	lw	s0,64(a2)
80003830:	2b98                	.2byte	0x2b98
80003832:	c101                	beqz	a0,80003832 <coeffs+0xd6>
80003834:	c110                	sw	a2,0(a0)
80003836:	4232                	lw	tp,12(sp)
80003838:	1f04                	addi	s1,sp,944
8000383a:	79914247          	fmsub.s	ft4,ft2,fs9,fa5,rmm
8000383e:	aee2c1cf          	.4byte	0xaee2c1cf
80003842:	4215                	li	tp,5
80003844:	ff28                	fsw	fa0,120(a4)
80003846:	41bc                	lw	a5,64(a1)
80003848:	7bdc                	flw	fa5,52(a5)
8000384a:	c181                	beqz	a1,8000384a <coeffs+0xee>
8000384c:	1dd8                	addi	a4,sp,756
8000384e:	c19d                	beqz	a1,80003874 <coeffs+0x118>
80003850:	8614                	.2byte	0x8614
80003852:	41f5                	li	gp,29
80003854:	5914                	lw	a3,48(a0)
80003856:	e77ac1eb          	.4byte	0xe77ac1eb
8000385a:	c231                	beqz	a2,8000389e <coeffs+0x142>
8000385c:	eb34                	fsw	fa3,80(a4)
8000385e:	4180                	lw	s0,0(a1)
80003860:	67ec                	flw	fa1,76(a5)
80003862:	bb88c1e3          	blt	a7,s8,80003404 <main+0x17c>
80003866:	2ee841b3          	.4byte	0x2ee841b3
8000386a:	c1e6                	sw	s9,192(sp)
8000386c:	d4d4                	sw	a3,44(s1)
8000386e:	4229                	li	tp,10
80003870:	0032                	c.slli	zero,0xc
80003872:	c200                	sw	s0,0(a2)
80003874:	c20dee43          	.4byte	0xc20dee43
80003878:	2ab2                	.2byte	0x2ab2
8000387a:	4235                	li	tp,13
8000387c:	40ff8a37          	lui	s4,0x40ff8
80003880:	42a0                	lw	s0,64(a3)
80003882:	411a                	lw	sp,132(sp)
80003884:	ee91                	bnez	a3,800038a0 <coeffs+0x144>
80003886:	4078                	lw	a4,68(s0)
80003888:	9236                	add	tp,tp,a3
8000388a:	8f6f4243          	.4byte	0x8f6f4243
8000388e:	40f0                	lw	a2,68(s1)
80003890:	9aac                	.2byte	0x9aac
80003892:	08244157          	.4byte	0x8244157
80003896:	413a                	lw	sp,140(sp)
80003898:	7dee                	flw	fs11,248(sp)
8000389a:	421f 50f8 be72      	.byte	0x1f, 0x42, 0xf8, 0x50, 0x72, 0xbe
800038a0:	680a                	flw	fa6,128(sp)
800038a2:	4202                	lw	tp,0(sp)
800038a4:	fac5                	bnez	a3,80003854 <coeffs+0xf8>
800038a6:	c232                	sw	a2,4(sp)
800038a8:	7170                	flw	fa2,100(a0)
800038aa:	c121                	beqz	a0,800038ea <coeffs+0x18e>
800038ac:	c5b6                	sw	a3,200(sp)
800038ae:	c64ac1cb          	.4byte	0xc64ac1cb
800038b2:	f5604247          	.4byte	0xf5604247
800038b6:	c124                	sw	s1,64(a0)
800038b8:	f480                	fsw	fs0,40(s1)
800038ba:	752cbfb3          	.4byte	0x752cbfb3
800038be:	4215                	li	tp,5
800038c0:	bdc4                	.2byte	0xbdc4
800038c2:	c212                	sw	tp,4(sp)
800038c4:	a26e                	.2byte	0xa26e
800038c6:	4201                	li	tp,0
800038c8:	19c0                	addi	s0,sp,244
800038ca:	c201                	beqz	a2,800038ca <coeffs+0x16e>
800038cc:	0546                	slli	a0,a0,0x11
800038ce:	4230                	lw	a2,64(a2)
800038d0:	0a1c                	addi	a5,sp,272
800038d2:	c23c                	sw	a5,64(a2)
800038d4:	0274                	addi	a3,sp,268
800038d6:	c1d6                	sw	s5,192(sp)
800038d8:	eb84                	fsw	fs1,16(a5)
800038da:	4121                	li	sp,8
800038dc:	c1cb7c23          	.4byte	0xc1cb7c23
800038e0:	dc8a                	sw	sp,120(sp)
800038e2:	4236                	lw	tp,76(sp)
800038e4:	c6dc                	sw	a5,12(a3)
800038e6:	41fa                	lw	gp,156(sp)
800038e8:	e93e                	fsw	fa5,144(sp)
800038ea:	23aac203          	lbu	tp,570(s5)
800038ee:	c211                	beqz	a2,800038f2 <coeffs+0x196>
800038f0:	752a                	flw	fa0,168(sp)
800038f2:	be8d4237          	lui	tp,0xbe8d4
800038f6:	c216                	sw	t0,4(sp)
800038f8:	9b38                	.2byte	0x9b38
800038fa:	41ad                	li	gp,11
800038fc:	2e99                	jal	80003c52 <coeffs+0x4f6>
800038fe:	40b0                	lw	a2,64(s1)
80003900:	a0bc                	.2byte	0xa0bc
80003902:	4181                	li	gp,0
80003904:	bfa4                	.2byte	0xbfa4
80003906:	41a4                	lw	s1,64(a1)
80003908:	e840                	fsw	fs0,20(s0)
8000390a:	91f0c213          	xori	tp,ra,-1761
8000390e:	c1a2                	sw	s0,192(sp)
80003910:	3c48                	.2byte	0x3c48
80003912:	c18e                	sw	gp,192(sp)
80003914:	6a51                	lui	s4,0x14
80003916:	c23c                	sw	a5,64(a2)
80003918:	896c                	.2byte	0x896c
8000391a:	b61941eb          	.4byte	0xb61941eb
8000391e:	c20c                	sw	a1,0(a2)
80003920:	6516                	flw	fa0,68(sp)
80003922:	2f4bc227          	.4byte	0x2f4bc227
80003926:	c1f5                	beqz	a1,80003a0a <coeffs+0x2ae>
80003928:	63d0                	flw	fa2,4(a5)
8000392a:	c12a                	sw	a0,128(sp)
8000392c:	9ecc                	.2byte	0x9ecc
8000392e:	ac10c227          	.4byte	0xac10c227
80003932:	4110                	lw	a2,0(a0)
80003934:	c768                	sw	a0,76(a4)
80003936:	d6604217          	auipc	tp,0xd6604
8000393a:	4235                	li	tp,13
8000393c:	da7c                	sw	a5,116(a2)
8000393e:	41b2                	lw	gp,12(sp)
80003940:	d3ac                	sw	a1,96(a5)
80003942:	41a2                	lw	gp,8(sp)
80003944:	4360                	lw	s0,68(a4)
80003946:	e508c213          	xori	tp,a7,-432
8000394a:	4182                	lw	gp,0(sp)
8000394c:	bf74                	.2byte	0xbf74
8000394e:	41ba                	lw	gp,140(sp)
80003950:	1268                	addi	a0,sp,300
80003952:	c159                	beqz	a0,800039d8 <coeffs+0x27c>
80003954:	2536                	.2byte	0x2536
80003956:	c1bc                	sw	a5,64(a1)
80003958:	a1aa                	.2byte	0xa1aa
8000395a:	d024423f af2ec18e 	.8byte	0xaf2ec18ed024423f
80003962:	c228                	sw	a0,64(a2)
80003964:	4794                	lw	a3,8(a5)
80003966:	c20c                	sw	a1,0(a2)
80003968:	5dd9                	li	s11,-10
8000396a:	c084                	sw	s1,0(s1)
8000396c:	3a04                	.2byte	0x3a04
8000396e:	c239                	beqz	a2,800039b4 <coeffs+0x258>
80003970:	0c41                	addi	s8,s8,16
80003972:	c1b6                	sw	a3,192(sp)
80003974:	be1e                	.2byte	0xbe1e
80003976:	c201                	beqz	a2,80003976 <coeffs+0x21a>
80003978:	2f38                	.2byte	0x2f38
8000397a:	ca3c4113          	xori	sp,s8,-861
8000397e:	422d                	li	tp,11
80003980:	a1b4                	.2byte	0xa1b4
80003982:	4218                	lw	a4,0(a2)
80003984:	c71c                	sw	a5,8(a4)
80003986:	41b1                	li	gp,12
80003988:	c1d6fd77          	.4byte	0xc1d6fd77
8000398c:	f8dd                	bnez	s1,80003942 <coeffs+0x1e6>
8000398e:	c1ec                	sw	a1,68(a1)
80003990:	f27c                	fsw	fa5,100(a2)
80003992:	41c8                	lw	a0,4(a1)
80003994:	ba05                	j	800032c4 <main+0x3c>
80003996:	c23d                	beqz	a2,800039fc <coeffs+0x2a0>
80003998:	ca1c                	sw	a5,16(a2)
8000399a:	c16c                	sw	a1,68(a0)
8000399c:	1426                	slli	s0,s0,0x29
8000399e:	4205                	li	tp,1
800039a0:	a354                	.2byte	0xa354
800039a2:	c1e0                	sw	s0,68(a1)
800039a4:	690c                	flw	fa1,16(a0)
800039a6:	41c4                	lw	s1,4(a1)
800039a8:	755a                	flw	fa0,180(sp)
800039aa:	4225                	li	tp,9
800039ac:	b2b0                	.2byte	0xb2b0
800039ae:	efb841f7          	.4byte	0xefb841f7
800039b2:	4bba4147          	.4byte	0x4bba4147
800039b6:	69904213          	xori	tp,zero,1689
800039ba:	4054                	lw	a3,4(s0)
800039bc:	3476                	.2byte	0x3476
800039be:	c189                	beqz	a1,800039c0 <coeffs+0x264>
800039c0:	f7a6                	fsw	fs1,236(sp)
800039c2:	8dc6c247          	.4byte	0x8dc6c247
800039c6:	c1f2                	sw	t3,192(sp)
800039c8:	3a80                	.2byte	0x3a80
800039ca:	f100c22f          	.4byte	0xf100c22f
800039ce:	c158                	sw	a4,4(a0)
800039d0:	97e1                	srai	a5,a5,0x38
800039d2:	c075                	beqz	s0,80003ab6 <coeffs+0x35a>
800039d4:	98d6                	add	a7,a7,s5
800039d6:	b75cc237          	lui	tp,0xb75cc
800039da:	4194                	lw	a3,0(a1)
800039dc:	753e                	flw	fa0,236(sp)
800039de:	407f                	.2byte	0x407f
800039e0:	c0d4                	sw	a3,4(s1)
800039e2:	300dc1f7          	.4byte	0x300dc1f7
800039e6:	c20e                	sw	gp,4(sp)
800039e8:	ea7f                	.2byte	0xea7f
800039ea:	40f5                	li	ra,29
800039ec:	68b2                	flw	fa7,12(sp)
800039ee:	c06e                	sw	s11,0(sp)
800039f0:	dc56                	sw	s5,56(sp)
800039f2:	76e2c18f          	.4byte	0x76e2c18f
800039f6:	c204                	sw	s1,0(a2)
800039f8:	713c                	flw	fa5,96(a0)
800039fa:	c124                	sw	s1,64(a0)
800039fc:	98ec                	.2byte	0x98ec
800039fe:	c1ee                	sw	s11,192(sp)
80003a00:	6cae                	flw	fs9,200(sp)
80003a02:	421c                	lw	a5,0(a2)
80003a04:	93d4                	.2byte	0x93d4
80003a06:	414d                	li	sp,19
80003a08:	2390                	.2byte	0x2390
80003a0a:	97b0c117          	auipc	sp,0x97b0c
80003a0e:	abc04163          	bgtz	t3,80002cb0 <__udivdi3+0xa4>
80003a12:	4176                	lw	sp,92(sp)
80003a14:	0928                	addi	a0,sp,152
80003a16:	41ce                	lw	gp,208(sp)
80003a18:	5ee1                	li	t4,-8
80003a1a:	c020                	sw	s0,64(s0)
80003a1c:	5946                	lw	s2,112(sp)
80003a1e:	4215                	li	tp,5
80003a20:	8c72                	mv	s8,t3
80003a22:	3e9c                	.2byte	0x3e9c
80003a24:	424c                	lw	a1,4(a2)
80003a26:	c132                	sw	a2,128(sp)
80003a28:	6540                	flw	fs0,12(a0)
80003a2a:	4192                	lw	gp,4(sp)
80003a2c:	caf9                	beqz	a3,80003b02 <coeffs+0x3a6>
80003a2e:	c214                	sw	a3,0(a2)
80003a30:	89b2                	mv	s3,a2
80003a32:	c1c2                	sw	a6,192(sp)
80003a34:	c1e30d8f          	.4byte	0xc1e30d8f
80003a38:	29a0                	.2byte	0x29a0
80003a3a:	78fec08b          	.4byte	0x78fec08b
80003a3e:	c1c2                	sw	a6,192(sp)
80003a40:	36ac                	.2byte	0x36ac
80003a42:	095fc10b          	.4byte	0x95fc10b
80003a46:	3fec                	.2byte	0x3fec
80003a48:	1d04                	addi	s1,sp,688
80003a4a:	4142                	lw	sp,16(sp)
80003a4c:	d8d8                	sw	a4,52(s1)
80003a4e:	4215                	li	tp,5
80003a50:	40be3ba7          	.4byte	0x40be3ba7
80003a54:	3a21                	jal	8000336c <main+0xe4>
80003a56:	c19a                	sw	t1,192(sp)
80003a58:	bf50                	.2byte	0xbf50
80003a5a:	c108                	sw	a0,0(a0)
80003a5c:	ce14                	sw	a3,24(a2)
80003a5e:	68e841c7          	fmsub.s	ft3,fa6,fa4,fa3,rmm
80003a62:	c09a                	sw	t1,64(sp)
80003a64:	8d7c                	.2byte	0x8d7c
80003a66:	4244                	lw	s1,4(a2)
80003a68:	feff                	.2byte	0xfeff
80003a6a:	c1e5                	beqz	a1,80003b4a <coeffs+0x3ee>
80003a6c:	8970                	.2byte	0x8970
80003a6e:	41d9                	li	gp,22
80003a70:	e966                	fsw	fs9,144(sp)
80003a72:	90c8c207          	.4byte	0x90c8c207
80003a76:	7842412f          	.4byte	0x7842412f
80003a7a:	423d                	li	tp,15
80003a7c:	7cb9                	lui	s9,0xfffee
80003a7e:	6db2c233          	.4byte	0x6db2c233
80003a82:	c1d1                	beqz	a1,80003b06 <coeffs+0x3aa>
80003a84:	4288                	lw	a0,0(a3)
80003a86:	c141                	beqz	a0,80003b06 <coeffs+0x3aa>
80003a88:	d264                	sw	s1,100(a2)
80003a8a:	419a                	lw	gp,132(sp)
80003a8c:	f418                	fsw	fa4,40(s0)
80003a8e:	421c                	lw	a5,0(a2)
80003a90:	4c0e                	lw	s8,192(sp)
80003a92:	c211                	beqz	a2,80003a96 <coeffs+0x33a>
80003a94:	9cbc                	.2byte	0x9cbc
80003a96:	c204                	sw	s1,0(a2)
80003a98:	9abc                	.2byte	0x9abc
80003a9a:	41d4                	lw	a3,4(a1)
80003a9c:	b428                	.2byte	0xb428
80003a9e:	415f 9581 40b6      	.byte	0x5f, 0x41, 0x81, 0x95, 0xb6, 0x40
80003aa4:	0008                	.2byte	0x8
80003aa6:	c0a4                	sw	s1,64(s1)
80003aa8:	4424                	lw	s1,72(s0)
80003aaa:	41d6                	lw	gp,84(sp)
80003aac:	1bac                	addi	a1,sp,504
80003aae:	f27041fb          	.4byte	0xf27041fb
80003ab2:	86454183          	lbu	gp,-1948(a0)
80003ab6:	c1dc                	sw	a5,4(a1)
80003ab8:	aea8                	.2byte	0xaea8
80003aba:	d474c22b          	.4byte	0xd474c22b
80003abe:	c228                	sw	a0,64(a2)
80003ac0:	3a54                	.2byte	0x3a54
80003ac2:	41c2                	lw	gp,16(sp)
80003ac4:	b134                	.2byte	0xb134
80003ac6:	4199                	li	gp,6
80003ac8:	0464                	addi	s1,sp,524
80003aca:	4235                	li	tp,13
80003acc:	36c2                	.2byte	0x36c2
80003ace:	c19e                	sw	t2,192(sp)
80003ad0:	bb8a                	.2byte	0xbb8a
80003ad2:	adc04247          	.4byte	0xadc04247
80003ad6:	c154                	sw	a3,4(a0)
80003ad8:	3456                	.2byte	0x3456
80003ada:	8ca0c233          	.4byte	0x8ca0c233
80003ade:	c09c                	sw	a5,0(s1)
80003ae0:	77d0                	flw	fa2,44(a5)
80003ae2:	c162                	sw	s8,128(sp)
80003ae4:	67aa                	flw	fa5,136(sp)
80003ae6:	c1bc                	sw	a5,64(a1)
80003ae8:	99b8                	.2byte	0x99b8
80003aea:	c1dd                	beqz	a1,80003b90 <coeffs+0x434>
80003aec:	14c2                	slli	s1,s1,0x30
80003aee:	b05c3fef          	jal	t6,7ffc75f2 <buflen.1+0x7ffc75b2>
80003af2:	4215                	li	tp,5
80003af4:	c1f2a933          	.4byte	0xc1f2a933
80003af8:	df70                	sw	a2,124(a4)
80003afa:	40df 067d c21b      	.byte	0xdf, 0x40, 0x7d, 0x06, 0x1b, 0xc2
80003b00:	d61f 40f2 35c2      	.byte	0x1f, 0xd6, 0xf2, 0x40, 0xc2, 0x35
80003b06:	c1bd                	beqz	a1,80003b6c <coeffs+0x410>
80003b08:	1265                	addi	tp,tp,-7 # b75cbff9 <__global_pointer$+0x375c51bd>
80003b0a:	c246                	sw	a7,4(sp)
80003b0c:	1d6c                	addi	a1,sp,700
80003b0e:	41aa                	lw	gp,136(sp)
80003b10:	bce8                	.2byte	0xbce8
80003b12:	c0d9                	beqz	s1,80003b98 <coeffs+0x43c>
80003b14:	75f4                	flw	fa3,108(a1)
80003b16:	41d8                	lw	a4,4(a1)
80003b18:	10f8                	addi	a4,sp,108
80003b1a:	c16c                	sw	a1,68(a0)
80003b1c:	9b12                	add	s6,s6,tp
80003b1e:	8a104243          	.4byte	0x8a104243
80003b22:	c1e0                	sw	s0,68(a1)
80003b24:	e22c                	fsw	fa1,64(a2)
80003b26:	51d4c217          	auipc	tp,0x51d4c
80003b2a:	41f2                	lw	gp,28(sp)
80003b2c:	b430                	.2byte	0xb430
80003b2e:	4219                	li	tp,6
80003b30:	953c                	.2byte	0x953c
80003b32:	c178                	sw	a4,68(a0)
80003b34:	7a42                	flw	fs4,48(sp)
80003b36:	4215                	li	tp,5
80003b38:	dfbc                	sw	a5,120(a5)
80003b3a:	4238                	lw	a4,64(a2)
80003b3c:	0826                	slli	a6,a6,0x9
80003b3e:	c225                	beqz	a2,80003b9e <coeffs+0x442>
80003b40:	96df 40d2 e420      	.byte	0xdf, 0x96, 0xd2, 0x40, 0x20, 0xe4
80003b46:	4225                	li	tp,9
80003b48:	8e1c                	.2byte	0x8e1c
80003b4a:	c130                	sw	a2,64(a0)
80003b4c:	731f 40d0 8ea2      	.byte	0x1f, 0x73, 0xd0, 0x40, 0xa2, 0x8e
80003b52:	c1ae                	sw	a1,192(sp)
80003b54:	bee0                	.2byte	0xbee0
80003b56:	c0ba                	sw	a4,64(sp)
80003b58:	c241832f          	.4byte	0xc241832f
80003b5c:	6af0                	flw	fa2,84(a3)
80003b5e:	4160                	lw	s0,68(a0)
80003b60:	e89c                	fsw	fa5,16(s1)
80003b62:	41a4                	lw	s1,64(a1)
80003b64:	a016                	.2byte	0xa016
80003b66:	c1d0                	sw	a2,4(a1)
80003b68:	6c9f c208 92a8      	.byte	0x9f, 0x6c, 0x08, 0xc2, 0xa8, 0x92
80003b6e:	4100                	lw	s0,0(a0)
80003b70:	2520                	.2byte	0x2520
80003b72:	c0cd                	beqz	s1,80003c14 <coeffs+0x4b8>
80003b74:	1e9c                	addi	a5,sp,880
80003b76:	3c5841b7          	lui	gp,0x3c584
80003b7a:	419a                	lw	gp,132(sp)
80003b7c:	49e0                	lw	s0,84(a1)
80003b7e:	f46ec243          	.4byte	0xf46ec243
80003b82:	4244                	lw	s1,4(a2)
80003b84:	1790                	addi	a2,sp,992
80003b86:	419e                	lw	gp,196(sp)
80003b88:	89ac                	.2byte	0x89ac
80003b8a:	198041b3          	.4byte	0x198041b3
80003b8e:	c0f2                	sw	t3,64(sp)
80003b90:	93e2                	add	t2,t2,s8
80003b92:	3f68c04b          	.4byte	0x3f68c04b
80003b96:	c229                	beqz	a2,80003bd8 <coeffs+0x47c>
80003b98:	a074                	.2byte	0xa074
80003b9a:	c10a                	sw	sp,128(sp)
80003b9c:	0374                	addi	a3,sp,396
80003b9e:	4196                	lw	gp,68(sp)
80003ba0:	4329                	li	t1,10
80003ba2:	c1f2                	sw	t3,192(sp)
80003ba4:	fe66                	fsw	fs9,60(sp)
80003ba6:	c1e2                	sw	s8,192(sp)
80003ba8:	af49                	j	8000433a <coeffs+0xbde>
80003baa:	40e5                	li	ra,25
80003bac:	c8e0                	sw	s0,84(s1)
80003bae:	4085                	li	ra,1
80003bb0:	04f1                	addi	s1,s1,28
80003bb2:	c224                	sw	s1,64(a2)
80003bb4:	40595a4f          	fnmadd.s	fs4,fs2,ft5,fs0,unknown
80003bb8:	c3dc                	sw	a5,4(a5)
80003bba:	414e                	lw	sp,208(sp)
80003bbc:	37a8                	.2byte	0x37a8
80003bbe:	4179                	li	sp,30
80003bc0:	31df c0a4 7290      	.byte	0xdf, 0x31, 0xa4, 0xc0, 0x90, 0x72
80003bc6:	c240                	sw	s0,4(a2)
80003bc8:	4760                	lw	s0,76(a4)
80003bca:	c1df 64e8 41b8      	.byte	0xdf, 0xc1, 0xe8, 0x64, 0xb8, 0x41
80003bd0:	a6c2                	.2byte	0xa6c2
80003bd2:	c07c                	sw	a5,68(s0)
80003bd4:	4dbe                	lw	s11,204(sp)
80003bd6:	c1d2                	sw	s4,192(sp)
80003bd8:	cb44                	sw	s1,20(a4)
80003bda:	c14e                	sw	s3,128(sp)
80003bdc:	561e                	lw	a2,228(sp)
80003bde:	c205                	beqz	a2,80003bfe <coeffs+0x4a2>
80003be0:	6ea0                	flw	fs0,88(a3)
80003be2:	08f2c017          	auipc	zero,0x8f2c
80003be6:	403e                	.2byte	0x403e
80003be8:	9d18                	.2byte	0x9d18
80003bea:	41c5                	li	gp,17
80003bec:	e472                	fsw	ft8,8(sp)
80003bee:	4224                	lw	s1,64(a2)
80003bf0:	2044                	.2byte	0x2044
80003bf2:	c1c1                	beqz	a1,80003c72 <coeffs+0x516>
80003bf4:	9a39                	andi	a2,a2,-18
80003bf6:	c0c0                	sw	s0,4(s1)
80003bf8:	9a92                	add	s5,s5,tp
80003bfa:	4229                	li	tp,10
80003bfc:	376a                	.2byte	0x376a
80003bfe:	077fc1c7          	.4byte	0x77fc1c7
80003c02:	c211                	beqz	a2,80003c06 <coeffs+0x4aa>
80003c04:	7d98                	flw	fa4,56(a1)
80003c06:	416d                	li	sp,27
80003c08:	4238                	lw	a4,64(a2)
80003c0a:	418c                	lw	a1,0(a1)
80003c0c:	fd10                	fsw	fa2,56(a0)
80003c0e:	4128                	lw	a0,64(a0)
80003c10:	4000                	lw	s0,0(s0)
80003c12:	41b4                	lw	a3,64(a1)
80003c14:	8702                	jr	a4
80003c16:	c224                	sw	s1,64(a2)
80003c18:	7e06                	flw	ft8,96(sp)
80003c1a:	c1a5                	beqz	a1,80003c7a <coeffs+0x51e>
80003c1c:	fe6a                	fsw	fs10,60(sp)
80003c1e:	4228                	lw	a0,64(a2)
80003c20:	0c6a                	slli	s8,s8,0x1a
80003c22:	c19c                	sw	a5,0(a1)
80003c24:	f6e6                	fsw	fs9,108(sp)
80003c26:	4211                	li	tp,4
80003c28:	8790                	.2byte	0x8790
80003c2a:	c064                	sw	s1,68(s0)
80003c2c:	2c98                	.2byte	0x2c98
80003c2e:	c128                	sw	a0,64(a0)
80003c30:	cdd4                	sw	a3,28(a1)
80003c32:	c121                	beqz	a0,80003c72 <coeffs+0x516>
80003c34:	9782                	jalr	a5
80003c36:	c222                	sw	s0,4(sp)
80003c38:	c233bd3b          	.4byte	0xc233bd3b
80003c3c:	0650                	addi	a2,sp,772
80003c3e:	0a12420b          	.4byte	0xa12420b
80003c42:	c1d7c21b          	.4byte	0xc1d7c21b
80003c46:	c1b6                	sw	a3,192(sp)
80003c48:	40f9c617          	auipc	a2,0x40f9c
80003c4c:	5c18                	lw	a4,56(s0)
80003c4e:	40e9                	li	ra,26
80003c50:	0d45                	addi	s10,s10,17
80003c52:	3f5e                	.2byte	0x3f5e
80003c54:	85f2                	mv	a1,t3
80003c56:	aac84233          	.4byte	0xaac84233
80003c5a:	014c41bf 97e14242 	.8byte	0x97e14242014c41bf
80003c62:	c009                	beqz	s0,80003c64 <coeffs+0x508>
80003c64:	8202                	jr	tp
80003c66:	e5bebfab          	.4byte	0xe5bebfab
80003c6a:	421e                	lw	tp,196(sp)
80003c6c:	acc0                	.2byte	0xacc0
80003c6e:	41bd                	li	gp,15
80003c70:	90aa                	add	ra,ra,a0
80003c72:	422a                	lw	tp,136(sp)
80003c74:	804e                	c.mv	zero,s3
80003c76:	4200                	lw	s0,0(a2)
80003c78:	3aac                	.2byte	0x3aac
80003c7a:	76d64243          	.4byte	0x76d64243
80003c7e:	c22e                	sw	a1,4(sp)
80003c80:	049f c042 b78c      	.byte	0x9f, 0x04, 0x42, 0xc0, 0x8c, 0xb7
80003c86:	4182                	lw	gp,0(sp)
80003c88:	90d8                	.2byte	0x90d8
80003c8a:	00944187          	.4byte	0x944187
80003c8e:	c1f4                	sw	a3,68(a1)
80003c90:	a988                	.2byte	0xa988
80003c92:	41c9                	li	gp,18
80003c94:	096a                	slli	s2,s2,0x1a
80003c96:	4239                	li	tp,14
80003c98:	01e0                	addi	s0,sp,204
80003c9a:	c219                	beqz	a2,80003ca0 <coeffs+0x544>
80003c9c:	3171                	jal	80003928 <coeffs+0x1cc>
80003c9e:	c231                	beqz	a2,80003ce2 <coeffs+0x586>
80003ca0:	0050                	addi	a2,sp,4
80003ca2:	d69c4203          	lbu	tp,-663(s8)
80003ca6:	4102                	lw	sp,0(sp)
80003ca8:	e4b8                	fsw	fa4,72(s1)
80003caa:	c099                	beqz	s1,80003cb0 <coeffs+0x554>
80003cac:	e648                	fsw	fa0,12(a2)
80003cae:	c1da                	sw	s6,192(sp)
80003cb0:	3c4c                	.2byte	0x3c4c
80003cb2:	418c                	lw	a1,0(a1)
80003cb4:	167f                	.2byte	0x167f
80003cb6:	6cd43e83          	.4byte	0x6cd43e83
80003cba:	c22a                	sw	a0,4(sp)
80003cbc:	2828                	.2byte	0x2828
80003cbe:	41e6                	lw	gp,88(sp)
80003cc0:	4a84                	lw	s1,16(a3)
80003cc2:	2fc041db          	.4byte	0x2fc041db
80003cc6:	01a84173          	.4byte	0x1a84173
80003cca:	c15f c511 c1ad      	.byte	0x5f, 0xc1, 0x11, 0xc5, 0xad, 0xc1
80003cd0:	4788                	lw	a0,8(a5)
80003cd2:	4121                	li	sp,8
80003cd4:	eb06                	fsw	ft1,148(sp)
80003cd6:	c21f c279 c1b9      	.byte	0x1f, 0xc2, 0x79, 0xc2, 0xb9, 0xc1
80003cdc:	479c                	lw	a5,8(a5)
80003cde:	c228                	sw	a0,64(a2)
80003ce0:	e3a4                	fsw	fs1,64(a5)
80003ce2:	410a                	lw	sp,128(sp)
80003ce4:	fb7f                	.2byte	0xfb7f
80003ce6:	c205                	beqz	a2,80003d06 <coeffs+0x5aa>
80003ce8:	1d84                	addi	s1,sp,752
80003cea:	41fd                	li	gp,31
80003cec:	3240                	.2byte	0x3240
80003cee:	3fa9                	jal	80003c48 <coeffs+0x4ec>
80003cf0:	84d0                	.2byte	0x84d0
80003cf2:	4242                	lw	tp,16(sp)
80003cf4:	92dc                	.2byte	0x92dc
80003cf6:	95d741f3          	.4byte	0x95d741f3
80003cfa:	40f6                	lw	ra,92(sp)
80003cfc:	dbd1                	beqz	a5,80003c90 <coeffs+0x534>
80003cfe:	c08c                	sw	a1,0(s1)
80003d00:	acd2                	.2byte	0xacd2
80003d02:	c04d                	beqz	s0,80003da4 <coeffs+0x648>
80003d04:	c1cac9af          	.4byte	0xc1cac9af
80003d08:	90f0                	.2byte	0x90f0
80003d0a:	4171                	li	sp,28
80003d0c:	0c10                	addi	a2,sp,528
80003d0e:	c1e0                	sw	s0,68(a1)
80003d10:	c1e8b6db          	.4byte	0xc1e8b6db
80003d14:	c4b8                	sw	a4,72(s1)
80003d16:	41d6                	lw	gp,84(sp)
80003d18:	6ef1                	lui	t4,0x1c
80003d1a:	c1b2                	sw	a2,192(sp)
80003d1c:	5b1d                	li	s6,-25
80003d1e:	c239                	beqz	a2,80003d64 <coeffs+0x608>
80003d20:	9ff0                	.2byte	0x9ff0
80003d22:	17e0c16f          	jal	sp,8000fea0 <__global_pointer$+0x9064>
80003d26:	9c8141b7          	lui	gp,0x9c814
80003d2a:	c1bd                	beqz	a1,80003d90 <coeffs+0x634>
80003d2c:	c23dc9d7          	.4byte	0xc23dc9d7
80003d30:	dbc4                	sw	s1,52(a5)
80003d32:	c1d6                	sw	s5,192(sp)
80003d34:	762a                	flw	fa2,168(sp)
80003d36:	c182                	sw	zero,192(sp)
80003d38:	9478                	.2byte	0x9478
80003d3a:	41fa                	lw	gp,156(sp)
80003d3c:	c8a0                	sw	s0,80(s1)
80003d3e:	c245                	beqz	a2,80003dde <coeffs+0x682>
80003d40:	90dc                	.2byte	0x90dc
80003d42:	762d4243          	.4byte	0x762d4243
80003d46:	c202                	sw	zero,4(sp)
80003d48:	5650                	lw	a2,44(a2)
80003d4a:	c1a9                	beqz	a1,80003d8c <coeffs+0x630>
80003d4c:	8af4                	.2byte	0x8af4
80003d4e:	c267410f          	.4byte	0xc267410f
80003d52:	c1b4                	sw	a3,64(a1)
80003d54:	9ce0                	.2byte	0x9ce0
80003d56:	364040b3          	.4byte	0x364040b3
80003d5a:	57b64187          	.4byte	0x57b64187
80003d5e:	4210                	lw	a2,0(a2)
80003d60:	f038                	fsw	fa4,96(s0)
80003d62:	41b0                	lw	a2,64(a1)
80003d64:	c3a0                	sw	s0,64(a5)
80003d66:	bfba                	.2byte	0xbfba
80003d68:	7ae4                	flw	fs1,116(a3)
80003d6a:	c149                	beqz	a0,80003dec <coeffs+0x690>
80003d6c:	f9d8                	fsw	fa4,52(a1)
80003d6e:	41a5                	li	gp,9
80003d70:	195e                	slli	s2,s2,0x37
80003d72:	c1a8                	sw	a0,64(a1)
80003d74:	7402                	flw	fs0,32(sp)
80003d76:	4234                	lw	a3,64(a2)
80003d78:	9e8e                	add	t4,t4,gp
80003d7a:	c206                	sw	ra,4(sp)
80003d7c:	3108                	.2byte	0x3108
80003d7e:	41ce                	lw	gp,208(sp)
80003d80:	c1f1e1ab          	.4byte	0xc1f1e1ab
80003d84:	8b5c                	.2byte	0x8b5c
80003d86:	127c41fb          	.4byte	0x127c41fb
80003d8a:	310c423f a02cc115 	.8byte	0xa02cc115310c423f
80003d92:	4104                	lw	s1,0(a0)
80003d94:	49fa                	lw	s3,156(sp)
80003d96:	c1c4                	sw	s1,4(a1)
80003d98:	3b00                	.2byte	0x3b00
80003d9a:	c0b5                	beqz	s1,80003dfe <coeffs+0x6a2>
80003d9c:	400e                	.2byte	0x400e
80003d9e:	422d                	li	tp,11
80003da0:	66f4                	flw	fa3,76(a3)
80003da2:	4241                	li	tp,16
80003da4:	14c0                	addi	s0,sp,612
80003da6:	41a5                	li	gp,9
80003da8:	7638                	flw	fa4,104(a2)
80003daa:	0dde4237          	lui	tp,0xdde4
80003dae:	c1e4                	sw	s1,68(a1)
80003db0:	b0b5                	j	8000361c <__clz_tab+0x10>
80003db2:	c236                	sw	a3,4(sp)
80003db4:	80e8                	.2byte	0x80e8
80003db6:	41d9                	li	gp,22
80003db8:	9f1e                	add	t5,t5,t2
80003dba:	c1df 1fda c23b      	.byte	0xdf, 0xc1, 0xda, 0x1f, 0x3b, 0xc2
80003dc0:	4a48                	lw	a0,20(a2)
80003dc2:	4232                	lw	tp,12(sp)
80003dc4:	527e                	lw	tp,252(sp)
80003dc6:	3f61                	jal	80003d5e <coeffs+0x602>
80003dc8:	0b8c                	addi	a1,sp,464
80003dca:	2dda4143          	.4byte	0x2dda4143
80003dce:	c1e0                	sw	s0,68(a1)
80003dd0:	071c                	addi	a5,sp,896
80003dd2:	c22e                	sw	a1,4(sp)
80003dd4:	43fa                	lw	t2,156(sp)
80003dd6:	bf38c1a7          	.4byte	0xbf38c1a7
80003dda:	e200c227          	.4byte	0xe200c227
80003dde:	41e4                	lw	s1,68(a1)
80003de0:	0fcc                	addi	a1,sp,980
80003de2:	41dd                	li	gp,23
80003de4:	ef89                	bnez	a5,80003dfe <coeffs+0x6a2>
80003de6:	c090                	sw	a2,0(s1)
80003de8:	853c                	.2byte	0x853c
80003dea:	bf24                	.2byte	0xbf24
80003dec:	84c8                	.2byte	0x84c8
80003dee:	c22d                	beqz	a2,80003e50 <coeffs+0x6f4>
80003df0:	a7bc                	.2byte	0xa7bc
80003df2:	c116                	sw	t0,128(sp)
80003df4:	3d78                	.2byte	0x3d78
80003df6:	93bc417b          	.4byte	0x93bc417b
80003dfa:	4201                	li	tp,0
80003dfc:	94ec                	.2byte	0x94ec
80003dfe:	4125                	li	sp,9
80003e00:	c036af4f          	fnmadd.s	ft10,fa3,ft3,fs8,rdn
80003e04:	4c70                	lw	a2,92(s0)
80003e06:	41f1                	li	gp,28
80003e08:	e708                	fsw	fa0,8(a4)
80003e0a:	42eac243          	.4byte	0x42eac243
80003e0e:	c232                	sw	a2,4(sp)
80003e10:	7ec5                	lui	t4,0xffff1
80003e12:	c231                	beqz	a2,80003e56 <coeffs+0x6fa>
80003e14:	7341                	lui	t1,0xffff0
80003e16:	c094                	sw	a3,0(s1)
80003e18:	fd26                	fsw	fs1,184(sp)
80003e1a:	4242                	lw	tp,16(sp)
80003e1c:	17d2                	slli	a5,a5,0x34
80003e1e:	c238                	sw	a4,64(a2)
80003e20:	0408                	addi	a0,sp,512
80003e22:	c208                	sw	a0,0(a2)
80003e24:	735c                	flw	fa5,36(a4)
80003e26:	4232                	lw	tp,12(sp)
80003e28:	3d80                	.2byte	0x3d80
80003e2a:	c1c4                	sw	s1,4(a1)
80003e2c:	c1ed697b          	.4byte	0xc1ed697b
80003e30:	67a0                	flw	fs0,72(a5)
80003e32:	41ae                	lw	gp,200(sp)
80003e34:	c01ee4ef          	jal	s1,7fff2a34 <buflen.1+0x7fff29f4>
80003e38:	a930                	.2byte	0xa930
80003e3a:	fc2cc1d3          	.4byte	0xfc2cc1d3
80003e3e:	4182                	lw	gp,0(sp)
80003e40:	96fa                	add	a3,a3,t5
80003e42:	4241                	li	tp,16
80003e44:	ee4a                	fsw	fs2,28(sp)
80003e46:	420e                	lw	tp,192(sp)
80003e48:	672a                	flw	fa4,136(sp)
80003e4a:	4219                	li	tp,6
80003e4c:	7022                	flw	ft0,40(sp)
80003e4e:	c234                	sw	a3,64(a2)
80003e50:	b3b2                	.2byte	0xb3b2
80003e52:	c20c                	sw	a1,0(a2)
80003e54:	a7f2                	.2byte	0xa7f2
80003e56:	4239                	li	tp,14
80003e58:	00de                	slli	ra,ra,0x17
80003e5a:	4206                	lw	tp,64(sp)
80003e5c:	d434                	sw	a3,104(s0)
80003e5e:	4229                	li	tp,10
80003e60:	d7fc                	sw	a5,108(a5)
80003e62:	c101                	beqz	a0,80003e62 <coeffs+0x706>
80003e64:	226c                	.2byte	0x226c
80003e66:	c189                	beqz	a1,80003e68 <coeffs+0x70c>
80003e68:	4f6c                	lw	a1,92(a4)
80003e6a:	4244                	lw	s1,4(a2)
80003e6c:	e012                	fsw	ft4,0(sp)
80003e6e:	4201                	li	tp,0
80003e70:	3e28                	.2byte	0x3e28
80003e72:	4242                	lw	tp,16(sp)
80003e74:	c650                	sw	a2,12(a2)
80003e76:	d59141fb          	.4byte	0xd59141fb
80003e7a:	c0e5                	beqz	s1,80003f5a <coeffs+0x7fe>
80003e7c:	6668                	flw	fa0,76(a2)
80003e7e:	c089                	beqz	s1,80003e80 <coeffs+0x724>
80003e80:	257c                	.2byte	0x257c
80003e82:	413a                	lw	sp,140(sp)
80003e84:	0dd0                	addi	a2,sp,724
80003e86:	c0c5                	beqz	s1,80003f26 <coeffs+0x7ca>
80003e88:	091c                	addi	a5,sp,144
80003e8a:	3f92                	.2byte	0x3f92
80003e8c:	1534                	addi	a3,sp,680
80003e8e:	418a                	lw	gp,128(sp)
80003e90:	cfde                	sw	s7,220(sp)
80003e92:	421c                	lw	a5,0(a2)
80003e94:	23f6                	.2byte	0x23f6
80003e96:	bde5                	j	80003d8e <coeffs+0x632>
80003e98:	e590                	fsw	fa2,8(a1)
80003e9a:	41a9                	li	gp,10
80003e9c:	342a                	.2byte	0x342a
80003e9e:	f9b7c233          	.4byte	0xf9b7c233
80003ea2:	d408c0af          	.4byte	0xd408c0af
80003ea6:	423a                	lw	tp,140(sp)
80003ea8:	d1d1                	beqz	a1,80003e2c <coeffs+0x6d0>
80003eaa:	cb67c1c3          	.4byte	0xcb67c1c3
80003eae:	c206                	sw	ra,4(sp)
80003eb0:	d231                	beqz	a2,80003df4 <coeffs+0x698>
80003eb2:	c0b8                	sw	a4,64(s1)
80003eb4:	bf6f6007          	.4byte	0xbf6f6007
80003eb8:	b2b0                	.2byte	0xb2b0
80003eba:	4202                	lw	tp,0(sp)
80003ebc:	1a61                	addi	s4,s4,-8 # 13ff8 <buflen.1+0x13fb8>
80003ebe:	c0ec                	sw	a1,68(s1)
80003ec0:	3cd4                	.2byte	0x3cd4
80003ec2:	33b4c173          	.4byte	0x33b4c173
80003ec6:	41a8                	lw	a0,64(a1)
80003ec8:	36df c01f 73fb      	.byte	0xdf, 0x36, 0x1f, 0xc0, 0xfb, 0x73
80003ece:	bec1                	j	80003a9e <coeffs+0x342>
80003ed0:	8398                	.2byte	0x8398
80003ed2:	e520418b          	.4byte	0xe520418b
80003ed6:	75a1c197          	auipc	gp,0x75a1c
80003eda:	c0fd                	beqz	s1,80003fc0 <coeffs+0x864>
80003edc:	c222b433          	.4byte	0xc222b433
80003ee0:	f0e4                	fsw	fs1,100(s1)
80003ee2:	415d                	li	sp,23
80003ee4:	7d20                	flw	fs0,120(a0)
80003ee6:	c10d                	beqz	a0,80003f08 <coeffs+0x7ac>
80003ee8:	2bde                	.2byte	0x2bde
80003eea:	e9844227          	.4byte	0xe9844227
80003eee:	4146                	lw	sp,80(sp)
80003ef0:	f841                	bnez	s0,80003e80 <coeffs+0x724>
80003ef2:	c1da                	sw	s6,192(sp)
80003ef4:	3b50                	.2byte	0x3b50
80003ef6:	c176                	sw	t4,128(sp)
80003ef8:	726c                	flw	fa1,100(a2)
80003efa:	0d40c227          	.4byte	0xd40c227
80003efe:	4209                	li	tp,2
80003f00:	9ee4                	.2byte	0x9ee4
80003f02:	777441e3          	blt	s0,s7,80004e64 <data+0x768>
80003f06:	4114                	lw	a3,0(a0)
80003f08:	fb44                	fsw	fs1,52(a4)
80003f0a:	3fc2                	.2byte	0x3fc2
80003f0c:	3ea0                	.2byte	0x3ea0
80003f0e:	418d                	li	gp,3
80003f10:	54b5                	li	s1,-19
80003f12:	eabac223          	.4byte	0xeabac223
80003f16:	c1d9                	beqz	a1,80003f9c <coeffs+0x840>
80003f18:	d648                	sw	a0,44(a2)
80003f1a:	41b6                	lw	gp,76(sp)
80003f1c:	c140                	sw	s0,4(a0)
80003f1e:	406a                	.2byte	0x406a
80003f20:	42a8                	lw	a0,64(a3)
80003f22:	c1f4                	sw	a3,68(a1)
80003f24:	823e                	mv	tp,a5
80003f26:	4241                	li	tp,16
80003f28:	c158                	sw	a4,4(a0)
80003f2a:	419f 1198 415b      	.byte	0x9f, 0x41, 0x98, 0x11, 0x5b, 0x41
80003f30:	b442                	.2byte	0xb442
80003f32:	35c2c023          	.4byte	0x35c2c023
80003f36:	4029                	c.li	zero,10
80003f38:	bee6                	.2byte	0xbee6
80003f3a:	c22e                	sw	a1,4(sp)
80003f3c:	f586                	fsw	ft1,232(sp)
80003f3e:	4200                	lw	s0,0(a2)
80003f40:	a592                	.2byte	0xa592
80003f42:	c1d2                	sw	s4,192(sp)
80003f44:	dab2                	sw	a2,116(sp)
80003f46:	4074                	lw	a3,68(s0)
80003f48:	1ac4                	addi	s1,sp,372
80003f4a:	c191                	beqz	a1,80003f4e <coeffs+0x7f2>
80003f4c:	6f02                	flw	ft10,0(sp)
80003f4e:	4224                	lw	s1,64(a2)
80003f50:	5b1a                	lw	s6,164(sp)
80003f52:	87d8420b          	.4byte	0x87d8420b
80003f56:	453141bf 1562c246 	.8byte	0x1562c246453141bf
80003f5e:	bfa5                	j	80003ed6 <coeffs+0x77a>
80003f60:	9b5d                	andi	a4,a4,-9
80003f62:	e6aec20b          	.4byte	0xe6aec20b
80003f66:	4228                	lw	a0,64(a2)
80003f68:	6e4a                	flw	ft8,144(sp)
80003f6a:	5df4c21b          	.4byte	0x5df4c21b
80003f6e:	c144                	sw	s1,4(a0)
80003f70:	504c                	lw	a1,36(s0)
80003f72:	c1b9                	beqz	a1,80003fb8 <coeffs+0x85c>
80003f74:	c16c                	sw	a1,68(a0)
80003f76:	c1f5                	beqz	a1,8000405a <coeffs+0x8fe>
80003f78:	147c                	addi	a5,sp,556
80003f7a:	c1e0                	sw	s0,68(a1)
80003f7c:	d8b4                	sw	a3,112(s1)
80003f7e:	c232                	sw	a2,4(sp)
80003f80:	7a50                	flw	fa2,52(a2)
80003f82:	41e4                	lw	s1,68(a1)
80003f84:	1b38                	addi	a4,sp,440
80003f86:	41bc                	lw	a5,64(a1)
80003f88:	8d34                	.2byte	0x8d34
80003f8a:	e87241b7          	lui	gp,0xe8724
80003f8e:	4216                	lw	tp,68(sp)
80003f90:	1840                	addi	s0,sp,52
80003f92:	4239                	li	tp,14
80003f94:	7208                	flw	fa0,32(a2)
80003f96:	c086                	sw	ra,64(sp)
80003f98:	ade8                	.2byte	0xade8
80003f9a:	c109                	beqz	a0,80003f9c <coeffs+0x840>
80003f9c:	0914                	addi	a3,sp,144
80003f9e:	c209                	beqz	a2,80003fa0 <coeffs+0x844>
80003fa0:	6020                	flw	fs0,64(s0)
80003fa2:	c0ba                	sw	a4,64(sp)
80003fa4:	8acd                	andi	a3,a3,19
80003fa6:	c21a                	sw	t1,4(sp)
80003fa8:	76a4                	flw	fs1,104(a3)
80003faa:	78ba41eb          	.4byte	0x78ba41eb
80003fae:	4226                	lw	tp,72(sp)
80003fb0:	2240                	.2byte	0x2240
80003fb2:	4160                	lw	s0,68(a0)
80003fb4:	fc6c                	fsw	fa1,124(s0)
80003fb6:	420e                	lw	tp,192(sp)
80003fb8:	dc7c                	sw	a5,124(s0)
80003fba:	41be                	lw	gp,204(sp)
80003fbc:	b5c8                	.2byte	0xb5c8
80003fbe:	4216                	lw	tp,68(sp)
80003fc0:	d7a4                	sw	s1,104(a5)
80003fc2:	c126                	sw	s1,128(sp)
80003fc4:	c2311f23          	sh	gp,-962(sp) # 17b0f648 <buflen.1+0x17b0f608>
80003fc8:	4994                	lw	a3,16(a1)
80003fca:	41e6                	lw	gp,88(sp)
80003fcc:	b59c                	.2byte	0xb59c
80003fce:	c1cc                	sw	a1,4(a1)
80003fd0:	4990                	lw	a2,16(a1)
80003fd2:	41ed                	li	gp,27
80003fd4:	bf34                	.2byte	0xbf34
80003fd6:	41e9                	li	gp,26
80003fd8:	f90c                	fsw	fa1,48(a0)
80003fda:	41b8                	lw	a4,64(a1)
80003fdc:	096a                	slli	s2,s2,0x1a
80003fde:	8c8c4233          	.4byte	0x8c8c4233
80003fe2:	0e3c41ab          	.4byte	0xe3c41ab
80003fe6:	4209                	li	tp,2
80003fe8:	1c26                	slli	s8,s8,0x29
80003fea:	c18c                	sw	a1,0(a1)
80003fec:	1e20                	addi	s0,sp,824
80003fee:	4241                	li	tp,16
80003ff0:	d279                	beqz	a2,80003fb6 <coeffs+0x85a>
80003ff2:	c239                	beqz	a2,80004038 <coeffs+0x8dc>
80003ff4:	3d79                	jal	80003e92 <coeffs+0x736>
80003ff6:	ba94408f          	.4byte	0xba94408f
80003ffa:	c239                	beqz	a2,80004040 <coeffs+0x8e4>
80003ffc:	6aae                	flw	fs5,200(sp)
80003ffe:	4200                	lw	s0,0(a2)
80004000:	1568                	addi	a0,sp,684
80004002:	c1b0                	sw	a2,64(a1)
80004004:	1810                	addi	a2,sp,48
80004006:	41d4                	lw	a3,4(a1)
80004008:	a640                	.2byte	0xa640
8000400a:	419e                	lw	gp,196(sp)
8000400c:	e4e9                	bnez	s1,800040d6 <coeffs+0x97a>
8000400e:	c1cd                	beqz	a1,800040b0 <coeffs+0x954>
80004010:	8472                	mv	s0,t3
80004012:	c1dd                	beqz	a1,800040b8 <coeffs+0x95c>
80004014:	185a                	slli	a6,a6,0x36
80004016:	ee24c21b          	.4byte	0xee24c21b
8000401a:	c11f e388 4183      	.byte	0x1f, 0xc1, 0x88, 0xe3, 0x83, 0x41
80004020:	464e                	lw	a2,208(sp)
80004022:	806ec1db          	.4byte	0x806ec1db
80004026:	c1f4                	sw	a3,68(a1)
80004028:	a9f0                	.2byte	0xa9f0
8000402a:	4101                	li	sp,0
8000402c:	656a                	flw	fa0,152(sp)
8000402e:	4212                	lw	tp,4(sp)
80004030:	43cc                	lw	a1,4(a5)
80004032:	4e8bc233          	.4byte	0x4e8bc233
80004036:	c190                	sw	a2,0(a1)
80004038:	3664                	.2byte	0x3664
8000403a:	41c2                	lw	gp,16(sp)
8000403c:	cda9                	beqz	a1,80004096 <coeffs+0x93a>
8000403e:	19a0c0a7          	.4byte	0x19a0c0a7
80004042:	c145                	beqz	a0,800040e2 <coeffs+0x986>
80004044:	ffb0                	fsw	fa2,120(a5)
80004046:	56fc4043          	.4byte	0x56fc4043
8000404a:	4199                	li	gp,6
8000404c:	a1a0                	.2byte	0xa1a0
8000404e:	c202                	sw	zero,4(sp)
80004050:	c0da                	sw	s6,64(sp)
80004052:	c18d                	beqz	a1,80004074 <coeffs+0x918>
80004054:	bfdf c0f6 9834      	.byte	0xdf, 0xbf, 0xf6, 0xc0, 0x34, 0x98
8000405a:	1a26c217          	auipc	tp,0x1a26c
8000405e:	c239                	beqz	a2,800040a4 <coeffs+0x948>
80004060:	937f                	.2byte	0x937f
80004062:	3238c1bb          	.4byte	0x3238c1bb
80004066:	c0ad                	beqz	s1,800040c8 <coeffs+0x96c>
80004068:	fc05                	bnez	s0,80003fa0 <coeffs+0x844>
8000406a:	3871c23f 416ac19f 	.8byte	0x416ac19f3871c23f
80004072:	4244                	lw	s1,4(a2)
80004074:	b698                	.2byte	0xb698
80004076:	c231                	beqz	a2,800040ba <coeffs+0x95e>
80004078:	c217318b          	.4byte	0xc217318b
8000407c:	9296                	add	t0,t0,t0
8000407e:	5570c1b7          	lui	gp,0x5570c
80004082:	4200                	lw	s0,0(a2)
80004084:	2194                	.2byte	0x2194
80004086:	4200                	lw	s0,0(a2)
80004088:	87fd                	srai	a5,a5,0x1f
8000408a:	3fa8                	.2byte	0x3fa8
8000408c:	6cca                	flw	fs9,144(sp)
8000408e:	c236                	sw	a3,4(sp)
80004090:	093a                	slli	s2,s2,0xe
80004092:	422d                	li	tp,11
80004094:	48b6                	lw	a7,76(sp)
80004096:	4225                	li	tp,9
80004098:	09f4                	addi	a3,sp,220
8000409a:	99ed41a7          	.4byte	0x99ed41a7
8000409e:	c208                	sw	a0,0(a2)
800040a0:	f780                	fsw	fs0,40(a5)
800040a2:	c21c                	sw	a5,0(a2)
800040a4:	2114                	.2byte	0x2114
800040a6:	c1a8                	sw	a0,64(a1)
800040a8:	c23e3483          	.4byte	0xc23e3483
800040ac:	c2083b4b          	.4byte	0xc2083b4b
800040b0:	20c4                	.2byte	0x20c4
800040b2:	cd5c412f          	.4byte	0xcd5c412f
800040b6:	41d5                	li	gp,21
800040b8:	2c00                	.2byte	0x2c00
800040ba:	81ca412b          	.4byte	0x81ca412b
800040be:	4242                	lw	tp,16(sp)
800040c0:	b2b1                	j	80003a0c <coeffs+0x2b0>
800040c2:	c1a1                	beqz	a1,80004102 <coeffs+0x9a6>
800040c4:	1306                	slli	t1,t1,0x21
800040c6:	c1a1                	beqz	a1,80004106 <coeffs+0x9aa>
800040c8:	1fd6                	slli	t6,t6,0x35
800040ca:	c208                	sw	a0,0(a2)
800040cc:	18f0                	addi	a2,sp,124
800040ce:	4141                	li	sp,16
800040d0:	3d04                	.2byte	0x3d04
800040d2:	41b1                	li	gp,12
800040d4:	7016                	flw	ft0,100(sp)
800040d6:	b058c1af          	.4byte	0xb058c1af
800040da:	417c                	lw	a5,68(a0)
800040dc:	d4c2                	sw	a6,104(sp)
800040de:	4242                	lw	tp,16(sp)
800040e0:	435c                	lw	a5,4(a4)
800040e2:	41b5                	li	gp,13
800040e4:	6020                	flw	fs0,64(s0)
800040e6:	418e                	lw	gp,192(sp)
800040e8:	c1a98eef          	jal	t4,7ff9c502 <buflen.1+0x7ff9c4c2>
800040ec:	c630                	sw	a2,72(a2)
800040ee:	41ad                	li	gp,11
800040f0:	f2f4                	fsw	fa3,100(a3)
800040f2:	41ba                	lw	gp,140(sp)
800040f4:	e40d                	bnez	s0,8000411e <coeffs+0x9c2>
800040f6:	19ccc10f          	.4byte	0x19ccc10f
800040fa:	77494243          	.4byte	0x77494243
800040fe:	40ae                	lw	ra,200(sp)
80004100:	aedc                	.2byte	0xaedc
80004102:	19c1c1d7          	.4byte	0x19c1c1d7
80004106:	3dbc                	.2byte	0x3dbc
80004108:	887c                	.2byte	0x887c
8000410a:	411d                	li	sp,7
8000410c:	ce34                	sw	a3,88(a2)
8000410e:	c206                	sw	ra,4(sp)
80004110:	64f4                	flw	fa3,76(s1)
80004112:	c109                	beqz	a0,80004114 <coeffs+0x9b8>
80004114:	31ce                	.2byte	0x31ce
80004116:	c19a                	sw	t1,192(sp)
80004118:	d040                	sw	s0,36(s0)
8000411a:	c18e                	sw	gp,192(sp)
8000411c:	f441                	bnez	s0,800040a4 <coeffs+0x948>
8000411e:	400a                	.2byte	0x400a
80004120:	5a3c                	lw	a5,112(a2)
80004122:	728c411b          	.4byte	0x728c411b
80004126:	c176                	sw	t4,128(sp)
80004128:	e7f4                	fsw	fa3,76(a5)
8000412a:	4190                	lw	a2,0(a1)
8000412c:	c280                	sw	s0,0(a3)
8000412e:	c1ea                	sw	s10,192(sp)
80004130:	b5f6                	.2byte	0xb5f6
80004132:	c21a                	sw	t1,4(sp)
80004134:	820e                	mv	tp,gp
80004136:	c1a9                	beqz	a1,80004178 <coeffs+0xa1c>
80004138:	beed                	j	80003d32 <coeffs+0x5d6>
8000413a:	c1f5                	beqz	a1,8000421e <coeffs+0xac2>
8000413c:	3d38                	.2byte	0x3d38
8000413e:	c10e                	sw	gp,128(sp)
80004140:	d5d8                	sw	a4,44(a1)
80004142:	410a                	lw	sp,128(sp)
80004144:	fd34                	fsw	fa3,120(a0)
80004146:	4912c16b          	.4byte	0x4912c16b
8000414a:	5813c23b          	.4byte	0x5813c23b
8000414e:	c199                	beqz	a1,80004154 <coeffs+0x9f8>
80004150:	22a4                	.2byte	0x22a4
80004152:	4155                	li	sp,21
80004154:	c608                	sw	a0,8(a2)
80004156:	ae904197          	auipc	gp,0xae904
8000415a:	56a3c1a3          	.4byte	0x56a3c1a3
8000415e:	c160                	sw	s0,68(a0)
80004160:	b3ac                	.2byte	0xb3ac
80004162:	8500c153          	.4byte	0x8500c153
80004166:	4105                	li	sp,1
80004168:	3292                	.2byte	0x3292
8000416a:	c229                	beqz	a2,800041ac <coeffs+0xa50>
8000416c:	7372                	flw	ft6,60(sp)
8000416e:	c21f 683c 4245      	.byte	0x1f, 0xc2, 0x3c, 0x68, 0x45, 0x42
80004174:	18c6                	slli	a7,a7,0x31
80004176:	c22e                	sw	a1,4(sp)
80004178:	6dd8                	flw	fa4,28(a1)
8000417a:	4179                	li	sp,30
8000417c:	de62                	sw	s8,60(sp)
8000417e:	c1dc                	sw	a5,4(a1)
80004180:	2a30                	.2byte	0x2a30
80004182:	40d2                	lw	ra,20(sp)
80004184:	84d5                	srai	s1,s1,0x15
80004186:	c1c4                	sw	s1,4(a1)
80004188:	f594                	fsw	fa3,40(a1)
8000418a:	c134                	sw	a3,64(a0)
8000418c:	ec0a                	fsw	ft2,24(sp)
8000418e:	2570423f b4f840c5 	.8byte	0xb4f840c52570423f
80004196:	41a6                	lw	gp,72(sp)
80004198:	4e12                	lw	t3,4(sp)
8000419a:	84c23e1b          	.4byte	0x84c23e1b
8000419e:	c208                	sw	a0,0(a2)
800041a0:	4228                	lw	a0,64(a2)
800041a2:	c232                	sw	a2,4(sp)
800041a4:	c1fde173          	csrrsi	sp,hpmcounter31,27
800041a8:	980c                	.2byte	0x980c
800041aa:	f81ec157          	.4byte	0xf81ec157
800041ae:	c204                	sw	s1,0(a2)
800041b0:	1c11                	addi	s8,s8,-28
800041b2:	d439c03b          	.4byte	0xd439c03b
800041b6:	40b9                	li	ra,14
800041b8:	c4a0                	sw	s0,72(s1)
800041ba:	fc4b40fb          	.4byte	0xfc4b40fb
800041be:	c230                	sw	a2,64(a2)
800041c0:	3b3c                	.2byte	0x3b3c
800041c2:	4224                	lw	s1,64(a2)
800041c4:	be04                	.2byte	0xbe04
800041c6:	4130                	lw	a2,64(a0)
800041c8:	a154                	.2byte	0xa154
800041ca:	c156                	sw	s5,128(sp)
800041cc:	1f19                	addi	t5,t5,-26
800041ce:	408c                	lw	a1,0(s1)
800041d0:	daf5                	beqz	a3,800041c4 <coeffs+0xa68>
800041d2:	c19f 00c4 4181      	.byte	0x9f, 0xc1, 0xc4, 0x00, 0x81, 0x41
800041d8:	6e3a                	flw	ft8,140(sp)
800041da:	4221                	li	tp,8
800041dc:	4b38                	lw	a4,80(a4)
800041de:	4186                	lw	gp,64(sp)
800041e0:	c1cc3cbb          	.4byte	0xc1cc3cbb
800041e4:	3ba8                	.2byte	0x3ba8
800041e6:	4240                	lw	s0,4(a2)
800041e8:	6450                	flw	fa2,12(s0)
800041ea:	6c4141d7          	.4byte	0x6c4141d7
800041ee:	c1d1                	beqz	a1,80004272 <coeffs+0xb16>
800041f0:	dd1d                	beqz	a0,8000412e <coeffs+0x9d2>
800041f2:	c235                	beqz	a2,80004256 <coeffs+0xafa>
800041f4:	92ff                	.2byte	0x92ff
800041f6:	5522c0ef          	jal	ra,80030748 <__global_pointer$+0x2990c>
800041fa:	c072                	sw	t3,0(sp)
800041fc:	a0a8                	.2byte	0xa0a8
800041fe:	4131                	li	sp,12
80004200:	966c                	.2byte	0x966c
80004202:	9d4a418f          	.4byte	0x9d4a418f
80004206:	50d0420b          	.4byte	0x50d0420b
8000420a:	4111                	li	sp,4
8000420c:	c1cf2037          	lui	zero,0xc1cf2
80004210:	40b7be2f          	.4byte	0x40b7be2f
80004214:	107e                	c.slli	zero,0x3f
80004216:	5378c223          	.4byte	0x5378c223
8000421a:	c120                	sw	s0,64(a0)
8000421c:	d674                	sw	a3,108(a2)
8000421e:	4132                	lw	sp,12(sp)
80004220:	c1b4026f          	jal	tp,7ff44e3a <buflen.1+0x7ff44dfa>
80004224:	0a40                	addi	s0,sp,276
80004226:	41d4                	lw	a3,4(a1)
80004228:	7afc                	flw	fa5,116(a3)
8000422a:	41df 9a0c 41c4      	.byte	0xdf, 0x41, 0x0c, 0x9a, 0xc4, 0x41
80004230:	80b2                	mv	ra,a2
80004232:	c18d                	beqz	a1,80004254 <coeffs+0xaf8>
80004234:	27b4                	.2byte	0x27b4
80004236:	a178c163          	blt	a7,s7,80003438 <main+0x1b0>
8000423a:	41f2                	lw	gp,28(sp)
8000423c:	0a3e                	slli	s4,s4,0xf
8000423e:	c1d5                	beqz	a1,800042e2 <coeffs+0xb86>
80004240:	6594                	flw	fa3,8(a1)
80004242:	5798423b          	.4byte	0x5798423b
80004246:	c204                	sw	s1,0(a2)
80004248:	fd88                	fsw	fa0,56(a1)
8000424a:	41dd                	li	gp,23
8000424c:	c1b90fcb          	fnmsub.s	ft11,fs2,fs11,fs8,rne
80004250:	28ca                	.2byte	0x28ca
80004252:	4204                	lw	s1,0(a2)
80004254:	da00                	sw	s0,48(a2)
80004256:	4190                	lw	a2,0(a1)
80004258:	9db6                	add	s11,s11,a3
8000425a:	422e                	lw	tp,200(sp)
8000425c:	f594                	fsw	fa3,40(a1)
8000425e:	c229                	beqz	a2,800042a0 <coeffs+0xb44>
80004260:	5150                	lw	a2,36(a0)
80004262:	4181                	li	gp,0
80004264:	9fbc                	.2byte	0x9fbc
80004266:	41a4                	lw	s1,64(a1)
80004268:	5769                	li	a4,-6
8000426a:	c195                	beqz	a1,8000428e <coeffs+0xb32>
8000426c:	9714                	.2byte	0x9714
8000426e:	41a5                	li	gp,9
80004270:	a281                	j	800043b0 <coeffs+0xc54>
80004272:	5df4c213          	xori	tp,s1,1503
80004276:	41dc                	lw	a5,4(a1)
80004278:	9898                	.2byte	0x9898
8000427a:	c191                	beqz	a1,8000427e <coeffs+0xb22>
8000427c:	5168                	lw	a0,100(a0)
8000427e:	41f8                	lw	a4,68(a1)
80004280:	3110                	.2byte	0x3110
80004282:	87e84147          	.4byte	0x87e84147
80004286:	67674223          	.4byte	0x67674223
8000428a:	77edc233          	.4byte	0x77edc233
8000428e:	c1fe                	sw	t6,192(sp)
80004290:	8896                	mv	a7,t0
80004292:	e228c247          	.4byte	0xe228c247
80004296:	f34cc09b          	.4byte	0xf34cc09b
8000429a:	41ea                	lw	gp,152(sp)
8000429c:	139c                	addi	a5,sp,480
8000429e:	ee4bc1b3          	.4byte	0xee4bc1b3
800042a2:	c1e2                	sw	s8,192(sp)
800042a4:	b928                	.2byte	0xb928
800042a6:	40e9                	li	ra,26
800042a8:	3cc6                	.2byte	0x3cc6
800042aa:	8812c23f 6d38407c 	.8byte	0x6d38407c8812c23f
800042b2:	422c                	lw	a1,64(a2)
800042b4:	13f6                	slli	t2,t2,0x3d
800042b6:	4202                	lw	tp,0(sp)
800042b8:	86c8                	.2byte	0x86c8
800042ba:	41da                	lw	gp,148(sp)
800042bc:	d2ce                	sw	s3,100(sp)
800042be:	421f bc5e 4245      	.byte	0x1f, 0x42, 0x5e, 0xbc, 0x45, 0x42
800042c4:	1138                	addi	a4,sp,168
800042c6:	40a2                	lw	ra,8(sp)
800042c8:	b519                	j	800040ce <coeffs+0x972>
800042ca:	c204                	sw	s1,0(a2)
800042cc:	e528                	fsw	fa0,72(a0)
800042ce:	4201                	li	tp,0
800042d0:	a1b6                	.2byte	0xa1b6
800042d2:	c1d6                	sw	s5,192(sp)
800042d4:	1764                	addi	s1,sp,940
800042d6:	c21e                	sw	t2,4(sp)
800042d8:	ef94                	fsw	fa3,24(a5)
800042da:	421f 57cc 421d      	.byte	0x1f, 0x42, 0xcc, 0x57, 0x1d, 0x42
800042e0:	70f8                	flw	fa4,100(s1)
800042e2:	41f8                	lw	a4,68(a1)
800042e4:	7840                	flw	fs0,52(s0)
800042e6:	c1e5                	beqz	a1,800043c6 <coeffs+0xc6a>
800042e8:	8d60                	.2byte	0x8d60
800042ea:	4120                	lw	s0,64(a0)
800042ec:	95fa                	add	a1,a1,t5
800042ee:	4230                	lw	a2,64(a2)
800042f0:	72dc                	flw	fa5,36(a3)
800042f2:	570c4243          	.4byte	0x570c4243
800042f6:	7d5c4227          	.4byte	0x7d5c4227
800042fa:	41c9                	li	gp,18
800042fc:	fc81                	bnez	s1,80004214 <coeffs+0xab8>
800042fe:	4134                	lw	a3,64(a0)
80004300:	def2                	sw	t3,124(sp)
80004302:	4202                	lw	tp,0(sp)
80004304:	ae8c                	.2byte	0xae8c
80004306:	41f2                	lw	gp,28(sp)
80004308:	0654                	addi	a3,sp,772
8000430a:	41ec                	lw	a1,68(a1)
8000430c:	565c                	lw	a5,44(a2)
8000430e:	49fe4203          	lbu	tp,1183(t3)
80004312:	c1c4                	sw	s1,4(a1)
80004314:	f340                	fsw	fs0,36(a4)
80004316:	410d                	li	sp,3
80004318:	3371                	jal	800040a4 <coeffs+0x948>
8000431a:	c21e                	sw	t2,4(sp)
8000431c:	c250                	sw	a2,4(a2)
8000431e:	c039                	beqz	s0,80004364 <coeffs+0xc08>
80004320:	4c0a                	lw	s8,128(sp)
80004322:	7038c207          	.4byte	0x7038c207
80004326:	c215                	beqz	a2,8000434a <coeffs+0xbee>
80004328:	c243d3a3          	.4byte	0xc243d3a3
8000432c:	ded2                	sw	s4,124(sp)
8000432e:	c222                	sw	s0,4(sp)
80004330:	a3be                	.2byte	0xa3be
80004332:	4234                	lw	a3,64(a2)
80004334:	df80                	sw	s0,56(a5)
80004336:	41e2                	lw	gp,24(sp)
80004338:	f3fa                	fsw	ft10,228(sp)
8000433a:	4244                	lw	s1,4(a2)
8000433c:	601c                	flw	fa5,0(s0)
8000433e:	4232                	lw	tp,12(sp)
80004340:	9c34                	.2byte	0x9c34
80004342:	c184                	sw	s1,0(a1)
80004344:	c11e                	sw	t2,128(sp)
80004346:	8a84c207          	.4byte	0x8a84c207
8000434a:	41d8                	lw	a4,4(a1)
8000434c:	0851                	addi	a6,a6,20
8000434e:	b10440d3          	.4byte	0xb10440d3
80004352:	69b0c1bb          	.4byte	0x69b0c1bb
80004356:	4188                	lw	a0,0(a1)
80004358:	3941                	jal	80003fe8 <coeffs+0x88c>
8000435a:	c082                	sw	zero,64(sp)
8000435c:	c229a007          	flw	ft0,-990(s3)
80004360:	78b6                	flw	fa7,108(sp)
80004362:	4219                	li	tp,6
80004364:	23d1                	jal	80004928 <data+0x22c>
80004366:	c230                	sw	a2,64(a2)
80004368:	0a0e                	slli	s4,s4,0x3
8000436a:	c241                	beqz	a2,800043ea <coeffs+0xc8e>
8000436c:	eb92                	fsw	ft4,212(sp)
8000436e:	4214                	lw	a3,0(a2)
80004370:	333a                	.2byte	0x333a
80004372:	6940423f a9bd41d7 	.8byte	0xa9bd41d76940423f
8000437a:	bfba                	.2byte	0xbfba
8000437c:	245c                	.2byte	0x245c
8000437e:	41f4                	lw	a3,68(a1)
80004380:	40e85f37          	lui	t5,0x40e85
80004384:	a44a                	.2byte	0xa44a
80004386:	a228c1af          	.4byte	0xa228c1af
8000438a:	4155                	li	sp,21
8000438c:	e6e6                	fsw	fs9,76(sp)
8000438e:	4202                	lw	tp,0(sp)
80004390:	aaaa                	.2byte	0xaaaa
80004392:	6a304213          	xori	tp,zero,1699
80004396:	41be                	lw	gp,204(sp)
80004398:	c1a16a7b          	.4byte	0xc1a16a7b
8000439c:	a160                	.2byte	0xa160
8000439e:	c4e2c23b          	.4byte	0xc4e2c23b
800043a2:	4211                	li	tp,4
800043a4:	c19911c3          	fmadd.s	ft3,fs2,fs9,fs8,rtz
800043a8:	8032                	c.mv	zero,a2
800043aa:	c216                	sw	t0,4(sp)
800043ac:	d140                	sw	s0,36(a0)
800043ae:	41fc                	lw	a5,68(a1)
800043b0:	1922                	slli	s2,s2,0x28
800043b2:	8c38c223          	.4byte	0x8c38c223
800043b6:	c219                	beqz	a2,800043bc <coeffs+0xc60>
800043b8:	9178                	.2byte	0x9178
800043ba:	41d1                	li	gp,20
800043bc:	39e9                	jal	80004096 <coeffs+0x93a>
800043be:	9aabc0eb          	.4byte	0x9aabc0eb
800043c2:	c1b2                	sw	a2,192(sp)
800043c4:	e001                	bnez	s0,800043c4 <coeffs+0xc68>
800043c6:	4050                	lw	a2,4(s0)
800043c8:	f9ce                	fsw	fs3,240(sp)
800043ca:	4244                	lw	s1,4(a2)
800043cc:	d148                	sw	a0,36(a0)
800043ce:	4086                	lw	ra,64(sp)
800043d0:	7a52                	flw	fs4,52(sp)
800043d2:	c1ed                	beqz	a1,800044b4 <coeffs+0xd58>
800043d4:	6ad1                	lui	s5,0x14
800043d6:	c09a                	sw	t1,64(sp)
800043d8:	e885                	bnez	s1,80004408 <coeffs+0xcac>
800043da:	413c                	lw	a5,64(a0)
800043dc:	4472                	lw	s0,28(sp)
800043de:	c225                	beqz	a2,8000443e <coeffs+0xce2>
800043e0:	3f91da83          	lhu	s5,1017(gp) # 2e90854f <buflen.1+0x2e90850f>
800043e4:	c050                	sw	a2,4(s0)
800043e6:	4158                	lw	a4,4(a0)
800043e8:	a722                	.2byte	0xa722
800043ea:	be3c4237          	lui	tp,0xbe3c4
800043ee:	6d34bf87          	.4byte	0x6d34bf87
800043f2:	c118                	sw	a4,0(a0)
800043f4:	7169                	addi	sp,sp,-304
800043f6:	c0b1                	beqz	s1,8000443a <coeffs+0xcde>
800043f8:	5788                	lw	a0,40(a5)
800043fa:	c1a4                	sw	s1,64(a1)
800043fc:	f098                	fsw	fa4,32(s1)
800043fe:	423e                	lw	tp,204(sp)
80004400:	ff5c                	fsw	fa5,60(a4)
80004402:	3cc641b3          	.4byte	0x3cc641b3
80004406:	af00422b          	.4byte	0xaf00422b
8000440a:	a96441f3          	.4byte	0xa96441f3
8000440e:	4116                	lw	sp,68(sp)
80004410:	e3bc                	fsw	fa5,64(a5)
80004412:	4184                	lw	s1,0(a1)
80004414:	ddbe                	sw	a5,248(sp)
80004416:	c21e                	sw	t2,4(sp)
80004418:	23e4                	.2byte	0x23e4
8000441a:	4148                	lw	a0,4(a0)
8000441c:	6c01                	.2byte	0x6c01
8000441e:	9a7c4043          	.4byte	0x9a7c4043
80004422:	c10d                	beqz	a0,80004444 <coeffs+0xce8>
80004424:	118c                	addi	a1,sp,224
80004426:	828041c7          	.4byte	0x828041c7
8000442a:	c175                	beqz	a0,8000450e <coeffs+0xdb2>
8000442c:	1f75                	addi	t5,t5,-3 # 40e84ffd <buflen.1+0x40e84fbd>
8000442e:	3ec0                	.2byte	0x3ec0
80004430:	fc90                	fsw	fa2,56(s1)
80004432:	4211                	li	tp,4
80004434:	97e4                	.2byte	0x97e4
80004436:	c21c                	sw	a5,0(a2)
80004438:	1902                	slli	s2,s2,0x20
8000443a:	422c                	lw	a1,64(a2)
8000443c:	c20f50c7          	.4byte	0xc20f50c7
80004440:	d870                	sw	a2,116(s0)
80004442:	4161                	li	sp,24
80004444:	12d2                	slli	t0,t0,0x34
80004446:	4229                	li	tp,10
80004448:	12c0                	addi	s0,sp,356
8000444a:	b8f24193          	xori	gp,tp,-1137
8000444e:	4209                	li	tp,2
80004450:	ea24                	fsw	fs1,80(a2)
80004452:	c148                	sw	a0,4(a0)
80004454:	c19e78fb          	.4byte	0xc19e78fb
80004458:	7482                	flw	fs1,32(sp)
8000445a:	422c                	lw	a1,64(a2)
8000445c:	544c                	lw	a1,44(s0)
8000445e:	421a                	lw	tp,132(sp)
80004460:	f396                	fsw	ft5,228(sp)
80004462:	422e                	lw	tp,200(sp)
80004464:	1ba2                	slli	s7,s7,0x28
80004466:	421c                	lw	a5,0(a2)
80004468:	a698                	.2byte	0xa698
8000446a:	9ee0c147          	.4byte	0x9ee0c147
8000446e:	c17c                	sw	a5,68(a0)
80004470:	2518                	.2byte	0x2518
80004472:	c184                	sw	s1,0(a1)
80004474:	d52c                	sw	a1,104(a0)
80004476:	6e3e4187          	.4byte	0x6e3e4187
8000447a:	c190                	sw	a2,0(a1)
8000447c:	12df c230 9d70      	.byte	0xdf, 0x12, 0x30, 0xc2, 0x70, 0x9d
80004482:	411c                	lw	a5,0(a0)
80004484:	5f9f c216 5de8      	.byte	0x9f, 0x5f, 0x16, 0xc2, 0xe8, 0x5d
8000448a:	4176                	lw	sp,92(sp)
8000448c:	cd8d                	beqz	a1,800044c6 <coeffs+0xd6a>
8000448e:	c1bc                	sw	a5,64(a1)
80004490:	7aba                	flw	fs5,172(sp)
80004492:	c1da                	sw	s6,192(sp)
80004494:	c1b0bf1b          	.4byte	0xc1b0bf1b
80004498:	9ff4                	.2byte	0x9ff4
8000449a:	701041eb          	.4byte	0x701041eb
8000449e:	415d                	li	sp,23
800044a0:	c23cd6c7          	.4byte	0xc23cd6c7
800044a4:	90a6                	add	ra,ra,s1
800044a6:	23bdc20f          	.4byte	0x23bdc20f
800044aa:	25c8c20f          	.4byte	0x25c8c20f
800044ae:	421d                	li	tp,7
800044b0:	5115                	li	sp,-27
800044b2:	c1c8                	sw	a0,4(a1)
800044b4:	c22b0abb          	.4byte	0xc22b0abb
800044b8:	2b00                	.2byte	0x2b00
800044ba:	c23a                	sw	a4,4(sp)
800044bc:	4d90                	lw	a2,24(a1)
800044be:	421c                	lw	a5,0(a2)
800044c0:	0816                	slli	a6,a6,0x5
800044c2:	4246                	lw	tp,80(sp)
800044c4:	bcc4                	.2byte	0xbcc4
800044c6:	41ae                	lw	gp,200(sp)
800044c8:	0d04                	addi	s1,sp,656
800044ca:	41bc                	lw	a5,64(a1)
800044cc:	c9cc                	sw	a1,20(a1)
800044ce:	c150                	sw	a2,4(a0)
800044d0:	de1c                	sw	a5,56(a2)
800044d2:	f608c23f bc4f4184 	.8byte	0xbc4f4184f608c23f
800044da:	1578c1c3          	.4byte	0x1578c1c3
800044de:	b5204237          	lui	tp,0xb5204
800044e2:	40b4                	lw	a3,64(s1)
800044e4:	e0cc                	fsw	fa1,4(s1)
800044e6:	4150                	lw	a2,4(a0)
800044e8:	247e                	.2byte	0x247e
800044ea:	c1a0                	sw	s0,64(a1)
800044ec:	8418                	.2byte	0x8418
800044ee:	421c                	lw	a5,0(a2)
800044f0:	ba70                	.2byte	0xba70
800044f2:	c19f da8c 413e      	.byte	0x9f, 0xc1, 0x8c, 0xda, 0x3e, 0x41
800044f8:	713a                	flw	ft2,172(sp)
800044fa:	4234                	lw	a3,64(a2)
800044fc:	4a24                	lw	s1,80(a2)
800044fe:	421f ae08 41c2      	.byte	0x1f, 0x42, 0x08, 0xae, 0xc2, 0x41
80004504:	22cc                	.2byte	0x22cc
80004506:	4128                	lw	a0,64(a0)
80004508:	1ca2                	slli	s9,s9,0x28
8000450a:	19a6c207          	.4byte	0x19a6c207
8000450e:	423c                	lw	a5,64(a2)
80004510:	a926                	.2byte	0xa926
80004512:	4219                	li	tp,6
80004514:	b356                	.2byte	0xb356
80004516:	4236                	lw	tp,76(sp)
80004518:	d6a8                	sw	a0,104(a3)
8000451a:	412d                	li	sp,11
8000451c:	d25e                	sw	s7,36(sp)
8000451e:	4224                	lw	s1,64(a2)
80004520:	dd50                	sw	a2,60(a0)
80004522:	c220                	sw	s0,64(a2)
80004524:	a3dc                	.2byte	0xa3dc
80004526:	41c8                	lw	a0,4(a1)
80004528:	f04c                	fsw	fa1,36(s0)
8000452a:	176841f3          	.4byte	0x176841f3
8000452e:	c174                	sw	a3,68(a0)
80004530:	4732                	lw	a4,12(sp)
80004532:	4201                	li	tp,0
80004534:	cd24                	sw	s1,88(a0)
80004536:	70924207          	.4byte	0x70924207
8000453a:	c1d1                	beqz	a1,800045be <coeffs+0xe62>
8000453c:	9e90                	.2byte	0x9e90
8000453e:	41fe                	lw	gp,220(sp)
80004540:	40b95c2f          	.4byte	0x40b95c2f
80004544:	4e3a                	lw	t3,140(sp)
80004546:	423d                	li	tp,15
80004548:	c655                	beqz	a2,800045f4 <coeffs+0xe98>
8000454a:	c1f9                	beqz	a1,80004610 <coeffs+0xeb4>
8000454c:	6b48                	flw	fa0,20(a4)
8000454e:	40fa                	lw	ra,156(sp)
80004550:	24f4                	.2byte	0x24f4
80004552:	415f 0a89 c0b6      	.byte	0x5f, 0x41, 0x89, 0x0a, 0xb6, 0xc0
80004558:	2e30                	.2byte	0x2e30
8000455a:	4066                	.2byte	0x4066
8000455c:	c1f3403f c22a891f 	.8byte	0xc22a891fc1f3403f
80004564:	50a4                	lw	s1,96(s1)
80004566:	4206                	lw	tp,64(sp)
80004568:	c2251c07          	.4byte	0xc2251c07
8000456c:	9958                	.2byte	0x9958
8000456e:	c149                	beqz	a0,800045f0 <coeffs+0xe94>
80004570:	c5c8                	sw	a0,12(a1)
80004572:	aacec08f          	.4byte	0xaacec08f
80004576:	c238                	sw	a4,64(a2)
80004578:	3865                	jal	80003e30 <coeffs+0x6d4>
8000457a:	c1b6                	sw	a3,192(sp)
8000457c:	c1f1436b          	.4byte	0xc1f1436b
80004580:	7798                	flw	fa4,40(a5)
80004582:	4165                	li	sp,25
80004584:	c6b0                	sw	a2,72(a3)
80004586:	c0d1                	beqz	s1,8000460a <coeffs+0xeae>
80004588:	c204880f          	.4byte	0xc204880f
8000458c:	4030708f          	.4byte	0x4030708f
80004590:	15fc                	addi	a5,sp,748
80004592:	c12e                	sw	a1,128(sp)
80004594:	db38                	sw	a4,112(a4)
80004596:	41dd                	li	gp,23
80004598:	34c8                	.2byte	0x34c8
8000459a:	c0c1                	beqz	s1,8000461a <coeffs+0xebe>
8000459c:	59c0                	lw	s0,52(a1)
8000459e:	bf8c                	.2byte	0xbf8c
800045a0:	f86e                	fsw	fs11,48(sp)
800045a2:	5cea4033          	.4byte	0x5cea4033
800045a6:	c1cc                	sw	a1,4(a1)
800045a8:	9758                	.2byte	0x9758
800045aa:	4206                	lw	tp,64(sp)
800045ac:	e518                	fsw	fa4,8(a0)
800045ae:	c16d                	beqz	a0,80004690 <coeffs+0xf34>
800045b0:	6150                	flw	fa2,4(a0)
800045b2:	c226                	sw	s1,4(sp)
800045b4:	20f1                	jal	80004680 <coeffs+0xf24>
800045b6:	c22a                	sw	a0,4(sp)
800045b8:	29fe                	.2byte	0x29fe
800045ba:	c204                	sw	s1,0(a2)
800045bc:	28d8                	.2byte	0x28d8
800045be:	d2b84163          	blt	a6,a1,80003ae0 <coeffs+0x384>
800045c2:	c234                	sw	a3,64(a2)
800045c4:	34a0                	.2byte	0x34a0
800045c6:	c164                	sw	s1,68(a0)
800045c8:	d0c2                	sw	a6,96(sp)
800045ca:	c1df ed0c 4195      	.byte	0xdf, 0xc1, 0x0c, 0xed, 0x95, 0x41
800045d0:	630c                	flw	fa1,0(a4)
800045d2:	41f0                	lw	a2,68(a1)
800045d4:	f504                	fsw	fs1,40(a0)
800045d6:	41cc                	lw	a1,4(a1)
800045d8:	5664                	lw	s1,108(a2)
800045da:	4219                	li	tp,6
800045dc:	a868                	.2byte	0xa868
800045de:	4215                	li	tp,5
800045e0:	2c98                	.2byte	0x2c98
800045e2:	3a5e4113          	xori	sp,t3,933
800045e6:	423c                	lw	a5,64(a2)
800045e8:	7bde                	flw	fs7,244(sp)
800045ea:	c1c9                	beqz	a1,8000466c <coeffs+0xf10>
800045ec:	c2352d93          	slti	s11,a0,-989
800045f0:	7070                	flw	fa2,100(s0)
800045f2:	c244                	sw	s1,4(a2)
800045f4:	5dee                	lw	s11,248(sp)
800045f6:	4002                	.2byte	0x4002
800045f8:	9e92                	add	t4,t4,tp
800045fa:	b5d0c1cb          	.4byte	0xb5d0c1cb
800045fe:	ed084173          	.4byte	0xed084173
80004602:	4235                	li	tp,13
80004604:	5d60                	lw	s0,124(a0)
80004606:	c109                	beqz	a0,80004608 <coeffs+0xeac>
80004608:	0b82                	c.slli64	s7
8000460a:	c200                	sw	s0,0(a2)
8000460c:	61d8                	flw	fa4,4(a1)
8000460e:	c176                	sw	t4,128(sp)
80004610:	d37a                	sw	t5,164(sp)
80004612:	c1f6                	sw	t4,192(sp)
80004614:	3790                	.2byte	0x3790
80004616:	04bc413f ab944206 	.8byte	0xab94420604bc413f
8000461e:	9f6e41af          	.4byte	0x9f6e41af
80004622:	4211                	li	tp,4
80004624:	3828                	.2byte	0x3828
80004626:	4189                	li	gp,2
80004628:	c22ba37b          	.4byte	0xc22ba37b
8000462c:	3e1e                	.2byte	0x3e1e
8000462e:	f6484233          	.4byte	0xf6484233
80004632:	41c4                	lw	s1,4(a1)
80004634:	9af1                	andi	a3,a3,-4
80004636:	2150c1cf          	fnmadd.s	ft3,ft1,fs5,ft4,rmm
8000463a:	4110                	lw	a2,0(a0)
8000463c:	50d4                	lw	a3,36(s1)
8000463e:	958041eb          	.4byte	0x958041eb
80004642:	411c                	lw	a5,0(a0)
80004644:	3fe4                	.2byte	0x3fe4
80004646:	41f8                	lw	a4,68(a1)
80004648:	bfec2203          	lw	tp,-1026(s8)
8000464c:	a468                	.2byte	0xa468
8000464e:	c122                	sw	s0,128(sp)
80004650:	d3a8                	sw	a0,96(a5)
80004652:	40d4                	lw	a3,4(s1)
80004654:	2aa8                	.2byte	0x2aa8
80004656:	c158                	sw	a4,4(a0)
80004658:	0165                	addi	sp,sp,25
8000465a:	c1b6                	sw	a3,192(sp)
8000465c:	9a66                	add	s4,s4,s9
8000465e:	c208                	sw	a0,0(a2)
80004660:	a098                	.2byte	0xa098
80004662:	15dfc183          	lbu	gp,349(t6)
80004666:	4004                	lw	s1,0(s0)
80004668:	8ff1                	and	a5,a5,a2
8000466a:	02f4c1eb          	.4byte	0x2f4c1eb
8000466e:	c179                	beqz	a0,80004734 <data+0x38>
80004670:	c23798c3          	.4byte	0xc23798c3
80004674:	ba08                	.2byte	0xba08
80004676:	c09c                	sw	a5,0(s1)
80004678:	acb8                	.2byte	0xacb8
8000467a:	4246                	lw	tp,80(sp)
8000467c:	5446                	lw	s0,112(sp)
8000467e:	4246                	lw	tp,80(sp)
80004680:	1166                	slli	sp,sp,0x39
80004682:	4212                	lw	tp,4(sp)
80004684:	5eca                	lw	t4,176(sp)
80004686:	c201                	beqz	a2,80004686 <coeffs+0xf2a>
80004688:	10c4                	addi	s1,sp,100
8000468a:	c17d                	beqz	a0,80004770 <data+0x74>
8000468c:	5856                	lw	a6,116(sp)
8000468e:	c231                	beqz	a2,800046d2 <coeffs+0xf76>
80004690:	de34                	sw	a3,120(a2)
80004692:	41ec                	lw	a1,68(a1)
80004694:	3f74                	.2byte	0x3f74
80004696:	c201                	beqz	a2,80004696 <coeffs+0xf3a>
80004698:	fae8                	fsw	fa0,116(a3)
8000469a:	41dc                	lw	a5,4(a1)
8000469c:	1d10                	addi	a2,sp,688
8000469e:	4180                	lw	s0,0(a1)
800046a0:	5ca0                	lw	s0,120(s1)
800046a2:	d9f8420b          	.4byte	0xd9f8420b
800046a6:	420a                	lw	tp,128(sp)
800046a8:	3298                	.2byte	0x3298
800046aa:	412d                	li	sp,11
800046ac:	5f0c                	lw	a1,56(a4)
800046ae:	f37f4117          	auipc	sp,0xf37f4
800046b2:	c224                	sw	s1,64(a2)
800046b4:	c1f1560b          	.4byte	0xc1f1560b
800046b8:	ff48                	fsw	fa0,60(a4)
800046ba:	c131                	beqz	a0,800046fe <data+0x2>
800046bc:	63c0                	flw	fs0,4(a5)
800046be:	4194                	lw	a3,0(a1)
800046c0:	8b12                	mv	s6,tp
800046c2:	c244                	sw	s1,4(a2)
800046c4:	1f1e                	slli	t5,t5,0x27
800046c6:	4214                	lw	a3,0(a2)
800046c8:	773a                	flw	fa4,172(sp)
800046ca:	c226                	sw	s1,4(sp)
800046cc:	7b18                	flw	fa4,48(a4)
800046ce:	40f0                	lw	a2,68(s1)
800046d0:	d719                	beqz	a4,800045de <coeffs+0xe82>
800046d2:	dfb0c1d3          	.4byte	0xdfb0c1d3
800046d6:	c165                	beqz	a0,800047b6 <data+0xba>
800046d8:	e9f8                	fsw	fa4,84(a1)
800046da:	41ba                	lw	gp,140(sp)
800046dc:	2138                	.2byte	0x2138
800046de:	40e2                	lw	ra,24(sp)
800046e0:	c972                	sw	t3,144(sp)
800046e2:	4216                	lw	tp,68(sp)
800046e4:	ad04                	.2byte	0xad04
800046e6:	036a422f          	.4byte	0x36a422f
800046ea:	4226                	lw	tp,72(sp)
800046ec:	30b0                	.2byte	0x30b0
800046ee:	a8f44227          	.4byte	0xa8f44227
800046f2:	b024c12f          	.4byte	0xb024c12f
800046f6:	4224                	lw	s1,64(a2)
800046f8:	84f4                	.2byte	0x84f4
800046fa:	4225                	li	tp,9

800046fc <data>:
800046fc:	e41f 40ca 2874      	.byte	0x1f, 0xe4, 0xca, 0x40, 0x74, 0x28
80004702:	41a8                	lw	a0,64(a1)
80004704:	873c                	.2byte	0x873c
80004706:	c220                	sw	s0,64(a2)
80004708:	c22c91af          	.4byte	0xc22c91af
8000470c:	4088376f          	jal	a4,80087b14 <__global_pointer$+0x80cd8>
80004710:	b1a6                	.2byte	0xb1a6
80004712:	db3e420b          	.4byte	0xdb3e420b
80004716:	c1ea                	sw	s10,192(sp)
80004718:	20e4                	.2byte	0x20e4
8000471a:	4229                	li	tp,10
8000471c:	039c                	addi	a5,sp,448
8000471e:	c130                	sw	a2,64(a0)
80004720:	cd60                	sw	s0,92(a0)
80004722:	4189                	li	gp,2
80004724:	1449                	addi	s0,s0,-14
80004726:	c0fd                	beqz	s1,8000480c <data+0x110>
80004728:	b131                	j	80004334 <coeffs+0xbd8>
8000472a:	405c                	lw	a5,4(s0)
8000472c:	453c                	lw	a5,72(a0)
8000472e:	41aa                	lw	gp,136(sp)
80004730:	21fc                	.2byte	0x21fc
80004732:	4226                	lw	tp,72(sp)
80004734:	fae8                	fsw	fa0,116(a3)
80004736:	422d                	li	tp,11
80004738:	19e8                	addi	a0,sp,252
8000473a:	c158                	sw	a4,4(a0)
8000473c:	e704                	fsw	fs1,8(a4)
8000473e:	c21f 77e8 41f3      	.byte	0x1f, 0xc2, 0xe8, 0x77, 0xf3, 0x41
80004744:	5c04                	lw	s1,56(s0)
80004746:	c130                	sw	a2,64(a0)
80004748:	98f8                	.2byte	0x98f8
8000474a:	4119                	li	sp,6
8000474c:	c241ded7          	.4byte	0xc241ded7
80004750:	c9d0                	sw	a2,20(a1)
80004752:	4185                	li	gp,1
80004754:	bdda                	.2byte	0xbdda
80004756:	c1a4                	sw	s1,64(a1)
80004758:	748c                	flw	fa1,40(s1)
8000475a:	41a9                	li	gp,10
8000475c:	e89c                	fsw	fa5,16(s1)
8000475e:	41e0                	lw	s0,68(a1)
80004760:	d9f1                	beqz	a1,80004734 <data+0x38>
80004762:	4081                	li	ra,0
80004764:	c1b6523b          	.4byte	0xc1b6523b
80004768:	41235447          	fmsub.s	fs0,ft6,fs2,fs0,unknown
8000476c:	36aa                	.2byte	0x36aa
8000476e:	c226                	sw	s1,4(sp)
80004770:	5dc8                	lw	a0,60(a1)
80004772:	c23a                	sw	a4,4(sp)
80004774:	339c                	.2byte	0x339c
80004776:	3fc6                	.2byte	0x3fc6
80004778:	9768                	.2byte	0x9768
8000477a:	416c                	lw	a1,68(a0)
8000477c:	6ce4                	flw	fs1,92(s1)
8000477e:	a98041c3          	fmadd.s	ft3,ft0,fs8,fs5,rmm
80004782:	4136                	lw	sp,76(sp)
80004784:	2854                	.2byte	0x2854
80004786:	41ad                	li	gp,11
80004788:	8541                	srai	a0,a0,0x10
8000478a:	c1aa                	sw	a0,192(sp)
8000478c:	3f9e                	.2byte	0x3f9e
8000478e:	c06a                	sw	s10,0(sp)
80004790:	268c                	.2byte	0x268c
80004792:	4229                	li	tp,10
80004794:	437c                	lw	a5,68(a4)
80004796:	c1e8                	sw	a0,68(a1)
80004798:	5b20                	lw	s0,112(a4)
8000479a:	420d                	li	tp,3
8000479c:	34f0                	.2byte	0x34f0
8000479e:	4118                	lw	a4,0(a0)
800047a0:	eee4                	fsw	fs1,92(a3)
800047a2:	4150                	lw	a2,4(a0)
800047a4:	6738                	flw	fa4,72(a4)
800047a6:	a04ac133          	.4byte	0xa04ac133
800047aa:	c199                	beqz	a1,800047b0 <data+0xb4>
800047ac:	4092edb7          	lui	s11,0x4092e
800047b0:	bdd0                	.2byte	0xbdd0
800047b2:	c18d                	beqz	a1,800047d4 <data+0xd8>
800047b4:	52c4                	lw	s1,36(a3)
800047b6:	418a                	lw	gp,128(sp)
800047b8:	dad0                	sw	a2,52(a3)
800047ba:	4169                	li	sp,26
800047bc:	22f4                	.2byte	0x22f4
800047be:	c215                	beqz	a2,800047e2 <data+0xe6>
800047c0:	eda0                	fsw	fs0,88(a1)
800047c2:	c22e                	sw	a1,4(sp)
800047c4:	461f c1ce 01cb      	.byte	0x1f, 0x46, 0xce, 0xc1, 0xcb, 0x01
800047ca:	ee94c20f          	.4byte	0xee94c20f
800047ce:	e03f41b7          	lui	gp,0xe03f4
800047d2:	b87c4067          	.4byte	0xb87c4067
800047d6:	420d                	li	tp,3
800047d8:	7300                	flw	fs0,32(a4)
800047da:	3f8d                	jal	8000474c <data+0x50>
800047dc:	46be                	lw	a3,204(sp)
800047de:	c229                	beqz	a2,80004820 <data+0x124>
800047e0:	70a1                	lui	ra,0xfffe8
800047e2:	c215                	beqz	a2,80004806 <data+0x10a>
800047e4:	c21abf57          	.4byte	0xc21abf57
800047e8:	7d68                	flw	fa0,124(a0)
800047ea:	ce69c207          	.4byte	0xce69c207
800047ee:	c914c207          	.4byte	0xc914c207
800047f2:	414d                	li	sp,19
800047f4:	50e4                	lw	s1,100(s1)
800047f6:	e80841f7          	.4byte	0xe80841f7
800047fa:	4221                	li	tp,8
800047fc:	c1cdc6b3          	.4byte	0xc1cdc6b3
80004800:	c9d1                	beqz	a1,80004894 <data+0x198>
80004802:	b5314023          	.4byte	0xb5314023
80004806:	c1f6                	sw	t4,192(sp)
80004808:	f15c                	fsw	fa5,36(a0)
8000480a:	41a4                	lw	s1,64(a1)
8000480c:	e6b8                	fsw	fa4,72(a3)
8000480e:	c0a4                	sw	s1,64(s1)
80004810:	f158                	fsw	fa4,36(a0)
80004812:	c11d                	beqz	a0,80004838 <data+0x13c>
80004814:	9e60                	.2byte	0x9e60
80004816:	40be                	lw	ra,204(sp)
80004818:	8f9a                	mv	t6,t1
8000481a:	c236                	sw	a3,4(sp)
8000481c:	409d                	li	ra,7
8000481e:	f9fcc23b          	.4byte	0xf9fcc23b
80004822:	4232                	lw	tp,12(sp)
80004824:	7efc                	flw	fa5,124(a3)
80004826:	c16d                	beqz	a0,80004908 <data+0x20c>
80004828:	40f8e8cf          	fnmadd.s	fa7,fa7,fa5,fs0,unknown
8000482c:	c9d4                	sw	a3,20(a1)
8000482e:	365dc1b7          	lui	gp,0x365dc
80004832:	c23e                	sw	a5,4(sp)
80004834:	d868                	sw	a0,116(s0)
80004836:	c1dc                	sw	a5,4(a1)
80004838:	1f7c                	addi	a5,sp,956
8000483a:	c124                	sw	s1,64(a0)
8000483c:	23fd                	jal	80004e2a <data+0x72e>
8000483e:	c225                	beqz	a2,8000489e <data+0x1a2>
80004840:	f441                	bnez	s0,800047c8 <data+0xcc>
80004842:	c058                	sw	a4,4(s0)
80004844:	655e                	flw	fa0,212(sp)
80004846:	407f                	.2byte	0x407f
80004848:	a694                	.2byte	0xa694
8000484a:	41fd                	li	gp,31
8000484c:	1140                	addi	s0,sp,164
8000484e:	44b4c247          	.4byte	0x44b4c247
80004852:	c129                	beqz	a0,80004894 <data+0x198>
80004854:	823c                	.2byte	0x823c
80004856:	c189                	beqz	a1,80004858 <data+0x15c>
80004858:	57fd                	li	a5,-1
8000485a:	c228                	sw	a0,64(a2)
8000485c:	e311                	bnez	a4,80004860 <data+0x164>
8000485e:	03a74003          	lbu	zero,58(a4)
80004862:	c0bc                	sw	a5,64(s1)
80004864:	aaca                	.2byte	0xaaca
80004866:	df90c1cf          	.4byte	0xdf90c1cf
8000486a:	4190                	lw	a2,0(a1)
8000486c:	c22c0e2f          	.4byte	0xc22c0e2f
80004870:	c2342cf3          	csrrs	s9,0xc23,s0
80004874:	5f44                	lw	s1,60(a4)
80004876:	4109                	li	sp,2
80004878:	e312                	fsw	ft4,132(sp)
8000487a:	c195                	beqz	a1,8000489e <data+0x1a2>
8000487c:	7d48                	flw	fa0,60(a0)
8000487e:	40f0                	lw	a2,68(s1)
80004880:	fa70                	fsw	fa2,116(a2)
80004882:	41dd                	li	gp,23
80004884:	78dc                	flw	fa5,52(s1)
80004886:	c240                	sw	s0,4(a2)
80004888:	8d2d                	xor	a0,a0,a1
8000488a:	c23e                	sw	a5,4(sp)
8000488c:	7f1e                	flw	ft10,228(sp)
8000488e:	c200                	sw	s0,0(a2)
80004890:	40fad777          	.4byte	0x40fad777
80004894:	1cc8                	addi	a0,sp,628
80004896:	c22d                	beqz	a2,800048f8 <data+0x1fc>
80004898:	7f76                	flw	ft10,124(sp)
8000489a:	4edfc1e7          	.4byte	0x4edfc1e7
8000489e:	4025                	c.li	zero,9
800048a0:	f218                	fsw	fa4,32(a2)
800048a2:	c101                	beqz	a0,800048a2 <data+0x1a6>
800048a4:	babc                	.2byte	0xbabc
800048a6:	41e6                	lw	gp,88(sp)
800048a8:	e008                	fsw	fa0,0(s0)
800048aa:	41ec                	lw	a1,68(a1)
800048ac:	9720                	.2byte	0x9720
800048ae:	c0b5                	beqz	s1,80004912 <data+0x216>
800048b0:	0ed6                	slli	t4,t4,0x15
800048b2:	2fb7c243          	.4byte	0x2fb7c243
800048b6:	c1f5                	beqz	a1,8000499a <data+0x29e>
800048b8:	91e2                	add	gp,gp,s8
800048ba:	4042                	.2byte	0x4042
800048bc:	c009e18f          	.4byte	0xc009e18f
800048c0:	bcf4                	.2byte	0xbcf4
800048c2:	41ba                	lw	gp,140(sp)
800048c4:	0e58                	addi	a4,sp,788
800048c6:	c174                	sw	a3,68(a0)
800048c8:	eb20                	fsw	fs0,80(a4)
800048ca:	bff5                	j	800048c6 <data+0x1ca>
800048cc:	f2b2                	fsw	fa2,100(sp)
800048ce:	c214                	sw	a3,0(a2)
800048d0:	7698                	flw	fa4,40(a3)
800048d2:	418c                	lw	a1,0(a1)
800048d4:	c550                	sw	a2,12(a0)
800048d6:	2e0040bf 4529416d 	.8byte	0x4529416d2e0040bf
800048de:	c219                	beqz	a2,800048e4 <data+0x1e8>
800048e0:	4688                	lw	a0,8(a3)
800048e2:	41f0                	lw	a2,68(a1)
800048e4:	8972                	mv	s2,t3
800048e6:	c188                	sw	a0,0(a1)
800048e8:	a6b1                	j	80004c34 <data+0x538>
800048ea:	c1fa                	sw	t5,192(sp)
800048ec:	f652                	fsw	fs4,44(sp)
800048ee:	1318420b          	.4byte	0x1318420b
800048f2:	4226                	lw	tp,72(sp)
800048f4:	bd89c23b          	.4byte	0xbd89c23b
800048f8:	d020                	sw	s0,96(s0)
800048fa:	20a0c0ef          	jal	ra,80010b04 <__global_pointer$+0x9cc8>
800048fe:	419a                	lw	gp,132(sp)
80004900:	4884                	lw	s1,16(s1)
80004902:	3fe8                	.2byte	0x3fe8
80004904:	3991                	jal	80004558 <coeffs+0xdfc>
80004906:	c0a4                	sw	s1,64(s1)
80004908:	9132                	add	sp,sp,a2
8000490a:	4214                	lw	a3,0(a2)
8000490c:	62cd                	lui	t0,0x13
8000490e:	c221                	beqz	a2,8000494e <data+0x252>
80004910:	80dc                	.2byte	0x80dc
80004912:	2e893fcb          	.4byte	0x2e893fcb
80004916:	c880c227          	.4byte	0xc880c227
8000491a:	df804143          	.4byte	0xdf804143
8000491e:	422d                	li	tp,11
80004920:	2ed6                	.2byte	0x2ed6
80004922:	4214                	lw	a3,0(a2)
80004924:	7774                	flw	fa3,108(a4)
80004926:	c102                	sw	zero,128(sp)
80004928:	4d94                	lw	a3,24(a1)
8000492a:	2000c143          	fmadd.s	ft2,ft1,ft0,ft4,rmm
8000492e:	4219                	li	tp,6
80004930:	291c                	.2byte	0x291c
80004932:	55ba4133          	.4byte	0x55ba4133
80004936:	f8684223          	.4byte	0xf8684223
8000493a:	c15d                	beqz	a0,800049e0 <data+0x2e4>
8000493c:	5cf8                	lw	a4,124(s1)
8000493e:	5bbac177          	.4byte	0x5bbac177
80004942:	d28ec1c3          	.4byte	0xd28ec1c3
80004946:	4208                	lw	a0,0(a2)
80004948:	9f02                	jalr	t5
8000494a:	c02c                	sw	a1,64(s0)
8000494c:	8d70                	.2byte	0x8d70
8000494e:	422c                	lw	a1,64(a2)
80004950:	d320                	sw	s0,96(a4)
80004952:	c11c                	sw	a5,0(a0)
80004954:	7e72                	flw	ft8,60(sp)
80004956:	b7bac217          	auipc	tp,0xb7bac
8000495a:	c234                	sw	a3,64(a2)
8000495c:	2306                	.2byte	0x2306
8000495e:	c1ee                	sw	s11,192(sp)
80004960:	1959                	addi	s2,s2,-10
80004962:	c09e                	sw	t2,64(sp)
80004964:	1624                	addi	s1,sp,808
80004966:	c1d4                	sw	a3,4(a1)
80004968:	1b31                	addi	s6,s6,-20
8000496a:	c04bc233          	.4byte	0xc04bc233
8000496e:	c156                	sw	s5,128(sp)
80004970:	601c                	flw	fa5,0(s0)
80004972:	535041bb          	.4byte	0x535041bb
80004976:	c011                	beqz	s0,8000497a <data+0x27e>
80004978:	9fc2                	add	t6,t6,a6
8000497a:	c230                	sw	a2,64(a2)
8000497c:	1b5e                	slli	s6,s6,0x37
8000497e:	c1c6                	sw	a7,192(sp)
80004980:	639a                	flw	ft7,132(sp)
80004982:	422a                	lw	tp,136(sp)
80004984:	f170                	fsw	fa2,100(a0)
80004986:	c1f0422b          	.4byte	0xc1f0422b
8000498a:	c171                	beqz	a0,80004a4e <data+0x352>
8000498c:	0308                	addi	a0,sp,384
8000498e:	c0ba                	sw	a4,64(sp)
80004990:	3d19                	jal	800047a6 <data+0xaa>
80004992:	81a4c243          	fmadd.s	ft4,fs1,fs10,fa6,rmm
80004996:	423c                	lw	a5,64(a2)
80004998:	8384                	.2byte	0x8384
8000499a:	c145                	beqz	a0,80004a3a <data+0x33e>
8000499c:	f1bc                	fsw	fa5,96(a1)
8000499e:	4218                	lw	a4,0(a2)
800049a0:	70e4                	flw	fs1,100(s1)
800049a2:	c130                	sw	a2,64(a0)
800049a4:	9774                	.2byte	0x9774
800049a6:	237841cb          	.4byte	0x237841cb
800049aa:	41d4                	lw	a3,4(a1)
800049ac:	51f1                	li	gp,-4
800049ae:	42e8c247          	.4byte	0x42e8c247
800049b2:	4182                	lw	gp,0(sp)
800049b4:	6c5d                	lui	s8,0x17
800049b6:	c215                	beqz	a2,800049da <data+0x2de>
800049b8:	a4bc                	.2byte	0xa4bc
800049ba:	c174                	sw	a3,68(a0)
800049bc:	7398                	flw	fa4,32(a5)
800049be:	66324227          	.4byte	0x66324227
800049c2:	0ce0423b          	.4byte	0xce0423b
800049c6:	4200                	lw	s0,0(a2)
800049c8:	0108                	addi	a0,sp,128
800049ca:	420c                	lw	a1,0(a2)
800049cc:	3a5c                	.2byte	0x3a5c
800049ce:	8e6ec14f          	.4byte	0x8e6ec14f
800049d2:	4230                	lw	a2,64(a2)
800049d4:	494e                	lw	s2,208(sp)
800049d6:	421f ff28 40e8      	.byte	0x1f, 0x42, 0x28, 0xff, 0xe8, 0x40
800049dc:	d2f0                	sw	a2,100(a3)
800049de:	c12c                	sw	a1,64(a0)
800049e0:	c1c5                	beqz	a1,80004a80 <data+0x384>
800049e2:	c212                	sw	tp,4(sp)
800049e4:	12d4                	addi	a3,sp,356
800049e6:	4148                	lw	a0,4(a0)
800049e8:	3664                	.2byte	0x3664
800049ea:	41ce                	lw	gp,208(sp)
800049ec:	ee48                	fsw	fa0,28(a2)
800049ee:	4212                	lw	tp,4(sp)
800049f0:	1080                	addi	s0,sp,96
800049f2:	c21f f6e0 41fc      	.byte	0x1f, 0xc2, 0xe0, 0xf6, 0xfc, 0x41
800049f8:	c2181f67          	.4byte	0xc2181f67
800049fc:	ace8                	.2byte	0xace8
800049fe:	c23c                	sw	a5,64(a2)
80004a00:	d9c0                	sw	s0,52(a1)
80004a02:	41c4                	lw	s1,4(a1)
80004a04:	fe2e                	fsw	fa1,60(sp)
80004a06:	c048                	sw	a0,4(s0)
80004a08:	d491                	beqz	s1,80004914 <data+0x218>
80004a0a:	c03e                	sw	a5,0(sp)
80004a0c:	5f90                	lw	a2,56(a5)
80004a0e:	41ce                	lw	gp,208(sp)
80004a10:	7200                	flw	fs0,32(a2)
80004a12:	c0c0                	sw	s0,4(s1)
80004a14:	b1d8                	.2byte	0xb1d8
80004a16:	420a                	lw	tp,128(sp)
80004a18:	8610                	.2byte	0x8610
80004a1a:	4160                	lw	s0,68(a0)
80004a1c:	d588                	sw	a0,40(a1)
80004a1e:	f6404203          	lbu	tp,-156(zero) # ffffff64 <__global_pointer$+0x7fff9128>
80004a22:	4121                	li	sp,8
80004a24:	3300                	.2byte	0x3300
80004a26:	8398c117          	auipc	sp,0x8398c
80004a2a:	4204                	lw	s1,0(a2)
80004a2c:	c1f6                	sw	t4,192(sp)
80004a2e:	c1bc                	sw	a5,64(a1)
80004a30:	404c6e2f          	.4byte	0x404c6e2f
80004a34:	a598                	.2byte	0xa598
80004a36:	c200                	sw	s0,0(a2)
80004a38:	c1fddac7          	fmsub.s	fs5,fs11,ft11,fs8,unknown
80004a3c:	3d34538f          	.4byte	0x3d34538f
80004a40:	6748                	flw	fa0,12(a4)
80004a42:	ec5c4247          	.4byte	0xec5c4247
80004a46:	c23a                	sw	a4,4(sp)
80004a48:	5e7e                	lw	t3,252(sp)
80004a4a:	4214                	lw	a3,0(a2)
80004a4c:	f5b8                	fsw	fa4,104(a1)
80004a4e:	5cf0422f          	.4byte	0x5cf0422f
80004a52:	422c                	lw	a1,64(a2)
80004a54:	c0b40ce7          	jalr	s9,-1013(s0)
80004a58:	7e0a                	flw	ft8,160(sp)
80004a5a:	c186                	sw	ra,192(sp)
80004a5c:	64d4                	flw	fa3,12(s1)
80004a5e:	c22e                	sw	a1,4(sp)
80004a60:	7ce8                	flw	fa0,124(s1)
80004a62:	c22c                	sw	a1,64(a2)
80004a64:	23d2                	.2byte	0x23d2
80004a66:	c224                	sw	s1,64(a2)
80004a68:	8976                	mv	s2,t4
80004a6a:	422c                	lw	a1,64(a2)
80004a6c:	8d68                	.2byte	0x8d68
80004a6e:	579cc203          	lbu	tp,1401(s9) # fffee579 <__global_pointer$+0x7ffe773d>
80004a72:	4222                	lw	tp,8(sp)
80004a74:	95f2                	add	a1,a1,t3
80004a76:	749fc233          	.4byte	0x749fc233
80004a7a:	c1f0                	sw	a2,68(a1)
80004a7c:	11f0                	addi	a2,sp,236
80004a7e:	45414173          	.4byte	0x45414173
80004a82:	b0d03ffb          	.4byte	0xb0d03ffb
80004a86:	2ef44187          	.4byte	0x2ef44187
80004a8a:	c110                	sw	a2,0(a0)
80004a8c:	cbea                	sw	s10,212(sp)
80004a8e:	47bf4237          	lui	tp,0x47bf4
80004a92:	3fd1                	jal	80004a66 <data+0x36a>
80004a94:	ea3a                	fsw	fa4,20(sp)
80004a96:	42e4c233          	.4byte	0x42e4c233
80004a9a:	f83141e7          	.4byte	0xf83141e7
80004a9e:	c218                	sw	a4,0(a2)
80004aa0:	b7c8                	.2byte	0xb7c8
80004aa2:	c08d                	beqz	s1,80004ac4 <data+0x3c8>
80004aa4:	9424                	.2byte	0x9424
80004aa6:	4140                	lw	s0,4(a0)
80004aa8:	64b0                	flw	fa2,72(s1)
80004aaa:	c13d                	beqz	a0,80004b10 <data+0x414>
80004aac:	0fea                	slli	t6,t6,0x1a
80004aae:	fee44243          	.4byte	0xfee44243
80004ab2:	41ee                	lw	gp,216(sp)
80004ab4:	cb88                	sw	a0,16(a5)
80004ab6:	40cd                	li	ra,19
80004ab8:	603d                	c.lui	zero,0xf
80004aba:	bf98                	.2byte	0xbf98
80004abc:	cd74                	sw	a3,92(a0)
80004abe:	41ed                	li	gp,27
80004ac0:	3454                	.2byte	0x3454
80004ac2:	9214411b          	.4byte	0x9214411b
80004ac6:	c161                	beqz	a0,80004b86 <data+0x48a>
80004ac8:	b8e4                	.2byte	0xb8e4
80004aca:	41bd                	li	gp,15
80004acc:	a051                	j	80004b50 <data+0x454>
80004ace:	4032                	.2byte	0x4032
80004ad0:	33bc                	.2byte	0x33bc
80004ad2:	41f2                	lw	gp,28(sp)
80004ad4:	6292                	flw	ft5,4(sp)
80004ad6:	c22c                	sw	a1,64(a2)
80004ad8:	14c8                	addi	a0,sp,612
80004ada:	9cf64113          	xori	sp,a2,-1585
80004ade:	4214                	lw	a3,0(a2)
80004ae0:	8665                	srai	a2,a2,0x19
80004ae2:	c208                	sw	a0,0(a2)
80004ae4:	ea60                	fsw	fs0,84(a2)
80004ae6:	4014                	lw	a3,0(s0)
80004ae8:	f071                	bnez	s0,80004aac <data+0x3b0>
80004aea:	c236                	sw	a3,4(sp)
80004aec:	2ec8                	.2byte	0x2ec8
80004aee:	c22e                	sw	a1,4(sp)
80004af0:	c5a0                	sw	s0,72(a1)
80004af2:	40ed                	li	ra,27
80004af4:	5582                	lw	a1,32(sp)
80004af6:	c1ce                	sw	s3,192(sp)
80004af8:	2b68                	.2byte	0x2b68
80004afa:	41ad                	li	gp,11
80004afc:	6d22                	flw	fs10,8(sp)
80004afe:	c222                	sw	s0,4(sp)
80004b00:	ada8                	.2byte	0xada8
80004b02:	4224                	lw	s1,64(a2)
80004b04:	7609                	lui	a2,0xfffe2
80004b06:	c215                	beqz	a2,80004b2a <data+0x42e>
80004b08:	c232a137          	lui	sp,0xc232a
80004b0c:	c0e640d7          	.4byte	0xc0e640d7
80004b10:	6042                	flw	ft0,16(sp)
80004b12:	c201                	beqz	a2,80004b12 <data+0x416>
80004b14:	003a                	c.slli	zero,0xe
80004b16:	4209                	li	tp,2
80004b18:	fda0                	fsw	fs0,120(a1)
80004b1a:	4091                	li	ra,4
80004b1c:	a30c                	.2byte	0xa30c
80004b1e:	abb04153          	.4byte	0xabb04153
80004b22:	c06d                	beqz	s0,80004c04 <data+0x508>
80004b24:	e688                	fsw	fa0,8(a3)
80004b26:	422a                	lw	tp,136(sp)
80004b28:	e2b4                	fsw	fa3,64(a3)
80004b2a:	b692413f 0182c1be 	.8byte	0x182c1beb692413f
80004b32:	bf58                	.2byte	0xbf58
80004b34:	ca54                	sw	a3,20(a2)
80004b36:	c21c                	sw	a5,0(a2)
80004b38:	c230748f          	.4byte	0xc230748f
80004b3c:	92f2                	add	t0,t0,t3
80004b3e:	c224                	sw	s1,64(a2)
80004b40:	ed91                	bnez	a1,80004b5c <data+0x460>
80004b42:	c052                	sw	s4,0(sp)
80004b44:	cfc8                	sw	a0,28(a5)
80004b46:	41ec                	lw	a1,68(a1)
80004b48:	5c54                	lw	a3,60(s0)
80004b4a:	413a                	lw	sp,140(sp)
80004b4c:	29f6                	.2byte	0x29f6
80004b4e:	c1b8                	sw	a4,64(a1)
80004b50:	0552                	slli	a0,a0,0x14
80004b52:	4212                	lw	tp,4(sp)
80004b54:	4774                	lw	a3,76(a4)
80004b56:	c1e9                	beqz	a1,80004c18 <data+0x51c>
80004b58:	7804                	flw	fs1,48(s0)
80004b5a:	8114c20f          	.4byte	0x8114c20f
80004b5e:	c23e                	sw	a5,4(sp)
80004b60:	55d8                	lw	a4,44(a1)
80004b62:	41b9                	li	gp,14
80004b64:	c1fcd0eb          	.4byte	0xc1fcd0eb
80004b68:	afdc                	.2byte	0xafdc
80004b6a:	c224                	sw	s1,64(a2)
80004b6c:	38c0                	.2byte	0x38c0
80004b6e:	99b1c19b          	.4byte	0x99b1c19b
80004b72:	c0ec                	sw	a1,68(s1)
80004b74:	cbb0                	sw	a2,80(a5)
80004b76:	260441f3          	.4byte	0x260441f3
80004b7a:	c120                	sw	s0,64(a0)
80004b7c:	cb20                	sw	s0,80(a4)
80004b7e:	c181                	beqz	a1,80004b7e <data+0x482>
80004b80:	6fce                	flw	ft11,208(sp)
80004b82:	422c                	lw	a1,64(a2)
80004b84:	c09555c7          	fmsub.s	fa1,fa0,fs1,fs8,unknown
80004b88:	a4ac                	.2byte	0xa4ac
80004b8a:	41d4                	lw	a3,4(a1)
80004b8c:	f074                	fsw	fa3,100(s0)
80004b8e:	c21c                	sw	a5,0(a2)
80004b90:	c1a354fb          	.4byte	0xc1a354fb
80004b94:	dbee                	sw	s11,244(sp)
80004b96:	c196                	sw	t0,192(sp)
80004b98:	f0a0                	fsw	fs0,96(s1)
80004b9a:	f59041bf 0edc41ce 	.8byte	0xedc41cef59041bf
80004ba2:	c1d1                	beqz	a1,80004c26 <data+0x52a>
80004ba4:	3c0c                	.2byte	0x3c0c
80004ba6:	c160                	sw	s0,68(a0)
80004ba8:	e082                	fsw	ft0,64(sp)
80004baa:	3118c23f 955f41b8 	.8byte	0x955f41b83118c23f
80004bb2:	c04d                	beqz	s0,80004c54 <data+0x558>
80004bb4:	5511                	li	a0,-28
80004bb6:	c228                	sw	a0,64(a2)
80004bb8:	0b38                	addi	a4,sp,408
80004bba:	41ff                	.2byte	0x41ff
80004bbc:	f7d0                	fsw	fa2,44(a5)
80004bbe:	422d                	li	tp,11
80004bc0:	12d2                	slli	t0,t0,0x34
80004bc2:	4216                	lw	tp,68(sp)
80004bc4:	1a89                	addi	s5,s5,-30 # 13fe2 <buflen.1+0x13fa2>
80004bc6:	3a56c0cf          	.4byte	0x3a56c0cf
80004bca:	c1ec                	sw	a1,68(a1)
80004bcc:	3044                	.2byte	0x3044
80004bce:	41c0                	lw	s0,4(a1)
80004bd0:	e3d8                	fsw	fa4,4(a5)
80004bd2:	4165                	li	sp,25
80004bd4:	54bc                	lw	a5,104(s1)
80004bd6:	c176                	sw	t4,128(sp)
80004bd8:	2e1c                	.2byte	0x2e1c
80004bda:	707c41d3          	.4byte	0x707c41d3
80004bde:	25c0c147          	.4byte	0x25c0c147
80004be2:	4040                	lw	s0,4(s0)
80004be4:	e730                	fsw	fa2,72(a4)
80004be6:	420c                	lw	a1,0(a2)
80004be8:	0f04                	addi	s1,sp,912
80004bea:	4191                	li	gp,4
80004bec:	6f24                	flw	fs1,88(a4)
80004bee:	4236                	lw	tp,76(sp)
80004bf0:	3428                	.2byte	0x3428
80004bf2:	8200417b          	.4byte	0x8200417b
80004bf6:	ecd6c227          	.4byte	0xecd6c227
80004bfa:	c1a4                	sw	s1,64(a1)
80004bfc:	f360                	fsw	fs0,100(a4)
80004bfe:	410c                	lw	a1,0(a0)
80004c00:	3472                	.2byte	0x3472
80004c02:	405d                	c.li	zero,23
80004c04:	2416                	.2byte	0x2416
80004c06:	c230                	sw	a2,64(a2)
80004c08:	98c8                	.2byte	0x98c8
80004c0a:	419c                	lw	a5,0(a1)
80004c0c:	28ca                	.2byte	0x28ca
80004c0e:	4204                	lw	s1,0(a2)
80004c10:	4830                	lw	a2,80(s0)
80004c12:	c14e                	sw	s3,128(sp)
80004c14:	da60                	sw	s0,116(a2)
80004c16:	c0cd                	beqz	s1,80004cb8 <data+0x5bc>
80004c18:	8e44                	.2byte	0x8e44
80004c1a:	410e                	lw	sp,192(sp)
80004c1c:	9a14                	.2byte	0x9a14
80004c1e:	6b64412f          	.4byte	0x6b64412f
80004c22:	41ec                	lw	a1,68(a1)
80004c24:	0c3c                	addi	a5,sp,536
80004c26:	01de412f          	.4byte	0x1de412f
80004c2a:	c180                	sw	s0,0(a1)
80004c2c:	c1bd474b          	fnmsub.s	fa4,fs10,fs11,fs8,rmm
80004c30:	dbfc                	sw	a5,116(a5)
80004c32:	4196                	lw	gp,68(sp)
80004c34:	7b54                	flw	fa3,52(a4)
80004c36:	c208                	sw	a0,0(a2)
80004c38:	57aa                	lw	a5,168(sp)
80004c3a:	c1f1                	beqz	a1,80004cfe <data+0x602>
80004c3c:	0679                	addi	a2,a2,30 # fffe201e <__global_pointer$+0x7ffdb1e2>
80004c3e:	40cc                	lw	a1,4(s1)
80004c40:	856c                	.2byte	0x856c
80004c42:	4116                	lw	sp,68(sp)
80004c44:	2400                	.2byte	0x2400
80004c46:	ce1dc11b          	.4byte	0xce1dc11b
80004c4a:	c19c                	sw	a5,0(a1)
80004c4c:	cb62                	sw	s8,148(sp)
80004c4e:	c1d1                	beqz	a1,80004cd2 <data+0x5d6>
80004c50:	43a4                	lw	s1,64(a5)
80004c52:	d00041c7          	fmsub.s	ft3,ft0,ft0,fs10,rmm
80004c56:	c22c                	sw	a1,64(a2)
80004c58:	f8c4                	fsw	fs1,52(s1)
80004c5a:	4134                	lw	a3,64(a0)
80004c5c:	b7a6                	.2byte	0xb7a6
80004c5e:	c1b0                	sw	a2,64(a1)
80004c60:	1732                	slli	a4,a4,0x2c
80004c62:	4228                	lw	a0,64(a2)
80004c64:	749c                	flw	fa5,40(s1)
80004c66:	c1a4                	sw	s1,64(a1)
80004c68:	d95d                	beqz	a0,80004c1e <data+0x522>
80004c6a:	21d1c1d3          	.4byte	0x21d1c1d3
80004c6e:	f13840f7          	.4byte	0xf13840f7
80004c72:	c146                	sw	a7,128(sp)
80004c74:	ce5f 4039 deee      	.byte	0x5f, 0xce, 0x39, 0x40, 0xee, 0xde
80004c7a:	c205                	beqz	a2,80004c9a <data+0x59e>
80004c7c:	16f8                	addi	a4,sp,876
80004c7e:	4224                	lw	s1,64(a2)
80004c80:	e344                	fsw	fs1,4(a4)
80004c82:	410d                	li	sp,3
80004c84:	6d76                	flw	fs10,92(sp)
80004c86:	4210                	lw	a2,0(a2)
80004c88:	7f84                	flw	fs1,56(a5)
80004c8a:	41c0                	lw	s0,4(a1)
80004c8c:	e6c4                	fsw	fs1,12(a3)
80004c8e:	9bac4237          	lui	tp,0x9bac4
80004c92:	c1a2                	sw	s0,192(sp)
80004c94:	395c                	.2byte	0x395c
80004c96:	c188                	sw	a0,0(a1)
80004c98:	40de6a57          	.4byte	0x40de6a57
80004c9c:	1824                	addi	s1,sp,56
80004c9e:	a660c223          	.4byte	0xa660c223
80004ca2:	cc5a422f          	.4byte	0xcc5a422f
80004ca6:	ef244223          	.4byte	0xef244223
80004caa:	c166                	sw	s9,128(sp)
80004cac:	5178                	lw	a4,100(a0)
80004cae:	414c                	lw	a1,4(a0)
80004cb0:	aef9                	j	8000508e <data+0x992>
80004cb2:	c22c                	sw	a1,64(a2)
80004cb4:	40acc30f          	.4byte	0x40acc30f
80004cb8:	d5a6                	sw	s1,232(sp)
80004cba:	c1f6                	sw	t4,192(sp)
80004cbc:	e4c4                	fsw	fs1,12(s1)
80004cbe:	4181                	li	gp,0
80004cc0:	cf62                	sw	s8,156(sp)
80004cc2:	4236                	lw	tp,76(sp)
80004cc4:	bee8f10b          	.4byte	0xbee8f10b
80004cc8:	0cb0                	addi	a2,sp,600
80004cca:	4220                	lw	s0,64(a2)
80004ccc:	e268                	fsw	fa0,68(a2)
80004cce:	41a4                	lw	s1,64(a1)
80004cd0:	40caf0ef          	jal	ra,800b40dc <__global_pointer$+0xad2a0>
80004cd4:	5bff                	.2byte	0x5bff
80004cd6:	3fa9                	jal	80004c30 <data+0x534>
80004cd8:	1560                	addi	s0,sp,684
80004cda:	4242                	lw	tp,16(sp)
80004cdc:	5600                	lw	s0,40(a2)
80004cde:	bfd1                	j	80004cb2 <data+0x5b6>
80004ce0:	2124                	.2byte	0x2124
80004ce2:	41f6                	lw	gp,92(sp)
80004ce4:	ae9d                	j	8000505a <data+0x95e>
80004ce6:	c1df a675 c22f      	.byte	0xdf, 0xc1, 0x75, 0xa6, 0x2f, 0xc2
80004cec:	5778                	lw	a4,108(a4)
80004cee:	c1fd                	beqz	a1,80004dd4 <data+0x6d8>
80004cf0:	8b30                	.2byte	0x8b30
80004cf2:	0ac641c7          	.4byte	0xac641c7
80004cf6:	94c4c1db          	.4byte	0x94c4c1db
80004cfa:	c222                	sw	s0,4(sp)
80004cfc:	832e                	mv	t1,a1
80004cfe:	c181                	beqz	a1,80004cfe <data+0x602>
80004d00:	17ed                	addi	a5,a5,-5
80004d02:	c225                	beqz	a2,80004d62 <data+0x666>
80004d04:	aafe                	.2byte	0xaafe
80004d06:	4205                	li	tp,1
80004d08:	b5a5                	j	80004b70 <data+0x474>
80004d0a:	c1a1                	beqz	a1,80004d4a <data+0x64e>
80004d0c:	9708                	.2byte	0x9708
80004d0e:	c139                	beqz	a0,80004d54 <data+0x658>
80004d10:	71b0                	flw	fa2,96(a1)
80004d12:	c206                	sw	ra,4(sp)
80004d14:	f276                	fsw	ft9,36(sp)
80004d16:	4212                	lw	tp,4(sp)
80004d18:	de72                	sw	t3,60(sp)
80004d1a:	cb4fc017          	auipc	zero,0xcb4fc
80004d1e:	c21e                	sw	t2,4(sp)
80004d20:	7da4                	flw	fs1,120(a1)
80004d22:	41dd                	li	gp,23
80004d24:	c650                	sw	a2,12(a2)
80004d26:	4204                	lw	s1,0(a2)
80004d28:	9220                	.2byte	0x9220
80004d2a:	41b8                	lw	a4,64(a1)
80004d2c:	0fd8                	addi	a4,sp,980
80004d2e:	420a                	lw	tp,128(sp)
80004d30:	8538                	.2byte	0x8538
80004d32:	c136                	sw	a3,128(sp)
80004d34:	de3c                	sw	a5,120(a2)
80004d36:	4228                	lw	a0,64(a2)
80004d38:	8e7a                	mv	t3,t5
80004d3a:	3f40                	.2byte	0x3f40
80004d3c:	47b0                	lw	a2,72(a5)
80004d3e:	ce94c17b          	.4byte	0xce94c17b
80004d42:	c454c103          	lbu	sp,-955(s1)
80004d46:	60b9c113          	xori	sp,s3,1547
80004d4a:	c234                	sw	a3,64(a2)
80004d4c:	6a78                	flw	fa4,84(a2)
80004d4e:	4240                	lw	s0,4(a2)
80004d50:	59cc                	lw	a1,52(a1)
80004d52:	4228                	lw	a0,64(a2)
80004d54:	4b59                	li	s6,22
80004d56:	c23a                	sw	a4,4(sp)
80004d58:	0371                	addi	t1,t1,28 # ffff001c <__global_pointer$+0x7ffe91e0>
80004d5a:	c062                	sw	s8,0(sp)
80004d5c:	d4bc                	sw	a5,104(s1)
80004d5e:	41b6                	lw	gp,76(sp)
80004d60:	4550                	lw	a2,12(a0)
80004d62:	c1c4                	sw	s1,4(a1)
80004d64:	953e                	add	a0,a0,a5
80004d66:	bea24023          	.4byte	0xbea24023
80004d6a:	4224                	lw	s1,64(a2)
80004d6c:	5d10                	lw	a2,56(a0)
80004d6e:	c246                	sw	a7,4(sp)
80004d70:	67e0                	flw	fs0,76(a5)
80004d72:	41c9                	li	gp,18
80004d74:	d621                	beqz	a2,80004cbc <data+0x5c0>
80004d76:	c245                	beqz	a2,80004e16 <data+0x71a>
80004d78:	7a9c                	flw	fa5,48(a3)
80004d7a:	c17c                	sw	a5,68(a0)
80004d7c:	9c04                	.2byte	0x9c04
80004d7e:	d4de4207          	.4byte	0xd4de4207
80004d82:	1a184207          	.4byte	0x1a184207
80004d86:	4160                	lw	s0,68(a0)
80004d88:	937c                	.2byte	0x937c
80004d8a:	c1dd                	beqz	a1,80004e30 <data+0x734>
80004d8c:	c2469cd3          	.4byte	0xc2469cd3
80004d90:	3f79                	jal	80004d2e <data+0x632>
80004d92:	3f3e                	.2byte	0x3f3e
80004d94:	70b8                	flw	fa4,96(s1)
80004d96:	419f 6822 c21d      	.byte	0x9f, 0x41, 0x22, 0x68, 0x1d, 0xc2
80004d9c:	9060                	.2byte	0x9060
80004d9e:	c1ac                	sw	a1,64(a1)
80004da0:	4047eaaf          	.4byte	0x4047eaaf
80004da4:	e0ee                	fsw	fs11,64(sp)
80004da6:	4206                	lw	tp,64(sp)
80004da8:	3856                	.2byte	0x3856
80004daa:	c214                	sw	a3,0(a2)
80004dac:	dd5e                	sw	s7,184(sp)
80004dae:	4226                	lw	tp,72(sp)
80004db0:	7e54                	flw	fa3,60(a2)
80004db2:	279041cf          	.4byte	0x279041cf
80004db6:	e91d415b          	.4byte	0xe91d415b
80004dba:	347cc1bf 2731c201 	.8byte	0x2731c201347cc1bf
80004dc2:	c236                	sw	a3,4(sp)
80004dc4:	aa8e                	.2byte	0xaa8e
80004dc6:	c198                	sw	a4,0(a1)
80004dc8:	c208ca03          	lbu	s4,-992(a7)
80004dcc:	329c                	.2byte	0x329c
80004dce:	423a                	lw	tp,140(sp)
80004dd0:	8280                	.2byte	0x8280
80004dd2:	c17a                	sw	t5,128(sp)
80004dd4:	5718                	lw	a4,40(a4)
80004dd6:	4144                	lw	s1,4(a0)
80004dd8:	39f0                	.2byte	0x39f0
80004dda:	f2dc419b          	.4byte	0xf2dc419b
80004dde:	411c                	lw	a5,0(a0)
80004de0:	b0e6                	.2byte	0xb0e6
80004de2:	c20c                	sw	a1,0(a2)
80004de4:	6e68                	flw	fa0,92(a2)
80004de6:	4129                	li	sp,10
80004de8:	41237e9b          	.4byte	0x41237e9b
80004dec:	030c                	addi	a1,sp,384
80004dee:	4220                	lw	s0,64(a2)
80004df0:	15e4                	addi	s1,sp,748
80004df2:	4132                	lw	sp,12(sp)
80004df4:	c102                	sw	zero,128(sp)
80004df6:	4231                	li	tp,12
80004df8:	3e20                	.2byte	0x3e20
80004dfa:	2d4f41bf 1e1cc09d 	.8byte	0x1e1cc09d2d4f41bf
80004e02:	d5504107          	.4byte	0xd5504107
80004e06:	4238                	lw	a4,64(a2)
80004e08:	13e0                	addi	s0,sp,492
80004e0a:	c092                	sw	tp,64(sp)
80004e0c:	3f7a                	.2byte	0x3f7a
80004e0e:	1b58c223          	.4byte	0x1b58c223
80004e12:	4181                	li	gp,0
80004e14:	ab11                	j	80005328 <data+0xc2c>
80004e16:	40c2                	lw	ra,16(sp)
80004e18:	1eac                	addi	a1,sp,888
80004e1a:	c146                	sw	a7,128(sp)
80004e1c:	e752                	fsw	fs4,140(sp)
80004e1e:	c1f5                	beqz	a1,80004f02 <data+0x806>
80004e20:	26c4                	.2byte	0x26c4
80004e22:	ffbdc123          	.4byte	0xffbdc123
80004e26:	164b3f0f          	.4byte	0x164b3f0f
80004e2a:	c21c                	sw	a5,0(a2)
80004e2c:	c2090a87          	.4byte	0xc2090a87
80004e30:	f61d                	bnez	a2,80004d5e <data+0x662>
80004e32:	c20e                	sw	gp,4(sp)
80004e34:	2b64                	.2byte	0x2b64
80004e36:	c150                	sw	a2,4(a0)
80004e38:	7e06                	flw	ft8,96(sp)
80004e3a:	c184                	sw	s1,0(a1)
80004e3c:	3a9c                	.2byte	0x3a9c
80004e3e:	c1fa                	sw	t5,192(sp)
80004e40:	3fbc                	.2byte	0x3fbc
80004e42:	4181418f          	.4byte	0x4181418f
80004e46:	bf42                	.2byte	0xbf42
80004e48:	c20aeab3          	.4byte	0xc20aeab3
80004e4c:	00c1                	addi	ra,ra,16 # fffe8010 <__global_pointer$+0x7ffe11d4>
80004e4e:	f340c23f b246c219 	.8byte	0xb246c219f340c23f
80004e56:	420a                	lw	tp,128(sp)
80004e58:	efd8                	fsw	fa4,28(a5)
80004e5a:	4140                	lw	s0,4(a0)
80004e5c:	c1bd484b          	fnmsub.s	fa6,fs10,fs11,fs8,rmm
80004e60:	c09790f7          	.4byte	0xc09790f7
80004e64:	c8c4                	sw	s1,20(s1)
80004e66:	c1dd                	beqz	a1,80004f0c <data+0x810>
80004e68:	c206a11b          	.4byte	0xc206a11b
80004e6c:	6ca6                	flw	fs9,72(sp)
80004e6e:	c22e                	sw	a1,4(sp)
80004e70:	2361                	jal	800053f8 <data+0xcfc>
80004e72:	c205                	beqz	a2,80004e92 <data+0x796>
80004e74:	fdf4                	fsw	fa3,124(a1)
80004e76:	4220                	lw	s0,64(a2)
80004e78:	3fbdb603          	.4byte	0x3fbdb603
80004e7c:	4850                	lw	a2,20(s0)
80004e7e:	41c9                	li	gp,18
80004e80:	d344                	sw	s1,36(a4)
80004e82:	4211                	li	tp,4
80004e84:	ab34                	.2byte	0xab34
80004e86:	64ac423b          	.4byte	0x64ac423b
80004e8a:	4209                	li	tp,2
80004e8c:	0ef1                	addi	t4,t4,28 # ffff101c <__global_pointer$+0x7ffea1e0>
80004e8e:	4026                	.2byte	0x4026
80004e90:	0970                	addi	a2,sp,156
80004e92:	4040                	lw	s0,4(s0)
80004e94:	45fc                	lw	a5,76(a1)
80004e96:	c1e0                	sw	s0,68(a1)
80004e98:	da8c                	sw	a1,48(a3)
80004e9a:	41ae                	lw	gp,200(sp)
80004e9c:	36e6                	.2byte	0x36e6
80004e9e:	3a04422b          	.4byte	0x3a04422b
80004ea2:	41b4                	lw	a3,64(a1)
80004ea4:	56fa                	lw	a3,188(sp)
80004ea6:	d3a14203          	lbu	tp,-710(sp) # c2329d3a <__global_pointer$+0x42322efe>
80004eaa:	c225                	beqz	a2,80004f0a <data+0x80e>
80004eac:	26e4                	.2byte	0x26e4
80004eae:	67bd4213          	xori	tp,s10,1659
80004eb2:	c1f1                	beqz	a1,80004f76 <data+0x87a>
80004eb4:	4a8c                	lw	a1,16(a3)
80004eb6:	c100                	sw	s0,0(a0)
80004eb8:	f66a                	fsw	fs10,44(sp)
80004eba:	c231                	beqz	a2,80004efe <data+0x802>
80004ebc:	ec02                	fsw	ft0,24(sp)
80004ebe:	4216                	lw	tp,68(sp)
80004ec0:	e458                	fsw	fa4,12(s0)
80004ec2:	4224                	lw	s1,64(a2)
80004ec4:	c239                	beqz	a2,80004f0a <data+0x80e>
80004ec6:	c1e9                	beqz	a1,80004f88 <data+0x88c>
80004ec8:	eb3e                	fsw	fa5,148(sp)
80004eca:	421f 0ee9 c23d      	.byte	0x1f, 0x42, 0xe9, 0x0e, 0x3d, 0xc2
80004ed0:	c2322ed7          	.4byte	0xc2322ed7
80004ed4:	7350                	flw	fa2,36(a4)
80004ed6:	4002                	.2byte	0x4002
80004ed8:	661d                	lui	a2,0x7
80004eda:	c287c1a7          	.4byte	0xc287c1a7
80004ede:	85a83f37          	lui	t5,0x85a83
80004ee2:	41c2                	lw	gp,16(sp)
80004ee4:	c092a14f          	fnmadd.s	ft2,ft5,fs1,fs8,rdn
80004ee8:	9321                	srli	a4,a4,0x28
80004eea:	1f7240e3          	blt	tp,s7,800058ca <data+0x11ce>
80004eee:	4224                	lw	s1,64(a2)
80004ef0:	58dc                	lw	a5,52(s1)
80004ef2:	c165                	beqz	a0,80004fd2 <data+0x8d6>
80004ef4:	c2259feb          	.4byte	0xc2259feb
80004ef8:	8734                	.2byte	0x8734
80004efa:	4181                	li	gp,0
80004efc:	05e6                	slli	a1,a1,0x19
80004efe:	c1df f4b7 c231      	.byte	0xdf, 0xc1, 0xb7, 0xf4, 0x31, 0xc2
80004f04:	11ba                	slli	gp,gp,0x2e
80004f06:	3f0a                	.2byte	0x3f0a
80004f08:	bbf8                	.2byte	0xbbf8
80004f0a:	41c5                	li	gp,17
80004f0c:	2f80                	.2byte	0x2f80
80004f0e:	4108                	lw	a0,0(a0)
80004f10:	0a90                	addi	a2,sp,336
80004f12:	41b4                	lw	a3,64(a1)
80004f14:	4be0                	lw	s0,84(a5)
80004f16:	58a3c05b          	.4byte	0x58a3c05b
80004f1a:	3fa8                	.2byte	0x3fa8
80004f1c:	c09eedb7          	lui	s11,0xc09ee
80004f20:	bb84                	.2byte	0xbb84
80004f22:	c1a4                	sw	s1,64(a1)
80004f24:	bc98                	.2byte	0xbc98
80004f26:	411d                	li	sp,7
80004f28:	c1916da7          	.4byte	0xc1916da7
80004f2c:	6801                	.2byte	0x6801
80004f2e:	bf44                	.2byte	0xbf44
80004f30:	a37e                	.2byte	0xa37e
80004f32:	c240                	sw	s0,4(a2)
80004f34:	b4f4                	.2byte	0xb4f4
80004f36:	c14a                	sw	s2,128(sp)
80004f38:	9680                	.2byte	0x9680
80004f3a:	c150                	sw	a2,4(a0)
80004f3c:	40d8                	lw	a4,4(s1)
80004f3e:	422c                	lw	a1,64(a2)
80004f40:	c69c                	sw	a5,8(a3)
80004f42:	4101                	li	sp,0
80004f44:	74c2                	flw	fs1,48(sp)
80004f46:	c1b8                	sw	a4,64(a1)
80004f48:	31f0                	.2byte	0x31f0
80004f4a:	0b3c4237          	lui	tp,0xb3c4
80004f4e:	4159                	li	sp,22
80004f50:	d9a8                	sw	a0,112(a1)
80004f52:	023d41e7          	.4byte	0x23d41e7
80004f56:	c1c9                	beqz	a1,80004fd8 <data+0x8dc>
80004f58:	de26                	sw	s1,60(sp)
80004f5a:	c20e                	sw	gp,4(sp)
80004f5c:	4052fa8f          	.4byte	0x4052fa8f
80004f60:	5570                	lw	a2,108(a0)
80004f62:	41a2                	lw	gp,8(sp)
80004f64:	287c                	.2byte	0x287c
80004f66:	872941ab          	.4byte	0x872941ab
80004f6a:	c0b5                	beqz	s1,80004fce <data+0x8d2>
80004f6c:	2b7f                	.2byte	0x2b7f
80004f6e:	c230                	sw	a2,64(a2)
80004f70:	e8a8                	fsw	fa0,80(s1)
80004f72:	ed4b41ef          	jal	gp,7ffb9646 <buflen.1+0x7ffb9606>
80004f76:	c21d                	beqz	a2,80004f9c <data+0x8a0>
80004f78:	5ce4                	lw	s1,124(s1)
80004f7a:	ff9cc1af          	.4byte	0xff9cc1af
80004f7e:	420d                	li	tp,3
80004f80:	ebec                	fsw	fa1,84(a5)
80004f82:	4130                	lw	a2,64(a0)
80004f84:	d076                	sw	t4,32(sp)
80004f86:	c23c                	sw	a5,64(a2)
80004f88:	a420                	.2byte	0xa420
80004f8a:	7f7ac0bf 4cbac183 	.8byte	0x4cbac1837f7ac0bf
80004f92:	bf21                	j	80004eaa <data+0x7ae>
80004f94:	4e42                	lw	t3,16(sp)
80004f96:	4235                	li	tp,13
80004f98:	c518                	sw	a4,8(a0)
80004f9a:	41e4                	lw	s1,68(a1)
80004f9c:	3a18                	.2byte	0x3a18
80004f9e:	41e6                	lw	gp,88(sp)
80004fa0:	eb40                	fsw	fs0,20(a4)
80004fa2:	40a5                	li	ra,9
80004fa4:	c21e5447          	.4byte	0xc21e5447
80004fa8:	e92c                	fsw	fa1,80(a0)
80004faa:	cf48c1af          	.4byte	0xcf48c1af
80004fae:	40e0                	lw	s0,68(s1)
80004fb0:	1840                	addi	s0,sp,52
80004fb2:	c010                	sw	a2,0(s0)
80004fb4:	9728                	.2byte	0x9728
80004fb6:	8213416f          	jal	sp,7ff397d6 <buflen.1+0x7ff39796>
80004fba:	3db5                	jal	80004e36 <data+0x73a>
80004fbc:	8fde                	mv	t6,s7
80004fbe:	c230                	sw	a2,64(a2)
80004fc0:	ab6a                	.2byte	0xab6a
80004fc2:	9a784227          	.4byte	0x9a784227
80004fc6:	65e4c083          	lbu	ra,1630(s1)
80004fca:	307c419b          	.4byte	0x307c419b
80004fce:	172441a7          	.4byte	0x172441a7
80004fd2:	41a6                	lw	gp,72(sp)
80004fd4:	d4cc                	sw	a1,44(s1)
80004fd6:	4206                	lw	tp,64(sp)
80004fd8:	7032                	flw	ft0,44(sp)
80004fda:	c1ce                	sw	s3,192(sp)
80004fdc:	26d8                	.2byte	0x26d8
80004fde:	4847c10f          	.4byte	0x4847c10f
80004fe2:	2e0440a3          	.4byte	0x2e0440a3
80004fe6:	4194                	lw	a3,0(a1)
80004fe8:	5361                	li	t1,-8
80004fea:	8a90c03f 536cc16e 	.8byte	0x536cc16e8a90c03f
80004ff2:	41e8                	lw	a0,68(a1)
80004ff4:	b8b0                	.2byte	0xb8b0
80004ff6:	41c8                	lw	a0,4(a1)
80004ff8:	c1eb460f          	.4byte	0xc1eb460f
80004ffc:	6d38                	flw	fa4,88(a0)
80004ffe:	c11e                	sw	t2,128(sp)
80005000:	17c4                	addi	s1,sp,996
80005002:	41df a1d0 4169      	.byte	0xdf, 0x41, 0xd0, 0xa1, 0x69, 0x41
80005008:	49e8                	lw	a0,84(a1)
8000500a:	41bd                	li	gp,15
8000500c:	f2a0                	fsw	fs0,96(a3)
8000500e:	c1b5                	beqz	a1,80005072 <data+0x976>
80005010:	dad8                	sw	a4,52(a3)
80005012:	411e                	lw	sp,196(sp)
80005014:	7810                	flw	fa2,48(s0)
80005016:	4010                	lw	a2,0(s0)
80005018:	dc46                	sw	a7,56(sp)
8000501a:	8be3c22f          	.4byte	0x8be3c22f
8000501e:	cce4c20b          	.4byte	0xcce4c20b
80005022:	414a                	lw	sp,144(sp)
80005024:	436c                	lw	a1,68(a4)
80005026:	c17f                	.2byte	0xc17f
80005028:	1c0c                	addi	a1,sp,560
8000502a:	41b1                	li	gp,12
8000502c:	4e4a                	lw	t3,144(sp)
8000502e:	c21e                	sw	t2,4(sp)
80005030:	14f0                	addi	a2,sp,620
80005032:	4244                	lw	s1,4(a2)
80005034:	2e71                	jal	800053d0 <data+0xcd4>
80005036:	c1de                	sw	s7,192(sp)
80005038:	de28                	sw	a0,120(a2)
8000503a:	c206                	sw	ra,4(sp)
8000503c:	c05a                	sw	s6,0(sp)
8000503e:	eaf04223          	.4byte	0xeaf04223
80005042:	4190                	lw	a2,0(a1)
80005044:	d4ca                	sw	s2,104(sp)
80005046:	420e                	lw	tp,192(sp)
80005048:	6260                	flw	fs0,68(a2)
8000504a:	413d                	li	sp,15
8000504c:	fbd8                	fsw	fa4,52(a5)
8000504e:	c131                	beqz	a0,80005092 <data+0x996>
80005050:	532c                	lw	a1,96(a4)
80005052:	207e419b          	.4byte	0x207e419b
80005056:	4210                	lw	a2,0(a2)
80005058:	6ea8                	flw	fa0,88(a3)
8000505a:	dac241ef          	jal	gp,7ff29606 <buflen.1+0x7ff295c6>
8000505e:	bc00c1cb          	.4byte	0xbc00c1cb
80005062:	4091                	li	ra,4
80005064:	7bc4                	flw	fs1,52(a5)
80005066:	c1b8                	sw	a4,64(a1)
80005068:	bff0                	.2byte	0xbff0
8000506a:	4119                	li	sp,6
8000506c:	3d92                	.2byte	0x3d92
8000506e:	e18ac183          	lbu	gp,-488(s5)
80005072:	99e8c23f 8bd041f1 	.8byte	0x8bd041f199e8c23f
8000507a:	41bd                	li	gp,15
8000507c:	54b4                	lw	a3,104(s1)
8000507e:	54bf41ef          	jal	gp,800f9dc8 <__global_pointer$+0xf2f8c>
80005082:	c0a6                	sw	s1,64(sp)
80005084:	5222                	lw	tp,40(sp)
80005086:	c029                	beqz	s0,800050c8 <data+0x9cc>
80005088:	4ef8                	lw	a4,92(a3)
8000508a:	13e2c22b          	.4byte	0x13e2c22b
8000508e:	c235                	beqz	a2,800050f2 <data+0x9f6>
80005090:	725e                	flw	ft4,244(sp)
80005092:	4246                	lw	tp,80(sp)
80005094:	2b3d                	jal	800055d2 <data+0xed6>
80005096:	3f89c213          	xori	tp,s3,1016
8000509a:	c1f1                	beqz	a1,8000515e <data+0xa62>
8000509c:	9664                	.2byte	0x9664
8000509e:	4144                	lw	s1,4(a0)
800050a0:	c17f                	.2byte	0xc17f
800050a2:	ee40c02f          	.4byte	0xee40c02f
800050a6:	aea04227          	.4byte	0xaea04227
800050aa:	41b5                	li	gp,13
800050ac:	c06e728f          	.4byte	0xc06e728f
800050b0:	28f8                	.2byte	0x28f8
800050b2:	f926c20f          	.4byte	0xf926c20f
800050b6:	9b44421b          	.4byte	0x9b44421b
800050ba:	c14c                	sw	a1,4(a0)
800050bc:	4c80                	lw	s0,24(s1)
800050be:	4201                	li	tp,0
800050c0:	9be4                	.2byte	0x9be4
800050c2:	41c5                	li	gp,17
800050c4:	31c6                	.2byte	0x31c6
800050c6:	4244                	lw	s1,4(a2)
800050c8:	64ea                	flw	fs1,152(sp)
800050ca:	c1e6                	sw	s9,192(sp)
800050cc:	43c8                	lw	a0,4(a5)
800050ce:	c0bc                	sw	a5,64(s1)
800050d0:	5244                	lw	s1,36(a2)
800050d2:	420c                	lw	a1,0(a2)
800050d4:	7b21                	lui	s6,0xfffe8
800050d6:	144cc243          	.4byte	0x144cc243
800050da:	4195                	li	gp,5
800050dc:	d8ec                	sw	a1,116(s1)
800050de:	c125                	beqz	a0,8000513e <data+0xa42>
800050e0:	c1af7207          	.4byte	0xc1af7207
800050e4:	0bbd                	addi	s7,s7,15
800050e6:	c1ae                	sw	a1,192(sp)
800050e8:	d5f8                	sw	a4,108(a1)
800050ea:	41b9                	li	gp,14
800050ec:	3519                	jal	80004ef2 <data+0x7f6>
800050ee:	c19f 38eb c226      	.byte	0x9f, 0xc1, 0xeb, 0x38, 0x26, 0xc2
800050f4:	c044f1bf c21ff034 	.8byte	0xc21ff034c044f1bf
800050fc:	c7d2                	sw	s4,204(sp)
800050fe:	1bc2404f          	.4byte	0x1bc2404f
80005102:	4231                	li	tp,12
80005104:	3f2a                	.2byte	0x3f2a
80005106:	44d0c203          	lbu	tp,1101(ra)
8000510a:	40ff                	.2byte	0x40ff
8000510c:	8e22                	mv	t3,s0
8000510e:	d4cf422f          	.4byte	0xd4cf422f
80005112:	c19c                	sw	a5,0(a1)
80005114:	91ac                	.2byte	0x91ac
80005116:	41de                	lw	gp,212(sp)
80005118:	9dd8                	.2byte	0x9dd8
8000511a:	40c5                	li	ra,17
8000511c:	3300                	.2byte	0x3300
8000511e:	41dd                	li	gp,23
80005120:	6e2c                	flw	fa1,88(a2)
80005122:	419e                	lw	gp,196(sp)
80005124:	e9ee                	fsw	fs11,208(sp)
80005126:	c1a8                	sw	a0,64(a1)
80005128:	c1d09b53          	.4byte	0xc1d09b53
8000512c:	0e20                	addi	s0,sp,792
8000512e:	4208                	lw	a0,0(a2)
80005130:	7bd0                	flw	fa2,52(a5)
80005132:	c200                	sw	s0,0(a2)
80005134:	2e18                	.2byte	0x2e18
80005136:	4132                	lw	sp,12(sp)
80005138:	b540                	.2byte	0xb540
8000513a:	4182                	lw	gp,0(sp)
8000513c:	5222                	lw	tp,40(sp)
8000513e:	422a                	lw	tp,136(sp)
80005140:	f530                	fsw	fa2,104(a0)
80005142:	4122                	lw	sp,8(sp)
80005144:	282a                	.2byte	0x282a
80005146:	4216                	lw	tp,68(sp)
80005148:	d960                	sw	s0,116(a0)
8000514a:	c154                	sw	a3,4(a0)
8000514c:	c0978377          	.4byte	0xc0978377
80005150:	ad0a                	.2byte	0xad0a
80005152:	421a                	lw	tp,132(sp)
80005154:	ac31                	j	80005370 <data+0xc74>
80005156:	c232                	sw	a2,4(sp)
80005158:	9956                	add	s2,s2,s5
8000515a:	0bf8420b          	.4byte	0xbf8420b
8000515e:	c205                	beqz	a2,8000517e <data+0xa82>
80005160:	641e                	flw	fs0,196(sp)
80005162:	1144c183          	lbu	gp,276(s1)
80005166:	4102                	lw	sp,0(sp)
80005168:	6862                	flw	fa6,24(sp)
8000516a:	c04a                	sw	s2,0(sp)
8000516c:	c0ff57cf          	fnmadd.s	fa5,ft10,fa5,fs8,unknown
80005170:	caca                	sw	s2,84(sp)
80005172:	4a38c233          	.4byte	0x4a38c233
80005176:	118240db          	.4byte	0x118240db
8000517a:	4235                	li	tp,13
8000517c:	50f8                	lw	a4,100(s1)
8000517e:	4245                	li	tp,17
80005180:	5438                	lw	a4,104(s0)
80005182:	41c0                	lw	s0,4(a1)
80005184:	404fa1cf          	fnmadd.s	ft3,ft11,ft4,fs0,rdn
80005188:	df1a                	sw	t1,188(sp)
8000518a:	422c                	lw	a1,64(a2)
8000518c:	c236404b          	.4byte	0xc236404b
80005190:	7a1a                	flw	fs4,164(sp)
80005192:	4abac197          	auipc	gp,0x4abac
80005196:	5934bf1b          	.4byte	0x5934bf1b
8000519a:	4200                	lw	s0,0(a2)
8000519c:	85f6                	mv	a1,t4
8000519e:	c244                	sw	s1,4(a2)
800051a0:	3bbc                	.2byte	0x3bbc
800051a2:	41e2                	lw	gp,24(sp)
800051a4:	f475                	bnez	s0,80005190 <data+0xa94>
800051a6:	882ac22f          	.4byte	0x882ac22f
800051aa:	a20e420b          	.4byte	0xa20e420b
800051ae:	4238                	lw	a4,64(a2)
800051b0:	2e20                	.2byte	0x2e20
800051b2:	4189                	li	gp,2
800051b4:	5964                	lw	s1,116(a0)
800051b6:	3f9c                	.2byte	0x3f9c
800051b8:	f430                	fsw	fa2,104(s0)
800051ba:	421a                	lw	tp,132(sp)
800051bc:	5746                	lw	a4,112(sp)
800051be:	c1b5                	beqz	a1,80005222 <data+0xb26>
800051c0:	d428                	sw	a0,104(s0)
800051c2:	8450c133          	.4byte	0x8450c133
800051c6:	c1c4                	sw	s1,4(a1)
800051c8:	c7dc                	sw	a5,12(a5)
800051ca:	41b4                	lw	a3,64(a1)
800051cc:	9000                	.2byte	0x9000
800051ce:	c1b4                	sw	a3,64(a1)
800051d0:	dcb2                	sw	a2,120(sp)
800051d2:	c199                	beqz	a1,800051d8 <data+0xadc>
800051d4:	ea21                	bnez	a2,80005224 <data+0xb28>
800051d6:	9fc940ef          	jal	ra,7ff993d2 <buflen.1+0x7ff99392>
800051da:	c0ba                	sw	a4,64(sp)
800051dc:	7e60                	flw	fs0,124(a2)
800051de:	4165                	li	sp,25
800051e0:	7e6a                	flw	ft8,184(sp)
800051e2:	c209                	beqz	a2,800051e4 <data+0xae8>
800051e4:	0582                	c.slli64	a1
800051e6:	4224                	lw	s1,64(a2)
800051e8:	c22e8b63          	beq	t4,sp,8000461e <coeffs+0xec2>
800051ec:	9268                	.2byte	0x9268
800051ee:	c1ea                	sw	s10,192(sp)
800051f0:	136e                	slli	t1,t1,0x3b
800051f2:	c009                	beqz	s0,800051f4 <data+0xaf8>
800051f4:	79e1                	lui	s3,0xffff8
800051f6:	c241                	beqz	a2,80005276 <data+0xb7a>
800051f8:	f076                	fsw	ft9,32(sp)
800051fa:	ce35c1ef          	jal	gp,7ff61edc <buflen.1+0x7ff61e9c>
800051fe:	c1e0                	sw	s0,68(a1)
80005200:	01e0                	addi	s0,sp,204
80005202:	409c                	lw	a5,0(s1)
80005204:	1920                	addi	s0,sp,184
80005206:	4ecdc213          	xori	tp,s11,1260
8000520a:	c1bd                	beqz	a1,80005270 <data+0xb74>
8000520c:	c330                	sw	a2,64(a4)
8000520e:	e6d0420f          	.4byte	0xe6d0420f
80005212:	4149                	li	sp,18
80005214:	4e32                	lw	t3,12(sp)
80005216:	c226                	sw	s1,4(sp)
80005218:	3d3a                	.2byte	0x3d3a
8000521a:	a1b84213          	xori	tp,a6,-1509
8000521e:	c111                	beqz	a0,80005222 <data+0xb26>
80005220:	42a6                	lw	t0,72(sp)
80005222:	c20e                	sw	gp,4(sp)
80005224:	8ac8                	.2byte	0x8ac8
80005226:	41ad                	li	gp,11
80005228:	1980                	addi	s0,sp,240
8000522a:	a8d4c14f          	fnmadd.s	ft2,fs1,fa3,fs5,rmm
8000522e:	41fc                	lw	a5,68(a1)
80005230:	afa2                	.2byte	0xafa2
80005232:	c1d8                	sw	a4,4(a1)
80005234:	a460                	.2byte	0xa460
80005236:	c1c1                	beqz	a1,800052b6 <data+0xbba>
80005238:	5738                	lw	a4,104(a4)
8000523a:	c224                	sw	s1,64(a2)
8000523c:	cc94                	sw	a3,24(s1)
8000523e:	413a                	lw	sp,140(sp)
80005240:	7500                	flw	fs0,40(a0)
80005242:	3f9d                	jal	800051b8 <data+0xabc>
80005244:	196c                	addi	a1,sp,188
80005246:	41fc                	lw	a5,68(a1)
80005248:	6b24                	flw	fs1,80(a4)
8000524a:	421c                	lw	a5,0(a2)
8000524c:	fa9c                	fsw	fa5,48(a3)
8000524e:	41ff                	.2byte	0x41ff
80005250:	d818                	sw	a4,48(s0)
80005252:	d1a8c12f          	.4byte	0xd1a8c12f
80005256:	c185                	beqz	a1,80005276 <data+0xb7a>
80005258:	3190                	.2byte	0x3190
8000525a:	c06a                	sw	s10,0(sp)
8000525c:	40945c87          	.4byte	0x40945c87
80005260:	c6a6                	sw	s1,76(sp)
80005262:	c1cd                	beqz	a1,80005304 <data+0xc08>
80005264:	1850                	addi	a2,sp,52
80005266:	402d                	c.li	zero,11
80005268:	84b8                	.2byte	0x84b8
8000526a:	41ca                	lw	gp,144(sp)
8000526c:	16ec                	addi	a1,sp,876
8000526e:	41b1                	li	gp,12
80005270:	bd19                	j	80005086 <data+0x98a>
80005272:	408a                	lw	ra,128(sp)
80005274:	4a22                	lw	s4,8(sp)
80005276:	4235                	li	tp,13
80005278:	245c                	.2byte	0x245c
8000527a:	4230                	lw	a2,64(a2)
8000527c:	2820                	.2byte	0x2820
8000527e:	ceffc223          	.4byte	0xceffc223
80005282:	c225                	beqz	a2,800052e2 <data+0xbe6>
80005284:	0615                	addi	a2,a2,5 # 7005 <buflen.1+0x6fc5>
80005286:	c1ed                	beqz	a1,80005368 <data+0xc6c>
80005288:	9b10                	.2byte	0x9b10
8000528a:	4234                	lw	a3,64(a2)
8000528c:	5568                	lw	a0,108(a0)
8000528e:	41a9                	li	gp,10
80005290:	a279                	j	8000541e <data+0xd22>
80005292:	c1a9                	beqz	a1,800052d4 <data+0xbd8>
80005294:	b094                	.2byte	0xb094
80005296:	41ff                	.2byte	0x41ff
80005298:	bdb8                	.2byte	0xbdb8
8000529a:	9f19c217          	auipc	tp,0x9f19c
8000529e:	c0d8                	sw	a4,4(s1)
800052a0:	dae0                	sw	s0,116(a3)
800052a2:	4069                	c.li	zero,26
800052a4:	05c0                	addi	s0,sp,708
800052a6:	bf61                	j	8000523e <data+0xb42>
800052a8:	7ef2                	flw	ft9,60(sp)
800052aa:	c1c9                	beqz	a1,8000532c <data+0xc30>
800052ac:	8bb8                	.2byte	0x8bb8
800052ae:	41d4                	lw	a3,4(a1)
800052b0:	5370                	lw	a2,100(a4)
800052b2:	2d6241c7          	.4byte	0x2d6241c7
800052b6:	c182                	sw	zero,192(sp)
800052b8:	1bfc                	addi	a5,sp,508
800052ba:	c13c                	sw	a5,64(a0)
800052bc:	d53e                	sw	a5,168(sp)
800052be:	c1be                	sw	a5,192(sp)
800052c0:	09fc                	addi	a5,sp,220
800052c2:	37b5c20b          	.4byte	0x37b5c20b
800052c6:	c1b5                	beqz	a1,8000532a <data+0xc2e>
800052c8:	6d50                	flw	fa2,28(a0)
800052ca:	fff8c227          	.4byte	0xfff8c227
800052ce:	ed444087          	.4byte	0xed444087
800052d2:	4129                	li	sp,10
800052d4:	408f7cb7          	lui	s9,0x408f7
800052d8:	7471                	lui	s0,0xffffc
800052da:	c224                	sw	s1,64(a2)
800052dc:	97fe                	add	a5,a5,t6
800052de:	3ee4420b          	.4byte	0x3ee4420b
800052e2:	cdeac22b          	.4byte	0xcdeac22b
800052e6:	4208                	lw	a0,0(a2)
800052e8:	1ba0                	addi	s0,sp,504
800052ea:	40e1                	li	ra,24
800052ec:	62fc                	flw	fa5,68(a3)
800052ee:	4138                	lw	a4,64(a0)
800052f0:	3018                	.2byte	0x3018
800052f2:	41ec                	lw	a1,68(a1)
800052f4:	f9fd                	bnez	a1,800052ea <data+0xbee>
800052f6:	3f88                	.2byte	0x3f88
800052f8:	e140                	fsw	fs0,4(a0)
800052fa:	41a5                	li	gp,9
800052fc:	490e                	lw	s2,192(sp)
800052fe:	4218                	lw	a4,0(a2)
80005300:	8988                	.2byte	0x8988
80005302:	2eb841ab          	.4byte	0x2eb841ab
80005306:	417e                	lw	sp,220(sp)
80005308:	cf08                	sw	a0,24(a4)
8000530a:	0c774113          	xori	sp,a4,199
8000530e:	c06ec247          	fmsub.s	ft4,ft9,ft6,fs8,rmm
80005312:	c009                	beqz	s0,80005314 <data+0xc18>
80005314:	6c14                	flw	fa3,24(s0)
80005316:	41aa                	lw	gp,136(sp)
80005318:	02d8                	addi	a4,sp,324
8000531a:	c0d1                	beqz	s1,8000539e <data+0xca2>
8000531c:	fe59                	bnez	a2,800052ba <data+0xbbe>
8000531e:	c241                	beqz	a2,8000539e <data+0xca2>
80005320:	9c1a                	add	s8,s8,t1
80005322:	c1ec                	sw	a1,68(a1)
80005324:	4058                	lw	a4,4(s0)
80005326:	4192                	lw	gp,4(sp)
80005328:	8f08                	.2byte	0x8f08
8000532a:	41e0                	lw	s0,68(a1)
8000532c:	5bac                	lw	a1,112(a5)
8000532e:	4235                	li	tp,13
80005330:	f685                	bnez	a3,80005258 <data+0xb5c>
80005332:	bf7bc23f 1de6c206 	.8byte	0x1de6c206bf7bc23f
8000533a:	c1e4                	sw	s1,68(a1)
8000533c:	0080                	addi	s0,sp,64
8000533e:	daa7c203          	lbu	tp,-598(a5)
80005342:	c0ca                	sw	s2,64(sp)
80005344:	f885                	bnez	s1,80005274 <data+0xb78>
80005346:	c1a2                	sw	s0,192(sp)
80005348:	ff00                	fsw	fs0,56(a4)
8000534a:	e00441ab          	.4byte	0xe00441ab
8000534e:	c236                	sw	a3,4(sp)
80005350:	7354                	flw	fa3,36(a4)
80005352:	4208                	lw	a0,0(a2)
80005354:	161c                	addi	a5,sp,800
80005356:	b7fa41f3          	.4byte	0xb7fa41f3
8000535a:	421c                	lw	a5,0(a2)
8000535c:	3470                	.2byte	0x3470
8000535e:	4225                	li	tp,9
80005360:	63e8                	flw	fa0,68(a5)
80005362:	4169                	li	sp,26
80005364:	491f c072 d2f2      	.byte	0x1f, 0x49, 0x72, 0xc0, 0xf2, 0xd2
8000536a:	4034                	lw	a3,64(s0)
8000536c:	77d1                	lui	a5,0xffff4
8000536e:	c0bc                	sw	a5,64(s1)
80005370:	233e                	.2byte	0x233e
80005372:	423d                	li	tp,15
80005374:	c1d38463          	beq	t2,t4,8000477c <data+0x80>
80005378:	8bdc                	.2byte	0x8bdc
8000537a:	c18e                	sw	gp,192(sp)
8000537c:	d008                	sw	a0,32(s0)
8000537e:	4195                	li	gp,5
80005380:	c97c                	sw	a5,84(a0)
80005382:	421d                	li	tp,7
80005384:	add4                	.2byte	0xadd4
80005386:	4225                	li	tp,9
80005388:	b718                	.2byte	0xb718
8000538a:	4a284197          	auipc	gp,0x4a284
8000538e:	8f78c14b          	.4byte	0x8f78c14b
80005392:	44ce414b          	.4byte	0x44ce414b
80005396:	c216                	sw	t0,4(sp)
80005398:	438c                	lw	a1,0(a5)
8000539a:	95d2c133          	.4byte	0x95d2c133
8000539e:	4204                	lw	s1,0(a2)
800053a0:	b6bc                	.2byte	0xb6bc
800053a2:	41f5                	li	gp,29
800053a4:	895f c204 e2fc      	.byte	0x5f, 0x89, 0x04, 0xc2, 0xfc, 0xe2
800053aa:	e4d841e3          	blt	a6,a3,800051ec <data+0xaf0>
800053ae:	4202                	lw	tp,0(sp)
800053b0:	91b4                	.2byte	0x91b4
800053b2:	c186                	sw	ra,192(sp)
800053b4:	e28a                	fsw	ft2,68(sp)
800053b6:	e4584247          	.4byte	0xe4584247
800053ba:	b7a04247          	.4byte	0xb7a04247
800053be:	41d6                	lw	gp,84(sp)
800053c0:	3372                	.2byte	0x3372
800053c2:	c7b0c1a3          	.4byte	0xc7b0c1a3
800053c6:	f79841ab          	.4byte	0xf79841ab
800053ca:	41f8                	lw	a4,68(a1)
800053cc:	2664                	.2byte	0x2664
800053ce:	c211                	beqz	a2,800053d2 <data+0xcd6>
800053d0:	dc9c                	sw	a5,56(s1)
800053d2:	3fed                	jal	800053cc <data+0xcd0>
800053d4:	678c                	flw	fa1,8(a5)
800053d6:	41a2                	lw	gp,8(sp)
800053d8:	f1f4                	fsw	fa3,100(a1)
800053da:	3822c233          	.4byte	0x3822c233
800053de:	c206                	sw	ra,4(sp)
800053e0:	c205f0cb          	.4byte	0xc205f0cb
800053e4:	d9e0                	sw	s0,116(a1)
800053e6:	40fa                	lw	ra,156(sp)
800053e8:	e38c                	fsw	fa1,0(a5)
800053ea:	4128                	lw	a0,64(a0)
800053ec:	cd8d                	beqz	a1,80005426 <data+0xd2a>
800053ee:	c210                	sw	a2,0(a2)
800053f0:	3214                	.2byte	0x3214
800053f2:	f2f641fb          	.4byte	0xf2f641fb
800053f6:	422a                	lw	tp,136(sp)
800053f8:	1a76                	slli	s4,s4,0x3d
800053fa:	4202                	lw	tp,0(sp)
800053fc:	c50c                	sw	a1,8(a0)
800053fe:	41a6                	lw	gp,72(sp)
80005400:	a0cc                	.2byte	0xa0cc
80005402:	4208                	lw	a0,0(a2)
80005404:	c040                	sw	s0,4(s0)
80005406:	3fbe                	.2byte	0x3fbe
80005408:	7002                	flw	ft0,32(sp)
8000540a:	b55fc227          	.4byte	0xb55fc227
8000540e:	c4d0c047          	.4byte	0xc4d0c047
80005412:	415e                	lw	sp,212(sp)
80005414:	0e52                	slli	t3,t3,0x14
80005416:	c044                	sw	s1,4(s0)
80005418:	cb0a                	sw	sp,148(sp)
8000541a:	c19f 9b6f c0ab      	.byte	0x9f, 0xc1, 0x6f, 0x9b, 0xab, 0xc0
80005420:	d6f0                	sw	a2,108(a3)
80005422:	415c                	lw	a5,4(a0)
80005424:	c225f407          	.4byte	0xc225f407
80005428:	c1b51d2b          	.4byte	0xc1b51d2b
8000542c:	ece2                	fsw	fs8,88(sp)
8000542e:	117d423b          	.4byte	0x117d423b
80005432:	c226                	sw	s1,4(sp)
80005434:	547a                	lw	s0,188(sp)
80005436:	c1b5                	beqz	a1,8000549a <data+0xd9e>
80005438:	9168                	.2byte	0x9168
8000543a:	41be                	lw	gp,204(sp)
8000543c:	acd4                	.2byte	0xacd4
8000543e:	c13e                	sw	a5,128(sp)
80005440:	399a                	.2byte	0x399a
80005442:	23f04243          	.4byte	0x23f04243
80005446:	409e                	lw	ra,196(sp)
80005448:	cce2                	sw	s8,88(sp)
8000544a:	3fe5                	jal	80005442 <data+0xd46>
8000544c:	2004                	.2byte	0x2004
8000544e:	3f2a                	.2byte	0x3f2a
80005450:	0f76                	slli	t5,t5,0x1d
80005452:	c1c6                	sw	a7,192(sp)
80005454:	40d9e397          	auipc	t2,0x40d9e
80005458:	e0bc                	fsw	fa5,64(s1)
8000545a:	4188                	lw	a0,0(a1)
8000545c:	c103e21b          	.4byte	0xc103e21b
80005460:	6851                	lui	a6,0x14
80005462:	c20d                	beqz	a2,80005484 <data+0xd88>
80005464:	ad7e                	.2byte	0xad7e
80005466:	c1b2                	sw	a2,192(sp)
80005468:	cf5f 40b1 30b8      	.byte	0x5f, 0xcf, 0xb1, 0x40, 0xb8, 0x30
8000546e:	4238                	lw	a4,64(a2)
80005470:	c792                	sw	tp,204(sp)
80005472:	c1ec                	sw	a1,68(a1)
80005474:	ae78                	.2byte	0xae78
80005476:	c13e                	sw	a5,128(sp)
80005478:	2680                	.2byte	0x2680
8000547a:	c2ff4187          	.4byte	0xc2ff4187
8000547e:	c235                	beqz	a2,800054e2 <data+0xde6>
80005480:	4a64                	lw	s1,84(a2)
80005482:	421e                	lw	tp,196(sp)
80005484:	467c                	lw	a5,76(a2)
80005486:	41c8                	lw	a0,4(a1)
80005488:	3561                	jal	80005310 <data+0xc14>
8000548a:	3fb8                	.2byte	0x3fb8
8000548c:	b991                	j	800050e0 <data+0x9e4>
8000548e:	405f 3b4d c1e0      	.byte	0x5f, 0x40, 0x4d, 0x3b, 0xe0, 0xc1
80005494:	b84c                	.2byte	0xb84c
80005496:	882a41fb          	.4byte	0x882a41fb
8000549a:	4240                	lw	s0,4(a2)
8000549c:	1816                	slli	a6,a6,0x25
8000549e:	e81e420f          	.4byte	0xe81e420f
800054a2:	421f 0cd6 c1c4      	.byte	0x1f, 0x42, 0xd6, 0x0c, 0xc4, 0xc1
800054a8:	04f8                	addi	a4,sp,588
800054aa:	d6a44203          	lbu	tp,-662(s0) # ffffbd6a <__global_pointer$+0x7fff4f2e>
800054ae:	4241                	li	tp,16
800054b0:	f57f                	.2byte	0xf57f
800054b2:	4034                	lw	a3,64(s0)
800054b4:	6d59                	lui	s10,0x16
800054b6:	40d2                	lw	ra,20(sp)
800054b8:	524c                	lw	a1,36(a2)
800054ba:	1e5cc157          	.4byte	0x1e5cc157
800054be:	3fd1                	jal	80005492 <data+0xd96>
800054c0:	c219edd7          	.4byte	0xc219edd7
800054c4:	59d4                	lw	a3,52(a1)
800054c6:	4219                	li	tp,6
800054c8:	ce8e                	sw	gp,92(sp)
800054ca:	c23e                	sw	a5,4(sp)
800054cc:	d648                	sw	a0,44(a2)
800054ce:	4dc0c153          	.4byte	0x4dc0c153
800054d2:	43a0c09b          	.4byte	0x43a0c09b
800054d6:	23d0419b          	.4byte	0x23d0419b
800054da:	41e4                	lw	s1,68(a1)
800054dc:	b7d8                	.2byte	0xb7d8
800054de:	411c                	lw	a5,0(a0)
800054e0:	4b10                	lw	a2,16(a4)
800054e2:	423c                	lw	a5,64(a2)
800054e4:	d0b4                	sw	a3,96(s1)
800054e6:	c17e                	sw	t6,128(sp)
800054e8:	40baf577          	.4byte	0x40baf577
800054ec:	18ba                	slli	a7,a7,0x2e
800054ee:	c202                	sw	zero,4(sp)
800054f0:	406c                	lw	a1,68(s0)
800054f2:	41b1                	li	gp,12
800054f4:	1c21                	addi	s8,s8,-24 # 16fe8 <buflen.1+0x16fa8>
800054f6:	c1da                	sw	s6,192(sp)
800054f8:	b770                	.2byte	0xb770
800054fa:	c1df aa68 413b      	.byte	0xdf, 0xc1, 0x68, 0xaa, 0x3b, 0x41
80005500:	152e                	slli	a0,a0,0x2b
80005502:	cbe8423f 19cc41bb 	.8byte	0x19cc41bbcbe8423f
8000550a:	10f1c20b          	.4byte	0x10f1c20b
8000550e:	c1f2                	sw	t3,192(sp)
80005510:	409e10c7          	fmsub.s	ft1,ft8,fs1,fs0,rtz
80005514:	91a2                	add	gp,gp,s0
80005516:	c212                	sw	tp,4(sp)
80005518:	c231f063          	bgeu	gp,gp,80004938 <data+0x23c>
8000551c:	ae38                	.2byte	0xae38
8000551e:	c0a2                	sw	s0,64(sp)
80005520:	6034                	flw	fa3,64(s0)
80005522:	c132                	sw	a2,128(sp)
80005524:	1494                	addi	a3,sp,608
80005526:	4219                	li	tp,6
80005528:	f920                	fsw	fs0,112(a0)
8000552a:	b74cc0d3          	.4byte	0xb74cc0d3
8000552e:	4226                	lw	tp,72(sp)
80005530:	ee09                	bnez	a2,8000554a <data+0xe4e>
80005532:	c0a4                	sw	s1,64(s1)
80005534:	5894                	lw	a3,48(s1)
80005536:	fe1741ef          	jal	gp,7ff7a516 <buflen.1+0x7ff7a4d6>
8000553a:	c0d5                	beqz	s1,800055de <data+0xee2>
8000553c:	a340                	.2byte	0xa340
8000553e:	0c3c40cb          	.4byte	0xc3c40cb
80005542:	4192                	lw	gp,4(sp)
80005544:	7288                	flw	fa0,32(a3)
80005546:	c08c                	sw	a1,0(s1)
80005548:	7ed6                	flw	ft9,116(sp)
8000554a:	422c                	lw	a1,64(a2)
8000554c:	639c                	flw	fa5,0(a5)
8000554e:	c212                	sw	tp,4(sp)
80005550:	ec82                	fsw	ft0,88(sp)
80005552:	2178c20b          	.4byte	0x2178c20b
80005556:	41ad                	li	gp,11
80005558:	94b4                	.2byte	0x94b4
8000555a:	41b9                	li	gp,14
8000555c:	a172                	.2byte	0xa172
8000555e:	2370c217          	auipc	tp,0x2370c
80005562:	c231                	beqz	a2,800055a6 <data+0xeaa>
80005564:	adee                	.2byte	0xadee
80005566:	7456c1a7          	.4byte	0x7456c1a7
8000556a:	f990c1a3          	.4byte	0xf990c1a3
8000556e:	41de                	lw	gp,212(sp)
80005570:	3fe35f03          	lhu	t5,1022(t1)
80005574:	439e                	lw	t2,196(sp)
80005576:	3fcd                	jal	80005568 <data+0xe6c>
80005578:	627c                	flw	fa5,68(a2)
8000557a:	c126                	sw	s1,128(sp)
8000557c:	ecff                	.2byte	0xecff
8000557e:	5fe0bee7          	.4byte	0x5fe0bee7
80005582:	6ca9c1c7          	.4byte	0x6ca9c1c7
80005586:	409a                	lw	ra,132(sp)
80005588:	4f5c                	lw	a5,28(a4)
8000558a:	419a                	lw	gp,132(sp)
8000558c:	2454                	.2byte	0x2454
8000558e:	41f0                	lw	a2,68(a1)
80005590:	77e8                	flw	fa0,108(a5)
80005592:	4191                	li	gp,4
80005594:	6e94                	flw	fa3,24(a3)
80005596:	41c6                	lw	gp,80(sp)
80005598:	8739                	srai	a4,a4,0xe
8000559a:	c1c8                	sw	a0,4(a1)
8000559c:	dc1a                	sw	t1,56(sp)
8000559e:	2f7cc22b          	.4byte	0x2f7cc22b
800055a2:	4151                	li	sp,20
800055a4:	7a80                	flw	fs0,48(a3)
800055a6:	4192                	lw	gp,4(sp)
800055a8:	db32                	sw	a2,180(sp)
800055aa:	4242                	lw	tp,16(sp)
800055ac:	51e1                	li	gp,-8
800055ae:	c228                	sw	a0,64(a2)
800055b0:	ceff                	.2byte	0xceff
800055b2:	bfe2                	.2byte	0xbfe2
800055b4:	c0ff2487          	flw	fs1,-1009(t5) # 85a82c0f <__global_pointer$+0x5a7bdd3>
800055b8:	8a18                	.2byte	0x8a18
800055ba:	4164                	lw	s1,68(a0)
800055bc:	105a                	c.slli	zero,0x36
800055be:	c206                	sw	ra,4(sp)
800055c0:	8d1e                	mv	s10,t2
800055c2:	4216                	lw	tp,68(sp)
800055c4:	40ed0ae7          	jalr	s5,1038(s10) # 1640e <buflen.1+0x163ce>
800055c8:	e7ed                	bnez	a5,800056b2 <data+0xfb6>
800055ca:	c1a0                	sw	s0,64(a1)
800055cc:	c23d5f63          	bge	s10,gp,80004a0a <data+0x30e>
800055d0:	c1a79bcb          	fnmsub.s	fs7,fa5,fs10,fs8,rtz
800055d4:	a99c                	.2byte	0xa99c
800055d6:	00d5c23b          	.4byte	0xd5c23b
800055da:	c20d                	beqz	a2,800055fc <data+0xf00>
800055dc:	c554                	sw	a3,12(a0)
800055de:	0126c173          	.4byte	0x126c173
800055e2:	d800c18f          	.4byte	0xd800c18f
800055e6:	c0b5                	beqz	s1,8000564a <data+0xf4e>
800055e8:	c215748f          	.4byte	0xc215748f
800055ec:	9a66                	add	s4,s4,s9
800055ee:	af1e4207          	.4byte	0xaf1e4207
800055f2:	2d1f4237          	lui	tp,0x2d1f4
800055f6:	6ae8400f          	.4byte	0x6ae8400f
800055fa:	c184                	sw	s1,0(a1)
800055fc:	01a5                	addi	gp,gp,9 # ca289393 <__global_pointer$+0x4a282557>
800055fe:	c1e8                	sw	a0,68(a1)
80005600:	bf98                	.2byte	0xbf98
80005602:	0dc7c22b          	.4byte	0xdc7c22b
80005606:	c23d                	beqz	a2,8000566c <data+0xf70>
80005608:	eea8                	fsw	fa0,88(a3)
8000560a:	f8b8c243          	fmadd.s	ft4,fa7,fa1,ft11,rmm
8000560e:	41c9                	li	gp,18
80005610:	5308                	lw	a0,32(a4)
80005612:	41dc                	lw	a5,4(a1)
80005614:	648a                	flw	fs1,128(sp)
80005616:	c1c0                	sw	s0,4(a1)
80005618:	2042                	.2byte	0x2042
8000561a:	4201                	li	tp,0
8000561c:	2a74                	.2byte	0x2a74
8000561e:	c116                	sw	t0,128(sp)
80005620:	0afa                	slli	s5,s5,0x1e
80005622:	4231                	li	tp,12
80005624:	f6e4                	fsw	fs1,108(a3)
80005626:	8fbd41f7          	.4byte	0x8fbd41f7
8000562a:	5bf0bfbb          	.4byte	0x5bf0bfbb
8000562e:	c0f0                	sw	a2,68(s1)
80005630:	c1d7d23b          	.4byte	0xc1d7d23b
80005634:	c214b9f7          	.4byte	0xc214b9f7
80005638:	909c                	.2byte	0x909c
8000563a:	5bff410f          	.4byte	0x5bff410f
8000563e:	c21d                	beqz	a2,80005664 <data+0xf68>
80005640:	cecc                	sw	a1,28(a3)
80005642:	41a1                	li	gp,8
80005644:	7032                	flw	ft0,44(sp)
80005646:	bb62421b          	.4byte	0xbb62421b
8000564a:	c212                	sw	tp,4(sp)
8000564c:	1980                	addi	s0,sp,240
8000564e:	4245                	li	tp,17
80005650:	c696                	sw	t0,76(sp)
80005652:	786e4227          	.4byte	0x786e4227
80005656:	5f50c1af          	.4byte	0x5f50c1af
8000565a:	c17f                	.2byte	0xc17f
8000565c:	73fa                	flw	ft7,188(sp)
8000565e:	1194c1cf          	fnmadd.s	ft3,fs1,fs9,ft2,rmm
80005662:	c62e41b3          	.4byte	0xc62e41b3
80005666:	c054                	sw	a3,4(s0)
80005668:	c2281f97          	auipc	t6,0xc2281
8000566c:	6fd0                	flw	fa2,28(a5)
8000566e:	4192                	lw	gp,4(sp)
80005670:	a670                	.2byte	0xa670
80005672:	542c4243          	.4byte	0x542c4243
80005676:	c109                	beqz	a0,80005678 <data+0xf7c>
80005678:	3714                	.2byte	0x3714
8000567a:	421d                	li	tp,7
8000567c:	1928                	addi	a0,sp,184
8000567e:	c230                	sw	a2,64(a2)
80005680:	1698                	addi	a4,sp,864
80005682:	486cc0bb          	.4byte	0x486cc0bb
80005686:	4221                	li	tp,8
80005688:	c664                	sw	s1,76(a2)
8000568a:	41f9                	li	gp,30
8000568c:	729e                	flw	ft5,228(sp)
8000568e:	c1e2                	sw	s8,192(sp)
80005690:	e9d9                	bnez	a1,80005726 <data+0x102a>
80005692:	c206                	sw	ra,4(sp)
80005694:	0dd0                	addi	a2,sp,724
80005696:	4158                	lw	a4,4(a0)
80005698:	f050                	fsw	fa2,36(s0)
8000569a:	4144                	lw	s1,4(a0)
8000569c:	dedf c21d 08c8      	.byte	0xdf, 0xde, 0x1d, 0xc2, 0xc8, 0x08
800056a2:	c0b0                	sw	a2,64(s1)
800056a4:	a06a                	.2byte	0xa06a
800056a6:	c21c                	sw	a5,0(a2)
800056a8:	5a21                	li	s4,-24
800056aa:	4041                	c.li	zero,16
800056ac:	2b90                	.2byte	0x2b90
800056ae:	418c                	lw	a1,0(a1)
800056b0:	b4c1                	j	80005170 <data+0xa74>
800056b2:	c1d2                	sw	s4,192(sp)
800056b4:	0635                	addi	a2,a2,13
800056b6:	c218                	sw	a4,0(a2)
800056b8:	7394                	flw	fa3,32(a5)
800056ba:	41e1                	li	gp,24
800056bc:	8d06                	mv	s10,ra
800056be:	9604422f          	.4byte	0x9604422f
800056c2:	c244                	sw	s1,4(a2)
800056c4:	fe68                	fsw	fa0,124(a2)
800056c6:	4225                	li	tp,9
800056c8:	a688                	.2byte	0xa688
800056ca:	422c                	lw	a1,64(a2)
800056cc:	3092                	.2byte	0x3092
800056ce:	7b9d422b          	.4byte	0x7b9d422b
800056d2:	629ac1f3          	.4byte	0x629ac1f3
800056d6:	c1b6                	sw	a3,192(sp)
800056d8:	c204896b          	.4byte	0xc204896b
800056dc:	cafc                	sw	a5,84(a3)
800056de:	04a04227          	.4byte	0x4a04227
800056e2:	520541bf 0b88c1c9 	.8byte	0xb88c1c9520541bf
800056ea:	4124                	lw	s1,64(a0)
800056ec:	5180                	lw	s0,32(a1)
800056ee:	41b6                	lw	gp,76(sp)
800056f0:	03e4                	addi	s1,sp,460
800056f2:	4182                	lw	gp,0(sp)
800056f4:	0510                	addi	a2,sp,640
800056f6:	1f30bee3          	.4byte	0x1f30bee3
800056fa:	41e6                	lw	gp,88(sp)
800056fc:	60e1                	lui	ra,0x18
800056fe:	c21e                	sw	t2,4(sp)
80005700:	f678                	fsw	fa4,108(a2)
80005702:	c121                	beqz	a0,80005742 <data+0x1046>
80005704:	cb28                	sw	a0,80(a4)
80005706:	411f 345e c18f      	.byte	0x1f, 0x41, 0x5e, 0x34, 0x8f, 0xc1
8000570c:	40c4c43f c1d41383 	.8byte	0xc1d4138340c4c43f
80005714:	a1e6                	.2byte	0xa1e6
80005716:	4231                	li	tp,12
80005718:	7350                	flw	fa2,36(a4)
8000571a:	4185                	li	gp,1
8000571c:	ea48                	fsw	fa0,20(a2)
8000571e:	fe85418f          	.4byte	0xfe85418f
80005722:	c232                	sw	a2,4(sp)
80005724:	6168                	flw	fa0,68(a0)
80005726:	c1f2                	sw	t3,192(sp)
80005728:	c167d447          	fmsub.s	fs0,fa5,fs6,fs8,unknown
8000572c:	b1ca                	.2byte	0xb1ca
8000572e:	c1a8                	sw	a0,64(a1)
80005730:	6dd2                	flw	fs11,20(sp)
80005732:	c192                	sw	tp,192(sp)
80005734:	3b48                	.2byte	0x3b48
80005736:	c211                	beqz	a2,8000573a <data+0x103e>
80005738:	c1d997bf c18b99da 	.8byte	0xc18b99dac1d997bf
80005740:	3ce0                	.2byte	0x3ce0
80005742:	2559c233          	.4byte	0x2559c233
80005746:	c208                	sw	a0,0(a2)
80005748:	38b5                	jal	80004fc4 <data+0x8c8>
8000574a:	c1c5                	beqz	a1,800057ea <data+0x10ee>
8000574c:	f55c                	fsw	fa5,44(a0)
8000574e:	c1c9                	beqz	a1,800057d0 <data+0x10d4>
80005750:	b531                	j	8000555c <data+0xe60>
80005752:	c0da                	sw	s6,64(sp)
80005754:	2e30                	.2byte	0x2e30
80005756:	c0f9                	beqz	s1,8000581c <data+0x1120>
80005758:	c2052fb3          	.4byte	0xc2052fb3
8000575c:	d456                	sw	s5,40(sp)
8000575e:	6270c203          	lbu	tp,1575(ra) # 18627 <buflen.1+0x185e7>
80005762:	4188                	lw	a0,0(a1)
80005764:	a65c                	.2byte	0xa65c
80005766:	546a41d7          	.4byte	0x546a41d7
8000576a:	421f 99ac c185      	.byte	0x1f, 0x42, 0xac, 0x99, 0x85, 0xc1
80005770:	e5b9                	bnez	a1,800057be <data+0x10c2>
80005772:	c808c1bb          	.4byte	0xc808c1bb
80005776:	4194                	lw	a3,0(a1)
80005778:	6db1                	lui	s11,0xc
8000577a:	c0c9                	beqz	s1,800057fc <data+0x1100>
8000577c:	1f0c                	addi	a1,sp,944
8000577e:	52664183          	lbu	gp,1318(a2)
80005782:	7034c1ab          	.4byte	0x7034c1ab
80005786:	41ce                	lw	gp,208(sp)
80005788:	afe5                	j	80005f80 <data+0x1884>
8000578a:	d0afc1db          	.4byte	0xd0afc1db
8000578e:	4004                	lw	s1,0(s0)
80005790:	b3fc                	.2byte	0xb3fc
80005792:	41a1                	li	gp,8
80005794:	e1b6                	fsw	fa3,192(sp)
80005796:	421c                	lw	a5,0(a2)
80005798:	7b9f c1ef b6f0      	.byte	0x9f, 0x7b, 0xef, 0xc1, 0xf0, 0xb6
8000579e:	4efd41cb          	.4byte	0x4efd41cb
800057a2:	c224                	sw	s1,64(a2)
800057a4:	68f1                	lui	a7,0x1c
800057a6:	40b2                	lw	ra,12(sp)
800057a8:	7d6c                	flw	fa1,124(a0)
800057aa:	c236                	sw	a3,4(sp)
800057ac:	1798                	addi	a4,sp,992
800057ae:	c116                	sw	t0,128(sp)
800057b0:	23b0                	.2byte	0x23b0
800057b2:	419a                	lw	gp,132(sp)
800057b4:	9298                	.2byte	0x9298
800057b6:	c1b6                	sw	a3,192(sp)
800057b8:	5a5c                	lw	a5,52(a2)
800057ba:	41b9                	li	gp,14
800057bc:	a9ec                	.2byte	0xa9ec
800057be:	752741c3          	.4byte	0x752741c3
800057c2:	10d2c0db          	.4byte	0x10d2c0db
800057c6:	4242                	lw	tp,16(sp)
800057c8:	da4a                	sw	s2,52(sp)
800057ca:	4244                	lw	s1,4(a2)
800057cc:	3ab6                	.2byte	0x3ab6
800057ce:	4211                	li	tp,4
800057d0:	53cc                	lw	a1,36(a5)
800057d2:	c114                	sw	a3,0(a0)
800057d4:	556a                	lw	a0,184(sp)
800057d6:	c208                	sw	a0,0(a2)
800057d8:	99a0                	.2byte	0x99a0
800057da:	c23a                	sw	a4,4(sp)
800057dc:	c228e3bb          	.4byte	0xc228e3bb
800057e0:	7dc4                	flw	fs1,60(a1)
800057e2:	baca422b          	.4byte	0xbaca422b
800057e6:	422c                	lw	a1,64(a2)
800057e8:	c244                	sw	s1,4(a2)
800057ea:	c10e                	sw	gp,128(sp)
800057ec:	ea31                	bnez	a2,80005840 <data+0x1144>
800057ee:	c1f4                	sw	a3,68(a1)
800057f0:	7b34                	flw	fa3,112(a4)
800057f2:	413c                	lw	a5,64(a0)
800057f4:	21b8                	.2byte	0x21b8
800057f6:	1a6c420b          	.4byte	0x1a6c420b
800057fa:	759a420f          	.4byte	0x759a420f
800057fe:	4221                	li	tp,8
80005800:	6748                	flw	fa0,12(a4)
80005802:	4129                	li	sp,10
80005804:	bd86                	.2byte	0xbd86
80005806:	c226                	sw	s1,4(sp)
80005808:	c0f1ead7          	.4byte	0xc0f1ead7
8000580c:	9860                	.2byte	0x9860
8000580e:	c199                	beqz	a1,80005814 <data+0x1118>
80005810:	2430                	.2byte	0x2430
80005812:	423e                	lw	tp,204(sp)
80005814:	1358                	addi	a4,sp,420
80005816:	4148                	lw	a0,4(a0)
80005818:	c22ef0b7          	lui	ra,0xc22ef
8000581c:	2acc                	.2byte	0x2acc
8000581e:	c22e                	sw	a1,4(sp)
80005820:	5c18                	lw	a4,56(s0)
80005822:	c1ff                	.2byte	0xc1ff
80005824:	6e24                	flw	fs1,88(a2)
80005826:	c21d                	beqz	a2,8000584c <data+0x1150>
80005828:	0b20                	addi	s0,sp,408
8000582a:	63cac03b          	.4byte	0x63cac03b
8000582e:	4215                	li	tp,5
80005830:	ddc0                	sw	s0,60(a1)
80005832:	c142                	sw	a6,128(sp)
80005834:	0709                	addi	a4,a4,2
80005836:	c1ee                	sw	s11,192(sp)
80005838:	e308                	fsw	fa0,0(a4)
8000583a:	413c                	lw	a5,64(a0)
8000583c:	b3d8                	.2byte	0xb3d8
8000583e:	e56441f7          	.4byte	0xe56441f7
80005842:	c1f9                	beqz	a1,80005908 <data+0x120c>
80005844:	4c2c                	lw	a1,88(s0)
80005846:	4130                	lw	a2,64(a0)
80005848:	2944                	.2byte	0x2944
8000584a:	418a                	lw	gp,128(sp)
8000584c:	e16c                	fsw	fa1,68(a0)
8000584e:	7b404117          	auipc	sp,0x7b404
80005852:	f60041d7          	.4byte	0xf60041d7
80005856:	41a4                	lw	s1,64(a1)
80005858:	2940                	.2byte	0x2940
8000585a:	418a                	lw	gp,128(sp)
8000585c:	76cc                	flw	fa1,44(a3)
8000585e:	419e                	lw	gp,196(sp)
80005860:	d730                	sw	a2,104(a4)
80005862:	415c                	lw	a5,4(a0)
80005864:	9bf1                	andi	a5,a5,-4
80005866:	c226                	sw	s1,4(sp)
80005868:	c64e                	sw	s3,12(sp)
8000586a:	421c                	lw	a5,0(a2)
8000586c:	56d1                	li	a3,-12
8000586e:	85c8c1c3          	.4byte	0x85c8c1c3
80005872:	422c                	lw	a1,64(a2)
80005874:	c174                	sw	a3,68(a0)
80005876:	35cf41c7          	.4byte	0x35cf41c7
8000587a:	c208                	sw	a0,0(a2)
8000587c:	f990                	fsw	fa2,48(a1)
8000587e:	406d                	c.li	zero,27
80005880:	2334                	.2byte	0x2334
80005882:	4205                	li	tp,1
80005884:	3358                	.2byte	0x3358
80005886:	4106                	lw	sp,64(sp)
80005888:	136a                	slli	t1,t1,0x3a
8000588a:	420a                	lw	tp,128(sp)
8000588c:	8ec8                	.2byte	0x8ec8
8000588e:	41f6                	lw	gp,92(sp)
80005890:	dca9                	beqz	s1,800057ea <data+0x10ee>
80005892:	c1e8                	sw	a0,68(a1)
80005894:	22b2                	.2byte	0x22b2
80005896:	1c9a4223          	.4byte	0x1c9a4223
8000589a:	4215                	li	tp,5
8000589c:	7180                	flw	fs0,32(a1)
8000589e:	c130                	sw	a2,64(a0)
800058a0:	4b72                	lw	s6,28(sp)
800058a2:	c242                	sw	a6,4(sp)
800058a4:	5064                	lw	s1,100(s0)
800058a6:	c17a                	sw	t5,128(sp)
800058a8:	c1bd712b          	.4byte	0xc1bd712b
800058ac:	0b84                	addi	s1,sp,464
800058ae:	c12c                	sw	a1,64(a0)
800058b0:	4093430f          	.4byte	0x4093430f
800058b4:	802c                	.2byte	0x802c
800058b6:	4218                	lw	a4,0(a2)
800058b8:	c1ee51eb          	.4byte	0xc1ee51eb
800058bc:	eb60                	fsw	fs0,84(a4)
800058be:	41ba                	lw	gp,140(sp)
800058c0:	3205                	jal	800051e0 <data+0xae4>
800058c2:	ebacbf5b          	.4byte	0xebacbf5b
800058c6:	4215                	li	tp,5
800058c8:	23e8                	.2byte	0x23e8
800058ca:	c189                	beqz	a1,800058cc <data+0x11d0>
800058cc:	5e4d                	li	t3,-13
800058ce:	9ab1c1bf 7d544101 	.8byte	0x7d5441019ab1c1bf
800058d6:	8c3ec247          	.4byte	0x8c3ec247
800058da:	c7124237          	lui	tp,0xc7124
800058de:	c1e0                	sw	s0,68(a1)
800058e0:	1945                	addi	s2,s2,-15
800058e2:	c226                	sw	s1,4(sp)
800058e4:	528c                	lw	a1,32(a3)
800058e6:	420c                	lw	a1,0(a2)
800058e8:	c020ef0f          	.4byte	0xc020ef0f
800058ec:	937e                	add	t1,t1,t6
800058ee:	c241                	beqz	a2,8000596e <data+0x1272>
800058f0:	cd18                	sw	a4,24(a0)
800058f2:	4120                	lw	s0,64(a0)
800058f4:	ed00                	fsw	fs0,24(a0)
800058f6:	4156                	lw	sp,84(sp)
800058f8:	60d9                	lui	ra,0x16
800058fa:	40aa                	lw	ra,136(sp)
800058fc:	4c30                	lw	a2,88(s0)
800058fe:	c0d5                	beqz	s1,800059a2 <data+0x12a6>
80005900:	6fd4                	flw	fa3,28(a5)
80005902:	c1e1                	beqz	a1,800059c2 <data+0x12c6>
80005904:	81f0                	.2byte	0x81f0
80005906:	c122                	sw	s0,128(sp)
80005908:	c441                	beqz	s0,80005990 <data+0x1294>
8000590a:	c1ce                	sw	s3,192(sp)
8000590c:	31f0                	.2byte	0x31f0
8000590e:	c0e9                	beqz	s1,800059d0 <data+0x12d4>
80005910:	fb94                	fsw	fa3,48(a5)
80005912:	c19a                	sw	t1,192(sp)
80005914:	c21a4587          	.4byte	0xc21a4587
80005918:	7ac4                	flw	fs1,52(a3)
8000591a:	41fd                	li	gp,31
8000591c:	9278                	.2byte	0x9278
8000591e:	ccffc18f          	.4byte	0xccffc18f
80005922:	c086                	sw	ra,64(sp)
80005924:	fb35                	bnez	a4,80005898 <data+0x119c>
80005926:	67c4c227          	.4byte	0x67c4c227
8000592a:	41aa                	lw	gp,136(sp)
8000592c:	713d                	addi	sp,sp,-32
8000592e:	c246                	sw	a7,4(sp)
80005930:	84f8                	.2byte	0x84f8
80005932:	4238                	lw	a4,64(a2)
80005934:	0aee                	slli	s5,s5,0x1b
80005936:	4226                	lw	tp,72(sp)
80005938:	08e8                	addi	a0,sp,92
8000593a:	41be                	lw	gp,204(sp)
8000593c:	3e7f                	.2byte	0x3e7f
8000593e:	ed30c097          	auipc	ra,0xed30c
80005942:	8d8041e7          	.4byte	0x8d8041e7
80005946:	c22d                	beqz	a2,800059a8 <data+0x12ac>
80005948:	d210                	sw	a2,32(a2)
8000594a:	41aa                	lw	gp,136(sp)
8000594c:	8aec                	.2byte	0x8aec
8000594e:	c14e                	sw	s3,128(sp)
80005950:	0ad4                	addi	a3,sp,340
80005952:	c22d                	beqz	a2,800059b4 <data+0x12b8>
80005954:	ea90                	fsw	fa2,16(a3)
80005956:	4189                	li	gp,2
80005958:	e6f0                	fsw	fa2,76(a3)
8000595a:	2419410f          	.4byte	0x2419410f
8000595e:	7d41c20b          	.4byte	0x7d41c20b
80005962:	4014                	lw	a3,0(s0)
80005964:	1535                	addi	a0,a0,-19
80005966:	c22e                	sw	a1,4(sp)
80005968:	c204b797          	auipc	a5,0xc204b
8000596c:	84e6                	mv	s1,s9
8000596e:	c216                	sw	t0,4(sp)
80005970:	4c14                	lw	a3,24(s0)
80005972:	419f 2908 41b1      	.byte	0x9f, 0x41, 0x08, 0x29, 0xb1, 0x41
80005978:	8ca0                	.2byte	0x8ca0
8000597a:	40b6                	lw	ra,76(sp)
8000597c:	ee20                	fsw	fs0,88(a2)
8000597e:	4226                	lw	tp,72(sp)
80005980:	0bf9                	addi	s7,s7,30
80005982:	c218                	sw	a4,0(a2)
80005984:	dee8                	sw	a0,124(a3)
80005986:	41ee                	lw	gp,216(sp)
80005988:	e078                	fsw	fa4,68(s0)
8000598a:	c178                	sw	a4,68(a0)
8000598c:	4e21                	li	t3,8
8000598e:	c0ec                	sw	a1,68(s1)
80005990:	29ee                	.2byte	0x29ee
80005992:	4225                	li	tp,9
80005994:	7abe                	flw	fs5,236(sp)
80005996:	5a04c207          	.4byte	0x5a04c207
8000599a:	41c5                	li	gp,17
8000599c:	becc                	.2byte	0xbecc
8000599e:	c14e                	sw	s3,128(sp)
800059a0:	ebe5                	bnez	a5,80005a90 <data+0x1394>
800059a2:	c1ce                	sw	s3,192(sp)
800059a4:	f8e8                	fsw	fa0,116(s1)
800059a6:	c080                	sw	s0,0(s1)
800059a8:	83bc                	.2byte	0x83bc
800059aa:	c148                	sw	a0,4(a0)
800059ac:	c1ede1f7          	.4byte	0xc1ede1f7
800059b0:	50c0                	lw	s0,36(s1)
800059b2:	c148                	sw	a0,4(a0)
800059b4:	c21b1c7b          	.4byte	0xc21b1c7b
800059b8:	9cd0                	.2byte	0x9cd0
800059ba:	4178                	lw	a4,68(a0)
800059bc:	c2061d97          	auipc	s11,0xc2061
800059c0:	a9fa                	.2byte	0xa9fa
800059c2:	c200                	sw	s0,0(a2)
800059c4:	bf0c                	.2byte	0xbf0c
800059c6:	c151                	beqz	a0,80005a4a <data+0x134e>
800059c8:	face                	fsw	fs3,116(sp)
800059ca:	699d4063          	blt	s10,s9,8000604a <data+0x194e>
800059ce:	7a7bc1cb          	.4byte	0x7a7bc1cb
800059d2:	c697c237          	lui	tp,0xc697c
800059d6:	c215                	beqz	a2,800059fa <data+0x12fe>
800059d8:	639c                	flw	fa5,0(a5)
800059da:	6ac8c123          	.4byte	0x6ac8c123
800059de:	40ce                	lw	ra,208(sp)
800059e0:	b798                	.2byte	0xb798
800059e2:	7c09c1f7          	.4byte	0x7c09c1f7
800059e6:	90e440d3          	.4byte	0x90e440d3
800059ea:	4196                	lw	gp,68(sp)
800059ec:	ca3e                	sw	a5,20(sp)
800059ee:	f7f5421b          	.4byte	0xf7f5421b
800059f2:	c1a9                	beqz	a1,80005a34 <data+0x1338>
800059f4:	cbf1                	beqz	a5,80005ac8 <data+0x13cc>
800059f6:	70bcc1cb          	fnmsub.s	ft3,fs9,fa1,fa4,rmm
800059fa:	41f5                	li	gp,29
800059fc:	1fcc                	addi	a1,sp,1012
800059fe:	c114                	sw	a3,0(a0)
80005a00:	7684                	flw	fs1,40(a3)
80005a02:	c236                	sw	a3,4(sp)
80005a04:	7fc0                	flw	fs0,60(a5)
80005a06:	6e4ac20b          	.4byte	0x6e4ac20b
80005a0a:	4205                	li	tp,1
80005a0c:	b36a                	.2byte	0xb36a
80005a0e:	4236                	lw	tp,76(sp)
80005a10:	f4fc                	fsw	fa5,108(s1)
80005a12:	c195                	beqz	a1,80005a36 <data+0x133a>
80005a14:	6d28                	flw	fa0,88(a0)
80005a16:	4100                	lw	s0,0(a0)
80005a18:	f894                	fsw	fa3,48(s1)
80005a1a:	c189                	beqz	a1,80005a1c <data+0x1320>
80005a1c:	7c70                	flw	fa2,124(s0)
80005a1e:	40ac                	lw	a1,64(s1)
80005a20:	c23803d3          	.4byte	0xc23803d3
80005a24:	c58c                	sw	a1,8(a1)
80005a26:	41a1                	li	gp,8
80005a28:	3d28                	.2byte	0x3d28
80005a2a:	41cd                	li	gp,19
80005a2c:	600c                	flw	fa1,0(s0)
80005a2e:	c108                	sw	a0,0(a0)
80005a30:	8c98                	.2byte	0x8c98
80005a32:	e8e041fb          	.4byte	0xe8e041fb
80005a36:	c10c                	sw	a1,0(a0)
80005a38:	5331                	li	t1,-20
80005a3a:	40fe                	lw	ra,220(sp)
80005a3c:	1c50                	addi	a2,sp,564
80005a3e:	4245                	li	tp,17
80005a40:	ac0c                	.2byte	0xac0c
80005a42:	41e0                	lw	s0,68(a1)
80005a44:	f5ed                	bnez	a1,80005a2e <data+0x1332>
80005a46:	c219                	beqz	a2,80005a4c <data+0x1350>
80005a48:	c1d130fb          	.4byte	0xc1d130fb
80005a4c:	db8a                	sw	sp,244(sp)
80005a4e:	4200                	lw	s0,0(a2)
80005a50:	7906                	flw	fs2,96(sp)
80005a52:	3a70c1cf          	.4byte	0x3a70c1cf
80005a56:	415a                	lw	sp,148(sp)
80005a58:	5c78                	lw	a4,124(s0)
80005a5a:	c135                	beqz	a0,80005abe <data+0x13c2>
80005a5c:	c278                	sw	a4,68(a2)
80005a5e:	c0dc                	sw	a5,4(s1)
80005a60:	03c6                	slli	t2,t2,0x11
80005a62:	c1ee                	sw	s11,192(sp)
80005a64:	c22a0eab          	.4byte	0xc22a0eab
80005a68:	9c22                	add	s8,s8,s0
80005a6a:	773ac18f          	.4byte	0x773ac18f
80005a6e:	bf7f                	.2byte	0xbf7f
80005a70:	e948                	fsw	fa0,20(a0)
80005a72:	15b3c18f          	.4byte	0x15b3c18f
80005a76:	c215                	beqz	a2,80005a9a <data+0x139e>
80005a78:	fa30                	fsw	fa2,112(a2)
80005a7a:	421e                	lw	tp,196(sp)
80005a7c:	aca0                	.2byte	0xaca0
80005a7e:	c159                	beqz	a0,80005b04 <data+0x1408>
80005a80:	c1b12ae7          	.4byte	0xc1b12ae7
80005a84:	d0f4                	sw	a3,100(s1)
80005a86:	41b8                	lw	a4,64(a1)
80005a88:	6f7e                	flw	ft10,220(sp)
80005a8a:	c03cc18f          	.4byte	0xc03cc18f
80005a8e:	4111                	li	sp,4
80005a90:	f878                	fsw	fa4,116(s0)
80005a92:	c196                	sw	t0,192(sp)
80005a94:	2fd8                	.2byte	0x2fd8
80005a96:	416d                	li	sp,27
80005a98:	0062                	c.slli	zero,0x18
80005a9a:	c20e                	sw	gp,4(sp)
80005a9c:	003c                	addi	a5,sp,8
80005a9e:	c16e                	sw	s11,128(sp)
80005aa0:	450c                	lw	a1,8(a0)
80005aa2:	9e32c16f          	jal	sp,7ff32484 <buflen.1+0x7ff32444>
80005aa6:	4220                	lw	s0,64(a2)
80005aa8:	cfdc                	sw	a5,28(a5)
80005aaa:	41d4                	lw	a3,4(a1)
80005aac:	0af8                	addi	a4,sp,348
80005aae:	c206                	sw	ra,4(sp)
80005ab0:	380e                	.2byte	0x380e
80005ab2:	c195                	beqz	a1,80005ad6 <data+0x13da>
80005ab4:	36b0                	.2byte	0x36b0
80005ab6:	eea7c177          	.4byte	0xeea7c177
80005aba:	c208                	sw	a0,0(a2)
80005abc:	c2224603          	lbu	a2,-990(tp) # c697bc22 <__global_pointer$+0x46974de6>
80005ac0:	3982                	.2byte	0x3982
80005ac2:	c07c                	sw	a5,68(s0)
80005ac4:	1c94                	addi	a3,sp,624
80005ac6:	c126                	sw	s1,128(sp)
80005ac8:	9586                	add	a1,a1,ra
80005aca:	4226                	lw	tp,72(sp)
80005acc:	ffc8                	fsw	fa0,60(a5)
80005ace:	41a0                	lw	s0,64(a1)
80005ad0:	f889                	bnez	s1,800059e2 <data+0x12e6>
80005ad2:	c23a                	sw	a4,4(sp)
80005ad4:	832e                	mv	t1,a1
80005ad6:	c19d                	beqz	a1,80005afc <data+0x1400>
80005ad8:	c213186b          	.4byte	0xc213186b
80005adc:	f4d8                	fsw	fa4,44(s1)
80005ade:	4108c1d3          	.4byte	0x4108c1d3
80005ae2:	33dfc143          	.4byte	0x33dfc143
80005ae6:	0f70c097          	auipc	ra,0xf70c
80005aea:	41b4                	lw	a3,64(a1)
80005aec:	7638                	flw	fa4,104(a2)
80005aee:	419e                	lw	gp,196(sp)
80005af0:	0f48                	addi	a0,sp,916
80005af2:	4100                	lw	s0,0(a0)
80005af4:	07a0                	addi	s0,sp,968
80005af6:	4144                	lw	s1,4(a0)
80005af8:	300d                	jal	8000531a <data+0xc1e>
80005afa:	6e5ec22f          	.4byte	0x6e5ec22f
80005afe:	567c420f          	.4byte	0x567c420f
80005b02:	c16a                	sw	s10,128(sp)
80005b04:	9f34                	.2byte	0x9f34
80005b06:	0ca0c13b          	.4byte	0xca0c13b
80005b0a:	c0a1                	beqz	s1,80005b4a <data+0x144e>
80005b0c:	dc48                	sw	a0,60(s0)
80005b0e:	9bd64183          	lbu	gp,-1603(a2)
80005b12:	782cc23b          	.4byte	0x782cc23b
80005b16:	91ea4117          	auipc	sp,0x91ea4
80005b1a:	c241                	beqz	a2,80005b9a <data+0x149e>
80005b1c:	b464                	.2byte	0xb464
80005b1e:	c13d                	beqz	a0,80005b84 <data+0x1488>
80005b20:	e27a                	fsw	ft10,4(sp)
80005b22:	bec1                	j	800056f2 <data+0xff6>
80005b24:	ac08                	.2byte	0xac08
80005b26:	41e1                	li	gp,24
80005b28:	3f79                	jal	80005ac6 <data+0x13ca>
80005b2a:	4094                	lw	a3,0(s1)
80005b2c:	c068                	sw	a0,68(s0)
80005b2e:	f7a841f7          	.4byte	0xf7a841f7
80005b32:	c214                	sw	a3,0(a2)
80005b34:	3290                	.2byte	0x3290
80005b36:	9a3041a3          	.4byte	0x9a3041a3
80005b3a:	4221                	li	tp,8
80005b3c:	12fc                	addi	a5,sp,364
80005b3e:	410d                	li	sp,3
80005b40:	eddd                	bnez	a1,80005bfe <data+0x1502>
80005b42:	c21f 2fb8 4200      	.byte	0x1f, 0xc2, 0xb8, 0x2f, 0x00, 0x42
80005b48:	76b9                	lui	a3,0xfffee
80005b4a:	c1a8                	sw	a0,64(a1)
80005b4c:	e666                	fsw	fs9,12(sp)
80005b4e:	c212                	sw	tp,4(sp)
80005b50:	91df c216 9e41      	.byte	0xdf, 0x91, 0x16, 0xc2, 0x41, 0x9e
80005b56:	c0fa                	sw	t5,64(sp)
80005b58:	8348                	.2byte	0x8348
80005b5a:	e00dc153          	.4byte	0xe00dc153
80005b5e:	3e1d                	jal	80005694 <data+0xf98>
80005b60:	c5bc                	sw	a5,72(a1)
80005b62:	4215                	li	tp,5
80005b64:	c222d91b          	.4byte	0xc222d91b
80005b68:	4e0d                	li	t3,3
80005b6a:	c1f0                	sw	a2,68(a1)
80005b6c:	b3a0                	.2byte	0xb3a0
80005b6e:	c091                	beqz	s1,80005b72 <data+0x1476>
80005b70:	5198                	lw	a4,32(a1)
80005b72:	41ac                	lw	a1,64(a1)
80005b74:	c1beae27          	fsw	fs11,-996(t4)
80005b78:	902a                	c.add	zero,a0
80005b7a:	c195                	beqz	a1,80005b9e <data+0x14a2>
80005b7c:	6cd2                	flw	fs9,20(sp)
80005b7e:	c22c                	sw	a1,64(a2)
80005b80:	0478                	addi	a4,sp,524
80005b82:	2cb04167          	.4byte	0x2cb04167
80005b86:	41d2                	lw	gp,20(sp)
80005b88:	02a4                	addi	s1,sp,328
80005b8a:	4a9441bb          	.4byte	0x4a9441bb
80005b8e:	418c                	lw	a1,0(a1)
80005b90:	2e78                	.2byte	0x2e78
80005b92:	c164                	sw	s1,68(a0)
80005b94:	ded0                	sw	a2,60(a3)
80005b96:	47d041c7          	.4byte	0x47d041c7
80005b9a:	c231                	beqz	a2,80005bde <data+0x14e2>
80005b9c:	709e                	flw	ft1,228(sp)
80005b9e:	420d                	li	tp,3
80005ba0:	56c1                	li	a3,-16
80005ba2:	404c                	lw	a1,4(s0)
80005ba4:	007c                	addi	a5,sp,12
80005ba6:	4125                	li	sp,9
80005ba8:	a1a4                	.2byte	0xa1a4
80005baa:	4182                	lw	gp,0(sp)
80005bac:	3710                	.2byte	0x3710
80005bae:	417f                	.2byte	0x417f
80005bb0:	4d34                	lw	a3,88(a0)
80005bb2:	c19a                	sw	t1,192(sp)
80005bb4:	5810                	lw	a2,48(s0)
80005bb6:	dafa40d7          	.4byte	0xdafa40d7
80005bba:	c1c9                	beqz	a1,80005c3c <data+0x1540>
80005bbc:	51d8                	lw	a4,36(a1)
80005bbe:	c114                	sw	a3,0(a0)
80005bc0:	9514                	.2byte	0x9514
80005bc2:	7271c133          	.4byte	0x7271c133
80005bc6:	406d                	c.li	zero,27
80005bc8:	2920                	.2byte	0x2920
80005bca:	4080                	lw	s0,0(s1)
80005bcc:	1b82                	slli	s7,s7,0x20
80005bce:	3f91                	jal	80005b22 <data+0x1426>
80005bd0:	835e                	mv	t1,s7
80005bd2:	24524237          	lui	tp,0x24524
80005bd6:	d9454223          	.4byte	0xd9454223
80005bda:	c242                	sw	a6,4(sp)
80005bdc:	491c                	lw	a5,16(a0)
80005bde:	4205                	li	tp,1
80005be0:	b4c9                	j	800056a2 <data+0xfa6>
80005be2:	0097c247          	fmsub.s	ft4,fa5,fs1,ft0,rmm
80005be6:	c1e6                	sw	s9,192(sp)
80005be8:	dab1                	beqz	a3,80005b3c <data+0x1440>
80005bea:	c1a9                	beqz	a1,80005c2c <data+0x1530>
80005bec:	e808                	fsw	fa0,16(s0)
80005bee:	41ac                	lw	a1,64(a1)
80005bf0:	c02575ef          	jal	a1,7ff5cff2 <buflen.1+0x7ff5cfb2>
80005bf4:	2a4c                	.2byte	0x2a4c
80005bf6:	4121                	li	sp,8
80005bf8:	0e64                	addi	s1,sp,796
80005bfa:	41e4                	lw	s1,68(a1)
80005bfc:	9640                	.2byte	0x9640
80005bfe:	c218                	sw	a4,0(a2)
80005c00:	7c58                	flw	fa4,60(s0)
80005c02:	c15a                	sw	s6,128(sp)
80005c04:	1080                	addi	s0,sp,96
80005c06:	3ff1                	jal	80005be2 <data+0x14e6>
80005c08:	1e10                	addi	a2,sp,816
80005c0a:	aa9841eb          	.4byte	0xaa9841eb
80005c0e:	41b0                	lw	a2,64(a1)
80005c10:	c1b91027          	.4byte	0xc1b91027
80005c14:	4738                	lw	a4,72(a4)
80005c16:	420c                	lw	a1,0(a2)
80005c18:	2f49                	jal	800063aa <data+0x1cae>
80005c1a:	40ee                	lw	ra,216(sp)
80005c1c:	7ab0                	flw	fa2,112(a3)
80005c1e:	41f0                	lw	a2,68(a1)
80005c20:	c550                	sw	a2,12(a0)
80005c22:	d289c093          	xori	ra,s3,-728
80005c26:	c1d1                	beqz	a1,80005caa <data+0x15ae>
80005c28:	4e40                	lw	s0,28(a2)
80005c2a:	c07f                	.2byte	0xc07f
80005c2c:	c17c                	sw	a5,68(a0)
80005c2e:	41d0                	lw	a2,4(a1)
80005c30:	0380                	addi	s0,sp,448
80005c32:	41f4                	lw	a3,68(a1)
80005c34:	3b40                	.2byte	0x3b40
80005c36:	41a6                	lw	gp,72(sp)
80005c38:	b3ba                	.2byte	0xb3ba
80005c3a:	c204                	sw	s1,0(a2)
80005c3c:	c70d                	beqz	a4,80005c66 <data+0x156a>
80005c3e:	c1f5                	beqz	a1,80005d22 <data+0x1626>
80005c40:	1674                	addi	a3,sp,812
80005c42:	c1cc                	sw	a1,4(a1)
80005c44:	a2d8                	.2byte	0xa2d8
80005c46:	41a6                	lw	gp,72(sp)
80005c48:	4aac                	lw	a1,80(a3)
80005c4a:	0fb641a3          	.4byte	0xfb641a3
80005c4e:	c1ed                	beqz	a1,80005d30 <data+0x1634>
80005c50:	d6f4                	sw	a3,108(a3)
80005c52:	4139                	li	sp,14
80005c54:	9824                	.2byte	0x9824
80005c56:	41ad                	li	gp,11
80005c58:	3ec0                	.2byte	0x3ec0
80005c5a:	c239                	beqz	a2,80005ca0 <data+0x15a4>
80005c5c:	03d0                	addi	a2,sp,452
80005c5e:	cbc6413b          	.4byte	0xcbc6413b
80005c62:	5830422b          	.4byte	0x5830422b
80005c66:	c18c                	sw	a1,0(a1)
80005c68:	9612                	add	a2,a2,tp
80005c6a:	c185                	beqz	a1,80005c8a <data+0x158e>
80005c6c:	2e68                	.2byte	0x2e68
80005c6e:	c11a                	sw	t1,128(sp)
80005c70:	1e7a                	slli	t3,t3,0x3e
80005c72:	422a                	lw	tp,136(sp)
80005c74:	c3d8                	sw	a4,4(a5)
80005c76:	c218                	sw	a4,0(a2)
80005c78:	e261                	bnez	a2,80005d38 <data+0x163c>
80005c7a:	400d                	c.li	zero,3
80005c7c:	c1a90137          	lui	sp,0xc1a90
80005c80:	12b0                	addi	a2,sp,360
80005c82:	25a3415b          	.4byte	0x25a3415b
80005c86:	2b4fc193          	xori	gp,t6,692
80005c8a:	c244                	sw	s1,4(a2)
80005c8c:	3c98                	.2byte	0x3c98
80005c8e:	4222                	lw	tp,8(sp)
80005c90:	4b9a                	lw	s7,132(sp)
80005c92:	c205                	beqz	a2,80005cb2 <data+0x15b6>
80005c94:	6a68                	flw	fa0,84(a2)
80005c96:	4106                	lw	sp,64(sp)
80005c98:	f3e0                	fsw	fs0,100(a5)
80005c9a:	41a4                	lw	s1,64(a1)
80005c9c:	eef8                	fsw	fa4,92(a3)
80005c9e:	4140                	lw	s0,4(a0)
80005ca0:	b156                	.2byte	0xb156
80005ca2:	4200                	lw	s0,0(a2)
80005ca4:	7af4                	flw	fa3,116(a3)
80005ca6:	c205                	beqz	a2,80005cc6 <data+0x15ca>
80005ca8:	8e18                	.2byte	0x8e18
80005caa:	c13d                	beqz	a0,80005d10 <data+0x1614>
80005cac:	cc50                	sw	a2,28(s0)
80005cae:	414a                	lw	sp,144(sp)
80005cb0:	a2ac                	.2byte	0xa2ac
80005cb2:	4215                	li	tp,5
80005cb4:	4609                	li	a2,2
80005cb6:	409f 9f1c 41ff      	.byte	0x9f, 0x40, 0x1c, 0x9f, 0xff, 0x41
80005cbc:	688e                	flw	fa7,192(sp)
80005cbe:	c218                	sw	a4,0(a2)
80005cc0:	8ba8                	.2byte	0x8ba8
80005cc2:	c1c1                	beqz	a1,80005d42 <data+0x1646>
80005cc4:	4e40                	lw	s0,28(a2)
80005cc6:	e0d44017          	auipc	zero,0xe0d44
80005cca:	c18d                	beqz	a1,80005cec <data+0x15f0>
80005ccc:	afe8                	.2byte	0xafe8
80005cce:	4215                	li	tp,5
80005cd0:	7e16                	flw	ft8,100(sp)
80005cd2:	bca4c1cf          	.4byte	0xbca4c1cf
80005cd6:	c160                	sw	s0,68(a0)
80005cd8:	c904                	sw	s1,16(a0)
80005cda:	f346bf63          	.4byte	0xf346bf63
80005cde:	4980c203          	lbu	tp,1176(ra) # 8f711f7e <__global_pointer$+0xf70b142>
80005ce2:	a5d44193          	xori	gp,s0,-1443
80005ce6:	4201                	li	tp,0
80005ce8:	40ec090f          	.4byte	0x40ec090f
80005cec:	0ce4                	addi	s1,sp,604
80005cee:	e1fc412f          	.4byte	0xe1fc412f
80005cf2:	4230                	lw	a2,64(a2)
80005cf4:	a0ba                	.2byte	0xa0ba
80005cf6:	c221                	beqz	a2,80005d36 <data+0x163a>
80005cf8:	429e                	lw	t0,196(sp)
80005cfa:	421f 353f 40fd      	.byte	0x1f, 0x42, 0x3f, 0x35, 0xfd, 0x40
80005d00:	ce2c                	sw	a1,88(a2)
80005d02:	c10c                	sw	a1,0(a0)
80005d04:	174e                	slli	a4,a4,0x33
80005d06:	97ff4223          	.4byte	0x97ff4223
80005d0a:	06e8bfc3          	.4byte	0x6e8bfc3
80005d0e:	40fc                	lw	a5,68(s1)
80005d10:	85c6                	mv	a1,a7
80005d12:	45a0bf53          	.4byte	0x45a0bf53
80005d16:	86cdc1f7          	.4byte	0x86cdc1f7
80005d1a:	c1f0                	sw	a2,68(a1)
80005d1c:	3984                	.2byte	0x3984
80005d1e:	c195                	beqz	a1,80005d42 <data+0x1646>
80005d20:	770c                	flw	fa1,40(a4)
80005d22:	c164                	sw	s1,68(a0)
80005d24:	6450                	flw	fa2,12(s0)
80005d26:	4101                	li	sp,0
80005d28:	1654                	addi	a3,sp,804
80005d2a:	4230                	lw	a2,64(a2)
80005d2c:	f630                	fsw	fa2,104(a2)
80005d2e:	c1d6                	sw	s5,192(sp)
80005d30:	be2a                	.2byte	0xbe2a
80005d32:	cbc4c213          	xori	tp,s1,-836
80005d36:	8e9841cf          	.4byte	0x8e9841cf
80005d3a:	0ffcc16f          	jal	sp,800d2638 <__global_pointer$+0xcb7fc>
80005d3e:	c132                	sw	a2,128(sp)
80005d40:	4a75                	li	s4,29
80005d42:	c1ad                	beqz	a1,80005da4 <data+0x16a8>
80005d44:	57e0                	lw	s0,108(a5)
80005d46:	418a                	lw	gp,128(sp)
80005d48:	a82e                	.2byte	0xa82e
80005d4a:	c1bd                	beqz	a1,80005db0 <data+0x16b4>
80005d4c:	bbb2                	.2byte	0xbbb2
80005d4e:	4019                	c.li	zero,6
80005d50:	0339                	addi	t1,t1,14
80005d52:	3988c23b          	.4byte	0x3988c23b
80005d56:	50e841cb          	fnmsub.s	ft3,fa6,fa4,fa0,rmm
80005d5a:	430c419b          	.4byte	0x430c419b
80005d5e:	41ad                	li	gp,11
80005d60:	14c0                	addi	s0,sp,612
80005d62:	40fa                	lw	ra,156(sp)
80005d64:	c1b9acd3          	.4byte	0xc1b9acd3
80005d68:	3684                	.2byte	0x3684
80005d6a:	4941c18b          	.4byte	0x4941c18b
80005d6e:	4002                	.2byte	0x4002
80005d70:	dc8c                	sw	a1,56(s1)
80005d72:	c159                	beqz	a0,80005df8 <data+0x16fc>
80005d74:	b148                	.2byte	0xb148
80005d76:	c1dc                	sw	a5,4(a1)
80005d78:	34c5                	jal	80005858 <data+0x115c>
80005d7a:	c220                	sw	s0,64(a2)
80005d7c:	aaa4                	.2byte	0xaaa4
80005d7e:	41dc                	lw	a5,4(a1)
80005d80:	4156                	lw	sp,84(sp)
80005d82:	b9ecc213          	xori	tp,s9,-1122
80005d86:	4106                	lw	sp,64(sp)
80005d88:	a748                	.2byte	0xa748
80005d8a:	c168                	sw	a0,68(a0)
80005d8c:	c24c                	sw	a1,4(a2)
80005d8e:	4145                	li	sp,17
80005d90:	1754                	addi	a3,sp,932
80005d92:	41dc                	lw	a5,4(a1)
80005d94:	40ac9637          	lui	a2,0x40ac9
80005d98:	d3d2                	sw	s4,228(sp)
80005d9a:	422e                	lw	tp,200(sp)
80005d9c:	1218                	addi	a4,sp,288
80005d9e:	1424c213          	xori	tp,s1,322
80005da2:	c212                	sw	tp,4(sp)
80005da4:	ea24                	fsw	fs1,80(a2)
80005da6:	4216                	lw	tp,68(sp)
80005da8:	34c0                	.2byte	0x34c0
80005daa:	c15a                	sw	s6,128(sp)
80005dac:	a49f c1bb 4018      	.byte	0x9f, 0xa4, 0xbb, 0xc1, 0x18, 0x40
80005db2:	1e54415b          	.4byte	0x1e54415b
80005db6:	a6c841ab          	.4byte	0xa6c841ab
80005dba:	4176                	lw	sp,92(sp)
80005dbc:	2acc                	.2byte	0x2acc
80005dbe:	4228                	lw	a0,64(a2)
80005dc0:	139c                	addi	a5,sp,480
80005dc2:	c135                	beqz	a0,80005e26 <data+0x172a>
80005dc4:	d59c                	sw	a5,40(a1)
80005dc6:	4226                	lw	tp,72(sp)
80005dc8:	c0b1cbcf          	fnmadd.s	fs7,ft3,fa1,fs8,rmm
80005dcc:	2080                	.2byte	0x2080
80005dce:	c101                	beqz	a0,80005dce <data+0x16d2>
80005dd0:	e4c0                	fsw	fs0,12(s1)
80005dd2:	4188                	lw	a0,0(a1)
80005dd4:	9104                	.2byte	0x9104
80005dd6:	c210                	sw	a2,0(a2)
80005dd8:	a69a                	.2byte	0xa69a
80005dda:	c211                	beqz	a2,80005dde <data+0x16e2>
80005ddc:	9610                	.2byte	0x9610
80005dde:	c1c8                	sw	a0,4(a1)
80005de0:	9db8                	.2byte	0x9db8
80005de2:	c115                	beqz	a0,80005e06 <data+0x170a>
80005de4:	1dc1                	addi	s11,s11,-16 # 420669ac <buflen.1+0x4206696c>
80005de6:	c074                	sw	a3,68(s0)
80005de8:	b314                	.2byte	0xb314
80005dea:	42dc41d7          	.4byte	0x42dc41d7
80005dee:	41d8                	lw	a4,4(a1)
80005df0:	cb00                	sw	s0,16(a4)
80005df2:	4194                	lw	a3,0(a1)
80005df4:	a4c6                	.2byte	0xa4c6
80005df6:	b60f4213          	xori	tp,t5,-1184
80005dfa:	48584093          	xori	ra,a6,1157
80005dfe:	41fe                	lw	gp,220(sp)
80005e00:	6600                	flw	fs0,8(a2)
80005e02:	c095                	beqz	s1,80005e26 <data+0x172a>
80005e04:	4cf0                	lw	a2,92(s1)
80005e06:	4220                	lw	s0,64(a2)
80005e08:	5a10                	lw	a2,48(a2)
80005e0a:	422ac0bb          	.4byte	0x422ac0bb
80005e0e:	c1d9                	beqz	a1,80005e94 <data+0x1798>
80005e10:	0241                	addi	tp,tp,16 # 24524010 <buflen.1+0x24523fd0>
80005e12:	c091                	beqz	s1,80005e16 <data+0x171a>
80005e14:	5dc4                	lw	s1,60(a1)
80005e16:	c142                	sw	a6,128(sp)
80005e18:	ccb4                	sw	a3,88(s1)
80005e1a:	c15e                	sw	s7,128(sp)
80005e1c:	2e4c                	.2byte	0x2e4c
80005e1e:	5a98410f          	.4byte	0x5a98410f
80005e22:	7f44c1c3          	.4byte	0x7f44c1c3
80005e26:	f94441b3          	.4byte	0xf94441b3
80005e2a:	420d                	li	tp,3
80005e2c:	22ba                	.2byte	0x22ba
80005e2e:	421d                	li	tp,7
80005e30:	89a0                	.2byte	0x89a0
80005e32:	c0c5                	beqz	s1,80005ed2 <data+0x17d6>
80005e34:	bd45                	j	80005ce4 <data+0x15e8>
80005e36:	3f68                	.2byte	0x3f68
80005e38:	9b0c                	.2byte	0x9b0c
80005e3a:	41fa                	lw	gp,156(sp)
80005e3c:	09e4                	addi	s1,sp,220
80005e3e:	4202                	lw	tp,0(sp)
80005e40:	c0ec3b77          	.4byte	0xc0ec3b77
80005e44:	d7ea                	sw	s10,236(sp)
80005e46:	c1c1                	beqz	a1,80005ec6 <data+0x17ca>
80005e48:	7c75                	lui	s8,0xffffd
80005e4a:	c1cc                	sw	a1,4(a1)
80005e4c:	c221150f          	.4byte	0xc221150f
80005e50:	f3e8                	fsw	fa0,100(a5)
80005e52:	c125                	beqz	a0,80005eb2 <data+0x17b6>
80005e54:	9354                	.2byte	0x9354
80005e56:	805cc13f 3730c175 	.8byte	0x3730c175805cc13f
80005e5e:	41f2                	lw	gp,28(sp)
80005e60:	d950                	sw	a2,52(a0)
80005e62:	4208                	lw	a0,0(a2)
80005e64:	868c                	.2byte	0x868c
80005e66:	c219                	beqz	a2,80005e6c <data+0x1770>
80005e68:	e838                	fsw	fa4,80(s0)
80005e6a:	40e9                	li	ra,26
80005e6c:	4033ed0f          	.4byte	0x4033ed0f
80005e70:	1e38                	addi	a4,sp,824
80005e72:	4242                	lw	tp,16(sp)
80005e74:	4c36                	lw	s8,76(sp)
80005e76:	c218                	sw	a4,0(a2)
80005e78:	7414                	flw	fa3,40(s0)
80005e7a:	c176                	sw	t4,128(sp)
80005e7c:	7441                	lui	s0,0xffff0
80005e7e:	c0c4                	sw	s1,4(s1)
80005e80:	c23fff47          	.4byte	0xc23fff47
80005e84:	ef70                	fsw	fa2,92(a4)
80005e86:	41e5                	li	gp,25
80005e88:	a0c8                	.2byte	0xa0c8
80005e8a:	4185                	li	gp,1
80005e8c:	f901                	bnez	a0,80005d9c <data+0x16a0>
80005e8e:	c021                	beqz	s0,80005ece <data+0x17d2>
80005e90:	9fb8                	.2byte	0x9fb8
80005e92:	c205                	beqz	a2,80005eb2 <data+0x17b6>
80005e94:	e2ca                	fsw	fs2,68(sp)
80005e96:	c23c                	sw	a5,64(a2)
80005e98:	53fd                	li	t2,-1
80005e9a:	c22e                	sw	a1,4(sp)
80005e9c:	6819                	lui	a6,0x6
80005e9e:	c0fa                	sw	t5,64(sp)
80005ea0:	b9b0                	.2byte	0xb9b0
80005ea2:	41c9                	li	gp,18
80005ea4:	a546                	.2byte	0xa546
80005ea6:	54944227          	.4byte	0x54944227
80005eaa:	c194                	sw	a3,0(a1)
80005eac:	a8b8                	.2byte	0xa8b8
80005eae:	be21c1f7          	.4byte	0xbe21c1f7
80005eb2:	c0e5                	beqz	s1,80005f92 <data+0x1896>
80005eb4:	dcc4                	sw	s1,60(s1)
80005eb6:	c214                	sw	a3,0(a2)
80005eb8:	c241ca77          	.4byte	0xc241ca77
80005ebc:	c0cc                	sw	a1,4(s1)
80005ebe:	420d                	li	tp,3
80005ec0:	22e4                	.2byte	0x22e4
80005ec2:	1162c137          	lui	sp,0x1162c
80005ec6:	c1c0                	sw	s0,4(a1)
80005ec8:	abbe                	.2byte	0xabbe
80005eca:	4234                	lw	a3,64(a2)
80005ecc:	7498                	flw	fa4,40(s1)
80005ece:	41e1                	li	gp,24
80005ed0:	49e9                	li	s3,26
80005ed2:	4160                	lw	s0,68(a0)
80005ed4:	68b2                	flw	fa7,12(sp)
80005ed6:	c1a1                	beqz	a1,80005f16 <data+0x181a>
80005ed8:	5794                	lw	a3,40(a5)
80005eda:	86be4107          	.4byte	0x86be4107
80005ede:	bfe2                	.2byte	0xbfe2
80005ee0:	eb98                	fsw	fa4,16(a5)
80005ee2:	c108                	sw	a0,0(a0)
80005ee4:	ed12                	fsw	ft4,152(sp)
80005ee6:	c208                	sw	a0,0(a2)
80005ee8:	d566                	sw	s9,168(sp)
80005eea:	72b4c243          	.4byte	0x72b4c243
80005eee:	c120                	sw	s0,64(a0)
80005ef0:	7292                	flw	ft5,36(sp)
80005ef2:	c1b2                	sw	a2,192(sp)
80005ef4:	c9ac                	sw	a1,80(a1)
80005ef6:	c165                	beqz	a0,80005fd6 <data+0x18da>
80005ef8:	54cc                	lw	a1,44(s1)
80005efa:	711f4207          	.4byte	0x711f4207
80005efe:	c1a2                	sw	s0,192(sp)
80005f00:	7ab2                	flw	fs5,44(sp)
80005f02:	c20e                	sw	gp,4(sp)
80005f04:	4bbe                	lw	s7,204(sp)
80005f06:	3f09                	jal	80005e18 <data+0x171c>
80005f08:	4fc0                	lw	s0,28(a5)
80005f0a:	41d9                	li	gp,22
80005f0c:	c19834d3          	.4byte	0xc19834d3
80005f10:	265f 4054 53e4      	.byte	0x5f, 0x26, 0x54, 0x40, 0xe4, 0x53
80005f16:	4206                	lw	tp,64(sp)
80005f18:	3124                	.2byte	0x3124
80005f1a:	41b9                	li	gp,14
80005f1c:	c185                	beqz	a1,80005f3c <data+0x1840>
80005f1e:	f254c1ab          	.4byte	0xf254c1ab
80005f22:	91b741cb          	fnmsub.s	ft3,fa4,fs11,fs2,rmm
80005f26:	c235                	beqz	a2,80005f8a <data+0x188e>
80005f28:	51f0                	lw	a2,100(a1)
80005f2a:	7d34c01b          	.4byte	0x7d34c01b
80005f2e:	c1fd                	beqz	a1,80006014 <data+0x1918>
80005f30:	6e7c                	flw	fa5,92(a2)
80005f32:	c202                	sw	zero,4(sp)
80005f34:	e586                	fsw	ft1,200(sp)
80005f36:	bf5f fdcd c238      	.byte	0x5f, 0xbf, 0xcd, 0xfd, 0x38, 0xc2
80005f3c:	4658                	lw	a4,12(a2)
80005f3e:	40be                	lw	ra,204(sp)
80005f40:	ef70                	fsw	fa2,92(a4)
80005f42:	41c8                	lw	a0,4(a1)
80005f44:	adf0                	.2byte	0xadf0
80005f46:	f3a04243          	.4byte	0xf3a04243
80005f4a:	c17d                	beqz	a0,80006030 <data+0x1934>
80005f4c:	d734                	sw	a3,104(a4)
80005f4e:	c12d                	beqz	a0,80005fb0 <data+0x18b4>
80005f50:	0cd2                	slli	s9,s9,0x14
80005f52:	c1aa                	sw	a0,192(sp)
80005f54:	5900                	lw	s0,48(a0)
80005f56:	422a                	lw	tp,136(sp)
80005f58:	75fc                	flw	fa5,108(a1)
80005f5a:	4215                	li	tp,5
80005f5c:	7d64                	flw	fs1,124(a0)
80005f5e:	41a1                	li	gp,8
80005f60:	9414                	.2byte	0x9414
80005f62:	c226                	sw	s1,4(sp)
80005f64:	a098                	.2byte	0xa098
80005f66:	4219                	li	tp,6
80005f68:	5dfc                	lw	a5,124(a1)
80005f6a:	c21f 3570 c15f      	.byte	0x1f, 0xc2, 0x70, 0x35, 0x5f, 0xc1
80005f70:	a3a6                	.2byte	0xa3a6
80005f72:	f6d0c1cf          	.4byte	0xf6d0c1cf
80005f76:	e850422f          	.4byte	0xe850422f
80005f7a:	3214417b          	.4byte	0x3214417b
80005f7e:	c139                	beqz	a0,80005fc4 <data+0x18c8>
80005f80:	1fff                	.2byte	0x1fff
80005f82:	f061c0af          	.4byte	0xf061c0af
80005f86:	c0e2                	sw	s8,64(sp)
80005f88:	3224                	.2byte	0x3224
80005f8a:	5e64419b          	.4byte	0x5e64419b
80005f8e:	144f423f 72d8c1bc 	.8byte	0x72d8c1bc144f423f
80005f96:	c0ee                	sw	s11,64(sp)
80005f98:	04bc                	addi	a5,sp,584
80005f9a:	c1bd                	beqz	a1,80006000 <data+0x1904>
80005f9c:	10fe                	slli	ra,ra,0x3f
80005f9e:	c240                	sw	s0,4(a2)
80005fa0:	0121                	addi	sp,sp,8 # 1162c008 <buflen.1+0x1162bfc8>
80005fa2:	c036                	sw	a3,0(sp)
80005fa4:	9108                	.2byte	0x9108
80005fa6:	9f3041bf c5c8c1ed 	.8byte	0xc5c8c1ed9f3041bf
80005fae:	4168                	lw	a0,68(a0)
80005fb0:	c1d76e23          	.4byte	0xc1d76e23
80005fb4:	9aca                	add	s5,s5,s2
80005fb6:	0b85c1cf          	.4byte	0xb85c1cf
80005fba:	c1ec                	sw	a1,68(a1)
80005fbc:	c0a8                	sw	a0,64(s1)
80005fbe:	4240                	lw	s0,4(a2)
80005fc0:	3ee8                	.2byte	0x3ee8
80005fc2:	c1d8                	sw	a4,4(a1)
80005fc4:	4093eaaf          	.4byte	0x4093eaaf
80005fc8:	d494                	sw	a3,40(s1)
80005fca:	c14a                	sw	s2,128(sp)
80005fcc:	445f 3fdb 9aae      	.byte	0x5f, 0x44, 0xdb, 0x3f, 0xae, 0x9a
80005fd2:	c032                	sw	a2,0(sp)
80005fd4:	7e50                	flw	fa2,60(a2)
80005fd6:	c1ca                	sw	s2,192(sp)
80005fd8:	ce56                	sw	s5,28(sp)
80005fda:	c1e0                	sw	s0,68(a1)
80005fdc:	1208                	addi	a0,sp,288
80005fde:	40b2                	lw	ra,12(sp)
80005fe0:	9e90                	.2byte	0x9e90
80005fe2:	8a4ec213          	xori	tp,t4,-1884
80005fe6:	74e6c18f          	.4byte	0x74e6c18f
80005fea:	4226                	lw	tp,72(sp)
80005fec:	c18c                	sw	a1,0(a1)
80005fee:	c14d                	beqz	a0,80006090 <data+0x1994>
80005ff0:	9cac                	.2byte	0x9cac
80005ff2:	77c9c1bf 863040eb 	.8byte	0x863040eb77c9c1bf
80005ffa:	41cc                	lw	a1,4(a1)
80005ffc:	9b50                	.2byte	0x9b50
80005ffe:	41a4                	lw	s1,64(a1)
80006000:	ef12                	fsw	ft4,156(sp)
80006002:	c246                	sw	a7,4(sp)
80006004:	1eb0                	addi	a2,sp,888
80006006:	c0a1                	beqz	s1,80006046 <data+0x194a>
80006008:	581c                	lw	a5,48(s0)
8000600a:	f2744193          	xori	gp,s0,-217
8000600e:	c1b9                	beqz	a1,80006054 <data+0x1958>
80006010:	0dce                	slli	s11,s11,0x13
80006012:	4216                	lw	tp,68(sp)
80006014:	29b2                	.2byte	0x29b2
80006016:	14714233          	.4byte	0x14714233
8000601a:	c1aa                	sw	a0,192(sp)
8000601c:	490c                	lw	a1,16(a0)
8000601e:	c175                	beqz	a0,80006102 <data+0x1a06>
80006020:	e468                	fsw	fa0,76(s0)
80006022:	4195                	li	gp,5
80006024:	7408                	flw	fa0,40(s0)
80006026:	bf76                	.2byte	0xbf76
80006028:	df2e                	sw	a1,188(sp)
8000602a:	4244                	lw	s1,4(a2)
8000602c:	3b24                	.2byte	0x3b24
8000602e:	b1944227          	.4byte	0xb1944227
80006032:	41b8                	lw	a4,64(a1)
80006034:	4d26                	lw	s10,72(sp)
80006036:	c1f2                	sw	t3,192(sp)
80006038:	fbca                	fsw	fs2,244(sp)
8000603a:	421f 3958 4238      	.byte	0x1f, 0x42, 0x58, 0x39, 0x38, 0x42
80006040:	ad88                	.2byte	0xad88
80006042:	41c2                	lw	gp,16(sp)
80006044:	72b5                	lui	t0,0xfffed
80006046:	c1b5                	beqz	a1,800060aa <data+0x19ae>
80006048:	c860                	sw	s0,84(s0)
8000604a:	c00e                	sw	gp,0(sp)
8000604c:	a5d0                	.2byte	0xa5d0
8000604e:	77e2c1e3          	blt	t0,t5,80006fb0 <__global_pointer$+0x174>
80006052:	4000                	lw	s0,0(s0)
80006054:	589c                	lw	a5,48(s1)
80006056:	419d                	li	gp,7
80006058:	deb4                	sw	a3,120(a3)
8000605a:	41d8                	lw	a4,4(a1)
8000605c:	a3b8                	.2byte	0xa3b8
8000605e:	4171                	li	sp,28
80006060:	18d8                	addi	a4,sp,116
80006062:	c241                	beqz	a2,800060e2 <data+0x19e6>
80006064:	c87c                	sw	a5,84(s0)
80006066:	4195                	li	gp,5
80006068:	0776                	slli	a4,a4,0x1d
8000606a:	ce5ac23f 5991c1b1 	.8byte	0x5991c1b1ce5ac23f
80006072:	7744c1bf 667c41de 	.8byte	0x667c41de7744c1bf
8000607a:	4241                	li	tp,16
8000607c:	37b6                	.2byte	0x37b6
8000607e:	c1bd                	beqz	a1,800060e4 <data+0x19e8>
80006080:	d066                	sw	s9,32(sp)
80006082:	c1d9                	beqz	a1,80006108 <data+0x1a0c>
80006084:	2514                	.2byte	0x2514
80006086:	4186                	lw	gp,64(sp)
80006088:	aeb0                	.2byte	0xaeb0
8000608a:	4046                	.2byte	0x4046
8000608c:	da65                	beqz	a2,8000607c <data+0x1980>
8000608e:	c21e                	sw	t2,4(sp)
80006090:	f0ec                	fsw	fa1,100(s1)
80006092:	4138                	lw	a4,64(a0)
80006094:	c164                	sw	s1,68(a0)
80006096:	41fe                	lw	gp,220(sp)
80006098:	6541                	lui	a0,0x10
8000609a:	c0a1                	beqz	s1,800060da <data+0x19de>
8000609c:	a322                	.2byte	0xa322
8000609e:	c19d                	beqz	a1,800060c4 <data+0x19c8>
800060a0:	c198f23b          	.4byte	0xc198f23b
800060a4:	6bc8                	flw	fa0,20(a5)
800060a6:	c0ba                	sw	a4,64(sp)
800060a8:	2cdc                	.2byte	0x2cdc
800060aa:	c1df 2053 c238      	.byte	0xdf, 0xc1, 0x53, 0x20, 0x38, 0xc2
800060b0:	2fd0                	.2byte	0x2fd0
800060b2:	415e                	lw	sp,212(sp)
800060b4:	9aa4                	.2byte	0x9aa4
800060b6:	e6fcc217          	auipc	tp,0xe6fcc
800060ba:	7524c247          	.4byte	0x7524c247
800060be:	c13c                	sw	a5,64(a0)
800060c0:	4ffc                	lw	a5,92(a5)
800060c2:	c129                	beqz	a0,80006104 <data+0x1a08>
800060c4:	3822                	.2byte	0x3822
800060c6:	c00d                	beqz	s0,800060e8 <data+0x19ec>
800060c8:	3f40                	.2byte	0x3f40
800060ca:	411c                	lw	a5,0(a0)
800060cc:	b37e                	.2byte	0xb37e
800060ce:	4225                	li	tp,9
800060d0:	2734                	.2byte	0x2734
800060d2:	c202                	sw	zero,4(sp)
800060d4:	035c                	addi	a5,sp,388
800060d6:	c152                	sw	s4,128(sp)
800060d8:	e361                	bnez	a4,80006198 <data+0x1a9c>
800060da:	40d0                	lw	a2,4(s1)
800060dc:	c1f68017          	auipc	zero,0xc1f68
800060e0:	9c99                	.2byte	0x9c99
800060e2:	c231                	beqz	a2,80006126 <data+0x1a2a>
800060e4:	410c53db          	.4byte	0x410c53db
800060e8:	738e                	flw	ft7,224(sp)
800060ea:	c042                	sw	a6,0(sp)
800060ec:	c19292c3          	fmadd.s	ft5,ft5,fs9,fs8,rtz
800060f0:	bd98                	.2byte	0xbd98
800060f2:	c156                	sw	s5,128(sp)
800060f4:	05e8                	addi	a0,sp,716
800060f6:	c096                	sw	t0,64(sp)
800060f8:	6b14                	flw	fa3,16(a4)
800060fa:	4100                	lw	s0,0(a0)
800060fc:	a198                	.2byte	0xa198
800060fe:	4115                	li	sp,5
80006100:	c217ae33          	.4byte	0xc217ae33
80006104:	7a51                	lui	s4,0xffff4
80006106:	1c00c21b          	.4byte	0x1c00c21b
8000610a:	419d                	li	gp,7
8000610c:	1c10                	addi	a2,sp,560
8000610e:	41bd                	li	gp,15
80006110:	e662                	fsw	fs8,12(sp)
80006112:	9ea6422b          	.4byte	0x9ea6422b
80006116:	c20d                	beqz	a2,80006138 <data+0x1a3c>
80006118:	438a                	lw	t2,128(sp)
8000611a:	c238                	sw	a4,64(a2)
8000611c:	2576                	.2byte	0x2576
8000611e:	c1d1                	beqz	a1,800061a2 <data+0x1aa6>
80006120:	4f80                	lw	s0,24(a5)
80006122:	410c                	lw	a1,0(a0)
80006124:	b3f1                	j	80005ef0 <data+0x17f4>
80006126:	661bc1bf c058c1b1 	.8byte	0xc058c1b1661bc1bf
8000612e:	c1da                	sw	s6,192(sp)
80006130:	d270                	sw	a2,100(a2)
80006132:	c13d                	beqz	a0,80006198 <data+0x1a9c>
80006134:	c1b13413          	sltiu	s0,sp,-997
80006138:	0a2c                	addi	a1,sp,280
8000613a:	412e                	lw	sp,200(sp)
8000613c:	6ec8                	flw	fa0,28(a3)
8000613e:	41dc                	lw	a5,4(a1)
80006140:	24e8                	.2byte	0x24e8
80006142:	41cd                	li	gp,19
80006144:	db4a                	sw	s2,180(sp)
80006146:	c1ea                	sw	s10,192(sp)
80006148:	d5c8                	sw	a0,44(a1)
8000614a:	6b404197          	auipc	gp,0x6b404
8000614e:	422c                	lw	a1,64(a2)
80006150:	8c20                	.2byte	0x8c20
80006152:	40f0                	lw	a2,68(s1)
80006154:	f15d                	bnez	a0,800060fa <data+0x19fe>
80006156:	d4ccc1c3          	.4byte	0xd4ccc1c3
8000615a:	c216                	sw	t0,4(sp)
8000615c:	d3ac                	sw	a1,96(a5)
8000615e:	4151                	li	sp,20
80006160:	1c48                	addi	a0,sp,564
80006162:	4209                	li	tp,2
80006164:	0ff0                	addi	a2,sp,988
80006166:	4114                	lw	a3,0(a0)
80006168:	2b8a                	.2byte	0x2b8a
8000616a:	263d4233          	.4byte	0x263d4233
8000616e:	c1e9                	beqz	a1,80006230 <data+0x1b34>
80006170:	bcc1                	j	80005c40 <data+0x1544>
80006172:	c235                	beqz	a2,800061d6 <data+0x1ada>
80006174:	64e0                	flw	fs0,76(s1)
80006176:	4034                	lw	a3,64(s0)
80006178:	aa90                	.2byte	0xaa90
8000617a:	41f1                	li	gp,28
8000617c:	6af4                	flw	fa3,84(a3)
8000617e:	c205                	beqz	a2,8000619e <data+0x1aa2>
80006180:	2ff8                	.2byte	0x2ff8
80006182:	415f b70b be1c      	.byte	0x5f, 0x41, 0x0b, 0xb7, 0x1c, 0xbe
80006188:	2314                	.2byte	0x2314
8000618a:	4221                	li	tp,8
8000618c:	92ff                	.2byte	0x92ff
8000618e:	40dd                	li	ra,23
80006190:	1288                	addi	a0,sp,352
80006192:	df884167          	.4byte	0xdf884167
80006196:	4230                	lw	a2,64(a2)
80006198:	3f48                	.2byte	0x3f48
8000619a:	41f6                	lw	gp,92(sp)
8000619c:	4efa                	lw	t4,156(sp)
8000619e:	c1d6                	sw	s5,192(sp)
800061a0:	f4dd                	bnez	s1,8000614e <data+0x1a52>
800061a2:	c1ed                	beqz	a1,80006284 <data+0x1b88>
800061a4:	936a                	add	t1,t1,s10
800061a6:	c225                	beqz	a2,80006206 <data+0x1b0a>
800061a8:	3d49                	jal	8000603a <data+0x193e>
800061aa:	c084                	sw	s1,0(s1)
800061ac:	43d4                	lw	a3,4(a5)
800061ae:	4106                	lw	sp,64(sp)
800061b0:	b5d0                	.2byte	0xb5d0
800061b2:	c158                	sw	a4,4(a0)
800061b4:	051d                	addi	a0,a0,7 # 10007 <buflen.1+0xffc7>
800061b6:	c22d                	beqz	a2,80006218 <data+0x1b1c>
800061b8:	de98                	sw	a4,56(a3)
800061ba:	c160                	sw	s0,68(a0)
800061bc:	9b00                	.2byte	0x9b00
800061be:	e584c217          	auipc	tp,0xe584c
800061c2:	c1b4                	sw	a3,64(a1)
800061c4:	4cc1                	li	s9,16
800061c6:	c234                	sw	a3,64(a2)
800061c8:	2fc0                	.2byte	0x2fc0
800061ca:	9ec2c233          	.4byte	0x9ec2c233
800061ce:	8ae1420b          	.4byte	0x8ae1420b
800061d2:	c19c                	sw	a5,0(a1)
800061d4:	c202048b          	.4byte	0xc202048b
800061d8:	8a7e                	mv	s4,t6
800061da:	bffd                	j	800061d8 <data+0x1adc>
800061dc:	2928                	.2byte	0x2928
800061de:	c20d                	beqz	a2,80006200 <data+0x1b04>
800061e0:	fee4                	fsw	fs1,124(a3)
800061e2:	41d5                	li	gp,21
800061e4:	0651                	addi	a2,a2,20 # 40ac9014 <buflen.1+0x40ac8fd4>
800061e6:	c0e6                	sw	s9,64(sp)
800061e8:	f118                	fsw	fa4,32(a0)
800061ea:	c166                	sw	s9,128(sp)
800061ec:	8560                	.2byte	0x8560
800061ee:	41fa                	lw	gp,156(sp)
800061f0:	8584                	.2byte	0x8584
800061f2:	4236                	lw	tp,76(sp)
800061f4:	e6fe                	fsw	ft11,76(sp)
800061f6:	c208                	sw	a0,0(a2)
800061f8:	d7bc                	sw	a5,104(a5)
800061fa:	4604423f f1304119 	.8byte	0xf13041194604423f
80006202:	4179                	li	sp,30
80006204:	face                	fsw	fs3,116(sp)
80006206:	4218                	lw	a4,0(a2)
80006208:	fc20                	fsw	fs0,120(s0)
8000620a:	c205                	beqz	a2,8000622a <data+0x1b2e>
8000620c:	7e24                	flw	fs1,120(a2)
8000620e:	c19f da58 4201      	.byte	0x9f, 0xc1, 0x58, 0xda, 0x01, 0x42
80006214:	2384                	.2byte	0x2384
80006216:	423d                	li	tp,15
80006218:	4051970f          	.4byte	0x4051970f
8000621c:	c23d2017          	auipc	zero,0xc23d2
80006220:	6fe6                	flw	ft11,88(sp)
80006222:	c230                	sw	a2,64(a2)
80006224:	91c8                	.2byte	0x91c8
80006226:	4244                	lw	s1,4(a2)
80006228:	c378                	sw	a4,68(a4)
8000622a:	4131                	li	sp,12
8000622c:	eac8                	fsw	fa0,20(a3)
8000622e:	c0f4                	sw	a3,68(s1)
80006230:	7355                	lui	t1,0xffff5
80006232:	c230                	sw	a2,64(a2)
80006234:	393a                	.2byte	0x393a
80006236:	423c                	lw	a5,64(a2)
80006238:	3d38                	.2byte	0x3d38
8000623a:	408e                	lw	ra,192(sp)
8000623c:	cc2e                	sw	a1,24(sp)
8000623e:	c185                	beqz	a1,8000625e <data+0x1b62>
80006240:	1388                	addi	a0,sp,480
80006242:	c240                	sw	s0,4(a2)
80006244:	5fa0                	lw	s0,120(a5)
80006246:	411a                	lw	sp,132(sp)
80006248:	8eaa                	mv	t4,a0
8000624a:	c1fe                	sw	t6,192(sp)
8000624c:	b1f0                	.2byte	0xb1f0
8000624e:	c18c                	sw	a1,0(a1)
80006250:	26b8                	.2byte	0x26b8
80006252:	41d9                	li	gp,22
80006254:	98b0                	.2byte	0x98b0
80006256:	4181                	li	gp,0
80006258:	21ff                	.2byte	0x21ff
8000625a:	c038                	sw	a4,64(s0)
8000625c:	2ce0                	.2byte	0x2ce0
8000625e:	4079                	c.li	zero,30
80006260:	c223f473          	csrrci	s0,vlenb,7
80006264:	c19a                	sw	t1,192(sp)
80006266:	4202                	lw	tp,0(sp)
80006268:	aa0c                	.2byte	0xaa0c
8000626a:	c16c                	sw	a1,68(a0)
8000626c:	c2356eef          	jal	t4,7ff5ce8e <buflen.1+0x7ff5ce4e>
80006270:	da9a                	sw	t1,116(sp)
80006272:	4241                	li	tp,16
80006274:	a58e                	.2byte	0xa58e
80006276:	c186                	sw	ra,192(sp)
80006278:	8a48                	.2byte	0x8a48
8000627a:	5b984163          	blt	a6,s9,8000681c <_tbss_end+0x158>
8000627e:	4161                	li	sp,24
80006280:	aff2                	.2byte	0xaff2
80006282:	c1e4                	sw	s1,68(a1)
80006284:	cce4                	sw	s1,92(s1)
80006286:	41f5                	li	gp,29
80006288:	97d4                	.2byte	0x97d4
8000628a:	4230                	lw	a2,64(a2)
8000628c:	7da1                	lui	s11,0xfffe8
8000628e:	c238                	sw	a4,64(a2)
80006290:	13ec                	addi	a1,sp,492
80006292:	41e0                	lw	s0,68(a1)
80006294:	c024ebaf          	.4byte	0xc024ebaf
80006298:	9db8                	.2byte	0x9db8
8000629a:	c22d                	beqz	a2,800062fc <data+0x1c00>
8000629c:	9a10                	.2byte	0x9a10
8000629e:	cf204207          	.4byte	0xcf204207
800062a2:	a650c05b          	.4byte	0xa650c05b
800062a6:	418d                	li	gp,3
800062a8:	0692                	slli	a3,a3,0x4
800062aa:	c1be                	sw	a5,192(sp)
800062ac:	fba0                	fsw	fs0,112(a5)
800062ae:	401c                	lw	a5,0(s0)
800062b0:	3180                	.2byte	0x3180
800062b2:	416c                	lw	a1,68(a0)
800062b4:	88bc                	.2byte	0x88bc
800062b6:	41f5                	li	gp,29
800062b8:	e9a2                	fsw	fs0,208(sp)
800062ba:	420e                	lw	tp,192(sp)
800062bc:	f1b0                	fsw	fa2,96(a1)
800062be:	4185                	li	gp,1
800062c0:	8ee4                	.2byte	0x8ee4
800062c2:	c11a                	sw	t1,128(sp)
800062c4:	c2385db3          	.4byte	0xc2385db3
800062c8:	9fe0                	.2byte	0x9fe0
800062ca:	4244                	lw	s1,4(a2)
800062cc:	105d                	c.nop	-9
800062ce:	c202                	sw	zero,4(sp)
800062d0:	dd48                	sw	a0,60(a0)
800062d2:	41a0                	lw	s0,64(a1)
800062d4:	23ff                	.2byte	0x23ff
800062d6:	c06e                	sw	s11,0(sp)
800062d8:	04e4                	addi	s1,sp,588
800062da:	f46441ab          	.4byte	0xf46441ab
800062de:	41e8                	lw	a0,68(a1)
800062e0:	414e                	lw	sp,208(sp)
800062e2:	c1a8                	sw	a0,64(a1)
800062e4:	a812                	.2byte	0xa812
800062e6:	c22d                	beqz	a2,80006348 <data+0x1c4c>
800062e8:	0b42                	slli	s6,s6,0x10
800062ea:	8c184207          	.4byte	0x8c184207
800062ee:	c1b4                	sw	a3,64(a1)
800062f0:	eb64                	fsw	fs1,84(a4)
800062f2:	22c0c123          	.4byte	0x22c0c123
800062f6:	c001                	beqz	s0,800062f6 <data+0x1bfa>
800062f8:	10da                	slli	ra,ra,0x36
800062fa:	4226                	lw	tp,72(sp)
800062fc:	b4b4                	.2byte	0xb4b4
800062fe:	4132                	lw	sp,12(sp)
80006300:	5775                	li	a4,-3
80006302:	c1aa                	sw	a0,192(sp)
80006304:	a8b0                	.2byte	0xa8b0
80006306:	420e                	lw	tp,192(sp)
80006308:	4170be2f          	.4byte	0x4170be2f
8000630c:	21c6                	.2byte	0x21c6
8000630e:	c22d                	beqz	a2,80006370 <data+0x1c74>
80006310:	4c18                	lw	a4,24(s0)
80006312:	23a8c187          	.4byte	0x23a8c187
80006316:	41ad                	li	gp,11
80006318:	784a                	flw	fa6,176(sp)
8000631a:	4222                	lw	tp,8(sp)
8000631c:	3a04                	.2byte	0x3a04
8000631e:	41ed                	li	gp,27
80006320:	6c10                	flw	fa2,24(s0)
80006322:	c12a                	sw	a0,128(sp)
80006324:	8afe                	mv	s5,t6
80006326:	c204                	sw	s1,0(a2)
80006328:	2688                	.2byte	0x2688
8000632a:	8ea5c18f          	.4byte	0x8ea5c18f
8000632e:	3960c237          	lui	tp,0x3960c
80006332:	423e                	lw	tp,204(sp)
80006334:	a9a2                	.2byte	0xa9a2
80006336:	c200                	sw	s0,0(a2)
80006338:	d468                	sw	a0,108(s0)
8000633a:	41a6                	lw	gp,72(sp)
8000633c:	a964                	.2byte	0xa964
8000633e:	c141                	beqz	a0,800063be <data+0x1cc2>
80006340:	0eaa                	slli	t4,t4,0xa
80006342:	c1e2                	sw	s8,192(sp)
80006344:	1428                	addi	a0,sp,552
80006346:	41a0                	lw	s0,64(a1)
80006348:	2a50                	.2byte	0x2a50
8000634a:	40ac                	lw	a1,64(s1)
8000634c:	6750                	flw	fa2,12(a4)
8000634e:	d82e4227          	.4byte	0xd82e4227
80006352:	c206                	sw	ra,4(sp)
80006354:	c1b9f08b          	.4byte	0xc1b9f08b
80006358:	c304                	sw	s1,0(a4)
8000635a:	c6a841a7          	.4byte	0xc6a841a7
8000635e:	40aec097          	auipc	ra,0x40aec
80006362:	c185                	beqz	a1,80006382 <data+0x1c86>
80006364:	6619                	lui	a2,0x6
80006366:	82404097          	auipc	ra,0x82404
8000636a:	41b5                	li	gp,13
8000636c:	c99c                	sw	a5,16(a1)
8000636e:	41b8                	lw	a4,64(a1)
80006370:	2569                	jal	800069fa <_tbss_end+0x336>
80006372:	c23d                	beqz	a2,800063d8 <data+0x1cdc>
80006374:	47e8                	lw	a0,76(a5)
80006376:	b8094163          	bltz	s2,800056f8 <data+0xffc>
8000637a:	a248c17b          	.4byte	0xa248c17b
8000637e:	c194                	sw	a3,0(a1)
80006380:	5715                	li	a4,-27
80006382:	be05                	j	80005eb2 <data+0x17b6>
80006384:	418a                	lw	gp,128(sp)
80006386:	4245                	li	tp,17
80006388:	cba4                	sw	s1,80(a5)
8000638a:	c13d                	beqz	a0,800063f0 <data+0x1cf4>
8000638c:	d49e                	sw	t2,104(sp)
8000638e:	a6bc4203          	lbu	tp,-1429(s8) # ffffca6b <__global_pointer$+0x7fff5c2f>
80006392:	f53e41a7          	.4byte	0xf53e41a7
80006396:	c1a9                	beqz	a1,800063d8 <data+0x1cdc>
80006398:	c680                	sw	s0,8(a3)
8000639a:	4149                	li	sp,18
8000639c:	c7a6                	sw	s1,204(sp)
8000639e:	c21e                	sw	t2,4(sp)
800063a0:	2ce9                	jal	8000667a <_tdata_begin+0x2a>
800063a2:	c08c                	sw	a1,0(s1)
800063a4:	de5c                	sw	a5,60(a2)
800063a6:	4232                	lw	tp,12(sp)
800063a8:	564a                	lw	a2,176(sp)
800063aa:	c20e                	sw	gp,4(sp)
800063ac:	c0da61e7          	.4byte	0xc0da61e7
800063b0:	cb46                	sw	a7,148(sp)
800063b2:	c215                	beqz	a2,800063d6 <data+0x1cda>
800063b4:	13e8                	addi	a0,sp,492
800063b6:	420d                	li	tp,3
800063b8:	92d4                	.2byte	0x92d4
800063ba:	41f8                	lw	a4,68(a1)
800063bc:	4a70                	lw	a2,84(a2)
800063be:	efd8c17b          	.4byte	0xefd8c17b
800063c2:	40a8                	lw	a0,64(s1)
800063c4:	c534                	sw	a3,72(a0)
800063c6:	c158                	sw	a4,4(a0)
800063c8:	d699                	beqz	a3,800062d6 <data+0x1bda>
800063ca:	c1be                	sw	a5,192(sp)
800063cc:	8b9c                	.2byte	0x8b9c
800063ce:	41ac                	lw	a1,64(a1)
800063d0:	59b8                	lw	a4,112(a1)
800063d2:	76364153          	.4byte	0x76364153
800063d6:	423c                	lw	a5,64(a2)
800063d8:	b308                	.2byte	0xb308
800063da:	c204                	sw	s1,0(a2)
800063dc:	3616                	.2byte	0x3616
800063de:	423a                	lw	tp,140(sp)
800063e0:	5eff                	.2byte	0x5eff
800063e2:	3fec                	.2byte	0x3fec
800063e4:	0e18                	addi	a4,sp,784
800063e6:	421e                	lw	tp,196(sp)
800063e8:	35cc                	.2byte	0x35cc
800063ea:	419d                	li	gp,7
800063ec:	ec81                	bnez	s1,80006404 <data+0x1d08>
800063ee:	4091                	li	ra,4
800063f0:	0121                	addi	sp,sp,8
800063f2:	406e                	.2byte	0x406e
800063f4:	531d                	li	t1,-25
800063f6:	c238                	sw	a4,64(a2)
800063f8:	ec6c                	fsw	fa1,92(s0)
800063fa:	a545420f          	.4byte	0xa545420f
800063fe:	c239                	beqz	a2,80006444 <data+0x1d48>
80006400:	c23b1193          	.4byte	0xc23b1193
80006404:	0cfa                	slli	s9,s9,0x1e
80006406:	2f58c1cf          	.4byte	0x2f58c1cf
8000640a:	4212                	lw	tp,4(sp)
8000640c:	8398                	.2byte	0x8398
8000640e:	41c1                	li	gp,16
80006410:	ee42                	fsw	fa6,28(sp)
80006412:	c1be4037          	lui	zero,0xc1be4
80006416:	fa26bf57          	.4byte	0xfa26bf57
8000641a:	4209                	li	tp,2
8000641c:	f946                	fsw	fa7,176(sp)
8000641e:	4241                	li	tp,16
80006420:	0560                	addi	s0,sp,652
80006422:	c0c4                	sw	s1,4(s1)
80006424:	a3dc                	.2byte	0xa3dc
80006426:	4bd84243          	.4byte	0x4bd84243
8000642a:	c105                	beqz	a0,8000644a <data+0x1d4e>
8000642c:	a071                	j	800064b8 <data+0x1dbc>
8000642e:	40cd                	li	ra,19
80006430:	b7c4                	.2byte	0xb7c4
80006432:	4208                	lw	a0,0(a2)
80006434:	131a                	slli	t1,t1,0x26
80006436:	c1da                	sw	s6,192(sp)
80006438:	e172                	fsw	ft8,128(sp)
8000643a:	4222                	lw	tp,8(sp)
8000643c:	a904                	.2byte	0xa904
8000643e:	c128                	sw	a0,64(a0)
80006440:	1498                	addi	a4,sp,608
80006442:	89da4113          	xori	sp,s4,-1891
80006446:	c204                	sw	s1,0(a2)
80006448:	e474                	fsw	fa3,76(s0)
8000644a:	c8d7c21b          	.4byte	0xc8d7c21b
8000644e:	c1dc                	sw	a5,4(a1)
80006450:	13a4                	addi	s1,sp,488
80006452:	c210                	sw	a2,0(a2)
80006454:	2ef6                	.2byte	0x2ef6
80006456:	c1b1                	beqz	a1,8000649a <data+0x1d9e>
80006458:	5caa                	lw	s9,168(sp)
8000645a:	c1f8                	sw	a4,68(a1)
8000645c:	3d50                	.2byte	0x3d50
8000645e:	417d                	li	sp,31
80006460:	8964                	.2byte	0x8964
80006462:	c202                	sw	zero,4(sp)
80006464:	6c92                	flw	fs9,4(sp)
80006466:	421a                	lw	tp,132(sp)
80006468:	e63a                	fsw	fa4,12(sp)
8000646a:	c1ec                	sw	a1,68(a1)
8000646c:	ad5c                	.2byte	0xad5c
8000646e:	41a8                	lw	a0,64(a1)
80006470:	1974                	addi	a3,sp,188
80006472:	422a                	lw	tp,136(sp)
80006474:	86b1                	srai	a3,a3,0xc
80006476:	c22e                	sw	a1,4(sp)
80006478:	62d4                	flw	fa3,4(a3)
8000647a:	41c5                	li	gp,17
8000647c:	07e2                	slli	a5,a5,0x18
8000647e:	1a5c4237          	lui	tp,0x1a5c4
80006482:	c19c                	sw	a5,0(a1)
80006484:	8308                	.2byte	0x8308
80006486:	935c4133          	.4byte	0x935c4133
8000648a:	419f 71b6 4205      	.byte	0x9f, 0x41, 0xb6, 0x71, 0x05, 0x42
80006490:	7e46                	flw	ft8,112(sp)
80006492:	c21e                	sw	t2,4(sp)
80006494:	1e9f 408e d5f8      	.byte	0x9f, 0x1e, 0x8e, 0x40, 0xf8, 0xd5
8000649a:	41fe                	lw	gp,220(sp)
8000649c:	0878                	addi	a4,sp,28
8000649e:	4088                	lw	a0,0(s1)
800064a0:	7aff                	.2byte	0x7aff
800064a2:	4056                	.2byte	0x4056
800064a4:	cff2                	sw	t3,220(sp)
800064a6:	4ae4c1d3          	.4byte	0x4ae4c1d3
800064aa:	c21d                	beqz	a2,800064d0 <data+0x1dd4>
800064ac:	8230                	.2byte	0x8230
800064ae:	1861c147          	fmsub.s	ft2,ft3,ft6,ft3,rmm
800064b2:	6971c06f          	j	80023348 <__global_pointer$+0x1c50c>
800064b6:	c242                	sw	a6,4(sp)
800064b8:	ea68                	fsw	fa0,84(a2)
800064ba:	2c6041d7          	.4byte	0x2c6041d7
800064be:	c232                	sw	a2,4(sp)
800064c0:	e695                	bnez	a3,800064ec <data+0x1df0>
800064c2:	c1fd                	beqz	a1,800065a8 <data+0x1eac>
800064c4:	10c0                	addi	s0,sp,100
800064c6:	4218                	lw	a4,0(a2)
800064c8:	2196                	.2byte	0x2196
800064ca:	c1b1                	beqz	a1,8000650e <data+0x1e12>
800064cc:	0dde                	slli	s11,s11,0x17
800064ce:	c18e                	sw	gp,192(sp)
800064d0:	c20886bb          	.4byte	0xc20886bb
800064d4:	c04bf20f          	.4byte	0xc04bf20f
800064d8:	4866                	lw	a6,88(sp)
800064da:	4240                	lw	s0,4(a2)
800064dc:	203c                	.2byte	0x203c
800064de:	c186                	sw	ra,192(sp)
800064e0:	4a3c                	lw	a5,80(a2)
800064e2:	c169                	beqz	a0,800065a4 <data+0x1ea8>
800064e4:	5571                	li	a0,-4
800064e6:	c1fc                	sw	a5,68(a1)
800064e8:	b970                	.2byte	0xb970
800064ea:	c236                	sw	a3,4(sp)
800064ec:	7235                	lui	tp,0xfffed
800064ee:	c1b0                	sw	a2,64(a1)
800064f0:	c1c962d3          	.4byte	0xc1c962d3
800064f4:	eff0                	fsw	fa2,92(a5)
800064f6:	627241e7          	.4byte	0x627241e7
800064fa:	c1d2                	sw	s4,192(sp)
800064fc:	40aa0b3f c11c9d14 	.8byte	0xc11c9d1440aa0b3f
80006504:	9876                	add	a6,a6,t4
80006506:	422e                	lw	tp,200(sp)
80006508:	3388                	.2byte	0x3388
8000650a:	c135                	beqz	a0,8000656e <data+0x1e72>
8000650c:	9d84                	.2byte	0x9d84
8000650e:	3f16                	.2byte	0x3f16
80006510:	76c0                	flw	fs0,44(a3)
80006512:	bff4                	.2byte	0xbff4
80006514:	c3ca                	sw	s2,196(sp)
80006516:	a47cc1eb          	.4byte	0xa47cc1eb
8000651a:	c234                	sw	a3,64(a2)
8000651c:	c2423c07          	.4byte	0xc2423c07
80006520:	4ef0                	lw	a2,92(a3)
80006522:	c0be                	sw	a5,64(sp)
80006524:	ef5f c209 7248      	.byte	0x5f, 0xef, 0x09, 0xc2, 0x48, 0x72
8000652a:	c130                	sw	a2,64(a0)
8000652c:	449c                	lw	a5,8(s1)
8000652e:	4221                	li	tp,8
80006530:	58d0                	lw	a2,52(s1)
80006532:	c204                	sw	s1,0(a2)
80006534:	275e                	.2byte	0x275e
80006536:	c208                	sw	a0,0(a2)
80006538:	183c                	addi	a5,sp,56
8000653a:	306c4237          	lui	tp,0x306c4
8000653e:	c16d                	beqz	a0,80006620 <data+0x1f24>
80006540:	169f c238 f120      	.byte	0x9f, 0x16, 0x38, 0xc2, 0x20, 0xf1
80006546:	c1d2                	sw	s4,192(sp)
80006548:	59ec                	lw	a1,116(a1)
8000654a:	3ab3418b          	.4byte	0x3ab3418b
8000654e:	c1f1                	beqz	a1,80006612 <data+0x1f16>
80006550:	90a0                	.2byte	0x90a0
80006552:	d56841a3          	.4byte	0xd56841a3
80006556:	28704177          	.4byte	0x28704177
8000655a:	4045                	c.li	zero,17
8000655c:	8a40                	.2byte	0x8a40
8000655e:	c230                	sw	a2,64(a2)
80006560:	caa2                	sw	s0,84(sp)
80006562:	c8c14207          	.4byte	0xc8c14207
80006566:	40ec                	lw	a1,68(s1)
80006568:	86b6                	mv	a3,a3
8000656a:	c181                	beqz	a1,8000656a <data+0x1e6e>
8000656c:	c224e6c7          	.4byte	0xc224e6c7
80006570:	bbc0                	.2byte	0xbbc0
80006572:	c159                	beqz	a0,800065f8 <data+0x1efc>
80006574:	5b68                	lw	a0,116(a4)
80006576:	40f0                	lw	a2,68(s1)
80006578:	6a88                	flw	fa0,16(a3)
8000657a:	4161                	li	sp,24
8000657c:	d398                	sw	a4,32(a5)
8000657e:	41d4                	lw	a3,4(a1)
80006580:	7c20                	flw	fs0,120(s0)
80006582:	3f94                	.2byte	0x3f94
80006584:	f241                	bnez	a2,80006504 <data+0x1e08>
80006586:	c23c                	sw	a5,64(a2)
80006588:	777e                	flw	fa4,252(sp)
8000658a:	c1b6                	sw	a3,192(sp)
8000658c:	002a                	c.slli	zero,0xa
8000658e:	4245                	li	tp,17
80006590:	a84c                	.2byte	0xa84c
80006592:	c1d5                	beqz	a1,80006636 <data+0x1f3a>
80006594:	c076                	sw	t4,0(sp)
80006596:	3bdcc18f          	.4byte	0x3bdcc18f
8000659a:	c245                	beqz	a2,8000663a <data+0x1f3e>
8000659c:	c3f8                	sw	a4,68(a5)
8000659e:	418a                	lw	gp,128(sp)
800065a0:	f9a0                	fsw	fs0,112(a1)
800065a2:	c01c                	sw	a5,0(s0)
800065a4:	61b8                	flw	fa4,64(a1)
800065a6:	c125                	beqz	a0,80006606 <data+0x1f0a>
800065a8:	40f534b7          	lui	s1,0x40f53
800065ac:	5e51                	li	t3,-12
800065ae:	01994167          	.4byte	0x1994167
800065b2:	40b4                	lw	a3,64(s1)
800065b4:	ed31                	bnez	a0,80006610 <data+0x1f14>
800065b6:	8b7a405b          	.4byte	0x8b7a405b
800065ba:	4246                	lw	tp,80(sp)
800065bc:	a654                	.2byte	0xa654
800065be:	4119                	li	sp,6
800065c0:	8c88                	.2byte	0x8c88
800065c2:	41d8                	lw	a4,4(a1)
800065c4:	70e0                	flw	fs0,100(s1)
800065c6:	4188                	lw	a0,0(a1)
800065c8:	9874                	.2byte	0x9874
800065ca:	16df41eb          	.4byte	0x16df41eb
800065ce:	c01f a46c c18b      	.byte	0x1f, 0xc0, 0x6c, 0xa4, 0x8b, 0xc1
800065d4:	c27c                	sw	a5,68(a2)
800065d6:	4520c18b          	.4byte	0x4520c18b
800065da:	4058                	lw	a4,4(s0)
800065dc:	0794                	addi	a3,sp,960
800065de:	c206                	sw	ra,4(sp)
800065e0:	b7da                	.2byte	0xb7da
800065e2:	421f c0f8 4214      	.byte	0x1f, 0x42, 0xf8, 0xc0, 0x14, 0x42
800065e8:	dcb6                	sw	a3,120(sp)
800065ea:	c1c5                	beqz	a1,8000668a <_end+0xa>
800065ec:	6e2c                	flw	fa1,88(a2)
800065ee:	c1bd                	beqz	a1,80006654 <_tdata_begin+0x4>
800065f0:	9ce0                	.2byte	0x9ce0
800065f2:	c0a9                	beqz	s1,80006634 <data+0x1f38>
800065f4:	6c46                	flw	fs8,80(sp)
800065f6:	421d                	li	tp,7
800065f8:	4d4a                	lw	s10,144(sp)
800065fa:	c23c                	sw	a5,64(a2)
800065fc:	7046                	flw	ft0,112(sp)
800065fe:	7a044237          	lui	tp,0x7a044
80006602:	4228                	lw	a0,64(a2)
80006604:	1214                	addi	a3,sp,288
80006606:	c19f 7070 4234      	.byte	0x9f, 0xc1, 0x70, 0x70, 0x34, 0x42
8000660c:	5a21                	li	s4,-24
8000660e:	c20a                	sw	sp,4(sp)
80006610:	5af0                	lw	a2,116(a3)
80006612:	4142                	lw	sp,16(sp)
80006614:	3494                	.2byte	0x3494
80006616:	07da4237          	lui	tp,0x7da4
8000661a:	38e04203          	lbu	tp,910(zero) # 38e <buflen.1+0x34e>
8000661e:	c221                	beqz	a2,8000665e <_tdata_begin+0xe>
80006620:	8f68                	.2byte	0x8f68
80006622:	c168                	sw	a0,68(a0)
80006624:	463c                	lw	a5,72(a2)
80006626:	c119                	beqz	a0,8000662c <data+0x1f30>
80006628:	3d6c                	.2byte	0x3d6c
8000662a:	41c1                	li	gp,16
8000662c:	5c5a                	lw	s8,180(sp)
8000662e:	4224                	lw	s1,64(a2)
80006630:	6d44                	flw	fs1,28(a0)
80006632:	545c422f          	.4byte	0x545c422f
80006636:	41be                	lw	gp,204(sp)
80006638:	7b42                	flw	fs6,48(sp)
8000663a:	3f31                	jal	80006556 <data+0x1e5a>
