
fir_benchmark.riscv:     file format elf32-littleriscv


Disassembly of section .text.init:

80000000 <_start>:
80000000:	4081                	li	ra,0
80000002:	4101                	li	sp,0
80000004:	4181                	li	gp,0
80000006:	4201                	li	tp,0
80000008:	4281                	li	t0,0
8000000a:	4301                	li	t1,0
8000000c:	4381                	li	t2,0
8000000e:	4401                	li	s0,0
80000010:	4481                	li	s1,0
80000012:	4501                	li	a0,0
80000014:	4581                	li	a1,0
80000016:	4601                	li	a2,0
80000018:	4681                	li	a3,0
8000001a:	4701                	li	a4,0
8000001c:	4781                	li	a5,0
8000001e:	4801                	li	a6,0
80000020:	4881                	li	a7,0
80000022:	4901                	li	s2,0
80000024:	4981                	li	s3,0
80000026:	4a01                	li	s4,0
80000028:	4a81                	li	s5,0
8000002a:	4b01                	li	s6,0
8000002c:	4b81                	li	s7,0
8000002e:	4c01                	li	s8,0
80000030:	4c81                	li	s9,0
80000032:	4d01                	li	s10,0
80000034:	4d81                	li	s11,0
80000036:	4e01                	li	t3,0
80000038:	4e81                	li	t4,0
8000003a:	4f01                	li	t5,0
8000003c:	4f81                	li	t6,0
8000003e:	62f9                	lui	t0,0x1e
80000040:	3002a073          	csrs	mstatus,t0
80000044:	4285                	li	t0,1
80000046:	02fe                	slli	t0,t0,0x1f
80000048:	0002c863          	bltz	t0,80000058 <_start+0x58>
8000004c:	4505                	li	a0,1
8000004e:	00001297          	auipc	t0,0x1
80000052:	faa2a923          	sw	a0,-78(t0) # 80001000 <tohost>
80000056:	bfdd                	j	8000004c <_start+0x4c>
80000058:	00000297          	auipc	t0,0x0
8000005c:	03828293          	addi	t0,t0,56 # 80000090 <trap_entry>
80000060:	30529073          	csrw	mtvec,t0
80000064:	00006197          	auipc	gp,0x6
80000068:	4a018193          	addi	gp,gp,1184 # 80006504 <__global_pointer$>
8000006c:	87b18213          	addi	tp,gp,-1925 # 80005d7f <_end+0x3f>
80000070:	fc027213          	andi	tp,tp,-64
80000074:	f1402573          	csrr	a0,mhartid
80000078:	4585                	li	a1,1
8000007a:	00b57063          	bgeu	a0,a1,8000007a <_start+0x7a>
8000007e:	00150113          	addi	sp,a0,1
80000082:	0146                	slli	sp,sp,0x11
80000084:	9112                	add	sp,sp,tp
80000086:	01151613          	slli	a2,a0,0x11
8000008a:	9232                	add	tp,tp,a2
8000008c:	7300106f          	j	800017bc <_init>

80000090 <trap_entry>:
80000090:	716d                	addi	sp,sp,-272
80000092:	c206                	sw	ra,4(sp)
80000094:	c40a                	sw	sp,8(sp)
80000096:	c60e                	sw	gp,12(sp)
80000098:	c812                	sw	tp,16(sp)
8000009a:	ca16                	sw	t0,20(sp)
8000009c:	cc1a                	sw	t1,24(sp)
8000009e:	ce1e                	sw	t2,28(sp)
800000a0:	d022                	sw	s0,32(sp)
800000a2:	d226                	sw	s1,36(sp)
800000a4:	d42a                	sw	a0,40(sp)
800000a6:	d62e                	sw	a1,44(sp)
800000a8:	d832                	sw	a2,48(sp)
800000aa:	da36                	sw	a3,52(sp)
800000ac:	dc3a                	sw	a4,56(sp)
800000ae:	de3e                	sw	a5,60(sp)
800000b0:	c0c2                	sw	a6,64(sp)
800000b2:	c2c6                	sw	a7,68(sp)
800000b4:	c4ca                	sw	s2,72(sp)
800000b6:	c6ce                	sw	s3,76(sp)
800000b8:	c8d2                	sw	s4,80(sp)
800000ba:	cad6                	sw	s5,84(sp)
800000bc:	ccda                	sw	s6,88(sp)
800000be:	cede                	sw	s7,92(sp)
800000c0:	d0e2                	sw	s8,96(sp)
800000c2:	d2e6                	sw	s9,100(sp)
800000c4:	d4ea                	sw	s10,104(sp)
800000c6:	d6ee                	sw	s11,108(sp)
800000c8:	d8f2                	sw	t3,112(sp)
800000ca:	daf6                	sw	t4,116(sp)
800000cc:	dcfa                	sw	t5,120(sp)
800000ce:	defe                	sw	t6,124(sp)
800000d0:	34202573          	csrr	a0,mcause
800000d4:	341025f3          	csrr	a1,mepc
800000d8:	860a                	mv	a2,sp
800000da:	5ac010ef          	jal	ra,80001686 <handle_trap>
800000de:	34151073          	csrw	mepc,a0
800000e2:	6289                	lui	t0,0x2
800000e4:	80028293          	addi	t0,t0,-2048 # 1800 <buflen.3+0x1780>
800000e8:	3002a073          	csrs	mstatus,t0
800000ec:	4092                	lw	ra,4(sp)
800000ee:	4122                	lw	sp,8(sp)
800000f0:	41b2                	lw	gp,12(sp)
800000f2:	4242                	lw	tp,16(sp)
800000f4:	42d2                	lw	t0,20(sp)
800000f6:	4362                	lw	t1,24(sp)
800000f8:	43f2                	lw	t2,28(sp)
800000fa:	5402                	lw	s0,32(sp)
800000fc:	5492                	lw	s1,36(sp)
800000fe:	5522                	lw	a0,40(sp)
80000100:	55b2                	lw	a1,44(sp)
80000102:	5642                	lw	a2,48(sp)
80000104:	56d2                	lw	a3,52(sp)
80000106:	5762                	lw	a4,56(sp)
80000108:	57f2                	lw	a5,60(sp)
8000010a:	4806                	lw	a6,64(sp)
8000010c:	4896                	lw	a7,68(sp)
8000010e:	4926                	lw	s2,72(sp)
80000110:	49b6                	lw	s3,76(sp)
80000112:	4a46                	lw	s4,80(sp)
80000114:	4ad6                	lw	s5,84(sp)
80000116:	4b66                	lw	s6,88(sp)
80000118:	4bf6                	lw	s7,92(sp)
8000011a:	5c06                	lw	s8,96(sp)
8000011c:	5c96                	lw	s9,100(sp)
8000011e:	5d26                	lw	s10,104(sp)
80000120:	5db6                	lw	s11,108(sp)
80000122:	5e46                	lw	t3,112(sp)
80000124:	5ed6                	lw	t4,116(sp)
80000126:	5f66                	lw	t5,120(sp)
80000128:	5ff6                	lw	t6,124(sp)
8000012a:	6151                	addi	sp,sp,272
8000012c:	30200073          	mret
80000130:	0000                	unimp

Disassembly of section .text:

80001048 <main>:
80001048:	715d                	addi	sp,sp,-80
8000104a:	c686                	sw	ra,76(sp)
8000104c:	c4a2                	sw	s0,72(sp)
8000104e:	0880                	addi	s0,sp,80
80001050:	faa42e23          	sw	a0,-68(s0)
80001054:	fab42c23          	sw	a1,-72(s0)
80001058:	fe042223          	sw	zero,-28(s0)
8000105c:	b80027f3          	csrr	a5,mcycleh
80001060:	fef42023          	sw	a5,-32(s0)
80001064:	b00027f3          	csrr	a5,mcycle
80001068:	fcf42e23          	sw	a5,-36(s0)
8000106c:	fe042623          	sw	zero,-20(s0)
80001070:	a02d                	j	8000109a <main+0x52>
80001072:	00004717          	auipc	a4,0x4
80001076:	cf270713          	addi	a4,a4,-782 # 80004d64 <coeffs>
8000107a:	fec42783          	lw	a5,-20(s0)
8000107e:	078a                	slli	a5,a5,0x2
80001080:	97ba                	add	a5,a5,a4
80001082:	439c                	lw	a5,0(a5)
80001084:	fec42703          	lw	a4,-20(s0)
80001088:	00e7f78b          	fir_coeff_st	a5,a5,a4
8000108c:	fef42223          	sw	a5,-28(s0)
80001090:	fec42783          	lw	a5,-20(s0)
80001094:	0785                	addi	a5,a5,1
80001096:	fef42623          	sw	a5,-20(s0)
8000109a:	fec42703          	lw	a4,-20(s0)
8000109e:	3e700793          	li	a5,999
800010a2:	fce7d8e3          	bge	a5,a4,80001072 <main+0x2a>
800010a6:	fe042423          	sw	zero,-24(s0)
800010aa:	a03d                	j	800010d8 <main+0x90>
800010ac:	00002717          	auipc	a4,0x2
800010b0:	d7870713          	addi	a4,a4,-648 # 80002e24 <data>
800010b4:	fe842783          	lw	a5,-24(s0)
800010b8:	078a                	slli	a5,a5,0x2
800010ba:	97ba                	add	a5,a5,a4
800010bc:	439c                	lw	a5,0(a5)
800010be:	0007f7ab          	fir_data_st	a5,a5,zero
800010c2:	fef42223          	sw	a5,-28(s0)
800010c6:	000077db          	fir_exec	a5,zero,zero
800010ca:	fef42223          	sw	a5,-28(s0)
800010ce:	fe842783          	lw	a5,-24(s0)
800010d2:	0785                	addi	a5,a5,1
800010d4:	fef42423          	sw	a5,-24(s0)
800010d8:	fe842703          	lw	a4,-24(s0)
800010dc:	7cf00793          	li	a5,1999
800010e0:	fce7d6e3          	bge	a5,a4,800010ac <main+0x64>
800010e4:	b80027f3          	csrr	a5,mcycleh
800010e8:	fcf42c23          	sw	a5,-40(s0)
800010ec:	b00027f3          	csrr	a5,mcycle
800010f0:	fcf42a23          	sw	a5,-44(s0)
800010f4:	fd842703          	lw	a4,-40(s0)
800010f8:	fe042783          	lw	a5,-32(s0)
800010fc:	40f707b3          	sub	a5,a4,a5
80001100:	fcf42823          	sw	a5,-48(s0)
80001104:	fd442703          	lw	a4,-44(s0)
80001108:	fdc42783          	lw	a5,-36(s0)
8000110c:	40f707b3          	sub	a5,a4,a5
80001110:	fcf42623          	sw	a5,-52(s0)
80001114:	fcc42583          	lw	a1,-52(s0)
80001118:	00002517          	auipc	a0,0x2
8000111c:	a3050513          	addi	a0,a0,-1488 # 80002b48 <__eqdf2+0x6a>
80001120:	619000ef          	jal	ra,80001f38 <printf>
80001124:	4781                	li	a5,0
80001126:	853e                	mv	a0,a5
80001128:	40b6                	lw	ra,76(sp)
8000112a:	4426                	lw	s0,72(sp)
8000112c:	6161                	addi	sp,sp,80
8000112e:	8082                	ret

80001130 <verify>:
80001130:	7139                	addi	sp,sp,-64
80001132:	de22                	sw	s0,60(sp)
80001134:	0080                	addi	s0,sp,64
80001136:	fca42623          	sw	a0,-52(s0)
8000113a:	fcb42423          	sw	a1,-56(s0)
8000113e:	fcc42223          	sw	a2,-60(s0)
80001142:	fe042623          	sw	zero,-20(s0)
80001146:	a041                	j	800011c6 <verify+0x96>
80001148:	fec42783          	lw	a5,-20(s0)
8000114c:	078a                	slli	a5,a5,0x2
8000114e:	fc842703          	lw	a4,-56(s0)
80001152:	97ba                	add	a5,a5,a4
80001154:	439c                	lw	a5,0(a5)
80001156:	fef42423          	sw	a5,-24(s0)
8000115a:	fec42783          	lw	a5,-20(s0)
8000115e:	0785                	addi	a5,a5,1
80001160:	078a                	slli	a5,a5,0x2
80001162:	fc842703          	lw	a4,-56(s0)
80001166:	97ba                	add	a5,a5,a4
80001168:	439c                	lw	a5,0(a5)
8000116a:	fef42223          	sw	a5,-28(s0)
8000116e:	fec42783          	lw	a5,-20(s0)
80001172:	078a                	slli	a5,a5,0x2
80001174:	fc442703          	lw	a4,-60(s0)
80001178:	97ba                	add	a5,a5,a4
8000117a:	439c                	lw	a5,0(a5)
8000117c:	fef42023          	sw	a5,-32(s0)
80001180:	fec42783          	lw	a5,-20(s0)
80001184:	0785                	addi	a5,a5,1
80001186:	078a                	slli	a5,a5,0x2
80001188:	fc442703          	lw	a4,-60(s0)
8000118c:	97ba                	add	a5,a5,a4
8000118e:	439c                	lw	a5,0(a5)
80001190:	fcf42e23          	sw	a5,-36(s0)
80001194:	fe842703          	lw	a4,-24(s0)
80001198:	fe042783          	lw	a5,-32(s0)
8000119c:	00f70663          	beq	a4,a5,800011a8 <verify+0x78>
800011a0:	fec42783          	lw	a5,-20(s0)
800011a4:	0785                	addi	a5,a5,1
800011a6:	a89d                	j	8000121c <verify+0xec>
800011a8:	fe442703          	lw	a4,-28(s0)
800011ac:	fdc42783          	lw	a5,-36(s0)
800011b0:	00f70663          	beq	a4,a5,800011bc <verify+0x8c>
800011b4:	fec42783          	lw	a5,-20(s0)
800011b8:	0789                	addi	a5,a5,2
800011ba:	a08d                	j	8000121c <verify+0xec>
800011bc:	fec42783          	lw	a5,-20(s0)
800011c0:	0789                	addi	a5,a5,2
800011c2:	fef42623          	sw	a5,-20(s0)
800011c6:	fcc42783          	lw	a5,-52(s0)
800011ca:	01f7d713          	srli	a4,a5,0x1f
800011ce:	97ba                	add	a5,a5,a4
800011d0:	8785                	srai	a5,a5,0x1
800011d2:	0786                	slli	a5,a5,0x1
800011d4:	fec42703          	lw	a4,-20(s0)
800011d8:	f6f748e3          	blt	a4,a5,80001148 <verify+0x18>
800011dc:	fcc42783          	lw	a5,-52(s0)
800011e0:	8b85                	andi	a5,a5,1
800011e2:	cf85                	beqz	a5,8000121a <verify+0xea>
800011e4:	fcc42703          	lw	a4,-52(s0)
800011e8:	400007b7          	lui	a5,0x40000
800011ec:	17fd                	addi	a5,a5,-1 # 3fffffff <buflen.3+0x3fffff7f>
800011ee:	97ba                	add	a5,a5,a4
800011f0:	078a                	slli	a5,a5,0x2
800011f2:	fc842703          	lw	a4,-56(s0)
800011f6:	97ba                	add	a5,a5,a4
800011f8:	4398                	lw	a4,0(a5)
800011fa:	fcc42683          	lw	a3,-52(s0)
800011fe:	400007b7          	lui	a5,0x40000
80001202:	17fd                	addi	a5,a5,-1 # 3fffffff <buflen.3+0x3fffff7f>
80001204:	97b6                	add	a5,a5,a3
80001206:	078a                	slli	a5,a5,0x2
80001208:	fc442683          	lw	a3,-60(s0)
8000120c:	97b6                	add	a5,a5,a3
8000120e:	439c                	lw	a5,0(a5)
80001210:	00f70563          	beq	a4,a5,8000121a <verify+0xea>
80001214:	fcc42783          	lw	a5,-52(s0)
80001218:	a011                	j	8000121c <verify+0xec>
8000121a:	4781                	li	a5,0
8000121c:	853e                	mv	a0,a5
8000121e:	5472                	lw	s0,60(sp)
80001220:	6121                	addi	sp,sp,64
80001222:	8082                	ret

80001224 <verifyDouble>:
80001224:	715d                	addi	sp,sp,-80
80001226:	c686                	sw	ra,76(sp)
80001228:	c4a2                	sw	s0,72(sp)
8000122a:	c2a6                	sw	s1,68(sp)
8000122c:	0880                	addi	s0,sp,80
8000122e:	faa42e23          	sw	a0,-68(s0)
80001232:	fab42c23          	sw	a1,-72(s0)
80001236:	fac42a23          	sw	a2,-76(s0)
8000123a:	fe042623          	sw	zero,-20(s0)
8000123e:	a8d1                	j	80001312 <verifyDouble+0xee>
80001240:	fec42783          	lw	a5,-20(s0)
80001244:	078e                	slli	a5,a5,0x3
80001246:	fb842703          	lw	a4,-72(s0)
8000124a:	97ba                	add	a5,a5,a4
8000124c:	4398                	lw	a4,0(a5)
8000124e:	43dc                	lw	a5,4(a5)
80001250:	fee42023          	sw	a4,-32(s0)
80001254:	fef42223          	sw	a5,-28(s0)
80001258:	fec42783          	lw	a5,-20(s0)
8000125c:	0785                	addi	a5,a5,1
8000125e:	078e                	slli	a5,a5,0x3
80001260:	fb842703          	lw	a4,-72(s0)
80001264:	97ba                	add	a5,a5,a4
80001266:	4398                	lw	a4,0(a5)
80001268:	43dc                	lw	a5,4(a5)
8000126a:	fce42c23          	sw	a4,-40(s0)
8000126e:	fcf42e23          	sw	a5,-36(s0)
80001272:	fec42783          	lw	a5,-20(s0)
80001276:	078e                	slli	a5,a5,0x3
80001278:	fb442703          	lw	a4,-76(s0)
8000127c:	97ba                	add	a5,a5,a4
8000127e:	4398                	lw	a4,0(a5)
80001280:	43dc                	lw	a5,4(a5)
80001282:	fce42823          	sw	a4,-48(s0)
80001286:	fcf42a23          	sw	a5,-44(s0)
8000128a:	fec42783          	lw	a5,-20(s0)
8000128e:	0785                	addi	a5,a5,1
80001290:	078e                	slli	a5,a5,0x3
80001292:	fb442703          	lw	a4,-76(s0)
80001296:	97ba                	add	a5,a5,a4
80001298:	4398                	lw	a4,0(a5)
8000129a:	43dc                	lw	a5,4(a5)
8000129c:	fce42423          	sw	a4,-56(s0)
800012a0:	fcf42623          	sw	a5,-52(s0)
800012a4:	4485                	li	s1,1
800012a6:	fd042603          	lw	a2,-48(s0)
800012aa:	fd442683          	lw	a3,-44(s0)
800012ae:	fe042503          	lw	a0,-32(s0)
800012b2:	fe442583          	lw	a1,-28(s0)
800012b6:	029010ef          	jal	ra,80002ade <__eqdf2>
800012ba:	87aa                	mv	a5,a0
800012bc:	c391                	beqz	a5,800012c0 <verifyDouble+0x9c>
800012be:	4481                	li	s1,0
800012c0:	0ff4f793          	zext.b	a5,s1
800012c4:	fcf42223          	sw	a5,-60(s0)
800012c8:	4485                	li	s1,1
800012ca:	fc842603          	lw	a2,-56(s0)
800012ce:	fcc42683          	lw	a3,-52(s0)
800012d2:	fd842503          	lw	a0,-40(s0)
800012d6:	fdc42583          	lw	a1,-36(s0)
800012da:	005010ef          	jal	ra,80002ade <__eqdf2>
800012de:	87aa                	mv	a5,a0
800012e0:	c391                	beqz	a5,800012e4 <verifyDouble+0xc0>
800012e2:	4481                	li	s1,0
800012e4:	0ff4f793          	zext.b	a5,s1
800012e8:	fcf42023          	sw	a5,-64(s0)
800012ec:	fc442703          	lw	a4,-60(s0)
800012f0:	fc042783          	lw	a5,-64(s0)
800012f4:	8ff9                	and	a5,a5,a4
800012f6:	eb89                	bnez	a5,80001308 <verifyDouble+0xe4>
800012f8:	fec42783          	lw	a5,-20(s0)
800012fc:	00178713          	addi	a4,a5,1
80001300:	fc442783          	lw	a5,-60(s0)
80001304:	97ba                	add	a5,a5,a4
80001306:	a0bd                	j	80001374 <verifyDouble+0x150>
80001308:	fec42783          	lw	a5,-20(s0)
8000130c:	0789                	addi	a5,a5,2
8000130e:	fef42623          	sw	a5,-20(s0)
80001312:	fbc42783          	lw	a5,-68(s0)
80001316:	01f7d713          	srli	a4,a5,0x1f
8000131a:	97ba                	add	a5,a5,a4
8000131c:	8785                	srai	a5,a5,0x1
8000131e:	0786                	slli	a5,a5,0x1
80001320:	fec42703          	lw	a4,-20(s0)
80001324:	f0f74ee3          	blt	a4,a5,80001240 <verifyDouble+0x1c>
80001328:	fbc42783          	lw	a5,-68(s0)
8000132c:	8b85                	andi	a5,a5,1
8000132e:	c3b1                	beqz	a5,80001372 <verifyDouble+0x14e>
80001330:	fbc42703          	lw	a4,-68(s0)
80001334:	200007b7          	lui	a5,0x20000
80001338:	17fd                	addi	a5,a5,-1 # 1fffffff <buflen.3+0x1fffff7f>
8000133a:	97ba                	add	a5,a5,a4
8000133c:	078e                	slli	a5,a5,0x3
8000133e:	fb842703          	lw	a4,-72(s0)
80001342:	97ba                	add	a5,a5,a4
80001344:	4398                	lw	a4,0(a5)
80001346:	43dc                	lw	a5,4(a5)
80001348:	fbc42603          	lw	a2,-68(s0)
8000134c:	200006b7          	lui	a3,0x20000
80001350:	16fd                	addi	a3,a3,-1 # 1fffffff <buflen.3+0x1fffff7f>
80001352:	96b2                	add	a3,a3,a2
80001354:	068e                	slli	a3,a3,0x3
80001356:	fb442603          	lw	a2,-76(s0)
8000135a:	96b2                	add	a3,a3,a2
8000135c:	4290                	lw	a2,0(a3)
8000135e:	42d4                	lw	a3,4(a3)
80001360:	853a                	mv	a0,a4
80001362:	85be                	mv	a1,a5
80001364:	77a010ef          	jal	ra,80002ade <__eqdf2>
80001368:	87aa                	mv	a5,a0
8000136a:	c781                	beqz	a5,80001372 <verifyDouble+0x14e>
8000136c:	fbc42783          	lw	a5,-68(s0)
80001370:	a011                	j	80001374 <verifyDouble+0x150>
80001372:	4781                	li	a5,0
80001374:	853e                	mv	a0,a5
80001376:	40b6                	lw	ra,76(sp)
80001378:	4426                	lw	s0,72(sp)
8000137a:	4496                	lw	s1,68(sp)
8000137c:	6161                	addi	sp,sp,80
8000137e:	8082                	ret

80001380 <barrier>:
80001380:	1101                	addi	sp,sp,-32
80001382:	ce22                	sw	s0,28(sp)
80001384:	1000                	addi	s0,sp,32
80001386:	fea42623          	sw	a0,-20(s0)
8000138a:	0ff0000f          	fence
8000138e:	00022783          	lw	a5,0(tp) # 0 <threadsense.5>
80001392:	0017b793          	seqz	a5,a5
80001396:	0ff7f793          	zext.b	a5,a5
8000139a:	873e                	mv	a4,a5
8000139c:	00e22023          	sw	a4,0(tp) # 0 <threadsense.5>
800013a0:	00005797          	auipc	a5,0x5
800013a4:	97478793          	addi	a5,a5,-1676 # 80005d14 <count.2>
800013a8:	4705                	li	a4,1
800013aa:	0f50000f          	fence	iorw,ow
800013ae:	04e7a6af          	amoadd.w.aq	a3,a4,(a5)
800013b2:	8736                	mv	a4,a3
800013b4:	fec42783          	lw	a5,-20(s0)
800013b8:	17fd                	addi	a5,a5,-1
800013ba:	02f71063          	bne	a4,a5,800013da <barrier+0x5a>
800013be:	00005797          	auipc	a5,0x5
800013c2:	95678793          	addi	a5,a5,-1706 # 80005d14 <count.2>
800013c6:	0007a023          	sw	zero,0(a5)
800013ca:	00022703          	lw	a4,0(tp) # 0 <threadsense.5>
800013ce:	00005797          	auipc	a5,0x5
800013d2:	94a78793          	addi	a5,a5,-1718 # 80005d18 <sense.1>
800013d6:	c398                	sw	a4,0(a5)
800013d8:	a819                	j	800013ee <barrier+0x6e>
800013da:	0001                	nop
800013dc:	00005797          	auipc	a5,0x5
800013e0:	93c78793          	addi	a5,a5,-1732 # 80005d18 <sense.1>
800013e4:	4398                	lw	a4,0(a5)
800013e6:	00022783          	lw	a5,0(tp) # 0 <threadsense.5>
800013ea:	fef719e3          	bne	a4,a5,800013dc <barrier+0x5c>
800013ee:	0ff0000f          	fence
800013f2:	0001                	nop
800013f4:	4472                	lw	s0,28(sp)
800013f6:	6105                	addi	sp,sp,32
800013f8:	8082                	ret

800013fa <lfsr>:
800013fa:	7179                	addi	sp,sp,-48
800013fc:	d622                	sw	s0,44(sp)
800013fe:	1800                	addi	s0,sp,48
80001400:	fca42c23          	sw	a0,-40(s0)
80001404:	fcb42e23          	sw	a1,-36(s0)
80001408:	fdc42583          	lw	a1,-36(s0)
8000140c:	05fe                	slli	a1,a1,0x1f
8000140e:	fd842503          	lw	a0,-40(s0)
80001412:	00155613          	srli	a2,a0,0x1
80001416:	8e4d                	or	a2,a2,a1
80001418:	fdc42583          	lw	a1,-36(s0)
8000141c:	0015d693          	srli	a3,a1,0x1
80001420:	fd842583          	lw	a1,-40(s0)
80001424:	00c5c833          	xor	a6,a1,a2
80001428:	fdc42583          	lw	a1,-36(s0)
8000142c:	00d5c8b3          	xor	a7,a1,a3
80001430:	00187693          	andi	a3,a6,1
80001434:	fed42423          	sw	a3,-24(s0)
80001438:	0008f693          	andi	a3,a7,0
8000143c:	fed42623          	sw	a3,-20(s0)
80001440:	fdc42683          	lw	a3,-36(s0)
80001444:	06fe                	slli	a3,a3,0x1f
80001446:	fd842603          	lw	a2,-40(s0)
8000144a:	00165713          	srli	a4,a2,0x1
8000144e:	8f55                	or	a4,a4,a3
80001450:	fdc42683          	lw	a3,-36(s0)
80001454:	0016d793          	srli	a5,a3,0x1
80001458:	fe842683          	lw	a3,-24(s0)
8000145c:	01e69393          	slli	t2,a3,0x1e
80001460:	4301                	li	t1,0
80001462:	00676e33          	or	t3,a4,t1
80001466:	0077eeb3          	or	t4,a5,t2
8000146a:	8772                	mv	a4,t3
8000146c:	87f6                	mv	a5,t4
8000146e:	853a                	mv	a0,a4
80001470:	85be                	mv	a1,a5
80001472:	5432                	lw	s0,44(sp)
80001474:	6145                	addi	sp,sp,48
80001476:	8082                	ret

80001478 <insn_len>:
80001478:	1101                	addi	sp,sp,-32
8000147a:	ce22                	sw	s0,28(sp)
8000147c:	1000                	addi	s0,sp,32
8000147e:	fea42623          	sw	a0,-20(s0)
80001482:	fec42783          	lw	a5,-20(s0)
80001486:	0007d783          	lhu	a5,0(a5)
8000148a:	8b8d                	andi	a5,a5,3
8000148c:	c399                	beqz	a5,80001492 <insn_len+0x1a>
8000148e:	4791                	li	a5,4
80001490:	a011                	j	80001494 <insn_len+0x1c>
80001492:	4789                	li	a5,2
80001494:	853e                	mv	a0,a5
80001496:	4472                	lw	s0,28(sp)
80001498:	6105                	addi	sp,sp,32
8000149a:	8082                	ret

8000149c <syscall>:
8000149c:	7171                	addi	sp,sp,-176
8000149e:	d722                	sw	s0,172(sp)
800014a0:	1900                	addi	s0,sp,176
800014a2:	f6a42623          	sw	a0,-148(s0)
800014a6:	f6b42023          	sw	a1,-160(s0)
800014aa:	f6c42223          	sw	a2,-156(s0)
800014ae:	f4d42c23          	sw	a3,-168(s0)
800014b2:	f4e42e23          	sw	a4,-164(s0)
800014b6:	f4f42823          	sw	a5,-176(s0)
800014ba:	f5042a23          	sw	a6,-172(s0)
800014be:	ff040793          	addi	a5,s0,-16
800014c2:	f6f42423          	sw	a5,-152(s0)
800014c6:	f6842783          	lw	a5,-152(s0)
800014ca:	f8078793          	addi	a5,a5,-128
800014ce:	03f78793          	addi	a5,a5,63
800014d2:	8399                	srli	a5,a5,0x6
800014d4:	079a                	slli	a5,a5,0x6
800014d6:	f6c42703          	lw	a4,-148(s0)
800014da:	8e3a                	mv	t3,a4
800014dc:	4e81                	li	t4,0
800014de:	01c7a023          	sw	t3,0(a5)
800014e2:	01d7a223          	sw	t4,4(a5)
800014e6:	f6042603          	lw	a2,-160(s0)
800014ea:	f6442683          	lw	a3,-156(s0)
800014ee:	c790                	sw	a2,8(a5)
800014f0:	c7d4                	sw	a3,12(a5)
800014f2:	f5842603          	lw	a2,-168(s0)
800014f6:	f5c42683          	lw	a3,-164(s0)
800014fa:	cb90                	sw	a2,16(a5)
800014fc:	cbd4                	sw	a3,20(a5)
800014fe:	f5042603          	lw	a2,-176(s0)
80001502:	f5442683          	lw	a3,-172(s0)
80001506:	cf90                	sw	a2,24(a5)
80001508:	cfd4                	sw	a3,28(a5)
8000150a:	0ff0000f          	fence
8000150e:	873e                	mv	a4,a5
80001510:	833a                	mv	t1,a4
80001512:	4381                	li	t2,0
80001514:	00000717          	auipc	a4,0x0
80001518:	aec70713          	addi	a4,a4,-1300 # 80001000 <tohost>
8000151c:	00672023          	sw	t1,0(a4)
80001520:	00772223          	sw	t2,4(a4)
80001524:	0001                	nop
80001526:	00000717          	auipc	a4,0x0
8000152a:	b1a70713          	addi	a4,a4,-1254 # 80001040 <fromhost>
8000152e:	4310                	lw	a2,0(a4)
80001530:	4354                	lw	a3,4(a4)
80001532:	8732                	mv	a4,a2
80001534:	8f55                	or	a4,a4,a3
80001536:	db65                	beqz	a4,80001526 <syscall+0x8a>
80001538:	00000717          	auipc	a4,0x0
8000153c:	b0870713          	addi	a4,a4,-1272 # 80001040 <fromhost>
80001540:	4601                	li	a2,0
80001542:	4681                	li	a3,0
80001544:	c310                	sw	a2,0(a4)
80001546:	c354                	sw	a3,4(a4)
80001548:	0ff0000f          	fence
8000154c:	4398                	lw	a4,0(a5)
8000154e:	43dc                	lw	a5,4(a5)
80001550:	87ba                	mv	a5,a4
80001552:	853e                	mv	a0,a5
80001554:	543a                	lw	s0,172(sp)
80001556:	614d                	addi	sp,sp,176
80001558:	8082                	ret

8000155a <setStats>:
8000155a:	7139                	addi	sp,sp,-64
8000155c:	de22                	sw	s0,60(sp)
8000155e:	0080                	addi	s0,sp,64
80001560:	fca42623          	sw	a0,-52(s0)
80001564:	fe042223          	sw	zero,-28(s0)
80001568:	0001                	nop
8000156a:	fe442703          	lw	a4,-28(s0)
8000156e:	4785                	li	a5,1
80001570:	fee7cde3          	blt	a5,a4,8000156a <setStats+0x10>
80001574:	b00027f3          	csrr	a5,mcycle
80001578:	fef42023          	sw	a5,-32(s0)
8000157c:	fe042783          	lw	a5,-32(s0)
80001580:	fef42623          	sw	a5,-20(s0)
80001584:	fcc42783          	lw	a5,-52(s0)
80001588:	ef8d                	bnez	a5,800015c2 <setStats+0x68>
8000158a:	00004717          	auipc	a4,0x4
8000158e:	77a70713          	addi	a4,a4,1914 # 80005d04 <counters>
80001592:	fe442783          	lw	a5,-28(s0)
80001596:	078a                	slli	a5,a5,0x2
80001598:	97ba                	add	a5,a5,a4
8000159a:	439c                	lw	a5,0(a5)
8000159c:	fec42703          	lw	a4,-20(s0)
800015a0:	40f707b3          	sub	a5,a4,a5
800015a4:	fef42623          	sw	a5,-20(s0)
800015a8:	00004717          	auipc	a4,0x4
800015ac:	76470713          	addi	a4,a4,1892 # 80005d0c <counter_names>
800015b0:	fe442783          	lw	a5,-28(s0)
800015b4:	078a                	slli	a5,a5,0x2
800015b6:	97ba                	add	a5,a5,a4
800015b8:	00001717          	auipc	a4,0x1
800015bc:	59870713          	addi	a4,a4,1432 # 80002b50 <__eqdf2+0x72>
800015c0:	c398                	sw	a4,0(a5)
800015c2:	fe442783          	lw	a5,-28(s0)
800015c6:	00178713          	addi	a4,a5,1
800015ca:	fee42223          	sw	a4,-28(s0)
800015ce:	00004717          	auipc	a4,0x4
800015d2:	73670713          	addi	a4,a4,1846 # 80005d04 <counters>
800015d6:	078a                	slli	a5,a5,0x2
800015d8:	97ba                	add	a5,a5,a4
800015da:	fec42703          	lw	a4,-20(s0)
800015de:	c398                	sw	a4,0(a5)
800015e0:	0001                	nop
800015e2:	fe442703          	lw	a4,-28(s0)
800015e6:	4785                	li	a5,1
800015e8:	fee7cde3          	blt	a5,a4,800015e2 <setStats+0x88>
800015ec:	b02027f3          	csrr	a5,minstret
800015f0:	fcf42e23          	sw	a5,-36(s0)
800015f4:	fdc42783          	lw	a5,-36(s0)
800015f8:	fef42423          	sw	a5,-24(s0)
800015fc:	fcc42783          	lw	a5,-52(s0)
80001600:	ef8d                	bnez	a5,8000163a <setStats+0xe0>
80001602:	00004717          	auipc	a4,0x4
80001606:	70270713          	addi	a4,a4,1794 # 80005d04 <counters>
8000160a:	fe442783          	lw	a5,-28(s0)
8000160e:	078a                	slli	a5,a5,0x2
80001610:	97ba                	add	a5,a5,a4
80001612:	439c                	lw	a5,0(a5)
80001614:	fe842703          	lw	a4,-24(s0)
80001618:	40f707b3          	sub	a5,a4,a5
8000161c:	fef42423          	sw	a5,-24(s0)
80001620:	00004717          	auipc	a4,0x4
80001624:	6ec70713          	addi	a4,a4,1772 # 80005d0c <counter_names>
80001628:	fe442783          	lw	a5,-28(s0)
8000162c:	078a                	slli	a5,a5,0x2
8000162e:	97ba                	add	a5,a5,a4
80001630:	00001717          	auipc	a4,0x1
80001634:	52870713          	addi	a4,a4,1320 # 80002b58 <__eqdf2+0x7a>
80001638:	c398                	sw	a4,0(a5)
8000163a:	fe442783          	lw	a5,-28(s0)
8000163e:	00178713          	addi	a4,a5,1
80001642:	fee42223          	sw	a4,-28(s0)
80001646:	00004717          	auipc	a4,0x4
8000164a:	6be70713          	addi	a4,a4,1726 # 80005d04 <counters>
8000164e:	078a                	slli	a5,a5,0x2
80001650:	97ba                	add	a5,a5,a4
80001652:	fe842703          	lw	a4,-24(s0)
80001656:	c398                	sw	a4,0(a5)
80001658:	0001                	nop
8000165a:	5472                	lw	s0,60(sp)
8000165c:	6121                	addi	sp,sp,64
8000165e:	8082                	ret

80001660 <tohost_exit>:
80001660:	1101                	addi	sp,sp,-32
80001662:	ce22                	sw	s0,28(sp)
80001664:	1000                	addi	s0,sp,32
80001666:	fea42623          	sw	a0,-20(s0)
8000166a:	fec42683          	lw	a3,-20(s0)
8000166e:	0686                	slli	a3,a3,0x1
80001670:	0016e693          	ori	a3,a3,1
80001674:	8736                	mv	a4,a3
80001676:	4781                	li	a5,0
80001678:	00000697          	auipc	a3,0x0
8000167c:	98868693          	addi	a3,a3,-1656 # 80001000 <tohost>
80001680:	c298                	sw	a4,0(a3)
80001682:	c2dc                	sw	a5,4(a3)
80001684:	a001                	j	80001684 <tohost_exit+0x24>

80001686 <handle_trap>:
80001686:	1101                	addi	sp,sp,-32
80001688:	ce06                	sw	ra,28(sp)
8000168a:	cc22                	sw	s0,24(sp)
8000168c:	1000                	addi	s0,sp,32
8000168e:	fea42623          	sw	a0,-20(s0)
80001692:	feb42423          	sw	a1,-24(s0)
80001696:	fec42223          	sw	a2,-28(s0)
8000169a:	53900513          	li	a0,1337
8000169e:	37c9                	jal	80001660 <tohost_exit>

800016a0 <exit>:
800016a0:	1101                	addi	sp,sp,-32
800016a2:	ce06                	sw	ra,28(sp)
800016a4:	cc22                	sw	s0,24(sp)
800016a6:	1000                	addi	s0,sp,32
800016a8:	fea42623          	sw	a0,-20(s0)
800016ac:	fec42783          	lw	a5,-20(s0)
800016b0:	853e                	mv	a0,a5
800016b2:	377d                	jal	80001660 <tohost_exit>

800016b4 <abort>:
800016b4:	1141                	addi	sp,sp,-16
800016b6:	c606                	sw	ra,12(sp)
800016b8:	c422                	sw	s0,8(sp)
800016ba:	0800                	addi	s0,sp,16
800016bc:	08600513          	li	a0,134
800016c0:	37c5                	jal	800016a0 <exit>

800016c2 <printstr>:
800016c2:	7179                	addi	sp,sp,-48
800016c4:	d606                	sw	ra,44(sp)
800016c6:	d422                	sw	s0,40(sp)
800016c8:	d24a                	sw	s2,36(sp)
800016ca:	d04e                	sw	s3,32(sp)
800016cc:	ce52                	sw	s4,28(sp)
800016ce:	cc56                	sw	s5,24(sp)
800016d0:	1800                	addi	s0,sp,48
800016d2:	fca42e23          	sw	a0,-36(s0)
800016d6:	fdc42783          	lw	a5,-36(s0)
800016da:	893e                	mv	s2,a5
800016dc:	4981                	li	s3,0
800016de:	fdc42503          	lw	a0,-36(s0)
800016e2:	343000ef          	jal	ra,80002224 <strlen>
800016e6:	87aa                	mv	a5,a0
800016e8:	8a3e                	mv	s4,a5
800016ea:	4a81                	li	s5,0
800016ec:	87d2                	mv	a5,s4
800016ee:	8856                	mv	a6,s5
800016f0:	86ca                	mv	a3,s2
800016f2:	874e                	mv	a4,s3
800016f4:	4585                	li	a1,1
800016f6:	4601                	li	a2,0
800016f8:	04000513          	li	a0,64
800016fc:	3345                	jal	8000149c <syscall>
800016fe:	0001                	nop
80001700:	50b2                	lw	ra,44(sp)
80001702:	5422                	lw	s0,40(sp)
80001704:	5912                	lw	s2,36(sp)
80001706:	5982                	lw	s3,32(sp)
80001708:	4a72                	lw	s4,28(sp)
8000170a:	4ae2                	lw	s5,24(sp)
8000170c:	6145                	addi	sp,sp,48
8000170e:	8082                	ret

80001710 <thread_entry>:
80001710:	1101                	addi	sp,sp,-32
80001712:	ce22                	sw	s0,28(sp)
80001714:	1000                	addi	s0,sp,32
80001716:	fea42623          	sw	a0,-20(s0)
8000171a:	feb42423          	sw	a1,-24(s0)
8000171e:	0001                	nop
80001720:	fec42783          	lw	a5,-20(s0)
80001724:	fff5                	bnez	a5,80001720 <thread_entry+0x10>
80001726:	0001                	nop
80001728:	0001                	nop
8000172a:	4472                	lw	s0,28(sp)
8000172c:	6105                	addi	sp,sp,32
8000172e:	8082                	ret
80001730:	1101                	addi	sp,sp,-32
80001732:	ce06                	sw	ra,28(sp)
80001734:	cc22                	sw	s0,24(sp)
80001736:	1000                	addi	s0,sp,32
80001738:	fea42623          	sw	a0,-20(s0)
8000173c:	feb42423          	sw	a1,-24(s0)
80001740:	00001517          	auipc	a0,0x1
80001744:	42450513          	addi	a0,a0,1060 # 80002b64 <__eqdf2+0x86>
80001748:	3fad                	jal	800016c2 <printstr>
8000174a:	57fd                	li	a5,-1
8000174c:	853e                	mv	a0,a5
8000174e:	40f2                	lw	ra,28(sp)
80001750:	4462                	lw	s0,24(sp)
80001752:	6105                	addi	sp,sp,32
80001754:	8082                	ret

80001756 <init_tls>:
80001756:	1101                	addi	sp,sp,-32
80001758:	ce06                	sw	ra,28(sp)
8000175a:	cc22                	sw	s0,24(sp)
8000175c:	1000                	addi	s0,sp,32
8000175e:	00004717          	auipc	a4,0x4
80001762:	5be70713          	addi	a4,a4,1470 # 80005d1c <_tdata_begin>
80001766:	00004797          	auipc	a5,0x4
8000176a:	5b678793          	addi	a5,a5,1462 # 80005d1c <_tdata_begin>
8000176e:	40f707b3          	sub	a5,a4,a5
80001772:	fef42623          	sw	a5,-20(s0)
80001776:	8792                	mv	a5,tp
80001778:	fec42603          	lw	a2,-20(s0)
8000177c:	00004597          	auipc	a1,0x4
80001780:	5a058593          	addi	a1,a1,1440 # 80005d1c <_tdata_begin>
80001784:	853e                	mv	a0,a5
80001786:	12b000ef          	jal	ra,800020b0 <memcpy>
8000178a:	8c018713          	addi	a4,gp,-1856 # 80005dc4 <_tbss_end>
8000178e:	00004797          	auipc	a5,0x4
80001792:	58e78793          	addi	a5,a5,1422 # 80005d1c <_tdata_begin>
80001796:	40f707b3          	sub	a5,a4,a5
8000179a:	fef42423          	sw	a5,-24(s0)
8000179e:	8712                	mv	a4,tp
800017a0:	fec42783          	lw	a5,-20(s0)
800017a4:	97ba                	add	a5,a5,a4
800017a6:	fe842603          	lw	a2,-24(s0)
800017aa:	4581                	li	a1,0
800017ac:	853e                	mv	a0,a5
800017ae:	1bb000ef          	jal	ra,80002168 <memset>
800017b2:	0001                	nop
800017b4:	40f2                	lw	ra,28(sp)
800017b6:	4462                	lw	s0,24(sp)
800017b8:	6105                	addi	sp,sp,32
800017ba:	8082                	ret

800017bc <_init>:
800017bc:	7171                	addi	sp,sp,-176
800017be:	d706                	sw	ra,172(sp)
800017c0:	d522                	sw	s0,168(sp)
800017c2:	d326                	sw	s1,164(sp)
800017c4:	1900                	addi	s0,sp,176
800017c6:	f4a42e23          	sw	a0,-164(s0)
800017ca:	f4b42c23          	sw	a1,-168(s0)
800017ce:	ff040793          	addi	a5,s0,-16
800017d2:	f4f42a23          	sw	a5,-172(s0)
800017d6:	f5442783          	lw	a5,-172(s0)
800017da:	f7078793          	addi	a5,a5,-144
800017de:	03f78793          	addi	a5,a5,63
800017e2:	8399                	srli	a5,a5,0x6
800017e4:	00679493          	slli	s1,a5,0x6
800017e8:	37bd                	jal	80001756 <init_tls>
800017ea:	f5842583          	lw	a1,-168(s0)
800017ee:	f5c42503          	lw	a0,-164(s0)
800017f2:	3f39                	jal	80001710 <thread_entry>
800017f4:	4581                	li	a1,0
800017f6:	4501                	li	a0,0
800017f8:	3881                	jal	80001048 <main>
800017fa:	fea42223          	sw	a0,-28(s0)
800017fe:	fe942623          	sw	s1,-20(s0)
80001802:	fe042423          	sw	zero,-24(s0)
80001806:	a08d                	j	80001868 <_init+0xac>
80001808:	00004717          	auipc	a4,0x4
8000180c:	4fc70713          	addi	a4,a4,1276 # 80005d04 <counters>
80001810:	fe842783          	lw	a5,-24(s0)
80001814:	078a                	slli	a5,a5,0x2
80001816:	97ba                	add	a5,a5,a4
80001818:	439c                	lw	a5,0(a5)
8000181a:	c3b1                	beqz	a5,8000185e <_init+0xa2>
8000181c:	00004717          	auipc	a4,0x4
80001820:	4f070713          	addi	a4,a4,1264 # 80005d0c <counter_names>
80001824:	fe842783          	lw	a5,-24(s0)
80001828:	078a                	slli	a5,a5,0x2
8000182a:	97ba                	add	a5,a5,a4
8000182c:	4390                	lw	a2,0(a5)
8000182e:	00004717          	auipc	a4,0x4
80001832:	4d670713          	addi	a4,a4,1238 # 80005d04 <counters>
80001836:	fe842783          	lw	a5,-24(s0)
8000183a:	078a                	slli	a5,a5,0x2
8000183c:	97ba                	add	a5,a5,a4
8000183e:	439c                	lw	a5,0(a5)
80001840:	86be                	mv	a3,a5
80001842:	00001597          	auipc	a1,0x1
80001846:	33a58593          	addi	a1,a1,826 # 80002b7c <__eqdf2+0x9e>
8000184a:	fec42503          	lw	a0,-20(s0)
8000184e:	2741                	jal	80001fce <sprintf>
80001850:	87aa                	mv	a5,a0
80001852:	873e                	mv	a4,a5
80001854:	fec42783          	lw	a5,-20(s0)
80001858:	97ba                	add	a5,a5,a4
8000185a:	fef42623          	sw	a5,-20(s0)
8000185e:	fe842783          	lw	a5,-24(s0)
80001862:	0785                	addi	a5,a5,1
80001864:	fef42423          	sw	a5,-24(s0)
80001868:	fe842703          	lw	a4,-24(s0)
8000186c:	4785                	li	a5,1
8000186e:	f8e7dde3          	bge	a5,a4,80001808 <_init+0x4c>
80001872:	fec42783          	lw	a5,-20(s0)
80001876:	00f48463          	beq	s1,a5,8000187e <_init+0xc2>
8000187a:	8526                	mv	a0,s1
8000187c:	3599                	jal	800016c2 <printstr>
8000187e:	fe442503          	lw	a0,-28(s0)
80001882:	3d39                	jal	800016a0 <exit>

80001884 <putchar>:
80001884:	1101                	addi	sp,sp,-32
80001886:	ce06                	sw	ra,28(sp)
80001888:	cc22                	sw	s0,24(sp)
8000188a:	1000                	addi	s0,sp,32
8000188c:	fea42623          	sw	a0,-20(s0)
80001890:	08022783          	lw	a5,128(tp) # 80 <buflen.3>
80001894:	00178593          	addi	a1,a5,1
80001898:	08b22023          	sw	a1,128(tp) # 80 <buflen.3>
8000189c:	fec42703          	lw	a4,-20(s0)
800018a0:	0ff77713          	zext.b	a4,a4
800018a4:	04020593          	addi	a1,tp,64 # 40 <buf.4>
800018a8:	97ae                	add	a5,a5,a1
800018aa:	00e78023          	sb	a4,0(a5)
800018ae:	fec42703          	lw	a4,-20(s0)
800018b2:	47a9                	li	a5,10
800018b4:	00f70863          	beq	a4,a5,800018c4 <putchar+0x40>
800018b8:	08022703          	lw	a4,128(tp) # 80 <buflen.3>
800018bc:	04000793          	li	a5,64
800018c0:	02f71663          	bne	a4,a5,800018ec <putchar+0x68>
800018c4:	04020793          	addi	a5,tp,64 # 40 <buf.4>
800018c8:	863e                	mv	a2,a5
800018ca:	4681                	li	a3,0
800018cc:	08022783          	lw	a5,128(tp) # 80 <buflen.3>
800018d0:	883e                	mv	a6,a5
800018d2:	87fd                	srai	a5,a5,0x1f
800018d4:	88be                	mv	a7,a5
800018d6:	87c2                	mv	a5,a6
800018d8:	8846                	mv	a6,a7
800018da:	8736                	mv	a4,a3
800018dc:	86b2                	mv	a3,a2
800018de:	4585                	li	a1,1
800018e0:	4601                	li	a2,0
800018e2:	04000513          	li	a0,64
800018e6:	3e5d                	jal	8000149c <syscall>
800018e8:	08022023          	sw	zero,128(tp) # 80 <buflen.3>
800018ec:	4781                	li	a5,0
800018ee:	853e                	mv	a0,a5
800018f0:	40f2                	lw	ra,28(sp)
800018f2:	4462                	lw	s0,24(sp)
800018f4:	6105                	addi	sp,sp,32
800018f6:	8082                	ret

800018f8 <printhex>:
800018f8:	7139                	addi	sp,sp,-64
800018fa:	de06                	sw	ra,60(sp)
800018fc:	dc22                	sw	s0,56(sp)
800018fe:	0080                	addi	s0,sp,64
80001900:	fca42423          	sw	a0,-56(s0)
80001904:	fcb42623          	sw	a1,-52(s0)
80001908:	fe042623          	sw	zero,-20(s0)
8000190c:	a8ad                	j	80001986 <printhex+0x8e>
8000190e:	fc844583          	lbu	a1,-56(s0)
80001912:	89bd                	andi	a1,a1,15
80001914:	0ff5f513          	zext.b	a0,a1
80001918:	fc842583          	lw	a1,-56(s0)
8000191c:	00f5f613          	andi	a2,a1,15
80001920:	fcc42583          	lw	a1,-52(s0)
80001924:	0005f693          	andi	a3,a1,0
80001928:	85b6                	mv	a1,a3
8000192a:	e991                	bnez	a1,8000193e <printhex+0x46>
8000192c:	85b6                	mv	a1,a3
8000192e:	e589                	bnez	a1,80001938 <printhex+0x40>
80001930:	8832                	mv	a6,a2
80001932:	45a5                	li	a1,9
80001934:	0105e563          	bltu	a1,a6,8000193e <printhex+0x46>
80001938:	03000593          	li	a1,48
8000193c:	a019                	j	80001942 <printhex+0x4a>
8000193e:	05700593          	li	a1,87
80001942:	48bd                	li	a7,15
80001944:	fec42803          	lw	a6,-20(s0)
80001948:	41088833          	sub	a6,a7,a6
8000194c:	95aa                	add	a1,a1,a0
8000194e:	0ff5f513          	zext.b	a0,a1
80001952:	ff080593          	addi	a1,a6,-16
80001956:	95a2                	add	a1,a1,s0
80001958:	fea58423          	sb	a0,-24(a1)
8000195c:	fcc42583          	lw	a1,-52(s0)
80001960:	05f2                	slli	a1,a1,0x1c
80001962:	fc842503          	lw	a0,-56(s0)
80001966:	00455713          	srli	a4,a0,0x4
8000196a:	8f4d                	or	a4,a4,a1
8000196c:	fcc42583          	lw	a1,-52(s0)
80001970:	0045d793          	srli	a5,a1,0x4
80001974:	fce42423          	sw	a4,-56(s0)
80001978:	fcf42623          	sw	a5,-52(s0)
8000197c:	fec42583          	lw	a1,-20(s0)
80001980:	0585                	addi	a1,a1,1
80001982:	feb42623          	sw	a1,-20(s0)
80001986:	fec42503          	lw	a0,-20(s0)
8000198a:	45bd                	li	a1,15
8000198c:	f8a5d1e3          	bge	a1,a0,8000190e <printhex+0x16>
80001990:	fe040423          	sb	zero,-24(s0)
80001994:	fd840793          	addi	a5,s0,-40
80001998:	853e                	mv	a0,a5
8000199a:	3325                	jal	800016c2 <printstr>
8000199c:	0001                	nop
8000199e:	50f2                	lw	ra,60(sp)
800019a0:	5462                	lw	s0,56(sp)
800019a2:	6121                	addi	sp,sp,64
800019a4:	8082                	ret

800019a6 <printnum>:
800019a6:	714d                	addi	sp,sp,-336
800019a8:	14112623          	sw	ra,332(sp)
800019ac:	14812423          	sw	s0,328(sp)
800019b0:	15212223          	sw	s2,324(sp)
800019b4:	15312023          	sw	s3,320(sp)
800019b8:	13412e23          	sw	s4,316(sp)
800019bc:	13512c23          	sw	s5,312(sp)
800019c0:	13612a23          	sw	s6,308(sp)
800019c4:	13712823          	sw	s7,304(sp)
800019c8:	0a80                	addi	s0,sp,336
800019ca:	eca42623          	sw	a0,-308(s0)
800019ce:	ecb42423          	sw	a1,-312(s0)
800019d2:	ecc42023          	sw	a2,-320(s0)
800019d6:	ecd42223          	sw	a3,-316(s0)
800019da:	eae42e23          	sw	a4,-324(s0)
800019de:	eaf42c23          	sw	a5,-328(s0)
800019e2:	eb042a23          	sw	a6,-332(s0)
800019e6:	fc042e23          	sw	zero,-36(s0)
800019ea:	ebc42783          	lw	a5,-324(s0)
800019ee:	8b3e                	mv	s6,a5
800019f0:	4b81                	li	s7,0
800019f2:	ec042703          	lw	a4,-320(s0)
800019f6:	ec442783          	lw	a5,-316(s0)
800019fa:	865a                	mv	a2,s6
800019fc:	86de                	mv	a3,s7
800019fe:	853a                	mv	a0,a4
80001a00:	85be                	mv	a1,a5
80001a02:	5bf000ef          	jal	ra,800027c0 <__umoddi3>
80001a06:	872a                	mv	a4,a0
80001a08:	87ae                	mv	a5,a1
80001a0a:	863a                	mv	a2,a4
80001a0c:	86be                	mv	a3,a5
80001a0e:	fdc42783          	lw	a5,-36(s0)
80001a12:	00178713          	addi	a4,a5,1
80001a16:	fce42e23          	sw	a4,-36(s0)
80001a1a:	8732                	mv	a4,a2
80001a1c:	078a                	slli	a5,a5,0x2
80001a1e:	1781                	addi	a5,a5,-32
80001a20:	97a2                	add	a5,a5,s0
80001a22:	eee7ae23          	sw	a4,-260(a5)
80001a26:	ebc42783          	lw	a5,-324(s0)
80001a2a:	893e                	mv	s2,a5
80001a2c:	4981                	li	s3,0
80001a2e:	ec442783          	lw	a5,-316(s0)
80001a32:	874e                	mv	a4,s3
80001a34:	02e7ef63          	bltu	a5,a4,80001a72 <printnum+0xcc>
80001a38:	ec442783          	lw	a5,-316(s0)
80001a3c:	874e                	mv	a4,s3
80001a3e:	00e79763          	bne	a5,a4,80001a4c <printnum+0xa6>
80001a42:	ec042783          	lw	a5,-320(s0)
80001a46:	874a                	mv	a4,s2
80001a48:	02e7e563          	bltu	a5,a4,80001a72 <printnum+0xcc>
80001a4c:	ebc42783          	lw	a5,-324(s0)
80001a50:	8a3e                	mv	s4,a5
80001a52:	4a81                	li	s5,0
80001a54:	8652                	mv	a2,s4
80001a56:	86d6                	mv	a3,s5
80001a58:	ec042503          	lw	a0,-320(s0)
80001a5c:	ec442583          	lw	a1,-316(s0)
80001a60:	203000ef          	jal	ra,80002462 <__udivdi3>
80001a64:	872a                	mv	a4,a0
80001a66:	87ae                	mv	a5,a1
80001a68:	ece42023          	sw	a4,-320(s0)
80001a6c:	ecf42223          	sw	a5,-316(s0)
80001a70:	bfad                	j	800019ea <printnum+0x44>
80001a72:	0001                	nop
80001a74:	a801                	j	80001a84 <printnum+0xde>
80001a76:	ecc42783          	lw	a5,-308(s0)
80001a7a:	ec842583          	lw	a1,-312(s0)
80001a7e:	eb442503          	lw	a0,-332(s0)
80001a82:	9782                	jalr	a5
80001a84:	eb842783          	lw	a5,-328(s0)
80001a88:	fff78713          	addi	a4,a5,-1
80001a8c:	eae42c23          	sw	a4,-328(s0)
80001a90:	fdc42703          	lw	a4,-36(s0)
80001a94:	fef741e3          	blt	a4,a5,80001a76 <printnum+0xd0>
80001a98:	a835                	j	80001ad4 <printnum+0x12e>
80001a9a:	fdc42783          	lw	a5,-36(s0)
80001a9e:	078a                	slli	a5,a5,0x2
80001aa0:	1781                	addi	a5,a5,-32
80001aa2:	97a2                	add	a5,a5,s0
80001aa4:	efc7a703          	lw	a4,-260(a5)
80001aa8:	fdc42783          	lw	a5,-36(s0)
80001aac:	078a                	slli	a5,a5,0x2
80001aae:	1781                	addi	a5,a5,-32
80001ab0:	97a2                	add	a5,a5,s0
80001ab2:	efc7a683          	lw	a3,-260(a5)
80001ab6:	47a5                	li	a5,9
80001ab8:	00d7f563          	bgeu	a5,a3,80001ac2 <printnum+0x11c>
80001abc:	05700793          	li	a5,87
80001ac0:	a019                	j	80001ac6 <printnum+0x120>
80001ac2:	03000793          	li	a5,48
80001ac6:	97ba                	add	a5,a5,a4
80001ac8:	ecc42703          	lw	a4,-308(s0)
80001acc:	ec842583          	lw	a1,-312(s0)
80001ad0:	853e                	mv	a0,a5
80001ad2:	9702                	jalr	a4
80001ad4:	fdc42783          	lw	a5,-36(s0)
80001ad8:	fff78713          	addi	a4,a5,-1
80001adc:	fce42e23          	sw	a4,-36(s0)
80001ae0:	faf04de3          	bgtz	a5,80001a9a <printnum+0xf4>
80001ae4:	0001                	nop
80001ae6:	0001                	nop
80001ae8:	14c12083          	lw	ra,332(sp)
80001aec:	14812403          	lw	s0,328(sp)
80001af0:	14412903          	lw	s2,324(sp)
80001af4:	14012983          	lw	s3,320(sp)
80001af8:	13c12a03          	lw	s4,316(sp)
80001afc:	13812a83          	lw	s5,312(sp)
80001b00:	13412b03          	lw	s6,308(sp)
80001b04:	13012b83          	lw	s7,304(sp)
80001b08:	6171                	addi	sp,sp,336
80001b0a:	8082                	ret

80001b0c <getuint>:
80001b0c:	1101                	addi	sp,sp,-32
80001b0e:	ce22                	sw	s0,28(sp)
80001b10:	1000                	addi	s0,sp,32
80001b12:	fea42623          	sw	a0,-20(s0)
80001b16:	feb42423          	sw	a1,-24(s0)
80001b1a:	fe842603          	lw	a2,-24(s0)
80001b1e:	4685                	li	a3,1
80001b20:	00c6df63          	bge	a3,a2,80001b3e <getuint+0x32>
80001b24:	fec42783          	lw	a5,-20(s0)
80001b28:	439c                	lw	a5,0(a5)
80001b2a:	079d                	addi	a5,a5,7
80001b2c:	9be1                	andi	a5,a5,-8
80001b2e:	00878693          	addi	a3,a5,8
80001b32:	fec42703          	lw	a4,-20(s0)
80001b36:	c314                	sw	a3,0(a4)
80001b38:	4398                	lw	a4,0(a5)
80001b3a:	43dc                	lw	a5,4(a5)
80001b3c:	a81d                	j	80001b72 <getuint+0x66>
80001b3e:	fe842683          	lw	a3,-24(s0)
80001b42:	ce89                	beqz	a3,80001b5c <getuint+0x50>
80001b44:	fec42683          	lw	a3,-20(s0)
80001b48:	4294                	lw	a3,0(a3)
80001b4a:	00468593          	addi	a1,a3,4
80001b4e:	fec42603          	lw	a2,-20(s0)
80001b52:	c20c                	sw	a1,0(a2)
80001b54:	4294                	lw	a3,0(a3)
80001b56:	8736                	mv	a4,a3
80001b58:	4781                	li	a5,0
80001b5a:	a821                	j	80001b72 <getuint+0x66>
80001b5c:	fec42683          	lw	a3,-20(s0)
80001b60:	4294                	lw	a3,0(a3)
80001b62:	00468593          	addi	a1,a3,4
80001b66:	fec42603          	lw	a2,-20(s0)
80001b6a:	c20c                	sw	a1,0(a2)
80001b6c:	4294                	lw	a3,0(a3)
80001b6e:	8736                	mv	a4,a3
80001b70:	4781                	li	a5,0
80001b72:	853a                	mv	a0,a4
80001b74:	85be                	mv	a1,a5
80001b76:	4472                	lw	s0,28(sp)
80001b78:	6105                	addi	sp,sp,32
80001b7a:	8082                	ret

80001b7c <getint>:
80001b7c:	1101                	addi	sp,sp,-32
80001b7e:	ce22                	sw	s0,28(sp)
80001b80:	1000                	addi	s0,sp,32
80001b82:	fea42623          	sw	a0,-20(s0)
80001b86:	feb42423          	sw	a1,-24(s0)
80001b8a:	fe842603          	lw	a2,-24(s0)
80001b8e:	4685                	li	a3,1
80001b90:	00c6df63          	bge	a3,a2,80001bae <getint+0x32>
80001b94:	fec42783          	lw	a5,-20(s0)
80001b98:	439c                	lw	a5,0(a5)
80001b9a:	079d                	addi	a5,a5,7
80001b9c:	9be1                	andi	a5,a5,-8
80001b9e:	00878693          	addi	a3,a5,8
80001ba2:	fec42703          	lw	a4,-20(s0)
80001ba6:	c314                	sw	a3,0(a4)
80001ba8:	4398                	lw	a4,0(a5)
80001baa:	43dc                	lw	a5,4(a5)
80001bac:	a82d                	j	80001be6 <getint+0x6a>
80001bae:	fe842683          	lw	a3,-24(s0)
80001bb2:	ce91                	beqz	a3,80001bce <getint+0x52>
80001bb4:	fec42683          	lw	a3,-20(s0)
80001bb8:	4294                	lw	a3,0(a3)
80001bba:	00468593          	addi	a1,a3,4
80001bbe:	fec42603          	lw	a2,-20(s0)
80001bc2:	c20c                	sw	a1,0(a2)
80001bc4:	4294                	lw	a3,0(a3)
80001bc6:	8736                	mv	a4,a3
80001bc8:	86fd                	srai	a3,a3,0x1f
80001bca:	87b6                	mv	a5,a3
80001bcc:	a829                	j	80001be6 <getint+0x6a>
80001bce:	fec42683          	lw	a3,-20(s0)
80001bd2:	4294                	lw	a3,0(a3)
80001bd4:	00468593          	addi	a1,a3,4
80001bd8:	fec42603          	lw	a2,-20(s0)
80001bdc:	c20c                	sw	a1,0(a2)
80001bde:	4294                	lw	a3,0(a3)
80001be0:	8736                	mv	a4,a3
80001be2:	86fd                	srai	a3,a3,0x1f
80001be4:	87b6                	mv	a5,a3
80001be6:	853a                	mv	a0,a4
80001be8:	85be                	mv	a1,a5
80001bea:	4472                	lw	s0,28(sp)
80001bec:	6105                	addi	sp,sp,32
80001bee:	8082                	ret

80001bf0 <vprintfmt>:
80001bf0:	715d                	addi	sp,sp,-80
80001bf2:	c686                	sw	ra,76(sp)
80001bf4:	c4a2                	sw	s0,72(sp)
80001bf6:	c2a6                	sw	s1,68(sp)
80001bf8:	c0ca                	sw	s2,64(sp)
80001bfa:	0880                	addi	s0,sp,80
80001bfc:	faa42e23          	sw	a0,-68(s0)
80001c00:	fab42c23          	sw	a1,-72(s0)
80001c04:	fac42a23          	sw	a2,-76(s0)
80001c08:	fad42823          	sw	a3,-80(s0)
80001c0c:	a831                	j	80001c28 <vprintfmt+0x38>
80001c0e:	30048e63          	beqz	s1,80001f2a <vprintfmt+0x33a>
80001c12:	fb442783          	lw	a5,-76(s0)
80001c16:	0785                	addi	a5,a5,1
80001c18:	faf42a23          	sw	a5,-76(s0)
80001c1c:	fbc42783          	lw	a5,-68(s0)
80001c20:	fb842583          	lw	a1,-72(s0)
80001c24:	8526                	mv	a0,s1
80001c26:	9782                	jalr	a5
80001c28:	fb442783          	lw	a5,-76(s0)
80001c2c:	0007c783          	lbu	a5,0(a5)
80001c30:	84be                	mv	s1,a5
80001c32:	02500793          	li	a5,37
80001c36:	fcf49ce3          	bne	s1,a5,80001c0e <vprintfmt+0x1e>
80001c3a:	fb442783          	lw	a5,-76(s0)
80001c3e:	0785                	addi	a5,a5,1
80001c40:	faf42a23          	sw	a5,-76(s0)
80001c44:	fb442783          	lw	a5,-76(s0)
80001c48:	fcf42823          	sw	a5,-48(s0)
80001c4c:	02000793          	li	a5,32
80001c50:	fcf40ba3          	sb	a5,-41(s0)
80001c54:	57fd                	li	a5,-1
80001c56:	fcf42e23          	sw	a5,-36(s0)
80001c5a:	57fd                	li	a5,-1
80001c5c:	fcf42c23          	sw	a5,-40(s0)
80001c60:	fe042023          	sw	zero,-32(s0)
80001c64:	fc042623          	sw	zero,-52(s0)
80001c68:	fb442783          	lw	a5,-76(s0)
80001c6c:	00178713          	addi	a4,a5,1
80001c70:	fae42a23          	sw	a4,-76(s0)
80001c74:	0007c783          	lbu	a5,0(a5)
80001c78:	84be                	mv	s1,a5
80001c7a:	fdd48793          	addi	a5,s1,-35
80001c7e:	05500713          	li	a4,85
80001c82:	28f76763          	bltu	a4,a5,80001f10 <vprintfmt+0x320>
80001c86:	00279713          	slli	a4,a5,0x2
80001c8a:	00001797          	auipc	a5,0x1
80001c8e:	f0678793          	addi	a5,a5,-250 # 80002b90 <__eqdf2+0xb2>
80001c92:	97ba                	add	a5,a5,a4
80001c94:	4398                	lw	a4,0(a5)
80001c96:	00001797          	auipc	a5,0x1
80001c9a:	efa78793          	addi	a5,a5,-262 # 80002b90 <__eqdf2+0xb2>
80001c9e:	97ba                	add	a5,a5,a4
80001ca0:	8782                	jr	a5
80001ca2:	02d00793          	li	a5,45
80001ca6:	fcf40ba3          	sb	a5,-41(s0)
80001caa:	bf7d                	j	80001c68 <vprintfmt+0x78>
80001cac:	03000793          	li	a5,48
80001cb0:	fcf40ba3          	sb	a5,-41(s0)
80001cb4:	bf55                	j	80001c68 <vprintfmt+0x78>
80001cb6:	fc042c23          	sw	zero,-40(s0)
80001cba:	fd842703          	lw	a4,-40(s0)
80001cbe:	87ba                	mv	a5,a4
80001cc0:	078a                	slli	a5,a5,0x2
80001cc2:	97ba                	add	a5,a5,a4
80001cc4:	0786                	slli	a5,a5,0x1
80001cc6:	97a6                	add	a5,a5,s1
80001cc8:	fd078793          	addi	a5,a5,-48
80001ccc:	fcf42c23          	sw	a5,-40(s0)
80001cd0:	fb442783          	lw	a5,-76(s0)
80001cd4:	0007c783          	lbu	a5,0(a5)
80001cd8:	84be                	mv	s1,a5
80001cda:	02f00793          	li	a5,47
80001cde:	0497d163          	bge	a5,s1,80001d20 <vprintfmt+0x130>
80001ce2:	03900793          	li	a5,57
80001ce6:	0297cd63          	blt	a5,s1,80001d20 <vprintfmt+0x130>
80001cea:	fb442783          	lw	a5,-76(s0)
80001cee:	0785                	addi	a5,a5,1
80001cf0:	faf42a23          	sw	a5,-76(s0)
80001cf4:	b7d9                	j	80001cba <vprintfmt+0xca>
80001cf6:	fb042783          	lw	a5,-80(s0)
80001cfa:	00478713          	addi	a4,a5,4
80001cfe:	fae42823          	sw	a4,-80(s0)
80001d02:	439c                	lw	a5,0(a5)
80001d04:	fcf42c23          	sw	a5,-40(s0)
80001d08:	a829                	j	80001d22 <vprintfmt+0x132>
80001d0a:	fdc42783          	lw	a5,-36(s0)
80001d0e:	f407dde3          	bgez	a5,80001c68 <vprintfmt+0x78>
80001d12:	fc042e23          	sw	zero,-36(s0)
80001d16:	bf89                	j	80001c68 <vprintfmt+0x78>
80001d18:	4785                	li	a5,1
80001d1a:	fcf42623          	sw	a5,-52(s0)
80001d1e:	b7a9                	j	80001c68 <vprintfmt+0x78>
80001d20:	0001                	nop
80001d22:	fdc42783          	lw	a5,-36(s0)
80001d26:	f407d1e3          	bgez	a5,80001c68 <vprintfmt+0x78>
80001d2a:	fd842783          	lw	a5,-40(s0)
80001d2e:	fcf42e23          	sw	a5,-36(s0)
80001d32:	57fd                	li	a5,-1
80001d34:	fcf42c23          	sw	a5,-40(s0)
80001d38:	bf05                	j	80001c68 <vprintfmt+0x78>
80001d3a:	fe042783          	lw	a5,-32(s0)
80001d3e:	0785                	addi	a5,a5,1
80001d40:	fef42023          	sw	a5,-32(s0)
80001d44:	b715                	j	80001c68 <vprintfmt+0x78>
80001d46:	fb042783          	lw	a5,-80(s0)
80001d4a:	00478713          	addi	a4,a5,4
80001d4e:	fae42823          	sw	a4,-80(s0)
80001d52:	439c                	lw	a5,0(a5)
80001d54:	fbc42703          	lw	a4,-68(s0)
80001d58:	fb842583          	lw	a1,-72(s0)
80001d5c:	853e                	mv	a0,a5
80001d5e:	9702                	jalr	a4
80001d60:	a2e1                	j	80001f28 <vprintfmt+0x338>
80001d62:	fb042783          	lw	a5,-80(s0)
80001d66:	00478713          	addi	a4,a5,4
80001d6a:	fae42823          	sw	a4,-80(s0)
80001d6e:	0007a903          	lw	s2,0(a5)
80001d72:	00091663          	bnez	s2,80001d7e <vprintfmt+0x18e>
80001d76:	00001917          	auipc	s2,0x1
80001d7a:	e1290913          	addi	s2,s2,-494 # 80002b88 <__eqdf2+0xaa>
80001d7e:	fdc42783          	lw	a5,-36(s0)
80001d82:	06f05363          	blez	a5,80001de8 <vprintfmt+0x1f8>
80001d86:	fd744703          	lbu	a4,-41(s0)
80001d8a:	02d00793          	li	a5,45
80001d8e:	04f70d63          	beq	a4,a5,80001de8 <vprintfmt+0x1f8>
80001d92:	fdc42483          	lw	s1,-36(s0)
80001d96:	fd842783          	lw	a5,-40(s0)
80001d9a:	85be                	mv	a1,a5
80001d9c:	854a                	mv	a0,s2
80001d9e:	21c9                	jal	80002260 <strnlen>
80001da0:	87aa                	mv	a5,a0
80001da2:	40f487b3          	sub	a5,s1,a5
80001da6:	fcf42e23          	sw	a5,-36(s0)
80001daa:	a831                	j	80001dc6 <vprintfmt+0x1d6>
80001dac:	fd744783          	lbu	a5,-41(s0)
80001db0:	fbc42703          	lw	a4,-68(s0)
80001db4:	fb842583          	lw	a1,-72(s0)
80001db8:	853e                	mv	a0,a5
80001dba:	9702                	jalr	a4
80001dbc:	fdc42783          	lw	a5,-36(s0)
80001dc0:	17fd                	addi	a5,a5,-1
80001dc2:	fcf42e23          	sw	a5,-36(s0)
80001dc6:	fdc42783          	lw	a5,-36(s0)
80001dca:	fef041e3          	bgtz	a5,80001dac <vprintfmt+0x1bc>
80001dce:	a829                	j	80001de8 <vprintfmt+0x1f8>
80001dd0:	fbc42783          	lw	a5,-68(s0)
80001dd4:	fb842583          	lw	a1,-72(s0)
80001dd8:	8526                	mv	a0,s1
80001dda:	9782                	jalr	a5
80001ddc:	0905                	addi	s2,s2,1
80001dde:	fdc42783          	lw	a5,-36(s0)
80001de2:	17fd                	addi	a5,a5,-1
80001de4:	fcf42e23          	sw	a5,-36(s0)
80001de8:	00094783          	lbu	a5,0(s2)
80001dec:	84be                	mv	s1,a5
80001dee:	c89d                	beqz	s1,80001e24 <vprintfmt+0x234>
80001df0:	fd842783          	lw	a5,-40(s0)
80001df4:	fc07cee3          	bltz	a5,80001dd0 <vprintfmt+0x1e0>
80001df8:	fd842783          	lw	a5,-40(s0)
80001dfc:	17fd                	addi	a5,a5,-1
80001dfe:	fcf42c23          	sw	a5,-40(s0)
80001e02:	fd842783          	lw	a5,-40(s0)
80001e06:	fc07d5e3          	bgez	a5,80001dd0 <vprintfmt+0x1e0>
80001e0a:	a829                	j	80001e24 <vprintfmt+0x234>
80001e0c:	fbc42783          	lw	a5,-68(s0)
80001e10:	fb842583          	lw	a1,-72(s0)
80001e14:	02000513          	li	a0,32
80001e18:	9782                	jalr	a5
80001e1a:	fdc42783          	lw	a5,-36(s0)
80001e1e:	17fd                	addi	a5,a5,-1
80001e20:	fcf42e23          	sw	a5,-36(s0)
80001e24:	fdc42783          	lw	a5,-36(s0)
80001e28:	fef042e3          	bgtz	a5,80001e0c <vprintfmt+0x21c>
80001e2c:	a8f5                	j	80001f28 <vprintfmt+0x338>
80001e2e:	fb040793          	addi	a5,s0,-80
80001e32:	fe042583          	lw	a1,-32(s0)
80001e36:	853e                	mv	a0,a5
80001e38:	3391                	jal	80001b7c <getint>
80001e3a:	872a                	mv	a4,a0
80001e3c:	87ae                	mv	a5,a1
80001e3e:	fee42423          	sw	a4,-24(s0)
80001e42:	fef42623          	sw	a5,-20(s0)
80001e46:	fe842703          	lw	a4,-24(s0)
80001e4a:	fec42783          	lw	a5,-20(s0)
80001e4e:	0207df63          	bgez	a5,80001e8c <vprintfmt+0x29c>
80001e52:	fbc42783          	lw	a5,-68(s0)
80001e56:	fb842583          	lw	a1,-72(s0)
80001e5a:	02d00513          	li	a0,45
80001e5e:	9782                	jalr	a5
80001e60:	fe842503          	lw	a0,-24(s0)
80001e64:	fec42583          	lw	a1,-20(s0)
80001e68:	4701                	li	a4,0
80001e6a:	4781                	li	a5,0
80001e6c:	40a70633          	sub	a2,a4,a0
80001e70:	8832                	mv	a6,a2
80001e72:	01073833          	sltu	a6,a4,a6
80001e76:	40b786b3          	sub	a3,a5,a1
80001e7a:	410687b3          	sub	a5,a3,a6
80001e7e:	86be                	mv	a3,a5
80001e80:	8732                	mv	a4,a2
80001e82:	87b6                	mv	a5,a3
80001e84:	fee42423          	sw	a4,-24(s0)
80001e88:	fef42623          	sw	a5,-20(s0)
80001e8c:	47a9                	li	a5,10
80001e8e:	fef42223          	sw	a5,-28(s0)
80001e92:	a0b9                	j	80001ee0 <vprintfmt+0x2f0>
80001e94:	47a9                	li	a5,10
80001e96:	fef42223          	sw	a5,-28(s0)
80001e9a:	a80d                	j	80001ecc <vprintfmt+0x2dc>
80001e9c:	47a1                	li	a5,8
80001e9e:	fef42223          	sw	a5,-28(s0)
80001ea2:	a02d                	j	80001ecc <vprintfmt+0x2dc>
80001ea4:	4785                	li	a5,1
80001ea6:	fef42023          	sw	a5,-32(s0)
80001eaa:	fbc42783          	lw	a5,-68(s0)
80001eae:	fb842583          	lw	a1,-72(s0)
80001eb2:	03000513          	li	a0,48
80001eb6:	9782                	jalr	a5
80001eb8:	fbc42783          	lw	a5,-68(s0)
80001ebc:	fb842583          	lw	a1,-72(s0)
80001ec0:	07800513          	li	a0,120
80001ec4:	9782                	jalr	a5
80001ec6:	47c1                	li	a5,16
80001ec8:	fef42223          	sw	a5,-28(s0)
80001ecc:	fb040793          	addi	a5,s0,-80
80001ed0:	fe042583          	lw	a1,-32(s0)
80001ed4:	853e                	mv	a0,a5
80001ed6:	391d                	jal	80001b0c <getuint>
80001ed8:	fea42423          	sw	a0,-24(s0)
80001edc:	feb42623          	sw	a1,-20(s0)
80001ee0:	fe442703          	lw	a4,-28(s0)
80001ee4:	fd744783          	lbu	a5,-41(s0)
80001ee8:	883e                	mv	a6,a5
80001eea:	fdc42783          	lw	a5,-36(s0)
80001eee:	fe842603          	lw	a2,-24(s0)
80001ef2:	fec42683          	lw	a3,-20(s0)
80001ef6:	fb842583          	lw	a1,-72(s0)
80001efa:	fbc42503          	lw	a0,-68(s0)
80001efe:	3465                	jal	800019a6 <printnum>
80001f00:	a025                	j	80001f28 <vprintfmt+0x338>
80001f02:	fbc42783          	lw	a5,-68(s0)
80001f06:	fb842583          	lw	a1,-72(s0)
80001f0a:	8526                	mv	a0,s1
80001f0c:	9782                	jalr	a5
80001f0e:	a829                	j	80001f28 <vprintfmt+0x338>
80001f10:	fbc42783          	lw	a5,-68(s0)
80001f14:	fb842583          	lw	a1,-72(s0)
80001f18:	02500513          	li	a0,37
80001f1c:	9782                	jalr	a5
80001f1e:	fd042783          	lw	a5,-48(s0)
80001f22:	faf42a23          	sw	a5,-76(s0)
80001f26:	0001                	nop
80001f28:	b301                	j	80001c28 <vprintfmt+0x38>
80001f2a:	0001                	nop
80001f2c:	40b6                	lw	ra,76(sp)
80001f2e:	4426                	lw	s0,72(sp)
80001f30:	4496                	lw	s1,68(sp)
80001f32:	4906                	lw	s2,64(sp)
80001f34:	6161                	addi	sp,sp,80
80001f36:	8082                	ret

80001f38 <printf>:
80001f38:	715d                	addi	sp,sp,-80
80001f3a:	d606                	sw	ra,44(sp)
80001f3c:	d422                	sw	s0,40(sp)
80001f3e:	1800                	addi	s0,sp,48
80001f40:	fca42e23          	sw	a0,-36(s0)
80001f44:	c04c                	sw	a1,4(s0)
80001f46:	c410                	sw	a2,8(s0)
80001f48:	c454                	sw	a3,12(s0)
80001f4a:	c818                	sw	a4,16(s0)
80001f4c:	c85c                	sw	a5,20(s0)
80001f4e:	01042c23          	sw	a6,24(s0)
80001f52:	01142e23          	sw	a7,28(s0)
80001f56:	02040793          	addi	a5,s0,32
80001f5a:	fcf42c23          	sw	a5,-40(s0)
80001f5e:	fd842783          	lw	a5,-40(s0)
80001f62:	1791                	addi	a5,a5,-28
80001f64:	fef42623          	sw	a5,-20(s0)
80001f68:	fec42783          	lw	a5,-20(s0)
80001f6c:	86be                	mv	a3,a5
80001f6e:	fdc42603          	lw	a2,-36(s0)
80001f72:	4581                	li	a1,0
80001f74:	00000517          	auipc	a0,0x0
80001f78:	91050513          	addi	a0,a0,-1776 # 80001884 <putchar>
80001f7c:	3995                	jal	80001bf0 <vprintfmt>
80001f7e:	4781                	li	a5,0
80001f80:	853e                	mv	a0,a5
80001f82:	50b2                	lw	ra,44(sp)
80001f84:	5422                	lw	s0,40(sp)
80001f86:	6161                	addi	sp,sp,80
80001f88:	8082                	ret

80001f8a <sprintf_putch.0>:
80001f8a:	7179                	addi	sp,sp,-48
80001f8c:	d622                	sw	s0,44(sp)
80001f8e:	1800                	addi	s0,sp,48
80001f90:	fca42e23          	sw	a0,-36(s0)
80001f94:	fcb42c23          	sw	a1,-40(s0)
80001f98:	fc742a23          	sw	t2,-44(s0)
80001f9c:	fd842783          	lw	a5,-40(s0)
80001fa0:	fef42623          	sw	a5,-20(s0)
80001fa4:	fec42783          	lw	a5,-20(s0)
80001fa8:	439c                	lw	a5,0(a5)
80001faa:	fdc42703          	lw	a4,-36(s0)
80001fae:	0ff77713          	zext.b	a4,a4
80001fb2:	00e78023          	sb	a4,0(a5)
80001fb6:	fec42783          	lw	a5,-20(s0)
80001fba:	439c                	lw	a5,0(a5)
80001fbc:	00178713          	addi	a4,a5,1
80001fc0:	fec42783          	lw	a5,-20(s0)
80001fc4:	c398                	sw	a4,0(a5)
80001fc6:	0001                	nop
80001fc8:	5432                	lw	s0,44(sp)
80001fca:	6145                	addi	sp,sp,48
80001fcc:	8082                	ret

80001fce <sprintf>:
80001fce:	711d                	addi	sp,sp,-96
80001fd0:	de06                	sw	ra,60(sp)
80001fd2:	dc22                	sw	s0,56(sp)
80001fd4:	0080                	addi	s0,sp,64
80001fd6:	fca42623          	sw	a0,-52(s0)
80001fda:	fcb42423          	sw	a1,-56(s0)
80001fde:	c410                	sw	a2,8(s0)
80001fe0:	c454                	sw	a3,12(s0)
80001fe2:	c818                	sw	a4,16(s0)
80001fe4:	c85c                	sw	a5,20(s0)
80001fe6:	01042c23          	sw	a6,24(s0)
80001fea:	01142e23          	sw	a7,28(s0)
80001fee:	02040793          	addi	a5,s0,32
80001ff2:	fcf42223          	sw	a5,-60(s0)
80001ff6:	fc442783          	lw	a5,-60(s0)
80001ffa:	fef42223          	sw	a5,-28(s0)
80001ffe:	fd440793          	addi	a5,s0,-44
80002002:	fd440593          	addi	a1,s0,-44
80002006:	00000617          	auipc	a2,0x0
8000200a:	f8460613          	addi	a2,a2,-124 # 80001f8a <sprintf_putch.0>
8000200e:	777d                	lui	a4,0xfffff
80002010:	fff74693          	not	a3,a4
80002014:	6505                	lui	a0,0x1
80002016:	80050513          	addi	a0,a0,-2048 # 800 <buflen.3+0x780>
8000201a:	00a58833          	add	a6,a1,a0
8000201e:	00e87833          	and	a6,a6,a4
80002022:	3b786813          	ori	a6,a6,951
80002026:	0107a023          	sw	a6,0(a5)
8000202a:	9532                	add	a0,a0,a2
8000202c:	8f69                	and	a4,a4,a0
8000202e:	2b776713          	ori	a4,a4,695
80002032:	c3d8                	sw	a4,4(a5)
80002034:	00d5f733          	and	a4,a1,a3
80002038:	01471593          	slli	a1,a4,0x14
8000203c:	00038737          	lui	a4,0x38
80002040:	39370713          	addi	a4,a4,915 # 38393 <buflen.3+0x38313>
80002044:	8f4d                	or	a4,a4,a1
80002046:	c798                	sw	a4,8(a5)
80002048:	00d67733          	and	a4,a2,a3
8000204c:	01471693          	slli	a3,a4,0x14
80002050:	00028737          	lui	a4,0x28
80002054:	06770713          	addi	a4,a4,103 # 28067 <buflen.3+0x27fe7>
80002058:	8f55                	or	a4,a4,a3
8000205a:	c7d8                	sw	a4,12(a5)
8000205c:	0000100f          	fence.i
80002060:	fcc42783          	lw	a5,-52(s0)
80002064:	fef42623          	sw	a5,-20(s0)
80002068:	02040793          	addi	a5,s0,32
8000206c:	fcf42223          	sw	a5,-60(s0)
80002070:	fc442783          	lw	a5,-60(s0)
80002074:	17a1                	addi	a5,a5,-24
80002076:	fef42423          	sw	a5,-24(s0)
8000207a:	fe842703          	lw	a4,-24(s0)
8000207e:	fd440793          	addi	a5,s0,-44
80002082:	853e                	mv	a0,a5
80002084:	fcc40793          	addi	a5,s0,-52
80002088:	86ba                	mv	a3,a4
8000208a:	fc842603          	lw	a2,-56(s0)
8000208e:	85be                	mv	a1,a5
80002090:	3685                	jal	80001bf0 <vprintfmt>
80002092:	fcc42783          	lw	a5,-52(s0)
80002096:	00078023          	sb	zero,0(a5)
8000209a:	fcc42703          	lw	a4,-52(s0)
8000209e:	fec42783          	lw	a5,-20(s0)
800020a2:	40f707b3          	sub	a5,a4,a5
800020a6:	853e                	mv	a0,a5
800020a8:	50f2                	lw	ra,60(sp)
800020aa:	5462                	lw	s0,56(sp)
800020ac:	6125                	addi	sp,sp,96
800020ae:	8082                	ret

800020b0 <memcpy>:
800020b0:	7179                	addi	sp,sp,-48
800020b2:	d622                	sw	s0,44(sp)
800020b4:	1800                	addi	s0,sp,48
800020b6:	fca42e23          	sw	a0,-36(s0)
800020ba:	fcb42c23          	sw	a1,-40(s0)
800020be:	fcc42a23          	sw	a2,-44(s0)
800020c2:	fdc42703          	lw	a4,-36(s0)
800020c6:	fd842783          	lw	a5,-40(s0)
800020ca:	8f5d                	or	a4,a4,a5
800020cc:	fd442783          	lw	a5,-44(s0)
800020d0:	8fd9                	or	a5,a5,a4
800020d2:	8b8d                	andi	a5,a5,3
800020d4:	e3b1                	bnez	a5,80002118 <memcpy+0x68>
800020d6:	fd842783          	lw	a5,-40(s0)
800020da:	fef42623          	sw	a5,-20(s0)
800020de:	fdc42783          	lw	a5,-36(s0)
800020e2:	fef42423          	sw	a5,-24(s0)
800020e6:	a839                	j	80002104 <memcpy+0x54>
800020e8:	fec42703          	lw	a4,-20(s0)
800020ec:	00470793          	addi	a5,a4,4
800020f0:	fef42623          	sw	a5,-20(s0)
800020f4:	fe842783          	lw	a5,-24(s0)
800020f8:	00478693          	addi	a3,a5,4
800020fc:	fed42423          	sw	a3,-24(s0)
80002100:	4318                	lw	a4,0(a4)
80002102:	c398                	sw	a4,0(a5)
80002104:	fdc42703          	lw	a4,-36(s0)
80002108:	fd442783          	lw	a5,-44(s0)
8000210c:	97ba                	add	a5,a5,a4
8000210e:	fe842703          	lw	a4,-24(s0)
80002112:	fcf76be3          	bltu	a4,a5,800020e8 <memcpy+0x38>
80002116:	a099                	j	8000215c <memcpy+0xac>
80002118:	fd842783          	lw	a5,-40(s0)
8000211c:	fef42223          	sw	a5,-28(s0)
80002120:	fdc42783          	lw	a5,-36(s0)
80002124:	fef42023          	sw	a5,-32(s0)
80002128:	a00d                	j	8000214a <memcpy+0x9a>
8000212a:	fe442703          	lw	a4,-28(s0)
8000212e:	00170793          	addi	a5,a4,1
80002132:	fef42223          	sw	a5,-28(s0)
80002136:	fe042783          	lw	a5,-32(s0)
8000213a:	00178693          	addi	a3,a5,1
8000213e:	fed42023          	sw	a3,-32(s0)
80002142:	00074703          	lbu	a4,0(a4)
80002146:	00e78023          	sb	a4,0(a5)
8000214a:	fdc42703          	lw	a4,-36(s0)
8000214e:	fd442783          	lw	a5,-44(s0)
80002152:	97ba                	add	a5,a5,a4
80002154:	fe042703          	lw	a4,-32(s0)
80002158:	fcf769e3          	bltu	a4,a5,8000212a <memcpy+0x7a>
8000215c:	fdc42783          	lw	a5,-36(s0)
80002160:	853e                	mv	a0,a5
80002162:	5432                	lw	s0,44(sp)
80002164:	6145                	addi	sp,sp,48
80002166:	8082                	ret

80002168 <memset>:
80002168:	7179                	addi	sp,sp,-48
8000216a:	d622                	sw	s0,44(sp)
8000216c:	1800                	addi	s0,sp,48
8000216e:	fca42e23          	sw	a0,-36(s0)
80002172:	fcb42c23          	sw	a1,-40(s0)
80002176:	fcc42a23          	sw	a2,-44(s0)
8000217a:	fdc42703          	lw	a4,-36(s0)
8000217e:	fd442783          	lw	a5,-44(s0)
80002182:	8fd9                	or	a5,a5,a4
80002184:	8b8d                	andi	a5,a5,3
80002186:	efb9                	bnez	a5,800021e4 <memset+0x7c>
80002188:	fd842783          	lw	a5,-40(s0)
8000218c:	0ff7f793          	zext.b	a5,a5
80002190:	fef42223          	sw	a5,-28(s0)
80002194:	fe442783          	lw	a5,-28(s0)
80002198:	07a2                	slli	a5,a5,0x8
8000219a:	fe442703          	lw	a4,-28(s0)
8000219e:	8fd9                	or	a5,a5,a4
800021a0:	fef42223          	sw	a5,-28(s0)
800021a4:	fe442783          	lw	a5,-28(s0)
800021a8:	07c2                	slli	a5,a5,0x10
800021aa:	fe442703          	lw	a4,-28(s0)
800021ae:	8fd9                	or	a5,a5,a4
800021b0:	fef42223          	sw	a5,-28(s0)
800021b4:	fdc42783          	lw	a5,-36(s0)
800021b8:	fef42623          	sw	a5,-20(s0)
800021bc:	a811                	j	800021d0 <memset+0x68>
800021be:	fec42783          	lw	a5,-20(s0)
800021c2:	00478713          	addi	a4,a5,4
800021c6:	fee42623          	sw	a4,-20(s0)
800021ca:	fe442703          	lw	a4,-28(s0)
800021ce:	c398                	sw	a4,0(a5)
800021d0:	fdc42703          	lw	a4,-36(s0)
800021d4:	fd442783          	lw	a5,-44(s0)
800021d8:	97ba                	add	a5,a5,a4
800021da:	fec42703          	lw	a4,-20(s0)
800021de:	fef760e3          	bltu	a4,a5,800021be <memset+0x56>
800021e2:	a81d                	j	80002218 <memset+0xb0>
800021e4:	fdc42783          	lw	a5,-36(s0)
800021e8:	fef42423          	sw	a5,-24(s0)
800021ec:	a829                	j	80002206 <memset+0x9e>
800021ee:	fe842783          	lw	a5,-24(s0)
800021f2:	00178713          	addi	a4,a5,1
800021f6:	fee42423          	sw	a4,-24(s0)
800021fa:	fd842703          	lw	a4,-40(s0)
800021fe:	0ff77713          	zext.b	a4,a4
80002202:	00e78023          	sb	a4,0(a5)
80002206:	fdc42703          	lw	a4,-36(s0)
8000220a:	fd442783          	lw	a5,-44(s0)
8000220e:	97ba                	add	a5,a5,a4
80002210:	fe842703          	lw	a4,-24(s0)
80002214:	fcf76de3          	bltu	a4,a5,800021ee <memset+0x86>
80002218:	fdc42783          	lw	a5,-36(s0)
8000221c:	853e                	mv	a0,a5
8000221e:	5432                	lw	s0,44(sp)
80002220:	6145                	addi	sp,sp,48
80002222:	8082                	ret

80002224 <strlen>:
80002224:	7179                	addi	sp,sp,-48
80002226:	d622                	sw	s0,44(sp)
80002228:	1800                	addi	s0,sp,48
8000222a:	fca42e23          	sw	a0,-36(s0)
8000222e:	fdc42783          	lw	a5,-36(s0)
80002232:	fef42623          	sw	a5,-20(s0)
80002236:	a031                	j	80002242 <strlen+0x1e>
80002238:	fec42783          	lw	a5,-20(s0)
8000223c:	0785                	addi	a5,a5,1
8000223e:	fef42623          	sw	a5,-20(s0)
80002242:	fec42783          	lw	a5,-20(s0)
80002246:	0007c783          	lbu	a5,0(a5)
8000224a:	f7fd                	bnez	a5,80002238 <strlen+0x14>
8000224c:	fec42703          	lw	a4,-20(s0)
80002250:	fdc42783          	lw	a5,-36(s0)
80002254:	40f707b3          	sub	a5,a4,a5
80002258:	853e                	mv	a0,a5
8000225a:	5432                	lw	s0,44(sp)
8000225c:	6145                	addi	sp,sp,48
8000225e:	8082                	ret

80002260 <strnlen>:
80002260:	7179                	addi	sp,sp,-48
80002262:	d622                	sw	s0,44(sp)
80002264:	1800                	addi	s0,sp,48
80002266:	fca42e23          	sw	a0,-36(s0)
8000226a:	fcb42c23          	sw	a1,-40(s0)
8000226e:	fdc42783          	lw	a5,-36(s0)
80002272:	fef42623          	sw	a5,-20(s0)
80002276:	a031                	j	80002282 <strnlen+0x22>
80002278:	fec42783          	lw	a5,-20(s0)
8000227c:	0785                	addi	a5,a5,1
8000227e:	fef42623          	sw	a5,-20(s0)
80002282:	fd842783          	lw	a5,-40(s0)
80002286:	fff78713          	addi	a4,a5,-1
8000228a:	fce42c23          	sw	a4,-40(s0)
8000228e:	c791                	beqz	a5,8000229a <strnlen+0x3a>
80002290:	fec42783          	lw	a5,-20(s0)
80002294:	0007c783          	lbu	a5,0(a5)
80002298:	f3e5                	bnez	a5,80002278 <strnlen+0x18>
8000229a:	fec42703          	lw	a4,-20(s0)
8000229e:	fdc42783          	lw	a5,-36(s0)
800022a2:	40f707b3          	sub	a5,a4,a5
800022a6:	853e                	mv	a0,a5
800022a8:	5432                	lw	s0,44(sp)
800022aa:	6145                	addi	sp,sp,48
800022ac:	8082                	ret

800022ae <strcmp>:
800022ae:	7179                	addi	sp,sp,-48
800022b0:	d622                	sw	s0,44(sp)
800022b2:	1800                	addi	s0,sp,48
800022b4:	fca42e23          	sw	a0,-36(s0)
800022b8:	fcb42c23          	sw	a1,-40(s0)
800022bc:	fdc42783          	lw	a5,-36(s0)
800022c0:	00178713          	addi	a4,a5,1
800022c4:	fce42e23          	sw	a4,-36(s0)
800022c8:	0007c783          	lbu	a5,0(a5)
800022cc:	fef407a3          	sb	a5,-17(s0)
800022d0:	fd842783          	lw	a5,-40(s0)
800022d4:	00178713          	addi	a4,a5,1
800022d8:	fce42c23          	sw	a4,-40(s0)
800022dc:	0007c783          	lbu	a5,0(a5)
800022e0:	fef40723          	sb	a5,-18(s0)
800022e4:	fef44783          	lbu	a5,-17(s0)
800022e8:	c799                	beqz	a5,800022f6 <strcmp+0x48>
800022ea:	fef44703          	lbu	a4,-17(s0)
800022ee:	fee44783          	lbu	a5,-18(s0)
800022f2:	fcf705e3          	beq	a4,a5,800022bc <strcmp+0xe>
800022f6:	fef44703          	lbu	a4,-17(s0)
800022fa:	fee44783          	lbu	a5,-18(s0)
800022fe:	40f707b3          	sub	a5,a4,a5
80002302:	853e                	mv	a0,a5
80002304:	5432                	lw	s0,44(sp)
80002306:	6145                	addi	sp,sp,48
80002308:	8082                	ret

8000230a <strcpy>:
8000230a:	7179                	addi	sp,sp,-48
8000230c:	d622                	sw	s0,44(sp)
8000230e:	1800                	addi	s0,sp,48
80002310:	fca42e23          	sw	a0,-36(s0)
80002314:	fcb42c23          	sw	a1,-40(s0)
80002318:	fdc42783          	lw	a5,-36(s0)
8000231c:	fef42623          	sw	a5,-20(s0)
80002320:	0001                	nop
80002322:	fd842703          	lw	a4,-40(s0)
80002326:	00170793          	addi	a5,a4,1
8000232a:	fcf42c23          	sw	a5,-40(s0)
8000232e:	fec42783          	lw	a5,-20(s0)
80002332:	00178693          	addi	a3,a5,1
80002336:	fed42623          	sw	a3,-20(s0)
8000233a:	00074703          	lbu	a4,0(a4)
8000233e:	00e78023          	sb	a4,0(a5)
80002342:	0007c783          	lbu	a5,0(a5)
80002346:	fff1                	bnez	a5,80002322 <strcpy+0x18>
80002348:	fdc42783          	lw	a5,-36(s0)
8000234c:	853e                	mv	a0,a5
8000234e:	5432                	lw	s0,44(sp)
80002350:	6145                	addi	sp,sp,48
80002352:	8082                	ret

80002354 <atol>:
80002354:	7179                	addi	sp,sp,-48
80002356:	d622                	sw	s0,44(sp)
80002358:	1800                	addi	s0,sp,48
8000235a:	fca42e23          	sw	a0,-36(s0)
8000235e:	fe042623          	sw	zero,-20(s0)
80002362:	fe042423          	sw	zero,-24(s0)
80002366:	a031                	j	80002372 <atol+0x1e>
80002368:	fdc42783          	lw	a5,-36(s0)
8000236c:	0785                	addi	a5,a5,1
8000236e:	fcf42e23          	sw	a5,-36(s0)
80002372:	fdc42783          	lw	a5,-36(s0)
80002376:	0007c703          	lbu	a4,0(a5)
8000237a:	02000793          	li	a5,32
8000237e:	fef705e3          	beq	a4,a5,80002368 <atol+0x14>
80002382:	fdc42783          	lw	a5,-36(s0)
80002386:	0007c703          	lbu	a4,0(a5)
8000238a:	02d00793          	li	a5,45
8000238e:	00f70a63          	beq	a4,a5,800023a2 <atol+0x4e>
80002392:	fdc42783          	lw	a5,-36(s0)
80002396:	0007c703          	lbu	a4,0(a5)
8000239a:	02b00793          	li	a5,43
8000239e:	04f71b63          	bne	a4,a5,800023f4 <atol+0xa0>
800023a2:	fdc42783          	lw	a5,-36(s0)
800023a6:	0007c783          	lbu	a5,0(a5)
800023aa:	fd378793          	addi	a5,a5,-45
800023ae:	0017b793          	seqz	a5,a5
800023b2:	0ff7f793          	zext.b	a5,a5
800023b6:	fef42423          	sw	a5,-24(s0)
800023ba:	fdc42783          	lw	a5,-36(s0)
800023be:	0785                	addi	a5,a5,1
800023c0:	fcf42e23          	sw	a5,-36(s0)
800023c4:	a805                	j	800023f4 <atol+0xa0>
800023c6:	fec42703          	lw	a4,-20(s0)
800023ca:	87ba                	mv	a5,a4
800023cc:	078a                	slli	a5,a5,0x2
800023ce:	97ba                	add	a5,a5,a4
800023d0:	0786                	slli	a5,a5,0x1
800023d2:	fef42623          	sw	a5,-20(s0)
800023d6:	fdc42783          	lw	a5,-36(s0)
800023da:	00178713          	addi	a4,a5,1
800023de:	fce42e23          	sw	a4,-36(s0)
800023e2:	0007c783          	lbu	a5,0(a5)
800023e6:	fd078793          	addi	a5,a5,-48
800023ea:	fec42703          	lw	a4,-20(s0)
800023ee:	97ba                	add	a5,a5,a4
800023f0:	fef42623          	sw	a5,-20(s0)
800023f4:	fdc42783          	lw	a5,-36(s0)
800023f8:	0007c783          	lbu	a5,0(a5)
800023fc:	f7e9                	bnez	a5,800023c6 <atol+0x72>
800023fe:	fe842783          	lw	a5,-24(s0)
80002402:	c791                	beqz	a5,8000240e <atol+0xba>
80002404:	fec42783          	lw	a5,-20(s0)
80002408:	40f007b3          	neg	a5,a5
8000240c:	a019                	j	80002412 <atol+0xbe>
8000240e:	fec42783          	lw	a5,-20(s0)
80002412:	853e                	mv	a0,a5
80002414:	5432                	lw	s0,44(sp)
80002416:	6145                	addi	sp,sp,48
80002418:	8082                	ret

8000241a <random>:
8000241a:	1101                	addi	sp,sp,-32
8000241c:	ce22                	sw	s0,28(sp)
8000241e:	1000                	addi	s0,sp,32
80002420:	fea42623          	sw	a0,-20(s0)
80002424:	fec42703          	lw	a4,-20(s0)
80002428:	41c657b7          	lui	a5,0x41c65
8000242c:	e6d78793          	addi	a5,a5,-403 # 41c64e6d <buflen.3+0x41c64ded>
80002430:	02f70733          	mul	a4,a4,a5
80002434:	678d                	lui	a5,0x3
80002436:	03978793          	addi	a5,a5,57 # 3039 <buflen.3+0x2fb9>
8000243a:	97ba                	add	a5,a5,a4
8000243c:	fef42623          	sw	a5,-20(s0)
80002440:	fec42783          	lw	a5,-20(s0)
80002444:	41f7d693          	srai	a3,a5,0x1f
80002448:	6741                	lui	a4,0x10
8000244a:	177d                	addi	a4,a4,-1 # ffff <buflen.3+0xff7f>
8000244c:	8f75                	and	a4,a4,a3
8000244e:	97ba                	add	a5,a5,a4
80002450:	87c1                	srai	a5,a5,0x10
80002452:	873e                	mv	a4,a5
80002454:	67a1                	lui	a5,0x8
80002456:	17fd                	addi	a5,a5,-1 # 7fff <buflen.3+0x7f7f>
80002458:	8ff9                	and	a5,a5,a4
8000245a:	853e                	mv	a0,a5
8000245c:	4472                	lw	s0,28(sp)
8000245e:	6105                	addi	sp,sp,32
80002460:	8082                	ret

80002462 <__udivdi3>:
80002462:	832a                	mv	t1,a0
80002464:	88ae                	mv	a7,a1
80002466:	8732                	mv	a4,a2
80002468:	882a                	mv	a6,a0
8000246a:	87ae                	mv	a5,a1
8000246c:	20069663          	bnez	a3,80002678 <__udivdi3+0x216>
80002470:	800035b7          	lui	a1,0x80003
80002474:	ce858593          	addi	a1,a1,-792 # 80002ce8 <__global_pointer$+0xffffc7e4>
80002478:	0cc8f163          	bgeu	a7,a2,8000253a <__udivdi3+0xd8>
8000247c:	66c1                	lui	a3,0x10
8000247e:	0ad67763          	bgeu	a2,a3,8000252c <__udivdi3+0xca>
80002482:	10063693          	sltiu	a3,a2,256
80002486:	0016c693          	xori	a3,a3,1
8000248a:	068e                	slli	a3,a3,0x3
8000248c:	00d65533          	srl	a0,a2,a3
80002490:	95aa                	add	a1,a1,a0
80002492:	0005c583          	lbu	a1,0(a1)
80002496:	02000513          	li	a0,32
8000249a:	96ae                	add	a3,a3,a1
8000249c:	40d505b3          	sub	a1,a0,a3
800024a0:	00d50b63          	beq	a0,a3,800024b6 <__udivdi3+0x54>
800024a4:	00b897b3          	sll	a5,a7,a1
800024a8:	00d356b3          	srl	a3,t1,a3
800024ac:	00b61733          	sll	a4,a2,a1
800024b0:	8fd5                	or	a5,a5,a3
800024b2:	00b31833          	sll	a6,t1,a1
800024b6:	01075593          	srli	a1,a4,0x10
800024ba:	02b7d333          	divu	t1,a5,a1
800024be:	01071613          	slli	a2,a4,0x10
800024c2:	8241                	srli	a2,a2,0x10
800024c4:	02b7f7b3          	remu	a5,a5,a1
800024c8:	851a                	mv	a0,t1
800024ca:	026608b3          	mul	a7,a2,t1
800024ce:	01079693          	slli	a3,a5,0x10
800024d2:	01085793          	srli	a5,a6,0x10
800024d6:	8fd5                	or	a5,a5,a3
800024d8:	0117fc63          	bgeu	a5,a7,800024f0 <__udivdi3+0x8e>
800024dc:	97ba                	add	a5,a5,a4
800024de:	fff30513          	addi	a0,t1,-1
800024e2:	00e7e763          	bltu	a5,a4,800024f0 <__udivdi3+0x8e>
800024e6:	0117f563          	bgeu	a5,a7,800024f0 <__udivdi3+0x8e>
800024ea:	ffe30513          	addi	a0,t1,-2
800024ee:	97ba                	add	a5,a5,a4
800024f0:	411787b3          	sub	a5,a5,a7
800024f4:	02b7d8b3          	divu	a7,a5,a1
800024f8:	0842                	slli	a6,a6,0x10
800024fa:	01085813          	srli	a6,a6,0x10
800024fe:	02b7f7b3          	remu	a5,a5,a1
80002502:	031606b3          	mul	a3,a2,a7
80002506:	07c2                	slli	a5,a5,0x10
80002508:	00f86833          	or	a6,a6,a5
8000250c:	87c6                	mv	a5,a7
8000250e:	00d87b63          	bgeu	a6,a3,80002524 <__udivdi3+0xc2>
80002512:	983a                	add	a6,a6,a4
80002514:	fff88793          	addi	a5,a7,-1
80002518:	00e86663          	bltu	a6,a4,80002524 <__udivdi3+0xc2>
8000251c:	00d87463          	bgeu	a6,a3,80002524 <__udivdi3+0xc2>
80002520:	ffe88793          	addi	a5,a7,-2
80002524:	0542                	slli	a0,a0,0x10
80002526:	8d5d                	or	a0,a0,a5
80002528:	4581                	li	a1,0
8000252a:	8082                	ret
8000252c:	01000537          	lui	a0,0x1000
80002530:	46c1                	li	a3,16
80002532:	f4a66de3          	bltu	a2,a0,8000248c <__udivdi3+0x2a>
80002536:	46e1                	li	a3,24
80002538:	bf91                	j	8000248c <__udivdi3+0x2a>
8000253a:	e211                	bnez	a2,8000253e <__udivdi3+0xdc>
8000253c:	9002                	ebreak
8000253e:	67c1                	lui	a5,0x10
80002540:	08f67f63          	bgeu	a2,a5,800025de <__udivdi3+0x17c>
80002544:	10063693          	sltiu	a3,a2,256
80002548:	0016c693          	xori	a3,a3,1
8000254c:	068e                	slli	a3,a3,0x3
8000254e:	00d657b3          	srl	a5,a2,a3
80002552:	95be                	add	a1,a1,a5
80002554:	0005c783          	lbu	a5,0(a1)
80002558:	97b6                	add	a5,a5,a3
8000255a:	02000693          	li	a3,32
8000255e:	40f685b3          	sub	a1,a3,a5
80002562:	08f69563          	bne	a3,a5,800025ec <__udivdi3+0x18a>
80002566:	40c887b3          	sub	a5,a7,a2
8000256a:	4585                	li	a1,1
8000256c:	01075893          	srli	a7,a4,0x10
80002570:	0317de33          	divu	t3,a5,a7
80002574:	01071613          	slli	a2,a4,0x10
80002578:	8241                	srli	a2,a2,0x10
8000257a:	01085693          	srli	a3,a6,0x10
8000257e:	0317f7b3          	remu	a5,a5,a7
80002582:	8572                	mv	a0,t3
80002584:	03c60333          	mul	t1,a2,t3
80002588:	07c2                	slli	a5,a5,0x10
8000258a:	8fd5                	or	a5,a5,a3
8000258c:	0067fc63          	bgeu	a5,t1,800025a4 <__udivdi3+0x142>
80002590:	97ba                	add	a5,a5,a4
80002592:	fffe0513          	addi	a0,t3,-1
80002596:	00e7e763          	bltu	a5,a4,800025a4 <__udivdi3+0x142>
8000259a:	0067f563          	bgeu	a5,t1,800025a4 <__udivdi3+0x142>
8000259e:	ffee0513          	addi	a0,t3,-2
800025a2:	97ba                	add	a5,a5,a4
800025a4:	406787b3          	sub	a5,a5,t1
800025a8:	0317d333          	divu	t1,a5,a7
800025ac:	0842                	slli	a6,a6,0x10
800025ae:	01085813          	srli	a6,a6,0x10
800025b2:	0317f7b3          	remu	a5,a5,a7
800025b6:	026606b3          	mul	a3,a2,t1
800025ba:	07c2                	slli	a5,a5,0x10
800025bc:	00f86833          	or	a6,a6,a5
800025c0:	879a                	mv	a5,t1
800025c2:	00d87b63          	bgeu	a6,a3,800025d8 <__udivdi3+0x176>
800025c6:	983a                	add	a6,a6,a4
800025c8:	fff30793          	addi	a5,t1,-1
800025cc:	00e86663          	bltu	a6,a4,800025d8 <__udivdi3+0x176>
800025d0:	00d87463          	bgeu	a6,a3,800025d8 <__udivdi3+0x176>
800025d4:	ffe30793          	addi	a5,t1,-2
800025d8:	0542                	slli	a0,a0,0x10
800025da:	8d5d                	or	a0,a0,a5
800025dc:	8082                	ret
800025de:	010007b7          	lui	a5,0x1000
800025e2:	46c1                	li	a3,16
800025e4:	f6f665e3          	bltu	a2,a5,8000254e <__udivdi3+0xec>
800025e8:	46e1                	li	a3,24
800025ea:	b795                	j	8000254e <__udivdi3+0xec>
800025ec:	00b61733          	sll	a4,a2,a1
800025f0:	00f8d6b3          	srl	a3,a7,a5
800025f4:	01075513          	srli	a0,a4,0x10
800025f8:	00f357b3          	srl	a5,t1,a5
800025fc:	00b31833          	sll	a6,t1,a1
80002600:	02a6d333          	divu	t1,a3,a0
80002604:	01071613          	slli	a2,a4,0x10
80002608:	00b898b3          	sll	a7,a7,a1
8000260c:	8241                	srli	a2,a2,0x10
8000260e:	0117e7b3          	or	a5,a5,a7
80002612:	02a6f6b3          	remu	a3,a3,a0
80002616:	026608b3          	mul	a7,a2,t1
8000261a:	01069593          	slli	a1,a3,0x10
8000261e:	0107d693          	srli	a3,a5,0x10
80002622:	8ecd                	or	a3,a3,a1
80002624:	859a                	mv	a1,t1
80002626:	0116fc63          	bgeu	a3,a7,8000263e <__udivdi3+0x1dc>
8000262a:	96ba                	add	a3,a3,a4
8000262c:	fff30593          	addi	a1,t1,-1
80002630:	00e6e763          	bltu	a3,a4,8000263e <__udivdi3+0x1dc>
80002634:	0116f563          	bgeu	a3,a7,8000263e <__udivdi3+0x1dc>
80002638:	ffe30593          	addi	a1,t1,-2
8000263c:	96ba                	add	a3,a3,a4
8000263e:	411686b3          	sub	a3,a3,a7
80002642:	02a6d8b3          	divu	a7,a3,a0
80002646:	07c2                	slli	a5,a5,0x10
80002648:	83c1                	srli	a5,a5,0x10
8000264a:	02a6f6b3          	remu	a3,a3,a0
8000264e:	03160633          	mul	a2,a2,a7
80002652:	06c2                	slli	a3,a3,0x10
80002654:	8fd5                	or	a5,a5,a3
80002656:	86c6                	mv	a3,a7
80002658:	00c7fc63          	bgeu	a5,a2,80002670 <__udivdi3+0x20e>
8000265c:	97ba                	add	a5,a5,a4
8000265e:	fff88693          	addi	a3,a7,-1
80002662:	00e7e763          	bltu	a5,a4,80002670 <__udivdi3+0x20e>
80002666:	00c7f563          	bgeu	a5,a2,80002670 <__udivdi3+0x20e>
8000266a:	ffe88693          	addi	a3,a7,-2
8000266e:	97ba                	add	a5,a5,a4
80002670:	05c2                	slli	a1,a1,0x10
80002672:	8f91                	sub	a5,a5,a2
80002674:	8dd5                	or	a1,a1,a3
80002676:	bddd                	j	8000256c <__udivdi3+0x10a>
80002678:	14d5e163          	bltu	a1,a3,800027ba <__udivdi3+0x358>
8000267c:	67c1                	lui	a5,0x10
8000267e:	02f6ff63          	bgeu	a3,a5,800026bc <__udivdi3+0x25a>
80002682:	1006b713          	sltiu	a4,a3,256
80002686:	00174713          	xori	a4,a4,1
8000268a:	070e                	slli	a4,a4,0x3
8000268c:	800037b7          	lui	a5,0x80003
80002690:	00e6d5b3          	srl	a1,a3,a4
80002694:	ce878793          	addi	a5,a5,-792 # 80002ce8 <__global_pointer$+0xffffc7e4>
80002698:	97ae                	add	a5,a5,a1
8000269a:	0007c783          	lbu	a5,0(a5)
8000269e:	97ba                	add	a5,a5,a4
800026a0:	02000713          	li	a4,32
800026a4:	40f705b3          	sub	a1,a4,a5
800026a8:	02f71163          	bne	a4,a5,800026ca <__udivdi3+0x268>
800026ac:	4505                	li	a0,1
800026ae:	e716eee3          	bltu	a3,a7,8000252a <__udivdi3+0xc8>
800026b2:	00c33533          	sltu	a0,t1,a2
800026b6:	00154513          	xori	a0,a0,1
800026ba:	8082                	ret
800026bc:	010007b7          	lui	a5,0x1000
800026c0:	4741                	li	a4,16
800026c2:	fcf6e5e3          	bltu	a3,a5,8000268c <__udivdi3+0x22a>
800026c6:	4761                	li	a4,24
800026c8:	b7d1                	j	8000268c <__udivdi3+0x22a>
800026ca:	00f65733          	srl	a4,a2,a5
800026ce:	00b696b3          	sll	a3,a3,a1
800026d2:	8ed9                	or	a3,a3,a4
800026d4:	00f8d733          	srl	a4,a7,a5
800026d8:	00b898b3          	sll	a7,a7,a1
800026dc:	00f357b3          	srl	a5,t1,a5
800026e0:	0117e7b3          	or	a5,a5,a7
800026e4:	0106d893          	srli	a7,a3,0x10
800026e8:	03175eb3          	divu	t4,a4,a7
800026ec:	01069813          	slli	a6,a3,0x10
800026f0:	01085813          	srli	a6,a6,0x10
800026f4:	00b61633          	sll	a2,a2,a1
800026f8:	03177733          	remu	a4,a4,a7
800026fc:	03d80e33          	mul	t3,a6,t4
80002700:	01071513          	slli	a0,a4,0x10
80002704:	0107d713          	srli	a4,a5,0x10
80002708:	8f49                	or	a4,a4,a0
8000270a:	8576                	mv	a0,t4
8000270c:	01c77c63          	bgeu	a4,t3,80002724 <__udivdi3+0x2c2>
80002710:	9736                	add	a4,a4,a3
80002712:	fffe8513          	addi	a0,t4,-1
80002716:	00d76763          	bltu	a4,a3,80002724 <__udivdi3+0x2c2>
8000271a:	01c77563          	bgeu	a4,t3,80002724 <__udivdi3+0x2c2>
8000271e:	ffee8513          	addi	a0,t4,-2
80002722:	9736                	add	a4,a4,a3
80002724:	41c70733          	sub	a4,a4,t3
80002728:	03175e33          	divu	t3,a4,a7
8000272c:	07c2                	slli	a5,a5,0x10
8000272e:	83c1                	srli	a5,a5,0x10
80002730:	03177733          	remu	a4,a4,a7
80002734:	03c80833          	mul	a6,a6,t3
80002738:	0742                	slli	a4,a4,0x10
8000273a:	8fd9                	or	a5,a5,a4
8000273c:	8772                	mv	a4,t3
8000273e:	0107fc63          	bgeu	a5,a6,80002756 <__udivdi3+0x2f4>
80002742:	97b6                	add	a5,a5,a3
80002744:	fffe0713          	addi	a4,t3,-1
80002748:	00d7e763          	bltu	a5,a3,80002756 <__udivdi3+0x2f4>
8000274c:	0107f563          	bgeu	a5,a6,80002756 <__udivdi3+0x2f4>
80002750:	ffee0713          	addi	a4,t3,-2
80002754:	97b6                	add	a5,a5,a3
80002756:	0542                	slli	a0,a0,0x10
80002758:	6e41                	lui	t3,0x10
8000275a:	8d59                	or	a0,a0,a4
8000275c:	fffe0693          	addi	a3,t3,-1 # ffff <buflen.3+0xff7f>
80002760:	00d57733          	and	a4,a0,a3
80002764:	410787b3          	sub	a5,a5,a6
80002768:	8ef1                	and	a3,a3,a2
8000276a:	01055813          	srli	a6,a0,0x10
8000276e:	8241                	srli	a2,a2,0x10
80002770:	02d708b3          	mul	a7,a4,a3
80002774:	02d806b3          	mul	a3,a6,a3
80002778:	02c70733          	mul	a4,a4,a2
8000277c:	02c80833          	mul	a6,a6,a2
80002780:	00d70633          	add	a2,a4,a3
80002784:	0108d713          	srli	a4,a7,0x10
80002788:	9732                	add	a4,a4,a2
8000278a:	00d77363          	bgeu	a4,a3,80002790 <__udivdi3+0x32e>
8000278e:	9872                	add	a6,a6,t3
80002790:	01075693          	srli	a3,a4,0x10
80002794:	96c2                	add	a3,a3,a6
80002796:	02d7e063          	bltu	a5,a3,800027b6 <__udivdi3+0x354>
8000279a:	d8d797e3          	bne	a5,a3,80002528 <__udivdi3+0xc6>
8000279e:	67c1                	lui	a5,0x10
800027a0:	17fd                	addi	a5,a5,-1 # ffff <buflen.3+0xff7f>
800027a2:	8f7d                	and	a4,a4,a5
800027a4:	0742                	slli	a4,a4,0x10
800027a6:	00f8f8b3          	and	a7,a7,a5
800027aa:	00b31333          	sll	t1,t1,a1
800027ae:	9746                	add	a4,a4,a7
800027b0:	4581                	li	a1,0
800027b2:	d6e37ce3          	bgeu	t1,a4,8000252a <__udivdi3+0xc8>
800027b6:	157d                	addi	a0,a0,-1 # ffffff <buflen.3+0xffff7f>
800027b8:	bb85                	j	80002528 <__udivdi3+0xc6>
800027ba:	4581                	li	a1,0
800027bc:	4501                	li	a0,0
800027be:	8082                	ret

800027c0 <__umoddi3>:
800027c0:	8832                	mv	a6,a2
800027c2:	87aa                	mv	a5,a0
800027c4:	872e                	mv	a4,a1
800027c6:	1a069363          	bnez	a3,8000296c <__umoddi3+0x1ac>
800027ca:	800038b7          	lui	a7,0x80003
800027ce:	ce888893          	addi	a7,a7,-792 # 80002ce8 <__global_pointer$+0xffffc7e4>
800027d2:	0ac5f663          	bgeu	a1,a2,8000287e <__umoddi3+0xbe>
800027d6:	66c1                	lui	a3,0x10
800027d8:	08d67c63          	bgeu	a2,a3,80002870 <__umoddi3+0xb0>
800027dc:	10063693          	sltiu	a3,a2,256
800027e0:	0016c693          	xori	a3,a3,1
800027e4:	068e                	slli	a3,a3,0x3
800027e6:	00d65333          	srl	t1,a2,a3
800027ea:	989a                	add	a7,a7,t1
800027ec:	0008c883          	lbu	a7,0(a7)
800027f0:	02000313          	li	t1,32
800027f4:	96c6                	add	a3,a3,a7
800027f6:	40d308b3          	sub	a7,t1,a3
800027fa:	00d30b63          	beq	t1,a3,80002810 <__umoddi3+0x50>
800027fe:	01159733          	sll	a4,a1,a7
80002802:	00d556b3          	srl	a3,a0,a3
80002806:	01161833          	sll	a6,a2,a7
8000280a:	8f55                	or	a4,a4,a3
8000280c:	011517b3          	sll	a5,a0,a7
80002810:	01085613          	srli	a2,a6,0x10
80002814:	02c756b3          	divu	a3,a4,a2
80002818:	01081513          	slli	a0,a6,0x10
8000281c:	8141                	srli	a0,a0,0x10
8000281e:	02c77733          	remu	a4,a4,a2
80002822:	02a686b3          	mul	a3,a3,a0
80002826:	01071593          	slli	a1,a4,0x10
8000282a:	0107d713          	srli	a4,a5,0x10
8000282e:	8f4d                	or	a4,a4,a1
80002830:	00d77863          	bgeu	a4,a3,80002840 <__umoddi3+0x80>
80002834:	9742                	add	a4,a4,a6
80002836:	01076563          	bltu	a4,a6,80002840 <__umoddi3+0x80>
8000283a:	00d77363          	bgeu	a4,a3,80002840 <__umoddi3+0x80>
8000283e:	9742                	add	a4,a4,a6
80002840:	8f15                	sub	a4,a4,a3
80002842:	02c756b3          	divu	a3,a4,a2
80002846:	02c77733          	remu	a4,a4,a2
8000284a:	02a686b3          	mul	a3,a3,a0
8000284e:	07c2                	slli	a5,a5,0x10
80002850:	0742                	slli	a4,a4,0x10
80002852:	83c1                	srli	a5,a5,0x10
80002854:	8fd9                	or	a5,a5,a4
80002856:	00d7f863          	bgeu	a5,a3,80002866 <__umoddi3+0xa6>
8000285a:	97c2                	add	a5,a5,a6
8000285c:	0107e563          	bltu	a5,a6,80002866 <__umoddi3+0xa6>
80002860:	00d7f363          	bgeu	a5,a3,80002866 <__umoddi3+0xa6>
80002864:	97c2                	add	a5,a5,a6
80002866:	8f95                	sub	a5,a5,a3
80002868:	0117d533          	srl	a0,a5,a7
8000286c:	4581                	li	a1,0
8000286e:	8082                	ret
80002870:	01000337          	lui	t1,0x1000
80002874:	46c1                	li	a3,16
80002876:	f66668e3          	bltu	a2,t1,800027e6 <__umoddi3+0x26>
8000287a:	46e1                	li	a3,24
8000287c:	b7ad                	j	800027e6 <__umoddi3+0x26>
8000287e:	e211                	bnez	a2,80002882 <__umoddi3+0xc2>
80002880:	9002                	ebreak
80002882:	6741                	lui	a4,0x10
80002884:	06e67463          	bgeu	a2,a4,800028ec <__umoddi3+0x12c>
80002888:	10063693          	sltiu	a3,a2,256
8000288c:	0016c693          	xori	a3,a3,1
80002890:	068e                	slli	a3,a3,0x3
80002892:	00d65733          	srl	a4,a2,a3
80002896:	98ba                	add	a7,a7,a4
80002898:	0008c703          	lbu	a4,0(a7)
8000289c:	9736                	add	a4,a4,a3
8000289e:	02000693          	li	a3,32
800028a2:	40e688b3          	sub	a7,a3,a4
800028a6:	04e69a63          	bne	a3,a4,800028fa <__umoddi3+0x13a>
800028aa:	40c58733          	sub	a4,a1,a2
800028ae:	01085593          	srli	a1,a6,0x10
800028b2:	02b75633          	divu	a2,a4,a1
800028b6:	01081513          	slli	a0,a6,0x10
800028ba:	8141                	srli	a0,a0,0x10
800028bc:	0107d693          	srli	a3,a5,0x10
800028c0:	02b77733          	remu	a4,a4,a1
800028c4:	02a60633          	mul	a2,a2,a0
800028c8:	0742                	slli	a4,a4,0x10
800028ca:	8f55                	or	a4,a4,a3
800028cc:	00c77863          	bgeu	a4,a2,800028dc <__umoddi3+0x11c>
800028d0:	9742                	add	a4,a4,a6
800028d2:	01076563          	bltu	a4,a6,800028dc <__umoddi3+0x11c>
800028d6:	00c77363          	bgeu	a4,a2,800028dc <__umoddi3+0x11c>
800028da:	9742                	add	a4,a4,a6
800028dc:	8f11                	sub	a4,a4,a2
800028de:	02b756b3          	divu	a3,a4,a1
800028e2:	02b77733          	remu	a4,a4,a1
800028e6:	02a686b3          	mul	a3,a3,a0
800028ea:	b795                	j	8000284e <__umoddi3+0x8e>
800028ec:	01000737          	lui	a4,0x1000
800028f0:	46c1                	li	a3,16
800028f2:	fae660e3          	bltu	a2,a4,80002892 <__umoddi3+0xd2>
800028f6:	46e1                	li	a3,24
800028f8:	bf69                	j	80002892 <__umoddi3+0xd2>
800028fa:	01161833          	sll	a6,a2,a7
800028fe:	00e5d6b3          	srl	a3,a1,a4
80002902:	011517b3          	sll	a5,a0,a7
80002906:	011595b3          	sll	a1,a1,a7
8000290a:	00e55733          	srl	a4,a0,a4
8000290e:	01085513          	srli	a0,a6,0x10
80002912:	8f4d                	or	a4,a4,a1
80002914:	02a6d5b3          	divu	a1,a3,a0
80002918:	01081313          	slli	t1,a6,0x10
8000291c:	01035313          	srli	t1,t1,0x10
80002920:	02a6f6b3          	remu	a3,a3,a0
80002924:	026585b3          	mul	a1,a1,t1
80002928:	01069613          	slli	a2,a3,0x10
8000292c:	01075693          	srli	a3,a4,0x10
80002930:	8ed1                	or	a3,a3,a2
80002932:	00b6f863          	bgeu	a3,a1,80002942 <__umoddi3+0x182>
80002936:	96c2                	add	a3,a3,a6
80002938:	0106e563          	bltu	a3,a6,80002942 <__umoddi3+0x182>
8000293c:	00b6f363          	bgeu	a3,a1,80002942 <__umoddi3+0x182>
80002940:	96c2                	add	a3,a3,a6
80002942:	8e8d                	sub	a3,a3,a1
80002944:	02a6d633          	divu	a2,a3,a0
80002948:	0742                	slli	a4,a4,0x10
8000294a:	8341                	srli	a4,a4,0x10
8000294c:	02a6f6b3          	remu	a3,a3,a0
80002950:	02660633          	mul	a2,a2,t1
80002954:	06c2                	slli	a3,a3,0x10
80002956:	8f55                	or	a4,a4,a3
80002958:	00c77863          	bgeu	a4,a2,80002968 <__umoddi3+0x1a8>
8000295c:	9742                	add	a4,a4,a6
8000295e:	01076563          	bltu	a4,a6,80002968 <__umoddi3+0x1a8>
80002962:	00c77363          	bgeu	a4,a2,80002968 <__umoddi3+0x1a8>
80002966:	9742                	add	a4,a4,a6
80002968:	8f11                	sub	a4,a4,a2
8000296a:	b791                	j	800028ae <__umoddi3+0xee>
8000296c:	16d5e863          	bltu	a1,a3,80002adc <__umoddi3+0x31c>
80002970:	6841                	lui	a6,0x10
80002972:	0506f763          	bgeu	a3,a6,800029c0 <__umoddi3+0x200>
80002976:	1006b813          	sltiu	a6,a3,256
8000297a:	00184813          	xori	a6,a6,1
8000297e:	080e                	slli	a6,a6,0x3
80002980:	800038b7          	lui	a7,0x80003
80002984:	0106d333          	srl	t1,a3,a6
80002988:	ce888893          	addi	a7,a7,-792 # 80002ce8 <__global_pointer$+0xffffc7e4>
8000298c:	989a                	add	a7,a7,t1
8000298e:	0008c883          	lbu	a7,0(a7)
80002992:	02000313          	li	t1,32
80002996:	98c2                	add	a7,a7,a6
80002998:	41130833          	sub	a6,t1,a7
8000299c:	03131963          	bne	t1,a7,800029ce <__umoddi3+0x20e>
800029a0:	00b6e463          	bltu	a3,a1,800029a8 <__umoddi3+0x1e8>
800029a4:	00c56b63          	bltu	a0,a2,800029ba <__umoddi3+0x1fa>
800029a8:	40c50633          	sub	a2,a0,a2
800029ac:	40d586b3          	sub	a3,a1,a3
800029b0:	00c53733          	sltu	a4,a0,a2
800029b4:	40e68733          	sub	a4,a3,a4
800029b8:	87b2                	mv	a5,a2
800029ba:	853e                	mv	a0,a5
800029bc:	85ba                	mv	a1,a4
800029be:	8082                	ret
800029c0:	010008b7          	lui	a7,0x1000
800029c4:	4841                	li	a6,16
800029c6:	fb16ede3          	bltu	a3,a7,80002980 <__umoddi3+0x1c0>
800029ca:	4861                	li	a6,24
800029cc:	bf55                	j	80002980 <__umoddi3+0x1c0>
800029ce:	010696b3          	sll	a3,a3,a6
800029d2:	01165333          	srl	t1,a2,a7
800029d6:	00d36333          	or	t1,t1,a3
800029da:	01035e13          	srli	t3,t1,0x10
800029de:	0115d6b3          	srl	a3,a1,a7
800029e2:	03c6df33          	divu	t5,a3,t3
800029e6:	01031713          	slli	a4,t1,0x10
800029ea:	8341                	srli	a4,a4,0x10
800029ec:	010597b3          	sll	a5,a1,a6
800029f0:	011555b3          	srl	a1,a0,a7
800029f4:	8ddd                	or	a1,a1,a5
800029f6:	0105d793          	srli	a5,a1,0x10
800029fa:	01061633          	sll	a2,a2,a6
800029fe:	01051533          	sll	a0,a0,a6
80002a02:	03c6f6b3          	remu	a3,a3,t3
80002a06:	03e70eb3          	mul	t4,a4,t5
80002a0a:	06c2                	slli	a3,a3,0x10
80002a0c:	8fd5                	or	a5,a5,a3
80002a0e:	86fa                	mv	a3,t5
80002a10:	01d7fc63          	bgeu	a5,t4,80002a28 <__umoddi3+0x268>
80002a14:	979a                	add	a5,a5,t1
80002a16:	ffff0693          	addi	a3,t5,-1
80002a1a:	0067e763          	bltu	a5,t1,80002a28 <__umoddi3+0x268>
80002a1e:	01d7f563          	bgeu	a5,t4,80002a28 <__umoddi3+0x268>
80002a22:	ffef0693          	addi	a3,t5,-2
80002a26:	979a                	add	a5,a5,t1
80002a28:	41d787b3          	sub	a5,a5,t4
80002a2c:	03c7deb3          	divu	t4,a5,t3
80002a30:	05c2                	slli	a1,a1,0x10
80002a32:	81c1                	srli	a1,a1,0x10
80002a34:	03c7f7b3          	remu	a5,a5,t3
80002a38:	03d70733          	mul	a4,a4,t4
80002a3c:	07c2                	slli	a5,a5,0x10
80002a3e:	8ddd                	or	a1,a1,a5
80002a40:	87f6                	mv	a5,t4
80002a42:	00e5fc63          	bgeu	a1,a4,80002a5a <__umoddi3+0x29a>
80002a46:	959a                	add	a1,a1,t1
80002a48:	fffe8793          	addi	a5,t4,-1
80002a4c:	0065e763          	bltu	a1,t1,80002a5a <__umoddi3+0x29a>
80002a50:	00e5f563          	bgeu	a1,a4,80002a5a <__umoddi3+0x29a>
80002a54:	ffee8793          	addi	a5,t4,-2
80002a58:	959a                	add	a1,a1,t1
80002a5a:	06c2                	slli	a3,a3,0x10
80002a5c:	6f41                	lui	t5,0x10
80002a5e:	8edd                	or	a3,a3,a5
80002a60:	ffff0793          	addi	a5,t5,-1 # ffff <buflen.3+0xff7f>
80002a64:	01065e13          	srli	t3,a2,0x10
80002a68:	8d99                	sub	a1,a1,a4
80002a6a:	00f6f733          	and	a4,a3,a5
80002a6e:	82c1                	srli	a3,a3,0x10
80002a70:	8ff1                	and	a5,a5,a2
80002a72:	02f70eb3          	mul	t4,a4,a5
80002a76:	02f687b3          	mul	a5,a3,a5
80002a7a:	03c70733          	mul	a4,a4,t3
80002a7e:	03c686b3          	mul	a3,a3,t3
80002a82:	00f70e33          	add	t3,a4,a5
80002a86:	010ed713          	srli	a4,t4,0x10
80002a8a:	9772                	add	a4,a4,t3
80002a8c:	00f77363          	bgeu	a4,a5,80002a92 <__umoddi3+0x2d2>
80002a90:	96fa                	add	a3,a3,t5
80002a92:	01075793          	srli	a5,a4,0x10
80002a96:	97b6                	add	a5,a5,a3
80002a98:	66c1                	lui	a3,0x10
80002a9a:	16fd                	addi	a3,a3,-1 # ffff <buflen.3+0xff7f>
80002a9c:	8f75                	and	a4,a4,a3
80002a9e:	0742                	slli	a4,a4,0x10
80002aa0:	00defeb3          	and	t4,t4,a3
80002aa4:	9776                	add	a4,a4,t4
80002aa6:	00f5e663          	bltu	a1,a5,80002ab2 <__umoddi3+0x2f2>
80002aaa:	00f59b63          	bne	a1,a5,80002ac0 <__umoddi3+0x300>
80002aae:	00e57963          	bgeu	a0,a4,80002ac0 <__umoddi3+0x300>
80002ab2:	40c70633          	sub	a2,a4,a2
80002ab6:	00c73733          	sltu	a4,a4,a2
80002aba:	971a                	add	a4,a4,t1
80002abc:	8f99                	sub	a5,a5,a4
80002abe:	8732                	mv	a4,a2
80002ac0:	40e50733          	sub	a4,a0,a4
80002ac4:	00e53533          	sltu	a0,a0,a4
80002ac8:	8d9d                	sub	a1,a1,a5
80002aca:	8d89                	sub	a1,a1,a0
80002acc:	011598b3          	sll	a7,a1,a7
80002ad0:	01075733          	srl	a4,a4,a6
80002ad4:	00e8e533          	or	a0,a7,a4
80002ad8:	0105d5b3          	srl	a1,a1,a6
80002adc:	8082                	ret

80002ade <__eqdf2>:
80002ade:	0145d713          	srli	a4,a1,0x14
80002ae2:	001007b7          	lui	a5,0x100
80002ae6:	17fd                	addi	a5,a5,-1 # fffff <buflen.3+0xfff7f>
80002ae8:	0146d813          	srli	a6,a3,0x14
80002aec:	832a                	mv	t1,a0
80002aee:	8eaa                	mv	t4,a0
80002af0:	7ff77713          	andi	a4,a4,2047
80002af4:	7ff00513          	li	a0,2047
80002af8:	00b7f8b3          	and	a7,a5,a1
80002afc:	8f32                	mv	t5,a2
80002afe:	8ff5                	and	a5,a5,a3
80002b00:	81fd                	srli	a1,a1,0x1f
80002b02:	7ff87813          	andi	a6,a6,2047
80002b06:	82fd                	srli	a3,a3,0x1f
80002b08:	00a71a63          	bne	a4,a0,80002b1c <__eqdf2+0x3e>
80002b0c:	0068ee33          	or	t3,a7,t1
80002b10:	4505                	li	a0,1
80002b12:	000e1463          	bnez	t3,80002b1a <__eqdf2+0x3c>
80002b16:	00e80563          	beq	a6,a4,80002b20 <__eqdf2+0x42>
80002b1a:	8082                	ret
80002b1c:	00a81563          	bne	a6,a0,80002b26 <__eqdf2+0x48>
80002b20:	8e5d                	or	a2,a2,a5
80002b22:	4505                	li	a0,1
80002b24:	fa7d                	bnez	a2,80002b1a <__eqdf2+0x3c>
80002b26:	4505                	li	a0,1
80002b28:	ff0719e3          	bne	a4,a6,80002b1a <__eqdf2+0x3c>
80002b2c:	fef897e3          	bne	a7,a5,80002b1a <__eqdf2+0x3c>
80002b30:	ffee95e3          	bne	t4,t5,80002b1a <__eqdf2+0x3c>
80002b34:	00d58863          	beq	a1,a3,80002b44 <__eqdf2+0x66>
80002b38:	f36d                	bnez	a4,80002b1a <__eqdf2+0x3c>
80002b3a:	0068e8b3          	or	a7,a7,t1
80002b3e:	01103533          	snez	a0,a7
80002b42:	8082                	ret
80002b44:	4501                	li	a0,0
80002b46:	8082                	ret

Disassembly of section .data:

80002e24 <data>:
80002e24:	2a95                	jal	80002f98 <data+0x174>
80002e26:	3e41                	jal	800029b6 <__umoddi3+0x1f6>
80002e28:	a166                	.2byte	0xa166
80002e2a:	3f11                	jal	80002d3e <__clz_tab+0x56>
80002e2c:	3f354ed3          	.4byte	0x3f354ed3
80002e30:	3f065bfb          	.4byte	0x3f065bfb
80002e34:	3ed5                	jal	80002a28 <__umoddi3+0x268>
80002e36:	3f5d                	jal	80002dec <__clz_tab+0x104>
80002e38:	a8a8                	.2byte	0xa8a8
80002e3a:	3ed2                	.2byte	0x3ed2
80002e3c:	0696                	slli	a3,a3,0x5
80002e3e:	3f4e                	.2byte	0x3f4e
80002e40:	44e1                	li	s1,24
80002e42:	3e8c                	.2byte	0x3e8c
80002e44:	63d0                	.2byte	0x63d0
80002e46:	3f5c                	.2byte	0x3f5c
80002e48:	2d41                	jal	800034d8 <data+0x6b4>
80002e4a:	3f5a                	.2byte	0x3f5a
80002e4c:	9e5a                	add	t3,t3,s6
80002e4e:	fe8b3f37          	lui	t5,0xfe8b3
80002e52:	3f30                	.2byte	0x3f30
80002e54:	3c8a                	.2byte	0x3c8a
80002e56:	3e69                	jal	800029f0 <__umoddi3+0x230>
80002e58:	b2c0                	.2byte	0xb2c0
80002e5a:	3f32                	.2byte	0x3f32
80002e5c:	c354                	sw	a3,4(a4)
80002e5e:	3e3e                	.2byte	0x3e3e
80002e60:	3df07d0b          	.4byte	0x3df07d0b
80002e64:	3a75                	jal	80002820 <__umoddi3+0x60>
80002e66:	3f30                	.2byte	0x3f30
80002e68:	501a                	.2byte	0x501a
80002e6a:	73003d2f          	.4byte	0x73003d2f
80002e6e:	3f41                	jal	80002dfe <__clz_tab+0x116>
80002e70:	46a6                	lw	a3,72(sp)
80002e72:	3f10                	.2byte	0x3f10
80002e74:	4552                	lw	a0,20(sp)
80002e76:	3e11                	jal	8000298a <__umoddi3+0x1ca>
80002e78:	3d3a0c6b          	.4byte	0x3d3a0c6b
80002e7c:	95ee                	add	a1,a1,s11
80002e7e:	3ea1                	jal	800029d6 <__umoddi3+0x216>
80002e80:	3d5a1017          	auipc	zero,0x3d5a1
80002e84:	6a51                	lui	s4,0x14
80002e86:	aafc3f5b          	.4byte	0xaafc3f5b
80002e8a:	3e8c                	.2byte	0x3e8c
80002e8c:	3f4f9d1b          	.4byte	0x3f4f9d1b
80002e90:	f4b6                	.2byte	0xf4b6
80002e92:	3f64                	.2byte	0x3f64
80002e94:	3f403793          	sltiu	a5,zero,1012
80002e98:	3c0c                	.2byte	0x3c0c
80002e9a:	d4f13f23          	.4byte	0xd4f13f23
80002e9e:	82383f1b          	.4byte	0x82383f1b
80002ea2:	3f70                	.2byte	0x3f70
80002ea4:	7586                	.2byte	0x7586
80002ea6:	47673e53          	.4byte	0x47673e53
80002eaa:	3ea2                	.2byte	0x3ea2
80002eac:	bc66                	.2byte	0xbc66
80002eae:	3eed                	jal	80002aa8 <__umoddi3+0x2e8>
80002eb0:	e1b5                	bnez	a1,80002f14 <data+0xf0>
80002eb2:	3d90                	.2byte	0x3d90
80002eb4:	3f3a7807          	.4byte	0x3f3a7807
80002eb8:	3e89c993          	xori	s3,s3,1000
80002ebc:	7d4e                	.2byte	0x7d4e
80002ebe:	3eb0                	.2byte	0x3eb0
80002ec0:	dbe8                	sw	a0,116(a5)
80002ec2:	3f16                	.2byte	0x3f16
80002ec4:	3df8904f          	.4byte	0x3df8904f
80002ec8:	d11c                	sw	a5,32(a0)
80002eca:	3d7d                	jal	80002d88 <__clz_tab+0xa0>
80002ecc:	b4e5                	j	800029b4 <__umoddi3+0x1f4>
80002ece:	c2593e8f          	.4byte	0xc2593e8f
80002ed2:	3eb2                	.2byte	0x3eb2
80002ed4:	8fd2                	mv	t6,s4
80002ed6:	3f42                	.2byte	0x3f42
80002ed8:	166e                	slli	a2,a2,0x3b
80002eda:	e17a3eef          	jal	t4,7ffa6cf0 <buflen.3+0x7ffa6c70>
80002ede:	3eee                	.2byte	0x3eee
80002ee0:	948e                	add	s1,s1,gp
80002ee2:	3ee5                	jal	80002ada <__umoddi3+0x31a>
80002ee4:	8039                	srli	s0,s0,0xe
80002ee6:	3f02                	.2byte	0x3f02
80002ee8:	8f36                	mv	t5,a3
80002eea:	36fc3e63          	.4byte	0x36fc3e63
80002eee:	3c44                	.2byte	0x3c44
80002ef0:	d18d                	beqz	a1,80002e12 <__clz_tab+0x12a>
80002ef2:	3f26                	.2byte	0x3f26
80002ef4:	0929                	addi	s2,s2,10
80002ef6:	3e89                	jal	80002a48 <__umoddi3+0x288>
80002ef8:	b7a6                	.2byte	0xb7a6
80002efa:	728f3ea7          	.4byte	0x728f3ea7
80002efe:	3f34                	.2byte	0x3f34
80002f00:	7729                	lui	a4,0xfffea
80002f02:	3dff                	.2byte	0x3dff
80002f04:	3151                	jal	80002b88 <__eqdf2+0xaa>
80002f06:	3f1a                	.2byte	0x3f1a
80002f08:	0faa                	slli	t6,t6,0xa
80002f0a:	3f04                	.2byte	0x3f04
80002f0c:	7369                	lui	t1,0xffffa
80002f0e:	3c9c                	.2byte	0x3c9c
80002f10:	d1e9                	beqz	a1,80002ed2 <data+0xae>
80002f12:	3eb4                	.2byte	0x3eb4
80002f14:	2ed8                	.2byte	0x2ed8
80002f16:	3e1d                	jal	80002a4c <__umoddi3+0x28c>
80002f18:	b87c                	.2byte	0xb87c
80002f1a:	3f20                	.2byte	0x3f20
80002f1c:	d639                	beqz	a2,80002e6a <data+0x46>
80002f1e:	3e95                	jal	80002a92 <__umoddi3+0x2d2>
80002f20:	3eb8522f          	.4byte	0x3eb8522f
80002f24:	dc40                	sw	s0,60(s0)
80002f26:	3f71                	jal	80002ec2 <data+0x9e>
80002f28:	3f41c94f          	.4byte	0x3f41c94f
80002f2c:	8a9c                	.2byte	0x8a9c
80002f2e:	3edc                	.2byte	0x3edc
80002f30:	3f2c5447          	.4byte	0x3f2c5447
80002f34:	c316                	sw	t0,132(sp)
80002f36:	3cd5                	jal	80002a2a <__umoddi3+0x26a>
80002f38:	8406                	mv	s0,ra
80002f3a:	3f46                	.2byte	0x3f46
80002f3c:	605f 3e86 008a      	.byte	0x5f, 0x60, 0x86, 0x3e, 0x8a, 0x00
80002f42:	61073e17          	auipc	t3,0x61073
80002f46:	3f56                	.2byte	0x3f56
80002f48:	0aa2                	slli	s5,s5,0x8
80002f4a:	429e3f0b          	.4byte	0x429e3f0b
80002f4e:	3efe                	.2byte	0x3efe
80002f50:	f0d8                	.2byte	0xf0d8
80002f52:	3f18                	.2byte	0x3f18
80002f54:	3c257647          	.4byte	0x3c257647
80002f58:	921d                	srli	a2,a2,0x27
80002f5a:	3f76                	.2byte	0x3f76
80002f5c:	b1f2                	.2byte	0xb1f2
80002f5e:	16123d3b          	.4byte	0x16123d3b
80002f62:	3f05                	jal	80002e92 <data+0x6e>
80002f64:	3e3dd767          	.4byte	0x3e3dd767
80002f68:	c0be                	sw	a5,64(sp)
80002f6a:	3d6c                	.2byte	0x3d6c
80002f6c:	9e7c                	.2byte	0x9e7c
80002f6e:	f4dc3e2f          	.4byte	0xf4dc3e2f
80002f72:	4fbe3ee7          	.4byte	0x4fbe3ee7
80002f76:	3ec5                	jal	80002b66 <__eqdf2+0x88>
80002f78:	5a1d                	li	s4,-25
80002f7a:	3f60                	.2byte	0x3f60
80002f7c:	3f13e953          	.4byte	0x3f13e953
80002f80:	d930                	sw	a2,112(a0)
80002f82:	3f7c                	.2byte	0x3f7c
80002f84:	d3ae                	sw	a1,228(sp)
80002f86:	3ec8                	.2byte	0x3ec8
80002f88:	ccee                	sw	s11,88(sp)
80002f8a:	3f18                	.2byte	0x3f18
80002f8c:	8449                	srai	s0,s0,0x12
80002f8e:	3eae                	.2byte	0x3eae
80002f90:	b58d                	j	80002df2 <__clz_tab+0x10a>
80002f92:	15a93f0b          	.4byte	0x15a93f0b
80002f96:	3e66                	.2byte	0x3e66
80002f98:	2d41                	jal	80003628 <data+0x804>
80002f9a:	3f22                	.2byte	0x3f22
80002f9c:	dea4                	sw	s1,120(a3)
80002f9e:	86663f67          	.4byte	0x86663f67
80002fa2:	3e2d                	jal	80002adc <__umoddi3+0x31c>
80002fa4:	ed20                	.2byte	0xed20
80002fa6:	47e53ec7          	.4byte	0x47e53ec7
80002faa:	3eac                	.2byte	0x3eac
80002fac:	b5e1                	j	80002e74 <data+0x50>
80002fae:	49733f57          	.4byte	0x49733f57
80002fb2:	3ed5                	jal	80002ba6 <__eqdf2+0xc8>
80002fb4:	3fc0                	.2byte	0x3fc0
80002fb6:	3de5                	jal	80002eae <data+0x8a>
80002fb8:	3dd73083          	.4byte	0x3dd73083
80002fbc:	64dc                	.2byte	0x64dc
80002fbe:	3f10                	.2byte	0x3f10
80002fc0:	08ff                	.2byte	0x8ff
80002fc2:	f0b33f73          	csrrc	t5,0xf0b,t1
80002fc6:	3f25                	jal	80002efe <data+0xda>
80002fc8:	62b2                	.2byte	0x62b2
80002fca:	3d78                	.2byte	0x3d78
80002fcc:	3f0bf9d7          	.4byte	0x3f0bf9d7
80002fd0:	3f28867b          	.4byte	0x3f28867b
80002fd4:	08ff                	.2byte	0x8ff
80002fd6:	b5073cc3          	.4byte	0xb5073cc3
80002fda:	72323f17          	auipc	t5,0x72323
80002fde:	3e36                	.2byte	0x3e36
80002fe0:	3886                	.2byte	0x3886
80002fe2:	3e56                	.2byte	0x3e56
80002fe4:	8102                	jr	sp
80002fe6:	3f26                	.2byte	0x3f26
80002fe8:	3eb30857          	.4byte	0x3eb30857
80002fec:	8890                	.2byte	0x8890
80002fee:	3f29                	jal	80002f08 <data+0xe4>
80002ff0:	8e0d                	sub	a2,a2,a1
80002ff2:	3d12                	.2byte	0x3d12
80002ff4:	7920                	.2byte	0x7920
80002ff6:	c78a3e67          	.4byte	0xc78a3e67
80002ffa:	3e75                	jal	80002bb6 <__eqdf2+0xd8>
80002ffc:	3cc0420f          	.4byte	0x3cc0420f
80003000:	481f 3f1e 3ed1      	.byte	0x1f, 0x48, 0x1e, 0x3f, 0xd1, 0x3e
80003006:	3f56                	.2byte	0x3f56
80003008:	886a                	mv	a6,s10
8000300a:	3eba                	.2byte	0x3eba
8000300c:	f6b2                	.2byte	0xf6b2
8000300e:	43b33e27          	.4byte	0x43b33e27
80003012:	3d7c                	.2byte	0x3d7c
80003014:	7176                	.2byte	0x7176
80003016:	3f7f                	.2byte	0x3f7f
80003018:	e200                	.2byte	0xe200
8000301a:	3d8e                	.2byte	0x3d8e
8000301c:	3e6c9753          	.4byte	0x3e6c9753
80003020:	3ec6d00b          	.4byte	0x3ec6d00b
80003024:	0065                	c.nop	25
80003026:	3ed0                	.2byte	0x3ed0
80003028:	3d96de33          	.4byte	0x3d96de33
8000302c:	3f4e0cbf 3f04a82a 	.8byte	0x3f04a82a3f4e0cbf
80003034:	3e37075b          	.4byte	0x3e37075b
80003038:	3ebce337          	lui	t1,0x3ebce
8000303c:	6252                	.2byte	0x6252
8000303e:	b2893eef          	jal	t4,7ff96366 <buflen.3+0x7ff962e6>
80003042:	ef8d3f53          	.4byte	0xef8d3f53
80003046:	bffd3edb          	.4byte	0xbffd3edb
8000304a:	3c6a                	.2byte	0x3c6a
8000304c:	7208                	.2byte	0x7208
8000304e:	3ef8                	.2byte	0x3ef8
80003050:	201d                	jal	80003076 <data+0x252>
80003052:	3ee8                	.2byte	0x3ee8
80003054:	3f1b6007          	.4byte	0x3f1b6007
80003058:	d591                	beqz	a1,80002f64 <data+0x140>
8000305a:	3f29                	jal	80002f74 <data+0x150>
8000305c:	9e30                	.2byte	0x9e30
8000305e:	3f29                	jal	80002f78 <data+0x154>
80003060:	c212                	sw	tp,4(sp)
80003062:	6f0d3e83          	.4byte	0x6f0d3e83
80003066:	3c56                	.2byte	0x3c56
80003068:	4d7f                	.2byte	0x4d7f
8000306a:	3ea6                	.2byte	0x3ea6
8000306c:	3e9613d3          	.4byte	0x3e9613d3
80003070:	e011                	bnez	s0,80003074 <data+0x250>
80003072:	3e74                	.2byte	0x3e74
80003074:	98a2                	add	a7,a7,s0
80003076:	3f10                	.2byte	0x3f10
80003078:	1816                	slli	a6,a6,0x25
8000307a:	3ea2                	.2byte	0x3ea2
8000307c:	8024                	.2byte	0x8024
8000307e:	aee63f5b          	.4byte	0xaee63f5b
80003082:	3ecd                	jal	80002c74 <__eqdf2+0x196>
80003084:	5040                	lw	s0,36(s0)
80003086:	3f2e                	.2byte	0x3f2e
80003088:	ba02                	.2byte	0xba02
8000308a:	375d3caf          	.4byte	0x375d3caf
8000308e:	3eed                	jal	80002c88 <__eqdf2+0x1aa>
80003090:	c1a4                	sw	s1,64(a1)
80003092:	3f2d                	jal	80002fcc <data+0x1a8>
80003094:	d081                	beqz	s1,80002f94 <data+0x170>
80003096:	3dba                	.2byte	0x3dba
80003098:	3f31c183          	lbu	gp,1011(gp) # 800068f7 <__global_pointer$+0x3f3>
8000309c:	4d51                	li	s10,20
8000309e:	3d89                	jal	80002ef0 <data+0xcc>
800030a0:	b4a6                	.2byte	0xb4a6
800030a2:	3efe                	.2byte	0x3efe
800030a4:	9d49                	.2byte	0x9d49
800030a6:	3f44                	.2byte	0x3f44
800030a8:	3669                	jal	80002c32 <__eqdf2+0x154>
800030aa:	3f5f 4fb1 3c80      	.byte	0x5f, 0x3f, 0xb1, 0x4f, 0x80, 0x3c
800030b0:	5f20                	lw	s0,120(a4)
800030b2:	3f72                	.2byte	0x3f72
800030b4:	a012                	.2byte	0xa012
800030b6:	3e76                	.2byte	0x3e76
800030b8:	674d                	lui	a4,0x13
800030ba:	11993ef7          	.4byte	0x11993ef7
800030be:	3f46                	.2byte	0x3f46
800030c0:	3f2b9fcb          	.4byte	0x3f2b9fcb
800030c4:	bd4d                	j	80002f76 <data+0x152>
800030c6:	3efe                	.2byte	0x3efe
800030c8:	953a                	add	a0,a0,a4
800030ca:	3e84                	.2byte	0x3e84
800030cc:	7e46                	.2byte	0x7e46
800030ce:	3dfd                	jal	80002fcc <data+0x1a8>
800030d0:	f56a                	.2byte	0xf56a
800030d2:	3dd5                	jal	80002fc6 <data+0x1a2>
800030d4:	203e                	.2byte	0x203e
800030d6:	3f6c                	.2byte	0x3f6c
800030d8:	4df9                	li	s11,30
800030da:	3f49                	jal	8000306c <data+0x248>
800030dc:	3f8e                	.2byte	0x3f8e
800030de:	3eb9                	jal	80002c3c <__eqdf2+0x15e>
800030e0:	3f6f79fb          	.4byte	0x3f6f79fb
800030e4:	a5c2                	.2byte	0xa5c2
800030e6:	a9b03de3          	.4byte	0xa9b03de3
800030ea:	c7fc3f27          	.4byte	0xc7fc3f27
800030ee:	3e32                	.2byte	0x3e32
800030f0:	0d5a                	slli	s10,s10,0x16
800030f2:	3f2d                	jal	8000302c <data+0x208>
800030f4:	3f78b5bb          	.4byte	0x3f78b5bb
800030f8:	2229                	jal	80003202 <data+0x3de>
800030fa:	266c3d03          	.4byte	0x266c3d03
800030fe:	3d9f 05ea 3f27      	.byte	0x9f, 0x3d, 0xea, 0x05, 0x27, 0x3f
80003104:	fe1e                	.2byte	0xfe1e
80003106:	3d5a                	.2byte	0x3d5a
80003108:	807c                	.2byte	0x807c
8000310a:	3f0a                	.2byte	0x3f0a
8000310c:	3ea98f3f 3e14280b 	.8byte	0x3e14280b3ea98f3f
80003114:	083e                	slli	a6,a6,0xf
80003116:	3e71                	jal	80002cb2 <__eqdf2+0x1d4>
80003118:	3ecbe293          	ori	t0,s7,1004
8000311c:	6445                	lui	s0,0x11
8000311e:	3f24                	.2byte	0x3f24
80003120:	58c1                	li	a7,-16
80003122:	3b5f 4f66 3e8a      	.byte	0x5f, 0x3b, 0x66, 0x4f, 0x8a, 0x3e
80003128:	3f2866c3          	.4byte	0x3f2866c3
8000312c:	3e68                	.2byte	0x3e68
8000312e:	cfb73f73          	csrrc	t5,0xcfb,a4
80003132:	3f02                	.2byte	0x3f02
80003134:	69a5                	lui	s3,0x9
80003136:	3e10                	.2byte	0x3e10
80003138:	5012                	.2byte	0x5012
8000313a:	3f39                	jal	80003058 <data+0x234>
8000313c:	3e39bdc7          	.4byte	0x3e39bdc7
80003140:	7910                	.2byte	0x7910
80003142:	9aae3f23          	.4byte	0x9aae3f23
80003146:	3e753f7b          	.4byte	0x3e753f7b
8000314a:	3e9c                	.2byte	0x3e9c
8000314c:	37bd                	jal	800030ba <data+0x296>
8000314e:	3f3e                	.2byte	0x3f3e
80003150:	baed                	j	80002b4a <__eqdf2+0x6c>
80003152:	69983f67          	.4byte	0x69983f67
80003156:	bc1f3dbb          	.4byte	0xbc1f3dbb
8000315a:	3dd6                	.2byte	0x3dd6
8000315c:	3f5734d7          	.4byte	0x3f5734d7
80003160:	87ad                	srai	a5,a5,0xb
80003162:	81343e4f          	.4byte	0x81343e4f
80003166:	3f42                	.2byte	0x3f42
80003168:	3c79b563          	.4byte	0x3c79b563
8000316c:	ef46                	.2byte	0xef46
8000316e:	3f60                	.2byte	0x3f60
80003170:	36f0                	.2byte	0x36f0
80003172:	8f823f3b          	.4byte	0x8f823f3b
80003176:	3d41                	jal	80003006 <data+0x1e2>
80003178:	d424                	sw	s1,104(s0)
8000317a:	3f74                	.2byte	0x3f74
8000317c:	3ec479b3          	.4byte	0x3ec479b3
80003180:	46d0                	lw	a2,12(a3)
80003182:	3dce                	.2byte	0x3dce
80003184:	3efea93f 3f370479 	.8byte	0x3f3704793efea93f
8000318c:	3e7b4b73          	.4byte	0x3e7b4b73
80003190:	3f3b96af          	.4byte	0x3f3b96af
80003194:	ae14                	.2byte	0xae14
80003196:	37223de7          	.4byte	0x37223de7
8000319a:	75f73f63          	.4byte	0x75f73f63
8000319e:	3f3c                	.2byte	0x3f3c
800031a0:	3ec43aeb          	.4byte	0x3ec43aeb
800031a4:	9de5                	.2byte	0x9de5
800031a6:	b4703f0b          	.4byte	0xb4703f0b
800031aa:	ed2d3f2f          	.4byte	0xed2d3f2f
800031ae:	3f64                	.2byte	0x3f64
800031b0:	b83d                	j	800029ee <__umoddi3+0x22e>
800031b2:	08e13f2f          	.4byte	0x8e13f2f
800031b6:	3ed2                	.2byte	0x3ed2
800031b8:	3d9ae4f3          	csrrsi	s1,0x3d9,21
800031bc:	6299                	lui	t0,0x6
800031be:	3ea6                	.2byte	0x3ea6
800031c0:	3e60                	.2byte	0x3e60
800031c2:	3ec9                	jal	80002d94 <__clz_tab+0xac>
800031c4:	f7b1                	bnez	a5,80003110 <data+0x2ec>
800031c6:	3ec2                	.2byte	0x3ec2
800031c8:	484d                	li	a6,19
800031ca:	b4183d8b          	.4byte	0xb4183d8b
800031ce:	3e98                	.2byte	0x3e98
800031d0:	d218                	sw	a4,32(a2)
800031d2:	3ef1                	jal	80002dae <__clz_tab+0xc6>
800031d4:	0236                	slli	tp,tp,0xd
800031d6:	3e31                	jal	80002cf2 <__clz_tab+0xa>
800031d8:	3bcd                	jal	80002fca <data+0x1a6>
800031da:	3e0e                	.2byte	0x3e0e
800031dc:	3f2ccaf7          	.4byte	0x3f2ccaf7
800031e0:	c1c2                	sw	a6,192(sp)
800031e2:	3f6e                	.2byte	0x3f6e
800031e4:	3e1dd723          	.4byte	0x3e1dd723
800031e8:	ba3d                	j	80002b26 <__eqdf2+0x48>
800031ea:	3f0d                	jal	8000311c <data+0x2f8>
800031ec:	f8b1                	bnez	s1,80003140 <data+0x31c>
800031ee:	3f29                	jal	80003108 <data+0x2e4>
800031f0:	3ac1                	jal	80002bc0 <__eqdf2+0xe2>
800031f2:	3e4e                	.2byte	0x3e4e
800031f4:	8e61                	and	a2,a2,s0
800031f6:	3f02                	.2byte	0x3f02
800031f8:	58b0                	lw	a2,112(s1)
800031fa:	af143d43          	.4byte	0xaf143d43
800031fe:	3e9a                	.2byte	0x3e9a
80003200:	800a                	c.mv	zero,sp
80003202:	3bf1                	jal	80002fde <data+0x1ba>
80003204:	3f4339f3          	csrrc	s3,0x3f4,t1
80003208:	3f0c2a67          	.4byte	0x3f0c2a67
8000320c:	3f3d79af          	.4byte	0x3f3d79af
80003210:	2fb6                	.2byte	0x2fb6
80003212:	3f60                	.2byte	0x3f60
80003214:	c311                	beqz	a4,80003218 <data+0x3f4>
80003216:	3ede                	.2byte	0x3ede
80003218:	df4c                	sw	a1,60(a4)
8000321a:	9a563ef3          	csrrc	t4,0x9a5,a2
8000321e:	3e84                	.2byte	0x3e84
80003220:	ff5c                	.2byte	0xff5c
80003222:	3f7a                	.2byte	0x3f7a
80003224:	9058                	.2byte	0x9058
80003226:	3e26                	.2byte	0x3e26
80003228:	e960                	.2byte	0xe960
8000322a:	3e1c                	.2byte	0x3e1c
8000322c:	b7aa                	.2byte	0xb7aa
8000322e:	3f2a                	.2byte	0x3f2a
80003230:	3f12a887          	.4byte	0x3f12a887
80003234:	5b96                	lw	s7,100(sp)
80003236:	3e6a                	.2byte	0x3e6a
80003238:	3f7de8f7          	.4byte	0x3f7de8f7
8000323c:	47b6                	lw	a5,76(sp)
8000323e:	12be3f77          	.4byte	0x12be3f77
80003242:	3f1c                	.2byte	0x3f1c
80003244:	2008                	.2byte	0x2008
80003246:	3d75                	jal	80003102 <data+0x2de>
80003248:	4385                	li	t2,1
8000324a:	ded73e87          	.4byte	0xded73e87
8000324e:	4a383da7          	.4byte	0x4a383da7
80003252:	3e6e                	.2byte	0x3e6e
80003254:	3ece616b          	.4byte	0x3ece616b
80003258:	c6d2                	sw	s4,76(sp)
8000325a:	3f41                	jal	800031ea <data+0x3c6>
8000325c:	5140                	lw	s0,36(a0)
8000325e:	3e29                	jal	80002d78 <__clz_tab+0x90>
80003260:	a66e                	.2byte	0xa66e
80003262:	3f0e                	.2byte	0x3f0e
80003264:	021d                	addi	tp,tp,7 # 7 <threadsense.5+0x7>
80003266:	3e9f 4d01 3f54      	.byte	0x9f, 0x3e, 0x01, 0x4d, 0x54, 0x3f
8000326c:	3f42352f          	.4byte	0x3f42352f
80003270:	3f520f6f          	jal	t5,80023e64 <__global_pointer$+0x1d960>
80003274:	3f60827b          	.4byte	0x3f60827b
80003278:	cb8e                	sw	gp,212(sp)
8000327a:	3d78                	.2byte	0x3d78
8000327c:	3f53f26f          	jal	tp,80042e70 <__global_pointer$+0x3c96c>
80003280:	bc7f                	.2byte	0xbc7f
80003282:	b7203f23          	.4byte	0xb7203f23
80003286:	6c1e3f1b          	.4byte	0x6c1e3f1b
8000328a:	3f11                	jal	8000319e <data+0x37a>
8000328c:	ec35                	bnez	s0,80003308 <data+0x4e4>
8000328e:	8a873f03          	.4byte	0x8a873f03
80003292:	3d31                	jal	800030ae <data+0x28a>
80003294:	bc45                	j	80002d44 <__clz_tab+0x5c>
80003296:	3d35                	jal	800030d2 <data+0x2ae>
80003298:	3960                	.2byte	0x3960
8000329a:	3f46                	.2byte	0x3f46
8000329c:	3cc3009b          	.4byte	0x3cc3009b
800032a0:	ff69                	bnez	a4,8000327a <data+0x456>
800032a2:	73b83e53          	.4byte	0x73b83e53
800032a6:	3f6d                	jal	80003260 <data+0x43c>
800032a8:	3f30cfaf          	.4byte	0x3f30cfaf
800032ac:	a872                	.2byte	0xa872
800032ae:	2abb3f47          	.4byte	0x2abb3f47
800032b2:	3e20                	.2byte	0x3e20
800032b4:	b895                	j	80002b28 <__eqdf2+0x4a>
800032b6:	3f2e                	.2byte	0x3f2e
800032b8:	3f3ef017          	auipc	zero,0x3f3ef
800032bc:	1d6d                	addi	s10,s10,-5
800032be:	3f44                	.2byte	0x3f44
800032c0:	0aa6                	slli	s5,s5,0x9
800032c2:	3f3e                	.2byte	0x3f3e
800032c4:	766c                	.2byte	0x766c
800032c6:	3c24                	.2byte	0x3c24
800032c8:	1948                	addi	a0,sp,180
800032ca:	3f59                	jal	80003260 <data+0x43c>
800032cc:	9d34                	.2byte	0x9d34
800032ce:	3f79                	jal	8000326c <data+0x448>
800032d0:	851f 3ed3 e01a      	.byte	0x1f, 0x85, 0xd3, 0x3e, 0x1a, 0xe0
800032d6:	3f1a                	.2byte	0x3f1a
800032d8:	c611                	beqz	a2,800032e4 <data+0x4c0>
800032da:	68fd3e0f          	.4byte	0x68fd3e0f
800032de:	3f78                	.2byte	0x3f78
800032e0:	6128                	.2byte	0x6128
800032e2:	3f6a                	.2byte	0x3f6a
800032e4:	3e75                	jal	80002ea0 <data+0x7c>
800032e6:	3f78                	.2byte	0x3f78
800032e8:	9e2c                	.2byte	0x9e2c
800032ea:	3f3a                	.2byte	0x3f3a
800032ec:	3f3c7097          	auipc	ra,0x3f3c7
800032f0:	c101                	beqz	a0,800032f0 <data+0x4cc>
800032f2:	3f58                	.2byte	0x3f58
800032f4:	2ae5                	jal	800034ec <data+0x6c8>
800032f6:	3f4a                	.2byte	0x3f4a
800032f8:	3f106317          	auipc	t1,0x3f106
800032fc:	fadf 3ef8 c409      	.byte	0xdf, 0xfa, 0xf8, 0x3e, 0x09, 0xc4
80003302:	3cd53ecb          	.4byte	0x3cd53ecb
80003306:	49bf3e07          	.4byte	0x49bf3e07
8000330a:	f55a3ad3          	.4byte	0xf55a3ad3
8000330e:	3ee1                	jal	80002ee6 <data+0xc2>
80003310:	3e34abe7          	.4byte	0x3e34abe7
80003314:	a316                	.2byte	0xa316
80003316:	3f46                	.2byte	0x3f46
80003318:	3eee2563          	.4byte	0x3eee2563
8000331c:	55c9                	li	a1,-14
8000331e:	3ec4                	.2byte	0x3ec4
80003320:	16ce                	slli	a3,a3,0x33
80003322:	3f34                	.2byte	0x3f34
80003324:	3e1f8983          	lb	s3,993(t6)
80003328:	4d16                	lw	s10,68(sp)
8000332a:	217d3e27          	.4byte	0x217d3e27
8000332e:	3f5c                	.2byte	0x3f5c
80003330:	9af6                	add	s5,s5,t4
80003332:	3f56                	.2byte	0x3f56
80003334:	c35d                	beqz	a4,800033da <data+0x5b6>
80003336:	3f68                	.2byte	0x3f68
80003338:	3eea                	.2byte	0x3eea
8000333a:	3f20                	.2byte	0x3f20
8000333c:	a59c                	.2byte	0xa59c
8000333e:	3f14                	.2byte	0x3f14
80003340:	3f6b5547          	.4byte	0x3f6b5547
80003344:	b064                	.2byte	0xb064
80003346:	3ef2                	.2byte	0x3ef2
80003348:	42c0                	lw	s0,4(a3)
8000334a:	3f0e                	.2byte	0x3f0e
8000334c:	2fad                	jal	80003ac6 <data+0xca2>
8000334e:	3eaa                	.2byte	0x3eaa
80003350:	3da1c1d7          	.4byte	0x3da1c1d7
80003354:	3444                	.2byte	0x3444
80003356:	3f32                	.2byte	0x3f32
80003358:	01a8                	addi	a0,sp,200
8000335a:	99633e9b          	.4byte	0x99633e9b
8000335e:	3f7e                	.2byte	0x3f7e
80003360:	72b9                	lui	t0,0xfffee
80003362:	3f2a                	.2byte	0x3f2a
80003364:	effa                	.2byte	0xeffa
80003366:	3d01                	jal	80003176 <data+0x352>
80003368:	09fa                	slli	s3,s3,0x1e
8000336a:	33b93f3b          	.4byte	0x33b93f3b
8000336e:	49e43f03          	.4byte	0x49e43f03
80003372:	3f52                	.2byte	0x3f52
80003374:	3e96da23          	.4byte	0x3e96da23
80003378:	b129                	j	80002f82 <data+0x15e>
8000337a:	3f7f                	.2byte	0x3f7f
8000337c:	3e60afa3          	sw	t1,1023(ra) # bf3ca6eb <__global_pointer$+0x3f3c41e7>
80003380:	788e                	.2byte	0x788e
80003382:	3eda                	.2byte	0x3eda
80003384:	6f0d                	lui	t5,0x3
80003386:	39d6                	.2byte	0x39d6
80003388:	2696                	.2byte	0x2696
8000338a:	3f29                	jal	800032a4 <data+0x480>
8000338c:	6741                	lui	a4,0x10
8000338e:	3f1a                	.2byte	0x3f1a
80003390:	bde4                	.2byte	0xbde4
80003392:	3f46                	.2byte	0x3f46
80003394:	e51d                	bnez	a0,800033c2 <data+0x59e>
80003396:	3e00                	.2byte	0x3e00
80003398:	9225                	srli	a2,a2,0x29
8000339a:	3f7c                	.2byte	0x3f7c
8000339c:	a965                	j	80003854 <data+0xa30>
8000339e:	3ef5                	jal	80002f9a <data+0x176>
800033a0:	3750                	.2byte	0x3750
800033a2:	3e90                	.2byte	0x3e90
800033a4:	3e1995ab          	.4byte	0x3e1995ab
800033a8:	ec5f 3ead b4ee      	.byte	0x5f, 0xec, 0xad, 0x3e, 0xee, 0xb4
800033ae:	3df5                	jal	800032aa <data+0x486>
800033b0:	8d86                	mv	s11,ra
800033b2:	3d72                	.2byte	0x3d72
800033b4:	3509                	jal	800031b6 <data+0x392>
800033b6:	5c3a3f77          	.4byte	0x5c3a3f77
800033ba:	7e0f3f33          	.4byte	0x7e0f3f33
800033be:	3f7a                	.2byte	0x3f7a
800033c0:	1a76                	slli	s4,s4,0x3d
800033c2:	3ee1                	jal	80002f9a <data+0x176>
800033c4:	3e833df3          	csrrc	s11,0x3e8,t1
800033c8:	3e9f2bcb          	.4byte	0x3e9f2bcb
800033cc:	c576                	sw	t4,136(sp)
800033ce:	3f04                	.2byte	0x3f04
800033d0:	d33d                	beqz	a4,80003336 <data+0x512>
800033d2:	16ca3f73          	csrrc	t5,0x16c,s4
800033d6:	3f1d                	jal	8000330c <data+0x4e8>
800033d8:	5ed9                	li	t4,-10
800033da:	45f63f03          	.4byte	0x45f63f03
800033de:	3f1e                	.2byte	0x3f1e
800033e0:	35ca                	.2byte	0x35ca
800033e2:	3f25                	jal	8000331a <data+0x4f6>
800033e4:	a390                	.2byte	0xa390
800033e6:	3e79                	jal	80002f84 <data+0x160>
800033e8:	e6bc                	.2byte	0xe6bc
800033ea:	3e05                	jal	80002f1a <data+0xf6>
800033ec:	ff5c                	.2byte	0xff5c
800033ee:	3eee                	.2byte	0x3eee
800033f0:	d5f5                	beqz	a1,800033dc <data+0x5b8>
800033f2:	3f09                	jal	80003304 <data+0x4e0>
800033f4:	ab60                	.2byte	0xab60
800033f6:	3e04                	.2byte	0x3e04
800033f8:	aba8                	.2byte	0xaba8
800033fa:	123c3f2f          	.4byte	0x123c3f2f
800033fe:	16983f77          	.4byte	0x16983f77
80003402:	3e05                	jal	80002f32 <data+0x10e>
80003404:	3eb1a47b          	.4byte	0x3eb1a47b
80003408:	797d                	lui	s2,0xfffff
8000340a:	3f11                	jal	8000331e <data+0x4fa>
8000340c:	038a                	slli	t2,t2,0x2
8000340e:	3f68                	.2byte	0x3f68
80003410:	1709                	addi	a4,a4,-30 # ffe2 <buflen.3+0xff62>
80003412:	3ef2                	.2byte	0x3ef2
80003414:	0ba2                	slli	s7,s7,0x8
80003416:	3f0e                	.2byte	0x3f0e
80003418:	b079                	j	80002ca6 <__eqdf2+0x1c8>
8000341a:	3ec5                	jal	8000300a <data+0x1e6>
8000341c:	272d                	jal	80003b46 <data+0xd22>
8000341e:	3f41                	jal	800033ae <data+0x58a>
80003420:	710d                	addi	sp,sp,-352
80003422:	3f34                	.2byte	0x3f34
80003424:	ce6c                	sw	a1,92(a2)
80003426:	3f39                	jal	80003344 <data+0x520>
80003428:	3f5fdddb          	.4byte	0x3f5fdddb
8000342c:	99e5                	andi	a1,a1,-7
8000342e:	03753f43          	.4byte	0x3753f43
80003432:	3f31                	jal	8000334e <data+0x52a>
80003434:	3a15                	jal	80002d68 <__clz_tab+0x80>
80003436:	17f43f13          	sltiu	t5,s0,383
8000343a:	3f3e                	.2byte	0x3f3e
8000343c:	42c0                	lw	s0,4(a3)
8000343e:	3e06                	.2byte	0x3e06
80003440:	d90e                	sw	gp,176(sp)
80003442:	3f54                	.2byte	0x3f54
80003444:	dea9                	beqz	a3,8000339e <data+0x57a>
80003446:	3d5a                	.2byte	0x3d5a
80003448:	5626                	lw	a2,104(sp)
8000344a:	3f26                	.2byte	0x3f26
8000344c:	3f48ac4b          	.4byte	0x3f48ac4b
80003450:	c4a4                	sw	s1,72(s1)
80003452:	3f2a                	.2byte	0x3f2a
80003454:	d3fa                	sw	t5,228(sp)
80003456:	3e26                	.2byte	0x3e26
80003458:	e482                	.2byte	0xe482
8000345a:	3ecd                	jal	8000304c <data+0x228>
8000345c:	f4dc                	.2byte	0xf4dc
8000345e:	3e9f 3bc5 3ed0      	.byte	0x9f, 0x3e, 0xc5, 0x3b, 0xd0, 0x3e
80003464:	6bf0                	.2byte	0x6bf0
80003466:	3f08                	.2byte	0x3f08
80003468:	7a2d                	lui	s4,0xfffeb
8000346a:	f3c73f47          	.4byte	0xf3c73f47
8000346e:	3f71                	jal	8000340a <data+0x5e6>
80003470:	96d9                	srai	a3,a3,0x36
80003472:	3f29                	jal	8000338c <data+0x568>
80003474:	4b88                	lw	a0,16(a5)
80003476:	3eee                	.2byte	0x3eee
80003478:	3f690603          	lb	a2,1014(s2) # fffff3f6 <__global_pointer$+0x7fff8ef2>
8000347c:	dc7f                	.2byte	0xdc7f
8000347e:	3f4a                	.2byte	0x3f4a
80003480:	f801                	bnez	s0,80003390 <data+0x56c>
80003482:	ff003f4f          	.4byte	0xff003f4f
80003486:	3ef4                	.2byte	0x3ef4
80003488:	e009                	bnez	s0,8000348a <data+0x666>
8000348a:	3f32                	.2byte	0x3f32
8000348c:	072d                	addi	a4,a4,11
8000348e:	3e92                	.2byte	0x3e92
80003490:	b32d                	j	800031ba <data+0x396>
80003492:	3d08                	.2byte	0x3d08
80003494:	c2b1                	beqz	a3,800034d8 <data+0x6b4>
80003496:	3dad                	jal	80003310 <data+0x4ec>
80003498:	ac32                	.2byte	0xac32
8000349a:	3d22                	.2byte	0x3d22
8000349c:	fc40                	.2byte	0xfc40
8000349e:	3f3c                	.2byte	0x3f3c
800034a0:	86c2                	mv	a3,a6
800034a2:	089e3f4f          	.4byte	0x89e3f4f
800034a6:	3f6a                	.2byte	0x3f6a
800034a8:	9625                	srai	a2,a2,0x29
800034aa:	3f00                	.2byte	0x3f00
800034ac:	3f008a37          	lui	s4,0x3f008
800034b0:	8544                	.2byte	0x8544
800034b2:	3efa                	.2byte	0x3efa
800034b4:	3e7ab863          	.4byte	0x3e7ab863
800034b8:	3f221ae7          	.4byte	0x3f221ae7
800034bc:	3761                	jal	80003444 <data+0x620>
800034be:	3ea4                	.2byte	0x3ea4
800034c0:	b806                	.2byte	0xb806
800034c2:	3e98                	.2byte	0x3e98
800034c4:	e219                	bnez	a2,800034ca <data+0x6a6>
800034c6:	3e90                	.2byte	0x3e90
800034c8:	3fdd                	jal	800034be <data+0x69a>
800034ca:	3dd6                	.2byte	0x3dd6
800034cc:	3f7720a7          	.4byte	0x3f7720a7
800034d0:	4c16                	lw	s8,68(sp)
800034d2:	3ee4                	.2byte	0x3ee4
800034d4:	ba3d                	j	80002e12 <__clz_tab+0x12a>
800034d6:	3f01                	jal	800033e6 <data+0x5c2>
800034d8:	364c                	.2byte	0x364c
800034da:	3e8e                	.2byte	0x3e8e
800034dc:	43dd                	li	t2,23
800034de:	3f5a                	.2byte	0x3f5a
800034e0:	63d8                	.2byte	0x63d8
800034e2:	3d22                	.2byte	0x3d22
800034e4:	5422                	lw	s0,40(sp)
800034e6:	3d69                	jal	80003380 <data+0x55c>
800034e8:	37b5                	jal	80003454 <data+0x630>
800034ea:	3f4c                	.2byte	0x3f4c
800034ec:	bd06                	.2byte	0xbd06
800034ee:	bb063f33          	.4byte	0xbb063f33
800034f2:	3f05                	jal	80003422 <data+0x5fe>
800034f4:	3db8                	.2byte	0x3db8
800034f6:	3f35                	jal	80003432 <data+0x60e>
800034f8:	3309                	jal	800031fa <data+0x3d6>
800034fa:	3efd                	jal	800030f8 <data+0x2d4>
800034fc:	6630                	.2byte	0x6630
800034fe:	f5233eab          	.4byte	0xf5233eab
80003502:	3e3e                	.2byte	0x3e3e
80003504:	e679                	bnez	a2,800035d2 <data+0x7ae>
80003506:	3e45                	jal	800030b6 <data+0x292>
80003508:	b6ae                	.2byte	0xb6ae
8000350a:	3f1e                	.2byte	0x3f1e
8000350c:	3e6121ab          	.4byte	0x3e6121ab
80003510:	3e8e63c7          	.4byte	0x3e8e63c7
80003514:	e172                	.2byte	0xe172
80003516:	3f28                	.2byte	0x3f28
80003518:	44aa                	lw	s1,136(sp)
8000351a:	3f75                	jal	800034d6 <data+0x6b2>
8000351c:	c52e                	sw	a1,136(sp)
8000351e:	3db5                	jal	8000339a <data+0x576>
80003520:	ea10                	.2byte	0xea10
80003522:	3f12                	.2byte	0x3f12
80003524:	b59e                	.2byte	0xb59e
80003526:	42dd3eeb          	.4byte	0x42dd3eeb
8000352a:	65903f17          	auipc	t5,0x65903
8000352e:	3d81                	jal	8000337e <data+0x55a>
80003530:	88f8                	.2byte	0x88f8
80003532:	3f34                	.2byte	0x3f34
80003534:	76cd                	lui	a3,0xffff3
80003536:	3e65                	jal	800030ee <data+0x2ca>
80003538:	90c5                	srli	s1,s1,0x31
8000353a:	3ec4                	.2byte	0x3ec4
8000353c:	fb98                	.2byte	0xfb98
8000353e:	3b64                	.2byte	0x3b64
80003540:	cec0                	sw	s0,28(a3)
80003542:	3f01                	jal	80003452 <data+0x62e>
80003544:	20bc                	.2byte	0x20bc
80003546:	3efa                	.2byte	0x3efa
80003548:	3f7805a3          	sb	s7,1003(a6) # 103eb <buflen.3+0x1036b>
8000354c:	3f73f4cb          	.4byte	0x3f73f4cb
80003550:	caac                	sw	a1,80(a3)
80003552:	3f7e                	.2byte	0x3f7e
80003554:	82e0                	.2byte	0x82e0
80003556:	3e7c                	.2byte	0x3e7c
80003558:	38a8                	.2byte	0x38a8
8000355a:	3f4e                	.2byte	0x3f4e
8000355c:	0e91                	addi	t4,t4,4
8000355e:	6bf43d0f          	.4byte	0x6bf43d0f
80003562:	705d3e9b          	.4byte	0x705d3e9b
80003566:	3f1a                	.2byte	0x3f1a
80003568:	3f3cadef          	jal	s11,800ce15a <__global_pointer$+0xc7c56>
8000356c:	7111                	addi	sp,sp,-256
8000356e:	5c293f53          	.4byte	0x5c293f53
80003572:	3e9f 1dcd 3e6d      	.byte	0x9f, 0x3e, 0xcd, 0x1d, 0x6d, 0x3e
80003578:	3e2490a3          	sh	sp,993(s1)
8000357c:	3efed6bb          	.4byte	0x3efed6bb
80003580:	3ed98223          	sb	a3,996(s3) # 93e4 <buflen.3+0x9364>
80003584:	3f47dac7          	.4byte	0x3f47dac7
80003588:	b3c8                	.2byte	0xb3c8
8000358a:	f2f53f37          	lui	t5,0xf2f53
8000358e:	78703f33          	.4byte	0x78703f33
80003592:	3ee1                	jal	8000316a <data+0x346>
80003594:	3f2cf883          	.4byte	0x3f2cf883
80003598:	3f4aab9b          	.4byte	0x3f4aab9b
8000359c:	91ff                	.2byte	0x91ff
8000359e:	3c69                	jal	80003038 <data+0x214>
800035a0:	4d49                	li	s10,18
800035a2:	dcf03e0b          	.4byte	0xdcf03e0b
800035a6:	97d03ec3          	.4byte	0x97d03ec3
800035aa:	3d9e                	.2byte	0x3d9e
800035ac:	5c3a                	lw	s8,172(sp)
800035ae:	4c2b3f57          	.4byte	0x4c2b3f57
800035b2:	36b93f1b          	.4byte	0x36b93f1b
800035b6:	3eec                	.2byte	0x3eec
800035b8:	4135                	li	sp,13
800035ba:	3f58                	.2byte	0x3f58
800035bc:	d75a                	sw	s6,172(sp)
800035be:	3de8                	.2byte	0x3de8
800035c0:	3f732bcb          	.4byte	0x3f732bcb
800035c4:	46d8                	lw	a4,12(a3)
800035c6:	3f50                	.2byte	0x3f50
800035c8:	3d887db3          	.4byte	0x3d887db3
800035cc:	f666                	.2byte	0xf666
800035ce:	3f71                	jal	8000356a <data+0x746>
800035d0:	3d767903          	.4byte	0x3d767903
800035d4:	485e                	lw	a6,212(sp)
800035d6:	3f5f e74f 3f7a      	.byte	0x5f, 0x3f, 0x4f, 0xe7, 0x7a, 0x3f
800035dc:	3b36                	.2byte	0x3b36
800035de:	3eba                	.2byte	0x3eba
800035e0:	7176                	.2byte	0x7176
800035e2:	953e3ef3          	csrrc	t4,0x953,t3
800035e6:	3ab03f37          	lui	t5,0x3ab03
800035ea:	3e42                	.2byte	0x3e42
800035ec:	66e0                	.2byte	0x66e0
800035ee:	3f49                	jal	80003580 <data+0x75c>
800035f0:	dcb1                	beqz	s1,8000354c <data+0x728>
800035f2:	3f72                	.2byte	0x3f72
800035f4:	6588                	.2byte	0x6588
800035f6:	a47b3eb3          	.4byte	0xa47b3eb3
800035fa:	3e91                	jal	8000314e <data+0x32a>
800035fc:	3b86                	.2byte	0x3b86
800035fe:	362a3ebf 05683e06 	.8byte	0x5683e06362a3ebf
80003606:	3b06                	.2byte	0x3b06
80003608:	85c2                	mv	a1,a6
8000360a:	3d9c                	.2byte	0x3d9c
8000360c:	3f1249c3          	.4byte	0x3f1249c3
80003610:	7e89                	lui	t4,0xfffe2
80003612:	3f2d                	jal	8000354c <data+0x728>
80003614:	3f5e3c53          	.4byte	0x3f5e3c53
80003618:	3f15f00b          	.4byte	0x3f15f00b
8000361c:	3f5051db          	.4byte	0x3f5051db
80003620:	3e805597          	auipc	a1,0x3e805
80003624:	c305                	beqz	a4,80003644 <data+0x820>
80003626:	3f29                	jal	80003540 <data+0x71c>
80003628:	ae14                	.2byte	0xae14
8000362a:	76f73f27          	.4byte	0x76f73f27
8000362e:	f3913f5b          	.4byte	0xf3913f5b
80003632:	3dfe                	.2byte	0x3dfe
80003634:	deb5                	beqz	a3,800035b0 <data+0x78c>
80003636:	3eff                	.2byte	0x3eff
80003638:	91e2                	add	gp,gp,s8
8000363a:	3f78                	.2byte	0x3f78
8000363c:	5165                	li	sp,-7
8000363e:	3d98                	.2byte	0x3d98
80003640:	6c44                	.2byte	0x6c44
80003642:	3ea0                	.2byte	0x3ea0
80003644:	3d1a1987          	.4byte	0x3d1a1987
80003648:	125a                	slli	tp,tp,0x36
8000364a:	3ca0                	.2byte	0x3ca0
8000364c:	3b86                	.2byte	0x3b86
8000364e:	e9f73ebf e7e23f68 	.8byte	0xe7e23f68e9f73ebf
80003656:	3f7f                	.2byte	0x3f7f
80003658:	bb5e                	.2byte	0xbb5e
8000365a:	3f3c                	.2byte	0x3f3c
8000365c:	3ec54563          	blt	a0,a2,80003a46 <data+0xc22>
80003660:	7d20                	.2byte	0x7d20
80003662:	49f93f37          	lui	t5,0x49f93
80003666:	3f6d                	jal	80003620 <data+0x7fc>
80003668:	2646                	.2byte	0x2646
8000366a:	3e30                	.2byte	0x3e30
8000366c:	59d1                	li	s3,-12
8000366e:	3f2a                	.2byte	0x3f2a
80003670:	3e8df97b          	.4byte	0x3e8df97b
80003674:	b77c                	.2byte	0xb77c
80003676:	3ee9                	jal	80003250 <data+0x42c>
80003678:	7942                	.2byte	0x7942
8000367a:	3d1f 14b1 3ed1      	.byte	0x1f, 0x3d, 0xb1, 0x14, 0xd1, 0x3e
80003680:	c3a8                	sw	a0,64(a5)
80003682:	3eea                	.2byte	0x3eea
80003684:	3dec4263          	blt	s8,t5,80003a48 <data+0xc24>
80003688:	3f7ad41b          	.4byte	0x3f7ad41b
8000368c:	3e0b8173          	.4byte	0x3e0b8173
80003690:	3f7bc48f          	.4byte	0x3f7bc48f
80003694:	3f10c437          	lui	s0,0x3f10c
80003698:	3238                	.2byte	0x3238
8000369a:	bd6a3f73          	csrrc	t5,0xbd6,s4
8000369e:	1cef3e6f          	jal	t3,800f686c <__global_pointer$+0xf0368>
800036a2:	3e6a                	.2byte	0x3e6a
800036a4:	e04c                	.2byte	0xe04c
800036a6:	3f1a                	.2byte	0x3f1a
800036a8:	3205                	jal	80002fc8 <data+0x1a4>
800036aa:	cb3a3dbb          	.4byte	0xcb3a3dbb
800036ae:	3eb4                	.2byte	0x3eb4
800036b0:	7d35                	lui	s10,0xfffed
800036b2:	3dd6                	.2byte	0x3dd6
800036b4:	822c                	.2byte	0x822c
800036b6:	3d7f                	.2byte	0x3d7f
800036b8:	3edadf93          	.4byte	0x3edadf93
800036bc:	0b91                	addi	s7,s7,4
800036be:	3ed6                	.2byte	0x3ed6
800036c0:	cdd9                	beqz	a1,8000375e <data+0x93a>
800036c2:	3dcc                	.2byte	0x3dcc
800036c4:	3ee4e0db          	.4byte	0x3ee4e0db
800036c8:	a38c                	.2byte	0xa38c
800036ca:	3f4a                	.2byte	0x3f4a
800036cc:	e842                	.2byte	0xe842
800036ce:	3c20                	.2byte	0x3c20
800036d0:	b09f 3ee4 5ed9      	.byte	0x9f, 0xb0, 0xe4, 0x3e, 0xd9, 0x5e
800036d6:	4ca53f07          	.4byte	0x4ca53f07
800036da:	3eca                	.2byte	0x3eca
800036dc:	55bd                	li	a1,-17
800036de:	51c63e27          	.4byte	0x51c63e27
800036e2:	3ee9                	jal	800032bc <data+0x498>
800036e4:	2fe4                	.2byte	0x2fe4
800036e6:	3f11                	jal	800035fa <data+0x7d6>
800036e8:	2f40                	.2byte	0x2f40
800036ea:	3f54                	.2byte	0x3f54
800036ec:	a5a0                	.2byte	0xa5a0
800036ee:	743f3f3b          	.4byte	0x743f3f3b
800036f2:	3cc1                	jal	800031c2 <data+0x39e>
800036f4:	26d5                	jal	80003ad8 <data+0xcb4>
800036f6:	3f5e                	.2byte	0x3f5e
800036f8:	bfe4                	.2byte	0xbfe4
800036fa:	3e10                	.2byte	0x3e10
800036fc:	daec                	sw	a1,116(a3)
800036fe:	3ef6                	.2byte	0x3ef6
80003700:	af21                	j	80003e18 <data+0xff4>
80003702:	20a33f7b          	.4byte	0x20a33f7b
80003706:	3df8                	.2byte	0x3df8
80003708:	3f1e4dd3          	.4byte	0x3f1e4dd3
8000370c:	73b0                	.2byte	0x73b0
8000370e:	c84b3f77          	.4byte	0xc84b3f77
80003712:	7ffa3f2f          	.4byte	0x7ffa3f2f
80003716:	3f11                	jal	8000362a <data+0x806>
80003718:	8c2a                	mv	s8,a0
8000371a:	3e4d                	jal	800032cc <data+0x4a8>
8000371c:	3f6a4f87          	.4byte	0x3f6a4f87
80003720:	815a                	mv	sp,s6
80003722:	3e31                	jal	8000323e <data+0x41a>
80003724:	9296                	add	t0,t0,t0
80003726:	3e95                	jal	8000329a <data+0x476>
80003728:	6a48                	.2byte	0x6a48
8000372a:	3e89                	jal	8000327c <data+0x458>
8000372c:	5fd9                	li	t6,-10
8000372e:	3e8e                	.2byte	0x3e8e
80003730:	82dc                	.2byte	0x82dc
80003732:	3eb5                	jal	800032ae <data+0x48a>
80003734:	24ee                	.2byte	0x24ee
80003736:	3f32                	.2byte	0x3f32
80003738:	35b5                	jal	800035a4 <data+0x780>
8000373a:	3f32                	.2byte	0x3f32
8000373c:	b652                	.2byte	0xb652
8000373e:	3ee8                	.2byte	0x3ee8
80003740:	556d                	li	a0,-5
80003742:	3e12                	.2byte	0x3e12
80003744:	b281                	j	80003084 <data+0x260>
80003746:	3ef9                	jal	80003324 <data+0x500>
80003748:	bd94                	.2byte	0xbd94
8000374a:	3eed                	jal	80003344 <data+0x520>
8000374c:	3f16edab          	.4byte	0x3f16edab
80003750:	0542                	slli	a0,a0,0x10
80003752:	052d3c87          	.4byte	0x52d3c87
80003756:	3f5c                	.2byte	0x3f5c
80003758:	3f40c32b          	.4byte	0x3f40c32b
8000375c:	c21a                	sw	t1,4(sp)
8000375e:	3ef1                	jal	8000333a <data+0x516>
80003760:	6a01                	.2byte	0x6a01
80003762:	3eda                	.2byte	0x3eda
80003764:	3f14f26b          	.4byte	0x3f14f26b
80003768:	1ab5                	addi	s5,s5,-19
8000376a:	3e52                	.2byte	0x3e52
8000376c:	3ee68167          	jalr	sp,1006(a3) # ffff33ee <__global_pointer$+0x7ffeceea>
80003770:	327f                	.2byte	0x327f
80003772:	3ee6                	.2byte	0x3ee6
80003774:	6d4c                	.2byte	0x6d4c
80003776:	3eb1                	jal	800032d2 <data+0x4ae>
80003778:	ae19                	j	80003a8e <data+0xc6a>
8000377a:	3f6e                	.2byte	0x3f6e
8000377c:	90c1                	srli	s1,s1,0x30
8000377e:	3edd                	jal	80003374 <data+0x550>
80003780:	7575                	lui	a0,0xffffd
80003782:	fbec3eef          	jal	t4,7ffc6f40 <buflen.3+0x7ffc6ec0>
80003786:	3f0c                	.2byte	0x3f0c
80003788:	77ff                	.2byte	0x77ff
8000378a:	3ecc                	.2byte	0x3ecc
8000378c:	3e1e0c17          	auipc	s8,0x3e1e0
80003790:	dfb1                	beqz	a5,800036ec <data+0x8c8>
80003792:	9f0a3df3          	csrrc	s11,0x9f0,s4
80003796:	3f19                	jal	800036ac <data+0x888>
80003798:	93e2                	add	t2,t2,s8
8000379a:	3d8e                	.2byte	0x3d8e
8000379c:	b878                	.2byte	0xb878
8000379e:	3e95                	jal	80003312 <data+0x4ee>
800037a0:	6866                	.2byte	0x6866
800037a2:	3f64                	.2byte	0x3f64
800037a4:	0f41                	addi	t5,t5,16 # 49f93010 <buflen.3+0x49f92f90>
800037a6:	3ead                	jal	80003320 <data+0x4fc>
800037a8:	0c39                	addi	s8,s8,14 # be1e379a <__global_pointer$+0x3e1dd296>
800037aa:	3f12                	.2byte	0x3f12
800037ac:	a750                	.2byte	0xa750
800037ae:	3e7c                	.2byte	0x3e7c
800037b0:	3d0ac8e7          	.4byte	0x3d0ac8e7
800037b4:	83dc                	.2byte	0x83dc
800037b6:	3e88                	.2byte	0x3e88
800037b8:	84fd                	srai	s1,s1,0x1f
800037ba:	07a73f33          	.4byte	0x7a73f33
800037be:	3e35                	jal	800032fa <data+0x4d6>
800037c0:	3f411b3f 3e298f60 	.8byte	0x3e298f603f411b3f
800037c8:	2fa5                	jal	80003f40 <data+0x111c>
800037ca:	3f44                	.2byte	0x3f44
800037cc:	5369                	li	t1,-6
800037ce:	3f45                	jal	8000377e <data+0x95a>
800037d0:	3ccd1e97          	auipc	t4,0x3ccd1
800037d4:	3f04f2bf 3e78d196 	.8byte	0x3e78d1963f04f2bf
800037dc:	3ee73beb          	.4byte	0x3ee73beb
800037e0:	294e                	.2byte	0x294e
800037e2:	76253dcf          	.4byte	0x76253dcf
800037e6:	3ee5                	jal	800033de <data+0x5ba>
800037e8:	dea9                	beqz	a3,80003742 <data+0x91e>
800037ea:	3f66                	.2byte	0x3f66
800037ec:	fe69                	bnez	a2,800037c6 <data+0x9a2>
800037ee:	3f0c                	.2byte	0x3f0c
800037f0:	71a8                	.2byte	0x71a8
800037f2:	8cc13f4b          	.4byte	0x8cc13f4b
800037f6:	3f55                	jal	800037aa <data+0x986>
800037f8:	c6c9                	beqz	a3,80003882 <data+0xa5e>
800037fa:	58c53f7b          	.4byte	0x58c53f7b
800037fe:	3e86                	.2byte	0x3e86
80003800:	3ec5117b          	.4byte	0x3ec5117b
80003804:	0592                	slli	a1,a1,0x4
80003806:	3ec4                	.2byte	0x3ec4
80003808:	5ed0                	lw	a2,60(a3)
8000380a:	3ed5                	jal	800033fe <data+0x5da>
8000380c:	3f0104a3          	sb	a6,1001(sp)
80003810:	3f7ba1d3          	.4byte	0x3f7ba1d3
80003814:	03c9                	addi	t2,t2,18
80003816:	3ef9                	jal	800033f4 <data+0x5d0>
80003818:	e0f0                	.2byte	0xe0f0
8000381a:	0a393f4b          	.4byte	0xa393f4b
8000381e:	3f60                	.2byte	0x3f60
80003820:	0985                	addi	s3,s3,1
80003822:	da303f53          	.4byte	0xda303f53
80003826:	a06a3ebb          	.4byte	0xa06a3ebb
8000382a:	3df9                	jal	80003708 <data+0x8e4>
8000382c:	3f5bb613          	sltiu	a2,s7,1013
80003830:	2f06                	.2byte	0x2f06
80003832:	3f22                	.2byte	0x3f22
80003834:	b90a                	.2byte	0xb90a
80003836:	3f52                	.2byte	0x3f52
80003838:	80dc                	.2byte	0x80dc
8000383a:	948a3d0f          	.4byte	0x948a3d0f
8000383e:	3ec6                	.2byte	0x3ec6
80003840:	3f7d1ce3          	bne	s10,s7,80004438 <data+0x1614>
80003844:	27a2                	.2byte	0x27a2
80003846:	3f4d                	jal	800037f8 <data+0x9d4>
80003848:	7675                	lui	a2,0xffffd
8000384a:	3e22                	.2byte	0x3e22
8000384c:	75d1                	lui	a1,0xffff4
8000384e:	3c61                	jal	800032e6 <data+0x4c2>
80003850:	34c2                	.2byte	0x34c2
80003852:	3ea4                	.2byte	0x3ea4
80003854:	3ecda427          	.4byte	0x3ecda427
80003858:	4799                	li	a5,6
8000385a:	3eee                	.2byte	0x3eee
8000385c:	3ed7ff37          	lui	t5,0x3ed7f
80003860:	8d15                	sub	a0,a0,a3
80003862:	3f59                	jal	800037f8 <data+0x9d4>
80003864:	04ea                	slli	s1,s1,0x1a
80003866:	3ebc                	.2byte	0x3ebc
80003868:	fe04                	.2byte	0xfe04
8000386a:	3f78                	.2byte	0x3f78
8000386c:	fece                	.2byte	0xfece
8000386e:	3f24                	.2byte	0x3f24
80003870:	3cda                	.2byte	0x3cda
80003872:	3e4e                	.2byte	0x3e4e
80003874:	c4bd                	beqz	s1,800038e2 <data+0xabe>
80003876:	3f74                	.2byte	0x3f74
80003878:	2b30                	.2byte	0x2b30
8000387a:	3f68                	.2byte	0x3f68
8000387c:	17f4                	addi	a3,sp,1004
8000387e:	3f16                	.2byte	0x3f16
80003880:	8f0c                	.2byte	0x8f0c
80003882:	3ead                	jal	800033fc <data+0x5d8>
80003884:	b531                	j	80003690 <data+0x86c>
80003886:	3ea5                	jal	800033fe <data+0x5da>
80003888:	e4b8                	.2byte	0xe4b8
8000388a:	3db8                	.2byte	0x3db8
8000388c:	d2d4                	sw	a3,36(a3)
8000388e:	3ea4                	.2byte	0x3ea4
80003890:	5c7d                	li	s8,-1
80003892:	fd873f4f          	.4byte	0xfd873f4f
80003896:	3f62                	.2byte	0x3f62
80003898:	ce8e                	sw	gp,92(sp)
8000389a:	3e49                	jal	8000342c <data+0x608>
8000389c:	6602                	.2byte	0x6602
8000389e:	3f22                	.2byte	0x3f22
800038a0:	d53d                	beqz	a0,8000380e <data+0x9ea>
800038a2:	3e81                	jal	800033f2 <data+0x5ce>
800038a4:	4f61                	li	t5,24
800038a6:	382a3ea3          	.4byte	0x382a3ea3
800038aa:	3efc                	.2byte	0x3efc
800038ac:	19a4                	addi	s1,sp,248
800038ae:	82ed3f63          	.4byte	0x82ed3f63
800038b2:	3e11                	jal	800033c6 <data+0x5a2>
800038b4:	1412                	slli	s0,s0,0x24
800038b6:	c7d23f07          	.4byte	0xc7d23f07
800038ba:	3e8c                	.2byte	0x3e8c
800038bc:	f634                	.2byte	0xf634
800038be:	3e05                	jal	800033ee <data+0x5ca>
800038c0:	778a                	.2byte	0x778a
800038c2:	3ea8                	.2byte	0x3ea8
800038c4:	032e                	slli	t1,t1,0xb
800038c6:	3ede                	.2byte	0x3ede
800038c8:	0d91                	addi	s11,s11,4
800038ca:	3e14                	.2byte	0x3e14
800038cc:	5626                	lw	a2,104(sp)
800038ce:	3f26                	.2byte	0x3f26
800038d0:	d399                	beqz	a5,800037d6 <data+0x9b2>
800038d2:	3f55                	jal	80003886 <data+0xa62>
800038d4:	2731                	jal	80003fe0 <data+0x11bc>
800038d6:	3f1c                	.2byte	0x3f1c
800038d8:	ae08                	.2byte	0xae08
800038da:	3d92                	.2byte	0x3d92
800038dc:	3f2f60bf 3f7a29a6 	.8byte	0x3f7a29a63f2f60bf
800038e4:	3d353b4b          	.4byte	0x3d353b4b
800038e8:	bef9                	j	800034c6 <data+0x6a2>
800038ea:	3ea8                	.2byte	0x3ea8
800038ec:	e3b4                	.2byte	0xe3b4
800038ee:	3e36                	.2byte	0x3e36
800038f0:	156e                	slli	a0,a0,0x3b
800038f2:	39c4                	.2byte	0x39c4
800038f4:	2ab2                	.2byte	0x2ab2
800038f6:	3e72                	.2byte	0x3e72
800038f8:	d0e1                	beqz	s1,800038b8 <data+0xa94>
800038fa:	c0123f43          	.4byte	0xc0123f43
800038fe:	3ead                	jal	80003478 <data+0x654>
80003900:	6545                	lui	a0,0x11
80003902:	ed783f0f          	.4byte	0xed783f0f
80003906:	3f5a                	.2byte	0x3f5a
80003908:	3f294973          	.4byte	0x3f294973
8000390c:	8384                	.2byte	0x8384
8000390e:	3ebd                	jal	8000348c <data+0x668>
80003910:	eaff                	.2byte	0xeaff
80003912:	3f3d                	jal	80003850 <data+0xa2c>
80003914:	bd16                	.2byte	0xbd16
80003916:	e1ca3f5b          	.4byte	0xe1ca3f5b
8000391a:	d59d3b93          	sltiu	s7,s10,-679
8000391e:	3f7e                	.2byte	0x3f7e
80003920:	92da                	add	t0,t0,s6
80003922:	3e35                	jal	8000345e <data+0x63a>
80003924:	87b1                	srai	a5,a5,0xc
80003926:	3efe                	.2byte	0x3efe
80003928:	ef52                	.2byte	0xef52
8000392a:	3f61                	jal	800038c2 <data+0xa9e>
8000392c:	3ea38ae3          	beq	t2,a0,80004520 <data+0x16fc>
80003930:	fd54                	.2byte	0xfd54
80003932:	3cca                	.2byte	0x3cca
80003934:	4cec                	lw	a1,92(s1)
80003936:	3e21                	jal	8000344e <data+0x62a>
80003938:	85fd                	srai	a1,a1,0x1f
8000393a:	3ee6                	.2byte	0x3ee6
8000393c:	275f 3eb5 54d2      	.byte	0x5f, 0x27, 0xb5, 0x3e, 0xd2, 0x54
80003942:	46743f17          	auipc	t5,0x46743
80003946:	3f18                	.2byte	0x3f18
80003948:	3b69d51b          	.4byte	0x3b69d51b
8000394c:	50f8                	lw	a4,100(s1)
8000394e:	3eda                	.2byte	0x3eda
80003950:	b691                	j	80003494 <data+0x670>
80003952:	3e51                	jal	800034e6 <data+0x6c2>
80003954:	3d99fc2b          	.4byte	0x3d99fc2b
80003958:	4956                	lw	s2,84(sp)
8000395a:	3de4                	.2byte	0x3de4
8000395c:	5d29                	li	s10,-22
8000395e:	3e3a                	.2byte	0x3e3a
80003960:	9a56                	add	s4,s4,s5
80003962:	3df4                	.2byte	0x3df4
80003964:	d170                	sw	a2,100(a0)
80003966:	3ee1                	jal	8000353e <data+0x71a>
80003968:	3eb8a06f          	j	8008e552 <__global_pointer$+0x8804e>
8000396c:	5e6c                	lw	a1,124(a2)
8000396e:	3df5                	jal	8000386a <data+0xa46>
80003970:	7364                	.2byte	0x7364
80003972:	3f2d                	jal	800038ac <data+0xa88>
80003974:	8462                	mv	s0,s8
80003976:	3e00                	.2byte	0x3e00
80003978:	17ad                	addi	a5,a5,-21
8000397a:	62a63eeb          	.4byte	0x62a63eeb
8000397e:	0ea23e73          	csrrc	t3,0xea,tp
80003982:	aa4c3f7b          	.4byte	0xaa4c3f7b
80003986:	3df6                	.2byte	0x3df6
80003988:	9a7c                	.2byte	0x9a7c
8000398a:	f9a03f1b          	.4byte	0xf9a03f1b
8000398e:	3f38                	.2byte	0x3f38
80003990:	3f7a924f          	.4byte	0x3f7a924f
80003994:	3f1cc22f          	.4byte	0x3f1cc22f
80003998:	cf3e                	sw	a5,156(sp)
8000399a:	dc163f37          	lui	t5,0xdc163
8000399e:	3e1f 303c 3de0      	.byte	0x1f, 0x3e, 0x3c, 0x30, 0xe0, 0x3d
800039a4:	be90                	.2byte	0xbe90
800039a6:	3f19                	jal	800038bc <data+0xa98>
800039a8:	78ee                	.2byte	0x78ee
800039aa:	77c93ef3          	csrrc	t4,0x77c,s2
800039ae:	3e09                	jal	800034c0 <data+0x69c>
800039b0:	11dc                	addi	a5,sp,228
800039b2:	3f42                	.2byte	0x3f42
800039b4:	ff86                	.2byte	0xff86
800039b6:	3f6c                	.2byte	0x3f6c
800039b8:	3ef9e343          	.4byte	0x3ef9e343
800039bc:	3eb2cd5b          	.4byte	0x3eb2cd5b
800039c0:	45e9                	li	a1,26
800039c2:	3f05                	jal	800038f2 <data+0xace>
800039c4:	b6ed                	j	800035ae <data+0x78a>
800039c6:	8f193efb          	.4byte	0x8f193efb
800039ca:	3f46                	.2byte	0x3f46
800039cc:	b38d                	j	8000372e <data+0x90a>
800039ce:	3f39                	jal	800038ec <data+0xac8>
800039d0:	1afc                	addi	a5,sp,380
800039d2:	3f11                	jal	800038e6 <data+0xac2>
800039d4:	1855                	addi	a6,a6,-11
800039d6:	4ae83f63          	.4byte	0x4ae83f63
800039da:	3f68                	.2byte	0x3f68
800039dc:	3f2fae47          	.4byte	0x3f2fae47
800039e0:	3ea801f7          	.4byte	0x3ea801f7
800039e4:	3e89363f 3f4e5a04 	.8byte	0x3f4e5a043e89363f
800039ec:	3876                	.2byte	0x3876
800039ee:	3bba                	.2byte	0x3bba
800039f0:	7870                	.2byte	0x7870
800039f2:	3ec9                	jal	800035c4 <data+0x7a0>
800039f4:	cbb4                	sw	a3,80(a5)
800039f6:	346a3e87          	.4byte	0x346a3e87
800039fa:	3e79                	jal	80003598 <data+0x774>
800039fc:	3ebf95b3          	.4byte	0x3ebf95b3
80003a00:	3ec57647          	.4byte	0x3ec57647
80003a04:	e786                	.2byte	0xe786
80003a06:	3f59                	jal	8000399c <data+0xb78>
80003a08:	3dc6234b          	.4byte	0x3dc6234b
80003a0c:	9ae5                	andi	a3,a3,-7
80003a0e:	3eba                	.2byte	0x3eba
80003a10:	3eed538b          	.4byte	0x3eed538b
80003a14:	93b8                	.2byte	0x93b8
80003a16:	3f50                	.2byte	0x3f50
80003a18:	4478                	lw	a4,76(s0)
80003a1a:	3f05                	jal	8000394a <data+0xb26>
80003a1c:	afcd                	j	8000420e <data+0x13ea>
80003a1e:	3f12                	.2byte	0x3f12
80003a20:	a490                	.2byte	0xa490
80003a22:	3ed4                	.2byte	0x3ed4
80003a24:	3f7f00ef          	jal	ra,800f461a <__global_pointer$+0xee116>
80003a28:	3f350dbf 3e31904b 	.8byte	0x3e31904b3f350dbf
80003a30:	0075                	c.nop	29
80003a32:	3f6c                	.2byte	0x3f6c
80003a34:	fd82                	.2byte	0xfd82
80003a36:	cac13e47          	.4byte	0xcac13e47
80003a3a:	3f05                	jal	8000396a <data+0xb46>
80003a3c:	8cbd                	xor	s1,s1,a5
80003a3e:	3ee2                	.2byte	0x3ee2
80003a40:	3f2fdad7          	.4byte	0x3f2fdad7
80003a44:	b3d5                	j	80003828 <data+0xa04>
80003a46:	3e98                	.2byte	0x3e98
80003a48:	e7b0                	.2byte	0xe7b0
80003a4a:	eba73e2b          	.4byte	0xeba73e2b
80003a4e:	3e81                	jal	8000359e <data+0x77a>
80003a50:	c8b8                	sw	a4,80(s1)
80003a52:	3e3d                	jal	80003590 <data+0x76c>
80003a54:	26a2                	.2byte	0x26a2
80003a56:	3d9a                	.2byte	0x3d9a
80003a58:	a41a                	.2byte	0xa41a
80003a5a:	3f70                	.2byte	0x3f70
80003a5c:	3f03733b          	.4byte	0x3f03733b
80003a60:	bfc6                	.2byte	0xbfc6
80003a62:	fe1e3eaf          	.4byte	0xfe1e3eaf
80003a66:	3f3e                	.2byte	0x3f3e
80003a68:	3f04e79b          	.4byte	0x3f04e79b
80003a6c:	3f3c9c1b          	.4byte	0x3f3c9c1b
80003a70:	3c38fde3          	bgeu	a7,gp,8000464a <data+0x1826>
80003a74:	34b5                	jal	800034e0 <data+0x6bc>
80003a76:	37a83f43          	.4byte	0x37a83f43
80003a7a:	3e363de3          	.4byte	0x3e363de3
80003a7e:	1c4c3ecb          	.4byte	0x1c4c3ecb
80003a82:	3f1d                	jal	800039b8 <data+0xb94>
80003a84:	ad79                	j	80004122 <data+0x12fe>
80003a86:	3e54                	.2byte	0x3e54
80003a88:	ec8d                	bnez	s1,80003ac2 <data+0xc9e>
80003a8a:	3f42                	.2byte	0x3f42
80003a8c:	3001                	jal	8000328c <data+0x468>
80003a8e:	3d9e                	.2byte	0x3d9e
80003a90:	e2c5                	bnez	a3,80003b30 <data+0xd0c>
80003a92:	620b3cb7          	lui	s9,0x620b3
80003a96:	3e90                	.2byte	0x3e90
80003a98:	75cd                	lui	a1,0xffff3
80003a9a:	3f26                	.2byte	0x3f26
80003a9c:	22bc                	.2byte	0x22bc
80003a9e:	3ee0                	.2byte	0x3ee0
80003aa0:	63e9                	lui	t2,0x1a
80003aa2:	3e8e                	.2byte	0x3e8e
80003aa4:	073a                	slli	a4,a4,0xe
80003aa6:	75713eb7          	lui	t4,0x75713
80003aaa:	3f1c                	.2byte	0x3f1c
80003aac:	3e4cc9a7          	.4byte	0x3e4cc9a7
80003ab0:	82fd                	srli	a3,a3,0x1f
80003ab2:	3f0d                	jal	800039e4 <data+0xbc0>
80003ab4:	0108                	addi	a0,sp,128
80003ab6:	3e09                	jal	800035c8 <data+0x7a4>
80003ab8:	78c8                	.2byte	0x78c8
80003aba:	3f24                	.2byte	0x3f24
80003abc:	7710                	.2byte	0x7710
80003abe:	3e75                	jal	8000367a <data+0x856>
80003ac0:	3edd3437          	lui	s0,0x3edd3
80003ac4:	72b4                	.2byte	0x72b4
80003ac6:	a72f3f4f          	.4byte	0xa72f3f4f
80003aca:	3efc                	.2byte	0x3efc
80003acc:	3f1e0c5b          	.4byte	0x3f1e0c5b
80003ad0:	b789                	j	80003a12 <data+0xbee>
80003ad2:	3f62                	.2byte	0x3f62
80003ad4:	3eddef63          	bltu	s11,a3,80003ed2 <data+0x10ae>
80003ad8:	fe11                	bnez	a2,800039f4 <data+0xbd0>
80003ada:	3e05                	jal	8000360a <data+0x7e6>
80003adc:	5df2                	lw	s11,60(sp)
80003ade:	3e6a                	.2byte	0x3e6a
80003ae0:	d73d                	beqz	a4,80003a4e <data+0xc2a>
80003ae2:	67303e37          	lui	t3,0x67303
80003ae6:	3f26                	.2byte	0x3f26
80003ae8:	3398                	.2byte	0x3398
80003aea:	671b3f77          	.4byte	0x671b3f77
80003aee:	37ca3e43          	.4byte	0x37ca3e43
80003af2:	d4673ed3          	.4byte	0xd4673ed3
80003af6:	3d9c                	.2byte	0x3d9c
80003af8:	78e2                	.2byte	0x78e2
80003afa:	3f16                	.2byte	0x3f16
80003afc:	3cd703f3          	.4byte	0x3cd703f3
80003b00:	8bd6                	mv	s7,s5
80003b02:	3e91                	jal	80003656 <data+0x832>
80003b04:	cade                	sw	s7,84(sp)
80003b06:	3eb2                	.2byte	0x3eb2
80003b08:	f184                	.2byte	0xf184
80003b0a:	0a033dd3          	.4byte	0xa033dd3
80003b0e:	3e9d                	jal	80003684 <data+0x860>
80003b10:	9664                	.2byte	0x9664
80003b12:	3f21                	jal	80003a2a <data+0xc06>
80003b14:	f3fe                	.2byte	0xf3fe
80003b16:	3f40                	.2byte	0x3f40
80003b18:	965f 3f3e c858      	.byte	0x5f, 0x96, 0x3e, 0x3f, 0x58, 0xc8
80003b1e:	3f68                	.2byte	0x3f68
80003b20:	3de3bcd3          	.4byte	0x3de3bcd3
80003b24:	17c2                	slli	a5,a5,0x30
80003b26:	3eb6                	.2byte	0x3eb6
80003b28:	3ddfd60f          	.4byte	0x3ddfd60f
80003b2c:	fa98                	.2byte	0xfa98
80003b2e:	3f29                	jal	80003a48 <data+0xc24>
80003b30:	9824                	.2byte	0x9824
80003b32:	3efa                	.2byte	0x3efa
80003b34:	738a                	.2byte	0x738a
80003b36:	3f40                	.2byte	0x3f40
80003b38:	585c                	lw	a5,52(s0)
80003b3a:	e63f3f67          	.4byte	0xe63f3f67
80003b3e:	e63f3f6b          	.4byte	0xe63f3f6b
80003b42:	57e63f0f          	.4byte	0x57e63f0f
80003b46:	f2883ecb          	.4byte	0xf2883ecb
80003b4a:	3f09                	jal	80003a5c <data+0xc38>
80003b4c:	3b8e                	.2byte	0x3b8e
80003b4e:	3ee5                	jal	80003746 <data+0x922>
80003b50:	a3a5                	j	800040b8 <data+0x1294>
80003b52:	3f54                	.2byte	0x3f54
80003b54:	721d                	lui	tp,0xfffe7
80003b56:	35443f2b          	.4byte	0x35443f2b
80003b5a:	3f2d                	jal	80003a94 <data+0xc70>
80003b5c:	5cf6                	lw	s9,124(sp)
80003b5e:	3c26                	.2byte	0x3c26
80003b60:	b279                	j	800034ee <data+0x6ca>
80003b62:	68dc3ea3          	.4byte	0x68dc3ea3
80003b66:	3f24                	.2byte	0x3f24
80003b68:	cd2d                	beqz	a0,80003be2 <data+0xdbe>
80003b6a:	3e4d                	jal	8000371c <data+0x8f8>
80003b6c:	7521                	lui	a0,0xfffe8
80003b6e:	03683f3b          	.4byte	0x3683f3b
80003b72:	3f38                	.2byte	0x3f38
80003b74:	ec2d                	bnez	s0,80003bee <data+0xdca>
80003b76:	3f49                	jal	80003b08 <data+0xce4>
80003b78:	2d41                	jal	80004208 <data+0x13e4>
80003b7a:	3f42                	.2byte	0x3f42
80003b7c:	539c                	lw	a5,32(a5)
80003b7e:	3b49                	jal	80003910 <data+0xaec>
80003b80:	3e0d466f          	jal	a2,800d7f60 <__global_pointer$+0xd1a5c>
80003b84:	ab71                	j	80004120 <data+0x12fc>
80003b86:	3f5c                	.2byte	0x3f5c
80003b88:	3e9e9ccb          	.4byte	0x3e9e9ccb
80003b8c:	e7ff                	.2byte	0xe7ff
80003b8e:	3f44                	.2byte	0x3f44
80003b90:	9f80                	.2byte	0x9f80
80003b92:	3f1d                	jal	80003ac8 <data+0xca4>
80003b94:	4c51                	li	s8,20
80003b96:	3d5e                	.2byte	0x3d5e
80003b98:	b068                	.2byte	0xb068
80003b9a:	3f2d                	jal	80003ad4 <data+0xcb0>
80003b9c:	171a                	slli	a4,a4,0x26
80003b9e:	3f3a                	.2byte	0x3f3a
80003ba0:	e14c                	.2byte	0xe14c
80003ba2:	3ed1                	jal	80003776 <data+0x952>
80003ba4:	ab2a                	.2byte	0xab2a
80003ba6:	3f49                	jal	80003b38 <data+0xd14>
80003ba8:	2342                	.2byte	0x2342
80003baa:	3ec8                	.2byte	0x3ec8
80003bac:	3cb8                	.2byte	0x3cb8
80003bae:	3f66                	.2byte	0x3f66
80003bb0:	1eb4                	addi	a3,sp,888
80003bb2:	3f0a                	.2byte	0x3f0a
80003bb4:	d3fa                	sw	t5,228(sp)
80003bb6:	3e96                	.2byte	0x3e96
80003bb8:	3f5222f7          	.4byte	0x3f5222f7
80003bbc:	2795                	jal	80004320 <data+0x14fc>
80003bbe:	3dd0                	.2byte	0x3dd0
80003bc0:	15f0                	addi	a2,sp,748
80003bc2:	3f31                	jal	80003ade <data+0xcba>
80003bc4:	2afe                	.2byte	0x2afe
80003bc6:	3eb8                	.2byte	0x3eb8
80003bc8:	3f0ca2cb          	.4byte	0x3f0ca2cb
80003bcc:	b995                	j	80003840 <data+0xa1c>
80003bce:	3f05                	jal	80003afe <data+0xcda>
80003bd0:	f388                	.2byte	0xf388
80003bd2:	3cf0                	.2byte	0x3cf0
80003bd4:	6039                	c.lui	zero,0xe
80003bd6:	53093e67          	.4byte	0x53093e67
80003bda:	3f08                	.2byte	0x3f08
80003bdc:	c1b1                	beqz	a1,80003c20 <data+0xdfc>
80003bde:	3eb2                	.2byte	0x3eb2
80003be0:	40ea                	lw	ra,152(sp)
80003be2:	3f5e                	.2byte	0x3f5e
80003be4:	c654                	sw	a3,12(a2)
80003be6:	afcd3f3b          	.4byte	0xafcd3f3b
80003bea:	3da6                	.2byte	0x3da6
80003bec:	4452                	lw	s0,20(sp)
80003bee:	3f16                	.2byte	0x3f16
80003bf0:	b281                	j	80003530 <data+0x70c>
80003bf2:	3f05                	jal	80003b22 <data+0xcfe>
80003bf4:	3f57034b          	.4byte	0x3f57034b
80003bf8:	0da6                	slli	s11,s11,0x9
80003bfa:	041d3f17          	auipc	t5,0x41d3
80003bfe:	3f29                	jal	80003b18 <data+0xcf4>
80003c00:	aebc                	.2byte	0xaebc
80003c02:	5c0c3f33          	.4byte	0x5c0c3f33
80003c06:	3f66                	.2byte	0x3f66
80003c08:	d838                	sw	a4,112(s0)
80003c0a:	9c783edb          	.4byte	0x9c783edb
80003c0e:	3ea2                	.2byte	0x3ea2
80003c10:	40d1                	li	ra,20
80003c12:	3f74                	.2byte	0x3f74
80003c14:	e421                	bnez	s0,80003c5c <data+0xe38>
80003c16:	3ddc                	.2byte	0x3ddc
80003c18:	5450                	lw	a2,44(s0)
80003c1a:	3d36                	.2byte	0x3d36
80003c1c:	62cc                	.2byte	0x62cc
80003c1e:	3eba                	.2byte	0x3eba
80003c20:	479d                	li	a5,7
80003c22:	3f65                	jal	80003bda <data+0xdb6>
80003c24:	edee                	.2byte	0xedee
80003c26:	3ede                	.2byte	0x3ede
80003c28:	dc3c                	sw	a5,120(s0)
80003c2a:	3e86                	.2byte	0x3e86
80003c2c:	3edecca3          	.4byte	0x3edecca3
80003c30:	e0f4                	.2byte	0xe0f4
80003c32:	3f3a                	.2byte	0x3f3a
80003c34:	88a4                	.2byte	0x88a4
80003c36:	3dac                	.2byte	0x3dac
80003c38:	6b44                	.2byte	0x6b44
80003c3a:	3f09                	jal	80003b4c <data+0xd28>
80003c3c:	edc8                	.2byte	0xedc8
80003c3e:	4d273ed7          	.4byte	0x4d273ed7
80003c42:	70763ee3          	.4byte	0x70763ee3
80003c46:	3db0                	.2byte	0x3db0
80003c48:	b079                	j	800034d6 <data+0x6b2>
80003c4a:	3f71                	jal	80003be6 <data+0xdc2>
80003c4c:	5c5f 3ef2 cc3a      	.byte	0x5f, 0x5c, 0xf2, 0x3e, 0x3a, 0xcc
80003c52:	3e9f 0703 3ef4      	.byte	0x9f, 0x3e, 0x03, 0x07, 0xf4, 0x3e
80003c58:	8f08                	.2byte	0x8f08
80003c5a:	3f52                	.2byte	0x3f52
80003c5c:	9bd8                	.2byte	0x9bd8
80003c5e:	3e38                	.2byte	0x3e38
80003c60:	3e572757          	.4byte	0x3e572757
80003c64:	6502                	.2byte	0x6502
80003c66:	6b483f67          	.4byte	0x6b483f67
80003c6a:	3f44                	.2byte	0x3f44
80003c6c:	3f3b7c57          	.4byte	0x3f3b7c57
80003c70:	683c                	.2byte	0x683c
80003c72:	3f3e                	.2byte	0x3f3e
80003c74:	f1dc                	.2byte	0xf1dc
80003c76:	3eb6                	.2byte	0x3eb6
80003c78:	3ec900e7          	jalr	1004(s2)
80003c7c:	2df1                	jal	80004358 <data+0x1534>
80003c7e:	3ee4                	.2byte	0x3ee4
80003c80:	a9f4                	.2byte	0xa9f4
80003c82:	6c8f3e83          	.4byte	0x6c8f3e83
80003c86:	3f52                	.2byte	0x3f52
80003c88:	6534                	.2byte	0x6534
80003c8a:	56e73f43          	.4byte	0x56e73f43
80003c8e:	3e58                	.2byte	0x3e58
80003c90:	0914                	addi	a3,sp,144
80003c92:	3f6e                	.2byte	0x3f6e
80003c94:	ca79                	beqz	a2,80003d6a <data+0xf46>
80003c96:	3f4e                	.2byte	0x3f4e
80003c98:	4730                	lw	a2,72(a4)
80003c9a:	50b13f13          	sltiu	t5,sp,1291
80003c9e:	05c03f53          	.4byte	0x5c03f53
80003ca2:	3e79                	jal	80003840 <data+0xa1c>
80003ca4:	b54e                	.2byte	0xb54e
80003ca6:	3f56                	.2byte	0x3f56
80003ca8:	6e05                	lui	t3,0x1
80003caa:	3e85                	jal	8000381a <data+0x9f6>
80003cac:	2264                	.2byte	0x2264
80003cae:	3f79                	jal	80003c4c <data+0xe28>
80003cb0:	4652                	lw	a2,20(sp)
80003cb2:	3f6c                	.2byte	0x3f6c
80003cb4:	2246                	.2byte	0x2246
80003cb6:	3f4c                	.2byte	0x3f4c
80003cb8:	3290                	.2byte	0x3290
80003cba:	3eca                	.2byte	0x3eca
80003cbc:	3ebbd9cb          	.4byte	0x3ebbd9cb
80003cc0:	3055                	jal	80003564 <data+0x740>
80003cc2:	3f62                	.2byte	0x3f62
80003cc4:	9381                	srli	a5,a5,0x20
80003cc6:	3ead                	jal	80003840 <data+0xa1c>
80003cc8:	1b15                	addi	s6,s6,-27
80003cca:	59863f57          	.4byte	0x59863f57
80003cce:	3e48                	.2byte	0x3e48
80003cd0:	cd42                	sw	a6,152(sp)
80003cd2:	3f50                	.2byte	0x3f50
80003cd4:	aa0d                	j	80003e06 <data+0xfe2>
80003cd6:	3f29                	jal	80003bf0 <data+0xdcc>
80003cd8:	7ad1                	lui	s5,0xffff4
80003cda:	3ec0                	.2byte	0x3ec0
80003cdc:	e515                	bnez	a0,80003d08 <data+0xee4>
80003cde:	3cd2                	.2byte	0x3cd2
80003ce0:	3f110f0f          	.4byte	0x3f110f0f
80003ce4:	a2c2                	.2byte	0xa2c2
80003ce6:	3e12                	.2byte	0x3e12
80003ce8:	137f                	.2byte	0x137f
80003cea:	3f42                	.2byte	0x3f42
80003cec:	ee95                	bnez	a3,80003d28 <data+0xf04>
80003cee:	3e9e                	.2byte	0x3e9e
80003cf0:	219f 3f00 4fca      	.byte	0x9f, 0x21, 0x00, 0x3f, 0xca, 0x4f
80003cf6:	3e1a                	.2byte	0x3e1a
80003cf8:	3f418e43          	.4byte	0x3f418e43
80003cfc:	f698                	.2byte	0xf698
80003cfe:	3f41                	jal	80003c8e <data+0xe6a>
80003d00:	0082                	c.slli64	ra
80003d02:	3f79                	jal	80003ca0 <data+0xe7c>
80003d04:	3f04f377          	.4byte	0x3f04f377
80003d08:	0c52                	slli	s8,s8,0x14
80003d0a:	3f78                	.2byte	0x3f78
80003d0c:	0996                	slli	s3,s3,0x5
80003d0e:	7c033f67          	.4byte	0x7c033f67
80003d12:	53823ea7          	.4byte	0x53823ea7
80003d16:	5a363f0b          	.4byte	0x5a363f0b
80003d1a:	3f3a                	.2byte	0x3f3a
80003d1c:	ff71                	bnez	a4,80003cf8 <data+0xed4>
80003d1e:	3f11                	jal	80003c32 <data+0xe0e>
80003d20:	11a1                	addi	gp,gp,-24 # 800064ec <_tbss_end+0x728>
80003d22:	3ec4                	.2byte	0x3ec4
80003d24:	1138                	addi	a4,sp,168
80003d26:	3f7d                	jal	80003ce4 <data+0xec0>
80003d28:	21d5                	jal	8000420c <data+0x13e8>
80003d2a:	9e453f0b          	.4byte	0x9e453f0b
80003d2e:	3e9c                	.2byte	0x3e9c
80003d30:	337f                	.2byte	0x337f
80003d32:	3f49                	jal	80003cc4 <data+0xea0>
80003d34:	3b0c                	.2byte	0x3b0c
80003d36:	3f70                	.2byte	0x3f70
80003d38:	3c08                	.2byte	0x3c08
80003d3a:	3f2c                	.2byte	0x3f2c
80003d3c:	63d4                	.2byte	0x63d4
80003d3e:	099a3f2b          	.4byte	0x99a3f2b
80003d42:	3e8e                	.2byte	0x3e8e
80003d44:	571d                	li	a4,-25
80003d46:	7a353f03          	.4byte	0x7a353f03
80003d4a:	3f5d                	jal	80003d00 <data+0xedc>
80003d4c:	9079                	srli	s0,s0,0x3e
80003d4e:	3dbe                	.2byte	0x3dbe
80003d50:	3e3404a7          	.4byte	0x3e3404a7
80003d54:	de76                	sw	t4,60(sp)
80003d56:	3e76                	.2byte	0x3e76
80003d58:	3df349bf 3f3e1038 	.8byte	0x3f3e10383df349bf
80003d60:	c09c                	sw	a5,0(s1)
80003d62:	3ec4                	.2byte	0x3ec4
80003d64:	3f607cb7          	lui	s9,0x3f607
80003d68:	7831                	lui	a6,0xfffec
80003d6a:	3d58                	.2byte	0x3d58
80003d6c:	81ed                	srli	a1,a1,0x1b
80003d6e:	3f62                	.2byte	0x3f62
80003d70:	3ce21533          	.4byte	0x3ce21533
80003d74:	15c6                	slli	a1,a1,0x31
80003d76:	78853f4f          	.4byte	0x78853f4f
80003d7a:	3f24                	.2byte	0x3f24
80003d7c:	39895d0b          	.4byte	0x39895d0b
80003d80:	129d                	addi	t0,t0,-25 # fffedfe7 <__global_pointer$+0x7ffe7ae3>
80003d82:	3ea8                	.2byte	0x3ea8
80003d84:	3f1c84d7          	.4byte	0x3f1c84d7
80003d88:	1ab1                	addi	s5,s5,-20 # ffff3fec <__global_pointer$+0x7ffedae8>
80003d8a:	c7503f67          	.4byte	0xc7503f67
80003d8e:	61673f27          	.4byte	0x61673f27
80003d92:	3e1f 74f7 3f21      	.byte	0x1f, 0x3e, 0xf7, 0x74, 0x21, 0x3f
80003d98:	1b04                	addi	s1,sp,432
80003d9a:	e12a3e67          	.4byte	0xe12a3e67
80003d9e:	3f09                	jal	80003cb0 <data+0xe8c>
80003da0:	3f1e862f          	.4byte	0x3f1e862f
80003da4:	e886                	.2byte	0xe886
80003da6:	3f44                	.2byte	0x3f44
80003da8:	304d                	jal	8000364a <data+0x826>
80003daa:	3f58                	.2byte	0x3f58
80003dac:	735c                	.2byte	0x735c
80003dae:	23a33ecf          	.4byte	0x23a33ecf
80003db2:	3f35                	jal	80003cee <data+0xeca>
80003db4:	6c55                	lui	s8,0x15
80003db6:	3f04                	.2byte	0x3f04
80003db8:	ec10                	.2byte	0xec10
80003dba:	3d98                	.2byte	0x3d98
80003dbc:	285f 3f7c 6e3b      	.byte	0x5f, 0x28, 0x7c, 0x3f, 0x3b, 0x6e
80003dc2:	3cf8                	.2byte	0x3cf8
80003dc4:	3f7097b7          	lui	a5,0x3f709
80003dc8:	3d9fd36f          	jal	t1,801019a0 <__global_pointer$+0xfb49c>
80003dcc:	3e53126f          	jal	tp,800359b0 <__global_pointer$+0x2f4ac>
80003dd0:	3e393d53          	.4byte	0x3e393d53
80003dd4:	3e498e97          	auipc	t4,0x3e498
80003dd8:	d4d4                	sw	a3,44(s1)
80003dda:	3f72                	.2byte	0x3f72
80003ddc:	3f10afa3          	sw	a7,1023(ra)
80003de0:	02e6                	slli	t0,t0,0x19
80003de2:	ae323d97          	auipc	s11,0xae323
80003de6:	3ab8                	.2byte	0x3ab8
80003de8:	6320                	.2byte	0x6320
80003dea:	3ee6                	.2byte	0x3ee6
80003dec:	87ad                	srai	a5,a5,0xb
80003dee:	721d3dcf          	.4byte	0x721d3dcf
80003df2:	50a93f4f          	.4byte	0x50a93f4f
80003df6:	3dbd                	jal	80003c74 <data+0xe50>
80003df8:	110a                	slli	sp,sp,0x22
80003dfa:	3dd0                	.2byte	0x3dd0
80003dfc:	3e0dedaf          	.4byte	0x3e0dedaf
80003e00:	2eec                	.2byte	0x2eec
80003e02:	3f34                	.2byte	0x3f34
80003e04:	68e4                	.2byte	0x68e4
80003e06:	3b8e                	.2byte	0x3b8e
80003e08:	3f4b42bb          	.4byte	0x3f4b42bb
80003e0c:	0746                	slli	a4,a4,0x11
80003e0e:	3f5c                	.2byte	0x3f5c
80003e10:	91c9                	srli	a1,a1,0x32
80003e12:	3f22                	.2byte	0x3f22
80003e14:	3ca12d77          	.4byte	0x3ca12d77
80003e18:	d0e1                	beqz	s1,80003dd8 <data+0xfb4>
80003e1a:	2fcf3ecb          	.4byte	0x2fcf3ecb
80003e1e:	3e82                	.2byte	0x3e82
80003e20:	f1f1                	bnez	a1,80003de4 <data+0xfc0>
80003e22:	3f49                	jal	80003db4 <data+0xf90>
80003e24:	62f6                	.2byte	0x62f6
80003e26:	3e78                	.2byte	0x3e78
80003e28:	d196                	sw	t0,224(sp)
80003e2a:	3f28                	.2byte	0x3f28
80003e2c:	2b28                	.2byte	0x2b28
80003e2e:	3efe                	.2byte	0x3efe
80003e30:	3f428523          	sb	s4,1002(t0)
80003e34:	3f3bef17          	auipc	t5,0x3f3be
80003e38:	7be5                	lui	s7,0xffff9
80003e3a:	3ef6                	.2byte	0x3ef6
80003e3c:	4895                	li	a7,5
80003e3e:	3f4a                	.2byte	0x3f4a
80003e40:	3f2c86cf          	.4byte	0x3f2c86cf
80003e44:	3871                	jal	800036e0 <data+0x8bc>
80003e46:	0d303f0f          	.4byte	0xd303f0f
80003e4a:	3f7f                	.2byte	0x3f7f
80003e4c:	d634                	sw	a3,104(a2)
80003e4e:	3f5a                	.2byte	0x3f5a
80003e50:	3f419c17          	auipc	s8,0x3f419
80003e54:	e204                	.2byte	0xe204
80003e56:	3f71                	jal	80003df2 <data+0xfce>
80003e58:	3ed70baf          	.4byte	0x3ed70baf
80003e5c:	7c74                	.2byte	0x7c74
80003e5e:	3f54                	.2byte	0x3f54
80003e60:	3e5c                	.2byte	0x3e5c
80003e62:	3f72                	.2byte	0x3f72
80003e64:	3f5eb767          	.4byte	0x3f5eb767
80003e68:	6d6a                	.2byte	0x6d6a
80003e6a:	3f6e                	.2byte	0x3f6e
80003e6c:	b079                	j	800036fa <data+0x8d6>
80003e6e:	3f41                	jal	80003dfe <data+0xfda>
80003e70:	617c                	.2byte	0x617c
80003e72:	3f76                	.2byte	0x3f76
80003e74:	f7a1                	bnez	a5,80003dbc <data+0xf98>
80003e76:	3d06                	.2byte	0x3d06
80003e78:	2bf5                	jal	80004474 <data+0x1650>
80003e7a:	3f65                	jal	80003e32 <data+0x100e>
80003e7c:	9069                	srli	s0,s0,0x3a
80003e7e:	3f2a                	.2byte	0x3f2a
80003e80:	c5ca                	sw	s2,200(sp)
80003e82:	3d18                	.2byte	0x3d18
80003e84:	6ea0                	.2byte	0x6ea0
80003e86:	3f30                	.2byte	0x3f30
80003e88:	3f0697af          	.4byte	0x3f0697af
80003e8c:	1e15                	addi	t3,t3,-27 # fe5 <buflen.3+0xf65>
80003e8e:	3f2c                	.2byte	0x3f2c
80003e90:	780c                	.2byte	0x780c
80003e92:	3f35                	jal	80003dce <data+0xfaa>
80003e94:	8030                	.2byte	0x8030
80003e96:	3f6c                	.2byte	0x3f6c
80003e98:	360d                	jal	800039ba <data+0xb96>
80003e9a:	3f6d                	jal	80003e54 <data+0x1030>
80003e9c:	3efed41b          	.4byte	0x3efed41b
80003ea0:	3e2a63b7          	lui	t2,0x3e2a6
80003ea4:	3f1607a3          	sb	a7,1007(a2) # ffffd3ef <__global_pointer$+0x7fff6eeb>
80003ea8:	7fa2                	.2byte	0x7fa2
80003eaa:	3f7e                	.2byte	0x3f7e
80003eac:	1e11                	addi	t3,t3,-28
80003eae:	3f6d                	jal	80003e68 <data+0x1044>
80003eb0:	ed74                	.2byte	0xed74
80003eb2:	7b293ea3          	.4byte	0x7b293ea3
80003eb6:	66a53ef3          	csrrc	t4,0x66a,a0
80003eba:	7d9a3f37          	lui	t5,0x7d9a3
80003ebe:	3f7e                	.2byte	0x3f7e
80003ec0:	3d0f605b          	.4byte	0x3d0f605b
80003ec4:	73c5                	lui	t2,0xffff1
80003ec6:	3f36                	.2byte	0x3f36
80003ec8:	53bd                	li	t2,-17
80003eca:	3f59                	jal	80003e60 <data+0x103c>
80003ecc:	921d                	srli	a2,a2,0x27
80003ece:	3f4a                	.2byte	0x3f4a
80003ed0:	55c9                	li	a1,-14
80003ed2:	3f28                	.2byte	0x3f28
80003ed4:	b329                	j	80003bde <data+0xdba>
80003ed6:	3e89                	jal	80003a28 <data+0xc04>
80003ed8:	0e91                	addi	t4,t4,4 # be49bdd8 <__global_pointer$+0x3e4958d4>
80003eda:	3f1f 9425 3f1a      	.byte	0x1f, 0x3f, 0x25, 0x94, 0x1a, 0x3f
80003ee0:	43ee                	lw	t2,216(sp)
80003ee2:	3e0e                	.2byte	0x3e0e
80003ee4:	7bfa                	.2byte	0x7bfa
80003ee6:	3f0d                	jal	80003e18 <data+0xff4>
80003ee8:	3eb8893b          	.4byte	0x3eb8893b
80003eec:	9336                	add	t1,t1,a3
80003eee:	eb743dcf          	.4byte	0xeb743dcf
80003ef2:	3f15                	jal	80003e26 <data+0x1002>
80003ef4:	e126                	.2byte	0xe126
80003ef6:	3e82                	.2byte	0x3e82
80003ef8:	3f4482cf          	.4byte	0x3f4482cf
80003efc:	77d1                	lui	a5,0xffff4
80003efe:	3f1f df33 3f71      	.byte	0x1f, 0x3f, 0x33, 0xdf, 0x71, 0x3f
80003f04:	351e                	.2byte	0x351e
80003f06:	3e96                	.2byte	0x3e96
80003f08:	3e972bcb          	.4byte	0x3e972bcb
80003f0c:	3f27573f 3e5e6aba 	.8byte	0x3e5e6aba3f27573f
80003f14:	2f88                	.2byte	0x2f88
80003f16:	05323e63          	.4byte	0x5323e63
80003f1a:	67383e1b          	.4byte	0x67383e1b
80003f1e:	3ec4                	.2byte	0x3ec4
80003f20:	d384                	sw	s1,32(a5)
80003f22:	3f4e                	.2byte	0x3f4e
80003f24:	03b8                	addi	a4,sp,456
80003f26:	3e15                	jal	80003a5a <data+0xc36>
80003f28:	a359                	j	800044ae <data+0x168a>
80003f2a:	3e9e                	.2byte	0x3e9e
80003f2c:	293d                	jal	8000436a <data+0x1546>
80003f2e:	fe933e03          	.4byte	0xfe933e03
80003f32:	3f1e                	.2byte	0x3f1e
80003f34:	0a3d                	addi	s4,s4,15 # 3f00800f <buflen.3+0x3f007f8f>
80003f36:	3ec03cd7          	.4byte	0x3ec03cd7
80003f3a:	3dfa                	.2byte	0x3dfa
80003f3c:	f499                	bnez	s1,80003e4a <data+0x1026>
80003f3e:	2c173f27          	.4byte	0x2c173f27
80003f42:	3f3d                	jal	80003e80 <data+0x105c>
80003f44:	9ba6                	add	s7,s7,s1
80003f46:	3f78                	.2byte	0x3f78
80003f48:	0d8d                	addi	s11,s11,3 # 2e326de5 <buflen.3+0x2e326d65>
80003f4a:	3ee5                	jal	80003b42 <data+0xd1e>
80003f4c:	03c0                	addi	s0,sp,452
80003f4e:	d4e93ecb          	.4byte	0xd4e93ecb
80003f52:	3e75                	jal	80003b0e <data+0xcea>
80003f54:	aab9                	j	800040b2 <data+0x128e>
80003f56:	3d8c                	.2byte	0x3d8c
80003f58:	2928                	.2byte	0x2928
80003f5a:	39b0                	.2byte	0x39b0
80003f5c:	0c4a                	slli	s8,s8,0x12
80003f5e:	3ec2                	.2byte	0x3ec2
80003f60:	1141                	addi	sp,sp,-16
80003f62:	3f1f b546 3eb8      	.byte	0x1f, 0x3f, 0x46, 0xb5, 0xb8, 0x3e
80003f68:	f139                	bnez	a0,80003eae <data+0x108a>
80003f6a:	3ef5                	jal	80003b66 <data+0xd42>
80003f6c:	f2d4                	.2byte	0xf2d4
80003f6e:	cb363e53          	.4byte	0xcb363e53
80003f72:	3f1d                	jal	80003ea8 <data+0x1084>
80003f74:	3e7dedaf          	.4byte	0x3e7dedaf
80003f78:	7486                	.2byte	0x7486
80003f7a:	3f54                	.2byte	0x3f54
80003f7c:	aa69                	j	80004116 <data+0x12f2>
80003f7e:	95fb3f0f          	.4byte	0x95fb3f0f
80003f82:	3f0a                	.2byte	0x3f0a
80003f84:	29ae                	.2byte	0x29ae
80003f86:	3e00                	.2byte	0x3e00
80003f88:	06e2                	slli	a3,a3,0x18
80003f8a:	3e5c                	.2byte	0x3e5c
80003f8c:	30a9                	jal	800037d6 <data+0x9b2>
80003f8e:	3f42                	.2byte	0x3f42
80003f90:	3eb1ac9b          	.4byte	0x3eb1ac9b
80003f94:	860a                	mv	a2,sp
80003f96:	91583ebb          	.4byte	0x91583ebb
80003f9a:	3e11                	jal	80003aae <data+0xc8a>
80003f9c:	3e1ea78b          	.4byte	0x3e1ea78b
80003fa0:	3f0303f3          	.4byte	0x3f0303f3
80003fa4:	6c05                	lui	s8,0x1
80003fa6:	e8423ee7          	.4byte	0xe8423ee7
80003faa:	3e90                	.2byte	0x3e90
80003fac:	0a18                	addi	a4,sp,272
80003fae:	3e08                	.2byte	0x3e08
80003fb0:	dca9                	beqz	s1,80003f0a <data+0x10e6>
80003fb2:	3ef4                	.2byte	0x3ef4
80003fb4:	7814                	.2byte	0x7814
80003fb6:	f71f3ecf          	.4byte	0xf71f3ecf
80003fba:	3f49                	jal	80003f4c <data+0x1128>
80003fbc:	69ad                	lui	s3,0xb
80003fbe:	3e5e                	.2byte	0x3e5e
80003fc0:	af3e                	.2byte	0xaf3e
80003fc2:	3ec0                	.2byte	0x3ec0
80003fc4:	f794                	.2byte	0xf794
80003fc6:	3e71                	jal	80003b62 <data+0xd3e>
80003fc8:	1c4c                	addi	a1,sp,564
80003fca:	3f1d                	jal	80003f00 <data+0x10dc>
80003fcc:	ccd9                	beqz	s1,8000406a <data+0x1246>
80003fce:	3f1d                	jal	80003f04 <data+0x10e0>
80003fd0:	2678                	.2byte	0x2678
80003fd2:	3e9c                	.2byte	0x3e9c
80003fd4:	3251                	jal	80003958 <data+0xb34>
80003fd6:	3f1d                	jal	80003f0c <data+0x10e8>
80003fd8:	d2fe                	sw	t6,100(sp)
80003fda:	3f7e                	.2byte	0x3f7e
80003fdc:	247d                	jal	8000428a <data+0x1466>
80003fde:	3f6d                	jal	80003f98 <data+0x1174>
80003fe0:	8cf4                	.2byte	0x8cf4
80003fe2:	3f79                	jal	80003f80 <data+0x115c>
80003fe4:	9735                	srai	a4,a4,0x2d
80003fe6:	84c73ef3          	csrrc	t4,0x84c,a4
80003fea:	3e08                	.2byte	0x3e08
80003fec:	582a                	lw	a6,168(sp)
80003fee:	47173f17          	auipc	t5,0x47173
80003ff2:	3f39                	jal	80003f10 <data+0x10ec>
80003ff4:	95b8                	.2byte	0x95b8
80003ff6:	3f76                	.2byte	0x3f76
80003ff8:	0a4a                	slli	s4,s4,0x12
80003ffa:	3e1c                	.2byte	0x3e1c
80003ffc:	ba02                	.2byte	0xba02
80003ffe:	01193e87          	.4byte	0x1193e87
80004002:	3db5                	jal	80003e7e <data+0x105a>
80004004:	0896                	slli	a7,a7,0x5
80004006:	3ebc                	.2byte	0x3ebc
80004008:	b542                	.2byte	0xb542
8000400a:	3cc1                	jal	80003ada <data+0xcb6>
8000400c:	3edeed03          	.4byte	0x3edeed03
80004010:	c750                	sw	a2,12(a4)
80004012:	c8003f3b          	.4byte	0xc8003f3b
80004016:	3e29                	jal	80003b30 <data+0xd0c>
80004018:	3f172053          	.4byte	0x3f172053
8000401c:	2d0a                	.2byte	0x2d0a
8000401e:	28023e7b          	.4byte	0x28023e7b
80004022:	3f1e                	.2byte	0x3f1e
80004024:	9485                	srai	s1,s1,0x21
80004026:	3f5f 9b91 3ec1      	.byte	0x5f, 0x3f, 0x91, 0x9b, 0xc1, 0x3e
8000402c:	b231                	j	80003938 <data+0xb14>
8000402e:	3dc4                	.2byte	0x3dc4
80004030:	a11f 3e8e 13e0      	.byte	0x1f, 0xa1, 0x8e, 0x3e, 0xe0, 0x13
80004036:	61633e2b          	.4byte	0x61633e2b
8000403a:	3ea0                	.2byte	0x3ea0
8000403c:	3f27a82f          	.4byte	0x3f27a82f
80004040:	85ba                	mv	a1,a4
80004042:	3ece                	.2byte	0x3ece
80004044:	4cec                	lw	a1,92(s1)
80004046:	3f6d                	jal	80004000 <data+0x11dc>
80004048:	ea10                	.2byte	0xea10
8000404a:	3e8a                	.2byte	0x3e8a
8000404c:	5608                	lw	a0,40(a2)
8000404e:	3f35                	jal	80003f8a <data+0x1166>
80004050:	7f3d                	lui	t5,0xfffef
80004052:	3f0a                	.2byte	0x3f0a
80004054:	900c                	.2byte	0x900c
80004056:	3e88                	.2byte	0x3e88
80004058:	7a85                	lui	s5,0xfffe1
8000405a:	3f22                	.2byte	0x3f22
8000405c:	0c31                	addi	s8,s8,12 # 100c <buflen.3+0xf8c>
8000405e:	3f04                	.2byte	0x3f04
80004060:	13b2                	slli	t2,t2,0x2c
80004062:	3f3e                	.2byte	0x3f3e
80004064:	3f449bb7          	lui	s7,0x3f449
80004068:	3ddb2357          	.4byte	0x3ddb2357
8000406c:	b570                	.2byte	0xb570
8000406e:	3eee                	.2byte	0x3eee
80004070:	317f                	.2byte	0x317f
80004072:	cdfb3f3b          	.4byte	0xcdfb3f3b
80004076:	3e84                	.2byte	0x3e84
80004078:	37b9                	jal	80003fc6 <data+0x11a2>
8000407a:	d1a23f3b          	.4byte	0xd1a23f3b
8000407e:	3f51                	jal	80004012 <data+0x11ee>
80004080:	6b48                	.2byte	0x6b48
80004082:	3f20                	.2byte	0x3f20
80004084:	4574                	lw	a3,76(a0)
80004086:	3f41                	jal	80004016 <data+0x11f2>
80004088:	9025                	srli	s0,s0,0x29
8000408a:	3e82                	.2byte	0x3e82
8000408c:	6530                	.2byte	0x6530
8000408e:	3eb8                	.2byte	0x3eb8
80004090:	3f6bb763          	.4byte	0x3f6bb763
80004094:	3f586877          	.4byte	0x3f586877
80004098:	3f1afdeb          	.4byte	0x3f1afdeb
8000409c:	df65                	beqz	a4,80004094 <data+0x1270>
8000409e:	3f09                	jal	80003fb0 <data+0x118c>
800040a0:	fcfc                	.2byte	0xfcfc
800040a2:	cbb43f37          	lui	t5,0xcbb43
800040a6:	75ab3f7b          	.4byte	0x75ab3f7b
800040aa:	3f22                	.2byte	0x3f22
800040ac:	3f7f4d7b          	.4byte	0x3f7f4d7b
800040b0:	3e1a42af          	.4byte	0x3e1a42af
800040b4:	a65d                	j	8000445a <data+0x1636>
800040b6:	3f72                	.2byte	0x3f72
800040b8:	f5a9                	bnez	a1,80004002 <data+0x11de>
800040ba:	3f26                	.2byte	0x3f26
800040bc:	d378                	sw	a4,100(a4)
800040be:	3f0d                	jal	80003ff0 <data+0x11cc>
800040c0:	f349                	bnez	a4,80004042 <data+0x121e>
800040c2:	3f5f 6ab1 3f6c      	.byte	0x5f, 0x3f, 0xb1, 0x6a, 0x6c, 0x3f
800040c8:	5300                	lw	s0,32(a4)
800040ca:	3e86                	.2byte	0x3e86
800040cc:	e50c                	.2byte	0xe50c
800040ce:	3ed4                	.2byte	0x3ed4
800040d0:	cade                	sw	s7,84(sp)
800040d2:	3e42                	.2byte	0x3e42
800040d4:	a405                	j	800042f4 <data+0x14d0>
800040d6:	3f65                	jal	8000408e <data+0x126a>
800040d8:	7ec8                	.2byte	0x7ec8
800040da:	3f6e                	.2byte	0x3f6e
800040dc:	c669                	beqz	a2,800041a6 <data+0x1382>
800040de:	3f6e                	.2byte	0x3f6e
800040e0:	3fbc                	.2byte	0x3fbc
800040e2:	3f2a                	.2byte	0x3f2a
800040e4:	3d1e3327          	.4byte	0x3d1e3327
800040e8:	4242                	lw	tp,16(sp)
800040ea:	3ecc                	.2byte	0x3ecc
800040ec:	e276                	.2byte	0xe276
800040ee:	3eca                	.2byte	0x3eca
800040f0:	9460                	.2byte	0x9460
800040f2:	3e98                	.2byte	0x3e98
800040f4:	3e056367          	.4byte	0x3e056367
800040f8:	0b74                	addi	a3,sp,412
800040fa:	3e5d                	jal	80003cb0 <data+0xe8c>
800040fc:	b578                	.2byte	0xb578
800040fe:	3f6c                	.2byte	0x3f6c
80004100:	9e4d                	.2byte	0x9e4d
80004102:	3f62                	.2byte	0x3f62
80004104:	15df 3ef1 d020      	.byte	0xdf, 0x15, 0xf1, 0x3e, 0x20, 0xd0
8000410a:	3e91                	jal	80003c5e <data+0xe3a>
8000410c:	55b0                	lw	a2,104(a1)
8000410e:	3f4e                	.2byte	0x3f4e
80004110:	e6cd                	bnez	a3,800041ba <data+0x1396>
80004112:	3ea1                	jal	80003c6a <data+0xe46>
80004114:	3f63e5fb          	.4byte	0x3f63e5fb
80004118:	3eb06a2b          	.4byte	0x3eb06a2b
8000411c:	062d                	addi	a2,a2,11
8000411e:	b1af3d0f          	.4byte	0xb1af3d0f
80004122:	3f5f aad2 3f7a      	.byte	0x5f, 0x3f, 0xd2, 0xaa, 0x7a, 0x3f
80004128:	3d03dddb          	.4byte	0x3d03dddb
8000412c:	4945                	li	s2,17
8000412e:	3cc8                	.2byte	0x3cc8
80004130:	3f6d512f          	.4byte	0x3f6d512f
80004134:	3f2f3387          	.4byte	0x3f2f3387
80004138:	15c2                	slli	a1,a1,0x30
8000413a:	3f14                	.2byte	0x3f14
8000413c:	4478                	lw	a4,76(s0)
8000413e:	3f4d                	jal	800040f0 <data+0x12cc>
80004140:	9e38                	.2byte	0x9e38
80004142:	3f533f1b          	.4byte	0x3f533f1b
80004146:	dbf93f57          	.4byte	0xdbf93f57
8000414a:	3e5e                	.2byte	0x3e5e
8000414c:	5101                	li	sp,-32
8000414e:	3f4c                	.2byte	0x3f4c
80004150:	e358                	.2byte	0xe358
80004152:	3f3c                	.2byte	0x3f3c
80004154:	3e18d717          	auipc	a4,0x3e18d
80004158:	1759                	addi	a4,a4,-10 # be19114a <__global_pointer$+0x3e18ac46>
8000415a:	46283f3b          	.4byte	0x46283f3b
8000415e:	3ece                	.2byte	0x3ece
80004160:	63e0                	.2byte	0x63e0
80004162:	3e40                	.2byte	0x3e40
80004164:	3e04e1e7          	.4byte	0x3e04e1e7
80004168:	3f4c944f          	.4byte	0x3f4c944f
8000416c:	c62e                	sw	a1,12(sp)
8000416e:	3ef8                	.2byte	0x3ef8
80004170:	22c9                	jal	80004332 <data+0x150e>
80004172:	3e85                	jal	80003ce2 <data+0xebe>
80004174:	3c75caf3          	.4byte	0x3c75caf3
80004178:	311f 3ed2 bec6      	.byte	0x1f, 0x31, 0xd2, 0x3e, 0xc6, 0xbe
8000417e:	3e14                	.2byte	0x3e14
80004180:	3ef8c437          	lui	s0,0x3ef8c
80004184:	00b0                	addi	a2,sp,72
80004186:	3f32                	.2byte	0x3f32
80004188:	8562                	mv	a0,s8
8000418a:	55823f73          	csrrc	t5,0x558,tp
8000418e:	3f4d                	jal	80004140 <data+0x131c>
80004190:	3f15e69b          	.4byte	0x3f15e69b
80004194:	3e9774ef          	jal	s1,8007bd7c <__global_pointer$+0x75878>
80004198:	45e5                	li	a1,25
8000419a:	3f56                	.2byte	0x3f56
8000419c:	3094                	.2byte	0x3094
8000419e:	ca923eeb          	.4byte	0xca923eeb
800041a2:	3e8c                	.2byte	0x3e8c
800041a4:	3f5e83c3          	.4byte	0x3f5e83c3
800041a8:	b528                	.2byte	0xb528
800041aa:	d99d3ef7          	.4byte	0xd99d3ef7
800041ae:	3e4e                	.2byte	0x3e4e
800041b0:	b74a                	.2byte	0xb74a
800041b2:	3f0d                	jal	800040e4 <data+0x12c0>
800041b4:	0670                	addi	a2,sp,780
800041b6:	3d7f                	.2byte	0x3d7f
800041b8:	3b7adf2f          	.4byte	0x3b7adf2f
800041bc:	5608                	lw	a0,40(a2)
800041be:	3e25                	jal	80003cf6 <data+0xed2>
800041c0:	2fa9                	jal	8000491a <data+0x1af6>
800041c2:	c7b93f67          	.4byte	0xc7b93f67
800041c6:	3e62                	.2byte	0x3e62
800041c8:	3f75a683          	lw	a3,1015(a1) # ffff33f7 <__global_pointer$+0x7ffecef3>
800041cc:	1301                	addi	t1,t1,-32 # bf1092d8 <__global_pointer$+0x3f102dd4>
800041ce:	3f24                	.2byte	0x3f24
800041d0:	cf68                	sw	a0,92(a4)
800041d2:	3ebd                	jal	80003d50 <data+0xf2c>
800041d4:	bddc                	.2byte	0xbddc
800041d6:	3f30                	.2byte	0x3f30
800041d8:	6156                	.2byte	0x6156
800041da:	00ac3d33          	sltu	s10,s8,a0
800041de:	f6663f0f          	.4byte	0xf6663f0f
800041e2:	3f51                	jal	80004176 <data+0x1352>
800041e4:	ca75                	beqz	a2,800042d8 <data+0x14b4>
800041e6:	3c323f57          	.4byte	0x3c323f57
800041ea:	3d36                	.2byte	0x3d36
800041ec:	3dcd                	jal	800040de <data+0x12ba>
800041ee:	3da4                	.2byte	0x3da4
800041f0:	a1a1                	j	80004638 <data+0x1814>
800041f2:	f8a53f5b          	.4byte	0xf8a53f5b
800041f6:	3ee8                	.2byte	0x3ee8
800041f8:	ddad                	beqz	a1,80004172 <data+0x134e>
800041fa:	3e66                	.2byte	0x3e66
800041fc:	0779                	addi	a4,a4,30
800041fe:	3eb0                	.2byte	0x3eb0
80004200:	f40a                	.2byte	0xf40a
80004202:	3e19                	jal	80003d18 <data+0xef4>
80004204:	f334                	.2byte	0xf334
80004206:	3e34                	.2byte	0x3e34
80004208:	64f9                	lui	s1,0x1e
8000420a:	3e15                	jal	80003d3e <data+0xf1a>
8000420c:	639d                	lui	t2,0x7
8000420e:	3f3c                	.2byte	0x3f3c
80004210:	ee89                	bnez	a3,8000422a <data+0x1406>
80004212:	3ef1                	jal	80003dee <data+0xfca>
80004214:	3f7b9f23          	sh	s7,1022(s7) # 3f4493fe <buflen.3+0x3f44937e>
80004218:	ef9e                	.2byte	0xef9e
8000421a:	5c8e3e47          	.4byte	0x5c8e3e47
8000421e:	22e63f3f d67c3f5a 	.8byte	0xd67c3f5a22e63f3f
80004226:	3f2d                	jal	80004160 <data+0x133c>
80004228:	12f5                	addi	t0,t0,-3
8000422a:	b45f3f73          	csrrc	t5,0xb45,t5
8000422e:	c6e33ecf          	.4byte	0xc6e33ecf
80004232:	3f3d                	jal	80004170 <data+0x134c>
80004234:	0dd4                	addi	a3,sp,724
80004236:	3f74                	.2byte	0x3f74
80004238:	2fb2                	.2byte	0x2fb2
8000423a:	3f11                	jal	8000414e <data+0x132a>
8000423c:	f68c                	.2byte	0xf68c
8000423e:	3f24                	.2byte	0x3f24
80004240:	ff09                	bnez	a4,8000415a <data+0x1336>
80004242:	3e32                	.2byte	0x3e32
80004244:	d634                	sw	a3,104(a2)
80004246:	3f06                	.2byte	0x3f06
80004248:	3e92131b          	.4byte	0x3e92131b
8000424c:	a776                	.2byte	0xa776
8000424e:	50403f0b          	.4byte	0x50403f0b
80004252:	3e5e                	.2byte	0x3e5e
80004254:	3ea87f67          	.4byte	0x3ea87f67
80004258:	4110                	lw	a2,0(a0)
8000425a:	3dd5                	jal	8000414e <data+0x132a>
8000425c:	a655                	j	80004600 <data+0x17dc>
8000425e:	3d18                	.2byte	0x3d18
80004260:	285f 3e30 2f94      	.byte	0x5f, 0x28, 0x30, 0x3e, 0x94, 0x2f
80004266:	3e18                	.2byte	0x3e18
80004268:	917d                	srli	a0,a0,0x3f
8000426a:	3df0                	.2byte	0x3df0
8000426c:	7710                	.2byte	0x7710
8000426e:	3cf5                	jal	80003d6a <data+0xf46>
80004270:	3f1a8837          	lui	a6,0x3f1a8
80004274:	9314                	.2byte	0x9314
80004276:	5eea3eaf          	.4byte	0x5eea3eaf
8000427a:	053a3ebf 06573f41 	.8byte	0x6573f41053a3ebf
80004282:	3f05                	jal	800041b2 <data+0x138e>
80004284:	3f0508b3          	.4byte	0x3f0508b3
80004288:	3efad1af          	.4byte	0x3efad1af
8000428c:	fd9c                	.2byte	0xfd9c
8000428e:	3f7d                	jal	8000424c <data+0x1428>
80004290:	a7d6                	.2byte	0xa7d6
80004292:	3f00                	.2byte	0x3f00
80004294:	3f2f64bf 3f3d5a29 	.8byte	0x3f3d5a293f2f64bf
8000429c:	3eb59557          	.4byte	0x3eb59557
800042a0:	7675                	lui	a2,0xffffd
800042a2:	3eba                	.2byte	0x3eba
800042a4:	6d1e                	.2byte	0x6d1e
800042a6:	3f30                	.2byte	0x3f30
800042a8:	3f42a4db          	.4byte	0x3f42a4db
800042ac:	10e9                	addi	ra,ra,-6
800042ae:	3dd8                	.2byte	0x3dd8
800042b0:	7af2                	.2byte	0x7af2
800042b2:	3f24                	.2byte	0x3f24
800042b4:	a8f8                	.2byte	0xa8f8
800042b6:	f8a93ea7          	.4byte	0xf8a93ea7
800042ba:	3ab43f3f aab03f51 	.8byte	0xaab03f513ab43f3f
800042c2:	3f5a                	.2byte	0x3f5a
800042c4:	2364                	.2byte	0x2364
800042c6:	3d10                	.2byte	0x3d10
800042c8:	c454                	sw	a3,12(s0)
800042ca:	3eb9                	jal	80003e28 <data+0x1004>
800042cc:	f601                	bnez	a2,800041d4 <data+0x13b0>
800042ce:	3d91                	jal	80004122 <data+0x12fe>
800042d0:	3eba83d3          	.4byte	0x3eba83d3
800042d4:	1498                	addi	a4,sp,608
800042d6:	492c3eef          	jal	t4,800c7768 <__global_pointer$+0xc1264>
800042da:	3dde                	.2byte	0x3dde
800042dc:	4c01                	li	s8,0
800042de:	3f09                	jal	800041f0 <data+0x13cc>
800042e0:	9620                	.2byte	0x9620
800042e2:	3f1d                	jal	80004218 <data+0x13f4>
800042e4:	6d55                	lui	s10,0x15
800042e6:	f7ba3e67          	.4byte	0xf7ba3e67
800042ea:	3f10                	.2byte	0x3f10
800042ec:	795f 3e60 a4df      	.byte	0x5f, 0x79, 0x60, 0x3e, 0xdf, 0xa4
800042f2:	3f11                	jal	80004206 <data+0x13e2>
800042f4:	3f70a72f          	.4byte	0x3f70a72f
800042f8:	2392                	.2byte	0x2392
800042fa:	3f79                	jal	80004298 <data+0x1474>
800042fc:	59b4                	lw	a3,112(a1)
800042fe:	3db5                	jal	8000417a <data+0x1356>
80004300:	5fc4                	lw	s1,60(a5)
80004302:	18d23eeb          	.4byte	0x18d23eeb
80004306:	3eed                	jal	80003f00 <data+0x10dc>
80004308:	4691                	li	a3,4
8000430a:	3da5                	jal	80004182 <data+0x135e>
8000430c:	57b8                	lw	a4,104(a5)
8000430e:	3f76                	.2byte	0x3f76
80004310:	c4a0                	sw	s0,72(s1)
80004312:	02fb3e17          	auipc	t3,0x2fb3
80004316:	3f52                	.2byte	0x3f52
80004318:	44c8                	lw	a0,12(s1)
8000431a:	3ea2                	.2byte	0x3ea2
8000431c:	2c62                	.2byte	0x2c62
8000431e:	70193f03          	.4byte	0x70193f03
80004322:	3f02                	.2byte	0x3f02
80004324:	3971                	jal	80003fc0 <data+0x119c>
80004326:	3d9e                	.2byte	0x3d9e
80004328:	3f1e2e6f          	jal	t3,800e6f18 <__global_pointer$+0xe0a14>
8000432c:	ac2e                	.2byte	0xac2e
8000432e:	37763e1b          	.4byte	0x37763e1b
80004332:	4e2f3ecf          	.4byte	0x4e2f3ecf
80004336:	3ebc                	.2byte	0x3ebc
80004338:	25c0                	.2byte	0x25c0
8000433a:	3f78                	.2byte	0x3f78
8000433c:	8cd6                	mv	s9,s5
8000433e:	3e84                	.2byte	0x3e84
80004340:	529c                	lw	a5,32(a3)
80004342:	3ece                	.2byte	0x3ece
80004344:	0ff5                	addi	t6,t6,29
80004346:	3eaa                	.2byte	0x3eaa
80004348:	0a35                	addi	s4,s4,13
8000434a:	3ea9                	jal	80003ea4 <data+0x1080>
8000434c:	6b38                	.2byte	0x6b38
8000434e:	3f44                	.2byte	0x3f44
80004350:	3f4c9247          	.4byte	0x3f4c9247
80004354:	9c80                	.2byte	0x9c80
80004356:	3ee0                	.2byte	0x3ee0
80004358:	6e72                	.2byte	0x6e72
8000435a:	50ce3e9b          	.4byte	0x50ce3e9b
8000435e:	3ed4                	.2byte	0x3ed4
80004360:	2995                	jal	800047d4 <data+0x19b0>
80004362:	3f2a                	.2byte	0x3f2a
80004364:	3f5eaef3          	csrrs	t4,0x3f5,t4
80004368:	3f2246bf 3e6f39d2 	.8byte	0x3e6f39d23f2246bf
80004370:	5621                	li	a2,-24
80004372:	6a513f4f          	.4byte	0x6a513f4f
80004376:	f3563f1b          	.4byte	0xf3563f1b
8000437a:	3ea4                	.2byte	0x3ea4
8000437c:	3e8a0c07          	.4byte	0x3e8a0c07
80004380:	b5d0                	.2byte	0xb5d0
80004382:	44fa3d8f          	.4byte	0x44fa3d8f
80004386:	3ece                	.2byte	0x3ece
80004388:	76ee                	.2byte	0x76ee
8000438a:	3e6d                	jal	80003f44 <data+0x1120>
8000438c:	9f88                	.2byte	0x9f88
8000438e:	3e5f 95e1 3e64      	.byte	0x5f, 0x3e, 0xe1, 0x95, 0x64, 0x3e
80004394:	801f 3f0c 1444      	.byte	0x1f, 0x80, 0x0c, 0x3f, 0x44, 0x14
8000439a:	95923f3b          	.4byte	0x95923f3b
8000439e:	474e3f3b          	.4byte	0x474e3f3b
800043a2:	3f20                	.2byte	0x3f20
800043a4:	8566                	mv	a0,s9
800043a6:	3eb2                	.2byte	0x3eb2
800043a8:	809d                	srli	s1,s1,0x7
800043aa:	3f62                	.2byte	0x3f62
800043ac:	5ef6                	lw	t4,124(sp)
800043ae:	3cfc                	.2byte	0x3cfc
800043b0:	3f3769cb          	.4byte	0x3f3769cb
800043b4:	a65d                	j	8000475a <data+0x1936>
800043b6:	3f5a                	.2byte	0x3f5a
800043b8:	52c6                	lw	t0,112(sp)
800043ba:	3e94                	.2byte	0x3e94
800043bc:	98c4                	.2byte	0x98c4
800043be:	3df4                	.2byte	0x3df4
800043c0:	b95e                	.2byte	0xb95e
800043c2:	3e3e                	.2byte	0x3e3e
800043c4:	ae7d                	j	80004782 <data+0x195e>
800043c6:	3f1e                	.2byte	0x3f1e
800043c8:	fe50                	.2byte	0xfe50
800043ca:	3f62                	.2byte	0x3f62
800043cc:	409e                	lw	ra,196(sp)
800043ce:	3f7c                	.2byte	0x3f7c
800043d0:	cbd5                	beqz	a5,80004484 <data+0x1660>
800043d2:	d6243d6f          	jal	s10,7ff47934 <buflen.3+0x7ff478b4>
800043d6:	3e42                	.2byte	0x3e42
800043d8:	3eccd20b          	.4byte	0x3eccd20b
800043dc:	2652                	.2byte	0x2652
800043de:	3f39                	jal	800042fc <data+0x14d8>
800043e0:	3d7648c7          	.4byte	0x3d7648c7
800043e4:	fc48                	.2byte	0xfc48
800043e6:	3d0a                	.2byte	0x3d0a
800043e8:	3f74f4c7          	.4byte	0x3f74f4c7
800043ec:	baae                	.2byte	0xbaae
800043ee:	3f5e                	.2byte	0x3f5e
800043f0:	1a15                	addi	s4,s4,-27
800043f2:	3f24                	.2byte	0x3f24
800043f4:	dce4                	sw	s1,124(s1)
800043f6:	3e8e                	.2byte	0x3e8e
800043f8:	0308                	addi	a0,sp,384
800043fa:	10cf3e0f          	.4byte	0x10cf3e0f
800043fe:	3f36                	.2byte	0x3f36
80004400:	3f2e90ef          	jal	ra,800ed7f2 <__global_pointer$+0xe72ee>
80004404:	3ebe3cfb          	.4byte	0x3ebe3cfb
80004408:	f8b1                	bnez	s1,8000435c <data+0x1538>
8000440a:	3f6d                	jal	800043c4 <data+0x15a0>
8000440c:	3f67b667          	.4byte	0x3f67b667
80004410:	9e8c                	.2byte	0x9e8c
80004412:	0ce53f6b          	.4byte	0xce53f6b
80004416:	3f29                	jal	80004330 <data+0x150c>
80004418:	4bf9                	li	s7,30
8000441a:	e5da3f23          	.4byte	0xe5da3f23
8000441e:	e5fb3f0b          	.4byte	0xe5fb3f0b
80004422:	cc963c13          	sltiu	s8,a2,-823
80004426:	3f05                	jal	80004356 <data+0x1532>
80004428:	c8d2                	sw	s4,80(sp)
8000442a:	b9733f13          	sltiu	t5,t1,-1129
8000442e:	3f39                	jal	8000434c <data+0x1528>
80004430:	e608                	.2byte	0xe608
80004432:	3ec0                	.2byte	0x3ec0
80004434:	f234                	.2byte	0xf234
80004436:	3f5d                	jal	800043ec <data+0x15c8>
80004438:	4c8c                	lw	a1,24(s1)
8000443a:	3f58                	.2byte	0x3f58
8000443c:	215c                	.2byte	0x215c
8000443e:	3f10                	.2byte	0x3f10
80004440:	4185                	li	gp,1
80004442:	3ef9                	jal	80004020 <data+0x11fc>
80004444:	4aed                	li	s5,27
80004446:	61fa3f3b          	.4byte	0x61fa3f3b
8000444a:	3f0c                	.2byte	0x3f0c
8000444c:	9d80                	.2byte	0x9d80
8000444e:	00753f0b          	.4byte	0x753f0b
80004452:	3f6c                	.2byte	0x3f6c
80004454:	3f72caef          	jal	s5,8003104a <__global_pointer$+0x2ab46>
80004458:	87c6                	mv	a5,a7
8000445a:	3e89                	jal	80003fac <data+0x1188>
8000445c:	6502                	.2byte	0x6502
8000445e:	7ab33f7b          	.4byte	0x7ab33f7b
80004462:	e2a83f7b          	.4byte	0xe2a83f7b
80004466:	3e66                	.2byte	0x3e66
80004468:	1fb0                	addi	a2,sp,1016
8000446a:	3f5a                	.2byte	0x3f5a
8000446c:	94c8                	.2byte	0x94c8
8000446e:	3f1f 271c 3f01      	.byte	0x1f, 0x3f, 0x1c, 0x27, 0x01, 0x3f
80004474:	e072                	.2byte	0xe072
80004476:	3f7d                	jal	80004434 <data+0x1610>
80004478:	4b30                	lw	a2,80(a4)
8000447a:	e02a3eab          	.4byte	0xe02a3eab
8000447e:	3e3e                	.2byte	0x3e3e
80004480:	fddf 3eb9 3c92      	.byte	0xdf, 0xfd, 0xb9, 0x3e, 0x92, 0x3c
80004486:	74153e87          	.4byte	0x74153e87
8000448a:	3af73dbb          	.4byte	0x3af73dbb
8000448e:	3e91                	jal	80003fe2 <data+0x11be>
80004490:	3f6cab3f 3f3aba7c 	.8byte	0x3f3aba7c3f6cab3f
80004498:	8356                	mv	t1,s5
8000449a:	3f54                	.2byte	0x3f54
8000449c:	3f6efad7          	.4byte	0x3f6efad7
800044a0:	0e24                	addi	s1,sp,792
800044a2:	3e81                	jal	80003ff2 <data+0x11ce>
800044a4:	984e                	add	a6,a6,s3
800044a6:	3ed0                	.2byte	0x3ed0
800044a8:	b44a                	.2byte	0xb44a
800044aa:	3f28                	.2byte	0x3f28
800044ac:	fa05                	bnez	a2,800043dc <data+0x15b8>
800044ae:	3f20                	.2byte	0x3f20
800044b0:	7cd9                	lui	s9,0xffff6
800044b2:	3e8c                	.2byte	0x3e8c
800044b4:	00d6                	slli	ra,ra,0x15
800044b6:	3f01                	jal	800043c6 <data+0x15a2>
800044b8:	3e446d83          	.4byte	0x3e446d83
800044bc:	df1e                	sw	t2,188(sp)
800044be:	3f42                	.2byte	0x3f42
800044c0:	2f0a                	.2byte	0x2f0a
800044c2:	3e71                	jal	8000405e <data+0x123a>
800044c4:	3f3d7d5b          	.4byte	0x3f3d7d5b
800044c8:	f93c                	.2byte	0xf93c
800044ca:	3e9c                	.2byte	0x3e9c
800044cc:	30e0                	.2byte	0x30e0
800044ce:	3e21                	jal	80003fe6 <data+0x11c2>
800044d0:	485a                	lw	a6,148(sp)
800044d2:	3f30                	.2byte	0x3f30
800044d4:	4081                	li	ra,0
800044d6:	c4e73f13          	sltiu	t5,a4,-946
800044da:	3e0e                	.2byte	0x3e0e
800044dc:	c30d                	beqz	a4,800044fe <data+0x16da>
800044de:	f92b3f2b          	.4byte	0xf92b3f2b
800044e2:	3f4c                	.2byte	0x3f4c
800044e4:	d0ea                	sw	s10,96(sp)
800044e6:	3f7d                	jal	800044a4 <data+0x1680>
800044e8:	3e96afab          	.4byte	0x3e96afab
800044ec:	408e                	lw	ra,192(sp)
800044ee:	3e9c                	.2byte	0x3e9c
800044f0:	3f7bb15b          	.4byte	0x3f7bb15b
800044f4:	fd7e                	.2byte	0xfd7e
800044f6:	3f20                	.2byte	0x3f20
800044f8:	3efbb0a3          	.4byte	0x3efbb0a3
800044fc:	6074                	.2byte	0x6074
800044fe:	3eb1                	jal	8000405a <data+0x1236>
80004500:	3f649bc7          	.4byte	0x3f649bc7
80004504:	46d4                	lw	a3,12(a3)
80004506:	3f15                	jal	8000443a <data+0x1616>
80004508:	4db6                	lw	s11,76(sp)
8000450a:	3f21                	jal	80004422 <data+0x15fe>
8000450c:	4706                	lw	a4,64(sp)
8000450e:	3f51                	jal	800044a2 <data+0x167e>
80004510:	027e                	slli	tp,tp,0x1f
80004512:	3ea0                	.2byte	0x3ea0
80004514:	a216                	.2byte	0xa216
80004516:	41dd3eeb          	.4byte	0x41dd3eeb
8000451a:	3f40                	.2byte	0x3f40
8000451c:	8851                	andi	s0,s0,20
8000451e:	3f10                	.2byte	0x3f10
80004520:	1d32                	slli	s10,s10,0x2c
80004522:	3f5e                	.2byte	0x3f5e
80004524:	ec4e                	.2byte	0xec4e
80004526:	3ed1                	jal	800040fa <data+0x12d6>
80004528:	099a                	slli	s3,s3,0x6
8000452a:	3e46                	.2byte	0x3e46
8000452c:	6e7a                	.2byte	0x6e7a
8000452e:	3e11                	jal	80004042 <data+0x121e>
80004530:	f6fd                	bnez	a3,8000451e <data+0x16fa>
80004532:	3f69                	jal	800044cc <data+0x16a8>
80004534:	3b8e                	.2byte	0x3b8e
80004536:	3ec5                	jal	80004126 <data+0x1302>
80004538:	3abd                	jal	80003eb6 <data+0x1092>
8000453a:	0afe3f67          	.4byte	0xafe3f67
8000453e:	3e19                	jal	80004054 <data+0x1230>
80004540:	3e006c87          	.4byte	0x3e006c87
80004544:	dd6a                	sw	s10,184(sp)
80004546:	3e56                	.2byte	0x3e56
80004548:	3e9d1def          	jal	s11,800d6130 <__global_pointer$+0xcfc2c>
8000454c:	637c                	.2byte	0x637c
8000454e:	3f50                	.2byte	0x3f50
80004550:	3f48f7db          	.4byte	0x3f48f7db
80004554:	8041                	srli	s0,s0,0x10
80004556:	3ee4                	.2byte	0x3ee4
80004558:	4cf0                	lw	a2,92(s1)
8000455a:	3ef8                	.2byte	0x3ef8
8000455c:	f106                	.2byte	0xf106
8000455e:	3f15                	jal	80004492 <data+0x166e>
80004560:	2214                	.2byte	0x2214
80004562:	3ee0                	.2byte	0x3ee0
80004564:	7e5f 3f47 114d      	.byte	0x5f, 0x7e, 0x47, 0x3f, 0x4d, 0x11
8000456a:	3f64                	.2byte	0x3f64
8000456c:	3ed784cb          	.4byte	0x3ed784cb
80004570:	f798                	.2byte	0xf798
80004572:	3ed0                	.2byte	0x3ed0
80004574:	d31c                	sw	a5,32(a4)
80004576:	72b03ec3          	.4byte	0x72b03ec3
8000457a:	3f44                	.2byte	0x3f44
8000457c:	3e9a2f27          	.4byte	0x3e9a2f27
80004580:	3062                	.2byte	0x3062
80004582:	80cb3f77          	.4byte	0x80cb3f77
80004586:	f4cf3ecb          	.4byte	0xf4cf3ecb
8000458a:	3df2                	.2byte	0x3df2
8000458c:	6341                	lui	t1,0x10
8000458e:	3e8e                	.2byte	0x3e8e
80004590:	9171                	srli	a0,a0,0x3c
80004592:	a0773f5b          	.4byte	0xa0773f5b
80004596:	3f5e                	.2byte	0x3f5e
80004598:	ba02                	.2byte	0xba02
8000459a:	aea33f57          	.4byte	0xaea33f57
8000459e:	3f39                	jal	800044bc <data+0x1698>
800045a0:	2d3c                	.2byte	0x2d3c
800045a2:	c57a3e8f          	.4byte	0xc57a3e8f
800045a6:	0a423d13          	sltiu	s10,tp,164
800045aa:	3f5e                	.2byte	0x3f5e
800045ac:	366d                	jal	80004156 <data+0x1332>
800045ae:	3e46                	.2byte	0x3e46
800045b0:	b43e                	.2byte	0xb43e
800045b2:	44fe3ed7          	.4byte	0x44fe3ed7
800045b6:	3f45                	jal	80004566 <data+0x1742>
800045b8:	a0b6                	.2byte	0xa0b6
800045ba:	f5413eaf          	.4byte	0xf5413eaf
800045be:	fc593f0b          	.4byte	0xfc593f0b
800045c2:	3f7a                	.2byte	0x3f7a
800045c4:	5f52                	lw	t5,52(sp)
800045c6:	3f26                	.2byte	0x3f26
800045c8:	b179                	j	80004256 <data+0x1432>
800045ca:	3eb8                	.2byte	0x3eb8
800045cc:	f434                	.2byte	0xf434
800045ce:	fb983f43          	.4byte	0xfb983f43
800045d2:	3dc4                	.2byte	0x3dc4
800045d4:	7f35                	lui	t5,0xfffed
800045d6:	3f58                	.2byte	0x3f58
800045d8:	ca75                	beqz	a2,800046cc <data+0x18a8>
800045da:	b08e3eb3          	.4byte	0xb08e3eb3
800045de:	3f08                	.2byte	0x3f08
800045e0:	3f1ffd93          	andi	s11,t6,1009
800045e4:	da1f 3e77 72f3      	.byte	0x1f, 0xda, 0x77, 0x3e, 0xf3, 0x72
800045ea:	3f74                	.2byte	0x3f74
800045ec:	95f6                	add	a1,a1,t4
800045ee:	e0153d07          	.4byte	0xe0153d07
800045f2:	3f1f e593 3f38      	.byte	0x1f, 0x3f, 0x93, 0xe5, 0x38, 0x3f
800045f8:	21e6                	.2byte	0x21e6
800045fa:	10773eab          	.4byte	0x10773eab
800045fe:	2fc23f17          	auipc	t5,0x2fc23
80004602:	3df5                	jal	800044fe <data+0x16da>
80004604:	df1a                	sw	t1,188(sp)
80004606:	42293ee7          	.4byte	0x42293ee7
8000460a:	3f5e                	.2byte	0x3f5e
8000460c:	3769                	jal	80004596 <data+0x1772>
8000460e:	3f7a                	.2byte	0x3f7a
80004610:	2008                	.2byte	0x2008
80004612:	3ea5                	jal	8000418a <data+0x1366>
80004614:	fc1a                	.2byte	0xfc1a
80004616:	3f35                	jal	80004552 <data+0x172e>
80004618:	3f33e5fb          	.4byte	0x3f33e5fb
8000461c:	26a2                	.2byte	0x26a2
8000461e:	3f1a                	.2byte	0x3f1a
80004620:	3882                	.2byte	0x3882
80004622:	f03d3f3f b43e3f11 	.8byte	0xb43e3f11f03d3f3f
8000462a:	4a843f4b          	.4byte	0x4a843f4b
8000462e:	3e2c                	.2byte	0x3e2c
80004630:	3eae6a77          	.4byte	0x3eae6a77
80004634:	1262                	slli	tp,tp,0x38
80004636:	3e0e                	.2byte	0x3e0e
80004638:	07e1                	addi	a5,a5,24 # ffff4018 <__global_pointer$+0x7ffedb14>
8000463a:	63283f37          	lui	t5,0x63283
8000463e:	3ea4                	.2byte	0x3ea4
80004640:	3f49e3eb          	.4byte	0x3f49e3eb
80004644:	04ee                	slli	s1,s1,0x1b
80004646:	2e413d9b          	.4byte	0x2e413d9b
8000464a:	3db1                	jal	800044a6 <data+0x1682>
8000464c:	835e                	mv	t1,s7
8000464e:	3f62                	.2byte	0x3f62
80004650:	dfd2                	sw	s4,252(sp)
80004652:	16053f6b          	.4byte	0x16053f6b
80004656:	3ee0                	.2byte	0x3ee0
80004658:	3ed667d7          	.4byte	0x3ed667d7
8000465c:	dd55                	beqz	a0,80004618 <data+0x17f4>
8000465e:	018a3f0b          	.4byte	0x18a3f0b
80004662:	3f2e                	.2byte	0x3f2e
80004664:	4d9c                	lw	a5,24(a1)
80004666:	56b43ebf c3403f14 	.8byte	0xc3403f1456b43ebf
8000466e:	638d3e9b          	.4byte	0x638d3e9b
80004672:	3dc4                	.2byte	0x3dc4
80004674:	3f69e7a7          	.4byte	0x3f69e7a7
80004678:	3f64f217          	auipc	tp,0x3f64f
8000467c:	c964                	sw	s1,84(a0)
8000467e:	3e5c                	.2byte	0x3e5c
80004680:	ae68                	.2byte	0xae68
80004682:	34403ebb          	.4byte	0x34403ebb
80004686:	a7093f43          	.4byte	0xa7093f43
8000468a:	3e45                	jal	8000423a <data+0x1416>
8000468c:	3f306727          	.4byte	0x3f306727
80004690:	3ef260b3          	.4byte	0x3ef260b3
80004694:	4fbe                	lw	t6,204(sp)
80004696:	3f65                	jal	8000464e <data+0x182a>
80004698:	3e951b93          	.4byte	0x3e951b93
8000469c:	a36e                	.2byte	0xa36e
8000469e:	3e61                	jal	80004236 <data+0x1412>
800046a0:	7ff6                	.2byte	0x7ff6
800046a2:	3eee                	.2byte	0x3eee
800046a4:	1038                	addi	a4,sp,40
800046a6:	3db2                	.2byte	0x3db2
800046a8:	f6f9                	bnez	a3,80004676 <data+0x1852>
800046aa:	3ec6                	.2byte	0x3ec6
800046ac:	7536                	.2byte	0x7536
800046ae:	3f4e                	.2byte	0x3f4e
800046b0:	1a7e                	slli	s4,s4,0x3f
800046b2:	1a693e67          	.4byte	0x1a693e67
800046b6:	3dd4                	.2byte	0x3dd4
800046b8:	9ae5                	andi	a3,a3,-7
800046ba:	3e02                	.2byte	0x3e02
800046bc:	a2a1                	j	80004804 <data+0x19e0>
800046be:	3c6a                	.2byte	0x3c6a
800046c0:	8fac                	.2byte	0x8fac
800046c2:	32053e37          	lui	t3,0x32053
800046c6:	2de83e5b          	.4byte	0x2de83e5b
800046ca:	3f66                	.2byte	0x3f66
800046cc:	3dce1deb          	.4byte	0x3dce1deb
800046d0:	d795                	beqz	a5,800045fc <data+0x17d8>
800046d2:	3f26                	.2byte	0x3f26
800046d4:	c3a8                	sw	a0,64(a5)
800046d6:	3ea2                	.2byte	0x3ea2
800046d8:	a112                	.2byte	0xa112
800046da:	3f25                	jal	80004612 <data+0x17ee>
800046dc:	b21c                	.2byte	0xb21c
800046de:	3ea9                	jal	80004238 <data+0x1414>
800046e0:	3f3108b3          	.4byte	0x3f3108b3
800046e4:	df1a                	sw	t1,188(sp)
800046e6:	babf3e67          	.4byte	0xbabf3e67
800046ea:	3f22                	.2byte	0x3f22
800046ec:	9514                	.2byte	0x9514
800046ee:	3f49                	jal	80004680 <data+0x185c>
800046f0:	3e0f7db7          	lui	s11,0x3e0f7
800046f4:	acd6                	.2byte	0xacd6
800046f6:	6d113f07          	.4byte	0x6d113f07
800046fa:	b6913b47          	.4byte	0xb6913b47
800046fe:	3f01                	jal	8000460e <data+0x17ea>
80004700:	3e95c22b          	.4byte	0x3e95c22b
80004704:	c4bd                	beqz	s1,80004772 <data+0x194e>
80004706:	3e48                	.2byte	0x3e48
80004708:	76e2                	.2byte	0x76e2
8000470a:	3e48                	.2byte	0x3e48
8000470c:	1180                	addi	s0,sp,224
8000470e:	3f44                	.2byte	0x3f44
80004710:	0768                	addi	a0,sp,908
80004712:	3dbc                	.2byte	0x3dbc
80004714:	5704                	lw	s1,40(a4)
80004716:	3ef9                	jal	800042f4 <data+0x14d0>
80004718:	3f7c7a5b          	.4byte	0x3f7c7a5b
8000471c:	c0e8                	sw	a0,68(s1)
8000471e:	3f0e                	.2byte	0x3f0e
80004720:	ed89                	bnez	a1,8000473a <data+0x1916>
80004722:	3f12                	.2byte	0x3f12
80004724:	eb8e                	.2byte	0xeb8e
80004726:	6c3c3ebf b4293eba 	.8byte	0xb4293eba6c3c3ebf
8000472e:	3f4c                	.2byte	0x3f4c
80004730:	f249                	bnez	a2,800046b2 <data+0x188e>
80004732:	3ef4                	.2byte	0x3ef4
80004734:	b9d0                	.2byte	0xb9d0
80004736:	5eb33efb          	.4byte	0x5eb33efb
8000473a:	3f50                	.2byte	0x3f50
8000473c:	5d10                	lw	a2,56(a0)
8000473e:	3f28                	.2byte	0x3f28
80004740:	a969                	j	80004bda <data+0x1db6>
80004742:	3f34                	.2byte	0x3f34
80004744:	8c9c                	.2byte	0x8c9c
80004746:	3f36                	.2byte	0x3f36
80004748:	20cd                	jal	8000482a <data+0x1a06>
8000474a:	3f42                	.2byte	0x3f42
8000474c:	01fc                	addi	a5,sp,204
8000474e:	cdf73eb7          	lui	t4,0xcdf73
80004752:	3cfd                	jal	80004250 <data+0x142c>
80004754:	839d                	srli	a5,a5,0x7
80004756:	5a0c3ecf          	.4byte	0x5a0c3ecf
8000475a:	3f30                	.2byte	0x3f30
8000475c:	3f38f723          	.4byte	0x3f38f723
80004760:	b995                	j	800043d4 <data+0x15b0>
80004762:	3f21                	jal	8000467a <data+0x1856>
80004764:	2995                	jal	80004bd8 <data+0x1db4>
80004766:	3ea6                	.2byte	0x3ea6
80004768:	3f028c37          	lui	s8,0x3f028
8000476c:	3f459903          	lh	s2,1012(a1)
80004770:	c1a0                	sw	s0,64(a1)
80004772:	3f5a                	.2byte	0x3f5a
80004774:	53a4                	lw	s1,96(a5)
80004776:	9f493f03          	.4byte	0x9f493f03
8000477a:	3e8e                	.2byte	0x3e8e
8000477c:	3e168ad7          	.4byte	0x3e168ad7
80004780:	3f3584d3          	.4byte	0x3f3584d3
80004784:	daba                	sw	a4,116(sp)
80004786:	3ef2                	.2byte	0x3ef2
80004788:	b435                	j	800041b4 <data+0x1390>
8000478a:	3f69                	jal	80004724 <data+0x1900>
8000478c:	05c0                	addi	s0,sp,708
8000478e:	3f4d                	jal	80004740 <data+0x191c>
80004790:	18df 3f76 2e7f      	.byte	0xdf, 0x18, 0x76, 0x3f, 0x7f, 0x2e
80004796:	3f66                	.2byte	0x3f66
80004798:	8d71                	and	a0,a0,a2
8000479a:	06683eb7          	lui	t4,0x6683
8000479e:	3f09                	jal	800046b0 <data+0x188c>
800047a0:	48ae                	lw	a7,200(sp)
800047a2:	3e8c                	.2byte	0x3e8c
800047a4:	fcd6                	.2byte	0xfcd6
800047a6:	3f38                	.2byte	0x3f38
800047a8:	7521                	lui	a0,0xfffe8
800047aa:	9d7c3eab          	.4byte	0x9d7c3eab
800047ae:	3f40                	.2byte	0x3f40
800047b0:	66f9                	lui	a3,0x1e
800047b2:	650e3e5b          	.4byte	0x650e3e5b
800047b6:	3e18                	.2byte	0x3e18
800047b8:	f4f5                	bnez	s1,800047a4 <data+0x1980>
800047ba:	3ed1                	jal	8000438e <data+0x156a>
800047bc:	3f6b8327          	.4byte	0x3f6b8327
800047c0:	a5df 3f5c 6d1e      	.byte	0xdf, 0xa5, 0x5c, 0x3f, 0x1e, 0x6d
800047c6:	3e2c                	.2byte	0x3e2c
800047c8:	084a                	slli	a6,a6,0x12
800047ca:	3e8e                	.2byte	0x3e8e
800047cc:	3f64944f          	.4byte	0x3f64944f
800047d0:	dd16                	sw	t0,184(sp)
800047d2:	3f12                	.2byte	0x3f12
800047d4:	5e31                	li	t3,-20
800047d6:	8b613f77          	.4byte	0x8b613f77
800047da:	3f1d                	jal	80004710 <data+0x18ec>
800047dc:	5aee                	lw	s5,248(sp)
800047de:	3e52                	.2byte	0x3e52
800047e0:	3e94e5f7          	.4byte	0x3e94e5f7
800047e4:	5e5f 3e00 2fbe      	.byte	0x5f, 0x5e, 0x00, 0x3e, 0xbe, 0x2f
800047ea:	3f7a                	.2byte	0x3f7a
800047ec:	d22d                	beqz	a2,8000474e <data+0x192a>
800047ee:	3e14                	.2byte	0x3e14
800047f0:	6b3c                	.2byte	0x6b3c
800047f2:	fec53f23          	.4byte	0xfec53f23
800047f6:	3e82                	.2byte	0x3e82
800047f8:	ae82                	.2byte	0xae82
800047fa:	3e95                	jal	8000436e <data+0x154a>
800047fc:	e01e                	.2byte	0xe01e
800047fe:	3eb1                	jal	8000435a <data+0x1536>
80004800:	ecc0                	.2byte	0xecc0
80004802:	3f3a                	.2byte	0x3f3a
80004804:	2dd8                	.2byte	0x2dd8
80004806:	3e52                	.2byte	0x3e52
80004808:	d73d                	beqz	a4,80004776 <data+0x1952>
8000480a:	059f3e17          	auipc	t3,0x59f3
8000480e:	3f31                	jal	8000472a <data+0x1906>
80004810:	3dd5cfab          	.4byte	0x3dd5cfab
80004814:	bc88                	.2byte	0xbc88
80004816:	3f01                	jal	80004726 <data+0x1902>
80004818:	305e                	.2byte	0x305e
8000481a:	3e68                	.2byte	0x3e68
8000481c:	bc99                	j	80004272 <data+0x144e>
8000481e:	3ec1                	jal	800043ee <data+0x15ca>
80004820:	e579                	bnez	a0,800048ee <data+0x1aca>
80004822:	3e6a                	.2byte	0x3e6a
80004824:	c6a8                	sw	a0,72(a3)
80004826:	ef203f0f          	.4byte	0xef203f0f
8000482a:	3e05                	jal	8000435a <data+0x1536>
8000482c:	2639                	jal	80004b3a <data+0x1d16>
8000482e:	dfdb3ee3          	.4byte	0xdfdb3ee3
80004832:	3f35                	jal	8000476e <data+0x194a>
80004834:	7642                	.2byte	0x7642
80004836:	3f0a                	.2byte	0x3f0a
80004838:	2caa                	.2byte	0x2caa
8000483a:	3eba                	.2byte	0x3eba
8000483c:	85ba                	mv	a1,a4
8000483e:	3f12                	.2byte	0x3f12
80004840:	918a                	add	gp,gp,sp
80004842:	3f35                	jal	8000477e <data+0x195a>
80004844:	1a7a                	slli	s4,s4,0x3e
80004846:	3f24                	.2byte	0x3f24
80004848:	33f0                	.2byte	0x33f0
8000484a:	3eee                	.2byte	0x3eee
8000484c:	dd40                	sw	s0,60(a0)
8000484e:	3e90                	.2byte	0x3e90
80004850:	3f1b78ab          	.4byte	0x3f1b78ab
80004854:	3da52ac7          	.4byte	0x3da52ac7
80004858:	3efa0ab7          	lui	s5,0x3efa0
8000485c:	eb96                	.2byte	0xeb96
8000485e:	3f65                	jal	80004816 <data+0x19f2>
80004860:	3e52f3c3          	.4byte	0x3e52f3c3
80004864:	3eee6a33          	.4byte	0x3eee6a33
80004868:	031d                	addi	t1,t1,7 # 10007 <buflen.3+0xff87>
8000486a:	3d32                	.2byte	0x3d32
8000486c:	282c                	.2byte	0x282c
8000486e:	3f58                	.2byte	0x3f58
80004870:	b47c                	.2byte	0xb47c
80004872:	3f38                	.2byte	0x3f38
80004874:	eee5                	bnez	a3,8000496c <data+0x1b48>
80004876:	60ee3eab          	.4byte	0x60ee3eab
8000487a:	3e44                	.2byte	0x3e44
8000487c:	4278                	lw	a4,68(a2)
8000487e:	82e83ee7          	.4byte	0x82e83ee7
80004882:	3f0a                	.2byte	0x3f0a
80004884:	1c15                	addi	s8,s8,-27 # 3f027fe5 <buflen.3+0x3f027f65>
80004886:	3eae                	.2byte	0x3eae
80004888:	3e129b6b          	.4byte	0x3e129b6b
8000488c:	3cde                	.2byte	0x3cde
8000488e:	3f25                	jal	800047c6 <data+0x19a2>
80004890:	ca92                	sw	tp,84(sp)
80004892:	3f58                	.2byte	0x3f58
80004894:	65e4                	.2byte	0x65e4
80004896:	3ebd                	jal	80004414 <data+0x15f0>
80004898:	675e                	.2byte	0x675e
8000489a:	200c3cc3          	.4byte	0x200c3cc3
8000489e:	3d9c                	.2byte	0x3d9c
800048a0:	7989                	lui	s3,0xfffe2
800048a2:	3f6e                	.2byte	0x3f6e
800048a4:	5bc8                	lw	a0,52(a5)
800048a6:	3e1e                	.2byte	0x3e1e
800048a8:	171e                	slli	a4,a4,0x27
800048aa:	3f05                	jal	800047da <data+0x19b6>
800048ac:	5975                	li	s2,-3
800048ae:	3f24                	.2byte	0x3f24
800048b0:	0d45                	addi	s10,s10,17 # 15011 <buflen.3+0x14f91>
800048b2:	3f32                	.2byte	0x3f32
800048b4:	3f622d73          	csrrs	s10,0x3f6,tp
800048b8:	7c78                	.2byte	0x7c78
800048ba:	3d7d3e5b          	.4byte	0x3d7d3e5b
800048be:	47dc3ecf          	.4byte	0x47dc3ecf
800048c2:	3f06                	.2byte	0x3f06
800048c4:	3f2df927          	.4byte	0x3f2df927
800048c8:	3f300d6f          	jal	s10,800054ba <coeffs+0x756>
800048cc:	021d                	addi	tp,tp,7 # bf65367f <__global_pointer$+0x3f64d17b>
800048ce:	9e803e07          	.4byte	0x9e803e07
800048d2:	3f42                	.2byte	0x3f42
800048d4:	3e344b2b          	.4byte	0x3e344b2b
800048d8:	83a5                	srli	a5,a5,0x9
800048da:	3cf5                	jal	800043d6 <data+0x15b2>
800048dc:	5b70                	lw	a2,116(a4)
800048de:	47e53f77          	.4byte	0x47e53f77
800048e2:	3f24                	.2byte	0x3f24
800048e4:	6278                	.2byte	0x6278
800048e6:	3d96                	.2byte	0x3d96
800048e8:	839d                	srli	a5,a5,0x7
800048ea:	f8c23f4f          	.4byte	0xf8c23f4f
800048ee:	3eb9                	jal	8000444c <data+0x1628>
800048f0:	3ed18783          	lb	a5,1005(gp) # 800068f1 <__global_pointer$+0x3ed>
800048f4:	d838                	sw	a4,112(s0)
800048f6:	9d9d3b1b          	.4byte	0x9d9d3b1b
800048fa:	3f50                	.2byte	0x3f50
800048fc:	46aa                	lw	a3,136(sp)
800048fe:	53c53f73          	csrrc	t5,0x53c,a0
80004902:	44893eaf          	.4byte	0x44893eaf
80004906:	3f75                	jal	800048c2 <data+0x1a9e>
80004908:	8388                	.2byte	0x8388
8000490a:	3f18                	.2byte	0x3f18
8000490c:	d1d4                	sw	a3,36(a1)
8000490e:	3e41                	jal	8000449e <data+0x167a>
80004910:	eed4                	.2byte	0xeed4
80004912:	9ec33ea7          	.4byte	0x9ec33ea7
80004916:	3f1e                	.2byte	0x3f1e
80004918:	f0ed                	bnez	s1,800048fa <data+0x1ad6>
8000491a:	e2093e87          	.4byte	0xe2093e87
8000491e:	3e84                	.2byte	0x3e84
80004920:	35c6                	.2byte	0x35c6
80004922:	3f46                	.2byte	0x3f46
80004924:	0f95                	addi	t6,t6,5
80004926:	3f49                	jal	800048b8 <data+0x1a94>
80004928:	ca68                	sw	a0,84(a2)
8000492a:	3f66                	.2byte	0x3f66
8000492c:	85f5                	srai	a1,a1,0x1d
8000492e:	3ef0                	.2byte	0x3ef0
80004930:	3d08                	.2byte	0x3d08
80004932:	4cba3f2b          	.4byte	0x4cba3f2b
80004936:	3ded                	jal	80004830 <data+0x1a0c>
80004938:	e1b9                	bnez	a1,8000497e <data+0x1b5a>
8000493a:	3f5f 13d3 3e46      	.byte	0x5f, 0x3f, 0xd3, 0x13, 0x46, 0x3e
80004940:	a2ad                	j	80004aaa <data+0x1c86>
80004942:	ef283f4b          	.4byte	0xef283f4b
80004946:	8af83f0f          	.4byte	0x8af83f0f
8000494a:	3ea6                	.2byte	0x3ea6
8000494c:	413e                	lw	sp,204(sp)
8000494e:	3f0e                	.2byte	0x3f0e
80004950:	3f3d01f3          	.4byte	0x3f3d01f3
80004954:	e332                	.2byte	0xe332
80004956:	3eb5                	jal	800044d2 <data+0x16ae>
80004958:	9cae                	add	s9,s9,a1
8000495a:	3f05                	jal	8000488a <data+0x1a66>
8000495c:	93d1                	srli	a5,a5,0x34
8000495e:	3ec2                	.2byte	0x3ec2
80004960:	7bd0                	.2byte	0x7bd0
80004962:	40963edb          	.4byte	0x40963edb
80004966:	3eaa                	.2byte	0x3eaa
80004968:	464a                	lw	a2,144(sp)
8000496a:	3f3e                	.2byte	0x3f3e
8000496c:	8199                	srli	a1,a1,0x6
8000496e:	3f56                	.2byte	0x3f56
80004970:	7846                	.2byte	0x7846
80004972:	e3e73eab          	.4byte	0xe3e73eab
80004976:	3f0e                	.2byte	0x3f0e
80004978:	3f49c843          	.4byte	0x3f49c843
8000497c:	6606                	.2byte	0x6606
8000497e:	3f2d                	jal	800048b8 <data+0x1a94>
80004980:	2870                	.2byte	0x2870
80004982:	3f04                	.2byte	0x3f04
80004984:	3ec497b7          	lui	a5,0x3ec49
80004988:	da8c                	sw	a1,48(a3)
8000498a:	3f5d                	jal	80004940 <data+0x1b1c>
8000498c:	1fda                	slli	t6,t6,0x36
8000498e:	3f58                	.2byte	0x3f58
80004990:	3b6a9e6f          	jal	t3,800add46 <__global_pointer$+0xa7842>
80004994:	4c0a                	lw	s8,128(sp)
80004996:	86f03e07          	.4byte	0x86f03e07
8000499a:	3dd4                	.2byte	0x3dd4
8000499c:	3f472053          	.4byte	0x3f472053
800049a0:	3f6ae297          	auipc	t0,0x3f6ae
800049a4:	a33c                	.2byte	0xa33c
800049a6:	3bad                	jal	80004720 <data+0x18fc>
800049a8:	3e7d8d37          	lui	s10,0x3e7d8
800049ac:	1f9f 3f16 26ee      	.byte	0x9f, 0x1f, 0x16, 0x3f, 0xee, 0x26
800049b2:	3df8                	.2byte	0x3df8
800049b4:	3dfa28bb          	.4byte	0x3dfa28bb
800049b8:	3f47a483          	lw	s1,1012(a5) # 3ec493f4 <buflen.3+0x3ec49374>
800049bc:	3f6aa78b          	.4byte	0x3f6aa78b
800049c0:	3440                	.2byte	0x3440
800049c2:	4ff83f2f          	.4byte	0x4ff83f2f
800049c6:	d1913dd7          	.4byte	0xd1913dd7
800049ca:	3ef1                	jal	800045a6 <data+0x1782>
800049cc:	3ed86c87          	.4byte	0x3ed86c87
800049d0:	b731                	j	800048dc <data+0x1ab8>
800049d2:	85773eeb          	.4byte	0x85773eeb
800049d6:	3f7e                	.2byte	0x3f7e
800049d8:	3f4d801b          	.4byte	0x3f4d801b
800049dc:	9970                	.2byte	0x9970
800049de:	4b843f63          	.4byte	0x4b843f63
800049e2:	c6653ea7          	.4byte	0xc6653ea7
800049e6:	1b193f0b          	.4byte	0x1b193f0b
800049ea:	3f3a                	.2byte	0x3f3a
800049ec:	61e5                	lui	gp,0x19
800049ee:	3f29                	jal	80004908 <data+0x1ae4>
800049f0:	525d                	li	tp,-9
800049f2:	3dd5                	jal	800048e6 <data+0x1ac2>
800049f4:	e35c                	.2byte	0xe35c
800049f6:	8fd63f03          	.4byte	0x8fd63f03
800049fa:	3ead                	jal	80004574 <data+0x1750>
800049fc:	3f1ed2bb          	.4byte	0x3f1ed2bb
80004a00:	2f38                	.2byte	0x2f38
80004a02:	3f66                	.2byte	0x3f66
80004a04:	3e5289db          	.4byte	0x3e5289db
80004a08:	e52a                	.2byte	0xe52a
80004a0a:	3eed                	jal	80004604 <data+0x17e0>
80004a0c:	19d6                	slli	s3,s3,0x35
80004a0e:	ead13f67          	.4byte	0xead13f67
80004a12:	3eac                	.2byte	0x3eac
80004a14:	8362                	mv	t1,s8
80004a16:	3f11                	jal	8000492a <data+0x1b06>
80004a18:	3a2a                	.2byte	0x3a2a
80004a1a:	3f2e                	.2byte	0x3f2e
80004a1c:	afff                	.2byte	0xafff
80004a1e:	3e82                	.2byte	0x3e82
80004a20:	dea9                	beqz	a3,8000497a <data+0x1b56>
80004a22:	3f12                	.2byte	0x3f12
80004a24:	9d88                	.2byte	0x9d88
80004a26:	3f6d                	jal	800049e0 <data+0x1bbc>
80004a28:	779f 3f57 e386      	.byte	0x9f, 0x77, 0x57, 0x3f, 0x86, 0xe3
80004a2e:	3f31                	jal	8000494a <data+0x1b26>
80004a30:	29fa                	.2byte	0x29fa
80004a32:	3d4e                	.2byte	0x3d4e
80004a34:	1c32                	slli	s8,s8,0x2c
80004a36:	3f1f 8b11 3f1c      	.byte	0x1f, 0x3f, 0x11, 0x8b, 0x1c, 0x3f
80004a3c:	16df 3f3c 0621      	.byte	0xdf, 0x16, 0x3c, 0x3f, 0x21, 0x06
80004a42:	3f3a                	.2byte	0x3f3a
80004a44:	3dab9ecf          	.4byte	0x3dab9ecf
80004a48:	3e21348b          	.4byte	0x3e21348b
80004a4c:	86e4                	.2byte	0x86e4
80004a4e:	ca003e3f cd3e3d9f 	.8byte	0xcd3e3d9fca003e3f
80004a56:	3f75                	jal	80004a12 <data+0x1bee>
80004a58:	3d9bd9cb          	.4byte	0x3d9bd9cb
80004a5c:	3ecf3e03          	.4byte	0x3ecf3e03
80004a60:	3f0193a3          	sh	a6,999(gp) # 193e7 <buflen.3+0x19367>
80004a64:	9642                	add	a2,a2,a6
80004a66:	3f4d                	jal	80004a18 <data+0x1bf4>
80004a68:	07bc                	addi	a5,sp,968
80004a6a:	3d88                	.2byte	0x3d88
80004a6c:	3dee                	.2byte	0x3dee
80004a6e:	3f1c                	.2byte	0x3f1c
80004a70:	f35e                	.2byte	0xf35e
80004a72:	3ea2                	.2byte	0x3ea2
80004a74:	91c5                	srli	a1,a1,0x31
80004a76:	42633ecf          	.4byte	0x42633ecf
80004a7a:	3e6c                	.2byte	0x3e6c
80004a7c:	a39c                	.2byte	0xa39c
80004a7e:	3e5e                	.2byte	0x3e5e
80004a80:	6b59                	lui	s6,0x16
80004a82:	3f1c                	.2byte	0x3f1c
80004a84:	032e                	slli	t1,t1,0xb
80004a86:	3f32                	.2byte	0x3f32
80004a88:	15ec                	addi	a1,sp,748
80004a8a:	3df6                	.2byte	0x3df6
80004a8c:	e0c1                	bnez	s1,80004b0c <data+0x1ce8>
80004a8e:	3f72                	.2byte	0x3f72
80004a90:	0d20                	addi	s0,sp,664
80004a92:	fce73e87          	.4byte	0xfce73e87
80004a96:	3f4c                	.2byte	0x3f4c
80004a98:	e304                	.2byte	0xe304
80004a9a:	3e50                	.2byte	0x3e50
80004a9c:	6538                	.2byte	0x6538
80004a9e:	3f56                	.2byte	0x3f56
80004aa0:	9a70                	.2byte	0x9a70
80004aa2:	3f3a                	.2byte	0x3f3a
80004aa4:	3d3b0707          	.4byte	0x3d3b0707
80004aa8:	3f0848bf 3f477d0f 	.8byte	0x3f477d0f3f0848bf
80004ab0:	cc92                	sw	tp,88(sp)
80004ab2:	3f2a                	.2byte	0x3f2a
80004ab4:	4f40                	lw	s0,28(a4)
80004ab6:	93ee3e13          	sltiu	t3,t3,-1730
80004aba:	a5873f03          	.4byte	0xa5873f03
80004abe:	3ec9                	jal	80004690 <data+0x186c>
80004ac0:	1ea8                	addi	a0,sp,888
80004ac2:	3e69                	jal	8000465c <data+0x1838>
80004ac4:	e111                	bnez	a0,80004ac8 <data+0x1ca4>
80004ac6:	b47c3f2b          	.4byte	0xb47c3f2b
80004aca:	3f14                	.2byte	0x3f14
80004acc:	81d4                	.2byte	0x81d4
80004ace:	3e9c                	.2byte	0x3e9c
80004ad0:	ae3e                	.2byte	0xae3e
80004ad2:	3f21                	jal	800049ea <data+0x1bc6>
80004ad4:	2fa5                	jal	8000524c <coeffs+0x4e8>
80004ad6:	3f28                	.2byte	0x3f28
80004ad8:	dffc                	sw	a5,124(a5)
80004ada:	3f35                	jal	80004a16 <data+0x1bf2>
80004adc:	0785                	addi	a5,a5,1
80004ade:	3e0d                	jal	80004610 <data+0x17ec>
80004ae0:	8bf0                	.2byte	0x8bf0
80004ae2:	e0e33eeb          	.4byte	0xe0e33eeb
80004ae6:	3f46                	.2byte	0x3f46
80004ae8:	7fd0                	.2byte	0x7fd0
80004aea:	3fa73f3f a7163f47 	.8byte	0xa7163f473fa73f3f
80004af2:	3e3a                	.2byte	0x3e3a
80004af4:	9069                	srli	s0,s0,0x3a
80004af6:	3f7a                	.2byte	0x3f7a
80004af8:	e87d                	bnez	s0,80004bee <data+0x1dca>
80004afa:	3f7e                	.2byte	0x3f7e
80004afc:	151e                	slli	a0,a0,0x27
80004afe:	93963f4b          	.4byte	0x93963f4b
80004b02:	3f2c                	.2byte	0x3f2c
80004b04:	59d5                	li	s3,-11
80004b06:	3ded                	jal	80004a00 <data+0x1bdc>
80004b08:	f5e0                	.2byte	0xf5e0
80004b0a:	3f3d                	jal	80004a48 <data+0x1c24>
80004b0c:	1a26                	slli	s4,s4,0x29
80004b0e:	3f70                	.2byte	0x3f70
80004b10:	a822                	.2byte	0xa822
80004b12:	3f6a                	.2byte	0x3f6a
80004b14:	2eb2                	.2byte	0x2eb2
80004b16:	3f72                	.2byte	0x3f72
80004b18:	7f5f 3f46 4291      	.byte	0x5f, 0x7f, 0x46, 0x3f, 0x91, 0x42
80004b1e:	3f25                	jal	80004a56 <data+0x1c32>
80004b20:	df11                	beqz	a4,80004a3c <data+0x1c18>
80004b22:	3f7d                	jal	80004ae0 <data+0x1cbc>
80004b24:	903a                	c.add	zero,a4
80004b26:	3e9d                	jal	8000469c <data+0x1878>
80004b28:	7f41                	lui	t5,0xffff0
80004b2a:	3ed9                	jal	80004700 <data+0x18dc>
80004b2c:	abb4                	.2byte	0xabb4
80004b2e:	3f28                	.2byte	0x3f28
80004b30:	37da                	.2byte	0x37da
80004b32:	538f3ee7          	.4byte	0x538f3ee7
80004b36:	3f70                	.2byte	0x3f70
80004b38:	e671                	bnez	a2,80004c04 <data+0x1de0>
80004b3a:	e3973d57          	.4byte	0xe3973d57
80004b3e:	3f2d                	jal	80004a78 <data+0x1c54>
80004b40:	34a0                	.2byte	0x34a0
80004b42:	3f1c                	.2byte	0x3f1c
80004b44:	32e4                	.2byte	0x32e4
80004b46:	3f22                	.2byte	0x3f22
80004b48:	2481                	jal	80004d88 <coeffs+0x24>
80004b4a:	3f7c                	.2byte	0x3f7c
80004b4c:	8bbd                	andi	a5,a5,15
80004b4e:	c5333e77          	.4byte	0xc5333e77
80004b52:	3e94                	.2byte	0x3e94
80004b54:	047d                	addi	s0,s0,31 # 3ef8c01f <buflen.3+0x3ef8bf9f>
80004b56:	3f32                	.2byte	0x3f32
80004b58:	49a1                	li	s3,8
80004b5a:	3ec2                	.2byte	0x3ec2
80004b5c:	2880                	.2byte	0x2880
80004b5e:	3f40                	.2byte	0x3f40
80004b60:	cac1                	beqz	a3,80004bf0 <data+0x1dcc>
80004b62:	3ef1                	jal	8000473e <data+0x191a>
80004b64:	923e                	add	tp,tp,a5
80004b66:	3e02                	.2byte	0x3e02
80004b68:	3f076827          	.4byte	0x3f076827
80004b6c:	8f36                	mv	t5,a3
80004b6e:	a7c13f27          	.4byte	0xa7c13f27
80004b72:	3dd9                	jal	80004a48 <data+0x1c24>
80004b74:	50a4                	lw	s1,96(s1)
80004b76:	3f06                	.2byte	0x3f06
80004b78:	48aa                	lw	a7,136(sp)
80004b7a:	3ee5                	jal	80004772 <data+0x194e>
80004b7c:	c88e                	sw	gp,80(sp)
80004b7e:	fbdf3f47          	.4byte	0xfbdf3f47
80004b82:	68d33f23          	.4byte	0x68d33f23
80004b86:	3e42                	.2byte	0x3e42
80004b88:	e2a4                	.2byte	0xe2a4
80004b8a:	a4123f37          	lui	t5,0xa4123
80004b8e:	3f0e                	.2byte	0x3f0e
80004b90:	239a                	.2byte	0x239a
80004b92:	c4053e0b          	.4byte	0xc4053e0b
80004b96:	3efc                	.2byte	0x3efc
80004b98:	9a8d                	andi	a3,a3,-29
80004b9a:	9fe03e4f          	.4byte	0x9fe03e4f
80004b9e:	3e02                	.2byte	0x3e02
80004ba0:	2a20                	.2byte	0x2a20
80004ba2:	3f4d                	jal	80004b54 <data+0x1d30>
80004ba4:	a644                	.2byte	0xa644
80004ba6:	3f20                	.2byte	0x3f20
80004ba8:	539c                	lw	a5,32(a5)
80004baa:	3f49                	jal	80004b3c <data+0x1d18>
80004bac:	3e818c3b          	.4byte	0x3e818c3b
80004bb0:	f9e4                	.2byte	0xf9e4
80004bb2:	3f10                	.2byte	0x3f10
80004bb4:	3f56d213          	.4byte	0x3f56d213
80004bb8:	a9b5                	j	80005034 <coeffs+0x2d0>
80004bba:	3f6e                	.2byte	0x3f6e
80004bbc:	3e34ba0f          	.4byte	0x3e34ba0f
80004bc0:	09ee                	slli	s3,s3,0x1b
80004bc2:	3ef2                	.2byte	0x3ef2
80004bc4:	ce36                	sw	a3,28(sp)
80004bc6:	3f6a                	.2byte	0x3f6a
80004bc8:	22e6                	.2byte	0x22e6
80004bca:	3ed6                	.2byte	0x3ed6
80004bcc:	677f                	.2byte	0x677f
80004bce:	d2b33f43          	.4byte	0xd2b33f43
80004bd2:	3f1c                	.2byte	0x3f1c
80004bd4:	3644                	.2byte	0x3644
80004bd6:	3f4c                	.2byte	0x3f4c
80004bd8:	9011                	srli	s0,s0,0x24
80004bda:	c11e3f03          	.4byte	0xc11e3f03
80004bde:	3dad                	jal	80004a58 <data+0x1c34>
80004be0:	3f6cdad3          	.4byte	0x3f6cdad3
80004be4:	3d2f837b          	.4byte	0x3d2f837b
80004be8:	4749                	li	a4,18
80004bea:	3f3d                	jal	80004b28 <data+0x1d04>
80004bec:	fcb5                	bnez	s1,80004b68 <data+0x1d44>
80004bee:	3d00                	.2byte	0x3d00
80004bf0:	48dc                	lw	a5,20(s1)
80004bf2:	3f11                	jal	80004b06 <data+0x1ce2>
80004bf4:	ae79                	j	80004f92 <coeffs+0x22e>
80004bf6:	d85a3e3f 12ec3f4f 	.8byte	0x12ec3f4fd85a3e3f
80004bfe:	3e55                	jal	800047b2 <data+0x198e>
80004c00:	0ba6                	slli	s7,s7,0x9
80004c02:	3ec1                	jal	800047d2 <data+0x19ae>
80004c04:	bafe                	.2byte	0xbafe
80004c06:	e8cd3f07          	.4byte	0xe8cd3f07
80004c0a:	4ea93f43          	.4byte	0x4ea93f43
80004c0e:	9ffd3f03          	.4byte	0x9ffd3f03
80004c12:	cf703cc3          	.4byte	0xcf703cc3
80004c16:	f6a13f77          	.4byte	0xf6a13f77
80004c1a:	47303f23          	.4byte	0x47303f23
80004c1e:	75b43f53          	.4byte	0x75b43f53
80004c22:	3f18                	.2byte	0x3f18
80004c24:	949a                	add	s1,s1,t1
80004c26:	3eda                	.2byte	0x3eda
80004c28:	69e8                	.2byte	0x69e8
80004c2a:	3da0                	.2byte	0x3da0
80004c2c:	be5e                	.2byte	0xbe5e
80004c2e:	3e25                	jal	80004766 <data+0x1942>
80004c30:	38a0                	.2byte	0x38a0
80004c32:	3e88                	.2byte	0x3e88
80004c34:	bc66                	.2byte	0xbc66
80004c36:	3c2d                	jal	80004670 <data+0x184c>
80004c38:	3c58                	.2byte	0x3c58
80004c3a:	3ead                	jal	800047b4 <data+0x1990>
80004c3c:	3f3d2147          	.4byte	0x3f3d2147
80004c40:	3f6d8527          	.4byte	0x3f6d8527
80004c44:	af8e                	.2byte	0xaf8e
80004c46:	3f41                	jal	80004bd6 <data+0x1db2>
80004c48:	88c6                	mv	a7,a7
80004c4a:	3f00                	.2byte	0x3f00
80004c4c:	57da                	lw	a5,180(sp)
80004c4e:	3f0a                	.2byte	0x3f0a
80004c50:	e5d2                	.2byte	0xe5d2
80004c52:	3f0d                	jal	80004b84 <data+0x1d60>
80004c54:	1ad2                	slli	s5,s5,0x34
80004c56:	0ffe3c83          	.4byte	0xffe3c83
80004c5a:	3f20                	.2byte	0x3f20
80004c5c:	8149                	srli	a0,a0,0x12
80004c5e:	3ef5                	jal	8000485a <data+0x1a36>
80004c60:	10e4                	addi	s1,sp,108
80004c62:	3d71                	jal	80004afe <data+0x1cda>
80004c64:	ae8e                	.2byte	0xae8e
80004c66:	3eba                	.2byte	0x3eba
80004c68:	d070                	sw	a2,100(s0)
80004c6a:	3f02                	.2byte	0x3f02
80004c6c:	59ea                	lw	s3,184(sp)
80004c6e:	3f20                	.2byte	0x3f20
80004c70:	42e5                	li	t0,25
80004c72:	3f0d                	jal	80004ba4 <data+0x1d80>
80004c74:	3ea55193          	.4byte	0x3ea55193
80004c78:	9ea5                	.2byte	0x9ea5
80004c7a:	3f55                	jal	80004c2e <data+0x1e0a>
80004c7c:	c8a8                	sw	a0,80(s1)
80004c7e:	3f6d                	jal	80004c38 <data+0x1e14>
80004c80:	3f5a63c7          	.4byte	0x3f5a63c7
80004c84:	8772                	mv	a4,t3
80004c86:	3f19                	jal	80004b9c <data+0x1d78>
80004c88:	2ea1                	jal	80004fe0 <coeffs+0x27c>
80004c8a:	3ee2                	.2byte	0x3ee2
80004c8c:	3f6080c7          	.4byte	0x3f6080c7
80004c90:	56e2                	lw	a3,56(sp)
80004c92:	3f11                	jal	80004ba6 <data+0x1d82>
80004c94:	7011                	c.lui	zero,0xfffe4
80004c96:	3da8                	.2byte	0x3da8
80004c98:	3f33c7f7          	.4byte	0x3f33c7f7
80004c9c:	3259                	jal	80004622 <data+0x17fe>
80004c9e:	583f3e27          	.4byte	0x583f3e27
80004ca2:	3f02                	.2byte	0x3f02
80004ca4:	d534                	sw	a3,104(a0)
80004ca6:	787d3f47          	.4byte	0x787d3f47
80004caa:	3ea6                	.2byte	0x3ea6
80004cac:	748e                	.2byte	0x748e
80004cae:	3f46                	.2byte	0x3f46
80004cb0:	8c26                	mv	s8,s1
80004cb2:	3f4a                	.2byte	0x3f4a
80004cb4:	da59                	beqz	a2,80004c4a <data+0x1e26>
80004cb6:	3f29                	jal	80004bd0 <data+0x1dac>
80004cb8:	95d5                	srai	a1,a1,0x35
80004cba:	114d3f03          	.4byte	0x114d3f03
80004cbe:	3f38                	.2byte	0x3f38
80004cc0:	13f0                	addi	a2,sp,492
80004cc2:	d5783ed7          	.4byte	0xd5783ed7
80004cc6:	d24e3c83          	.4byte	0xd24e3c83
80004cca:	3e84                	.2byte	0x3e84
80004ccc:	6fca                	.2byte	0x6fca
80004cce:	3f79                	jal	80004c6c <data+0x1e48>
80004cd0:	7825                	lui	a6,0xfffe9
80004cd2:	79253d03          	.4byte	0x79253d03
80004cd6:	3f62                	.2byte	0x3f62
80004cd8:	60dd                	lui	ra,0x17
80004cda:	3ee8                	.2byte	0x3ee8
80004cdc:	43fe                	lw	t2,220(sp)
80004cde:	3dba                	.2byte	0x3dba
80004ce0:	3e7f41af          	.4byte	0x3e7f41af
80004ce4:	00de                	slli	ra,ra,0x17
80004ce6:	a26a3f77          	.4byte	0xa26a3f77
80004cea:	13513f37          	lui	t5,0x13513
80004cee:	3f4d                	jal	80004ca0 <data+0x1e7c>
80004cf0:	5350                	lw	a2,36(a4)
80004cf2:	41103e93          	sltiu	t4,zero,1041
80004cf6:	3f0d                	jal	80004c28 <data+0x1e04>
80004cf8:	dbf9                	beqz	a5,80004cce <data+0x1eaa>
80004cfa:	3f3a                	.2byte	0x3f3a
80004cfc:	357a                	.2byte	0x357a
80004cfe:	3e10                	.2byte	0x3e10
80004d00:	2208                	.2byte	0x2208
80004d02:	cd253e1b          	.4byte	0xcd253e1b
80004d06:	c4b93e2f          	.4byte	0xc4b93e2f
80004d0a:	3c91                	jal	8000475e <data+0x193a>
80004d0c:	1f64                	addi	s1,sp,956
80004d0e:	3f38                	.2byte	0x3f38
80004d10:	3e820297          	auipc	t0,0x3e820
80004d14:	561d                	li	a2,-25
80004d16:	3f38                	.2byte	0x3f38
80004d18:	3f61ec0b          	.4byte	0x3f61ec0b
80004d1c:	598a                	lw	s3,160(sp)
80004d1e:	2b523f43          	.4byte	0x2b523f43
80004d22:	3f00                	.2byte	0x3f00
80004d24:	a0e4                	.2byte	0xa0e4
80004d26:	3e54                	.2byte	0x3e54
80004d28:	ce18                	sw	a4,24(a2)
80004d2a:	3f09                	jal	80004c3c <data+0x1e18>
80004d2c:	6ef0                	.2byte	0x6ef0
80004d2e:	3e95                	jal	800048a2 <data+0x1a7e>
80004d30:	3f5f02a3          	sb	s5,997(t5) # 135133e5 <buflen.3+0x13513365>
80004d34:	3fdd                	jal	80004d2a <data+0x1f06>
80004d36:	3d56                	.2byte	0x3d56
80004d38:	3140                	.2byte	0x3140
80004d3a:	3c32                	.2byte	0x3c32
80004d3c:	1915                	addi	s2,s2,-27
80004d3e:	3e95                	jal	800048b2 <data+0x1a8e>
80004d40:	14c6                	slli	s1,s1,0x31
80004d42:	3d8c                	.2byte	0x3d8c
80004d44:	63fa                	.2byte	0x63fa
80004d46:	3e8a                	.2byte	0x3e8a
80004d48:	f8a9                	bnez	s1,80004c9a <data+0x1e76>
80004d4a:	d0d93e87          	.4byte	0xd0d93e87
80004d4e:	3dcd                	jal	80004c40 <data+0x1e1c>
80004d50:	ac86                	.2byte	0xac86
80004d52:	3e1e                	.2byte	0x3e1e
80004d54:	3f382cc3          	.4byte	0x3f382cc3
80004d58:	3e440aaf          	.4byte	0x3e440aaf
80004d5c:	f6f9                	bnez	a3,80004d2a <data+0x1f06>
80004d5e:	3ece                	.2byte	0x3ece
80004d60:	2da1                	jal	800053b8 <coeffs+0x654>
80004d62:	          	.4byte	0xedc3f2f

80004d64 <coeffs>:
80004d64:	0edc                	addi	a5,sp,852
80004d66:	3f59                	jal	80004cfc <data+0x1ed8>
80004d68:	f53c                	.2byte	0xf53c
80004d6a:	3ee8                	.2byte	0x3ee8
80004d6c:	8598                	.2byte	0x8598
80004d6e:	3f16                	.2byte	0x3f16
80004d70:	5ccd                	li	s9,-13
80004d72:	3e88                	.2byte	0x3e88
80004d74:	a850                	.2byte	0xa850
80004d76:	0dae3ebf 15053f39 	.8byte	0x15053f390dae3ebf
80004d7e:	3f51                	jal	80004d12 <data+0x1eee>
80004d80:	311a                	.2byte	0x311a
80004d82:	a6b13f0f          	.4byte	0xa6b13f0f
80004d86:	3b32                	.2byte	0x3b32
80004d88:	4fce                	lw	t6,208(sp)
80004d8a:	3f25                	jal	80004cc2 <data+0x1e9e>
80004d8c:	a555                	j	80005430 <coeffs+0x6cc>
80004d8e:	3f2d                	jal	80004cc8 <data+0x1ea4>
80004d90:	96bc                	.2byte	0x96bc
80004d92:	3f58                	.2byte	0x3f58
80004d94:	5ecc                	lw	a1,60(a3)
80004d96:	3f3a                	.2byte	0x3f3a
80004d98:	88e8                	.2byte	0x88e8
80004d9a:	3f50                	.2byte	0x3f50
80004d9c:	4a62                	lw	s4,24(sp)
80004d9e:	3e34                	.2byte	0x3e34
80004da0:	f18d                	bnez	a1,80004cc2 <data+0x1e9e>
80004da2:	3e11                	jal	800048b6 <data+0x1a92>
80004da4:	3ed307af          	.4byte	0x3ed307af
80004da8:	3eaa6373          	csrrsi	t1,0x3ea,20
80004dac:	2fb6                	.2byte	0x2fb6
80004dae:	3f64                	.2byte	0x3f64
80004db0:	7a10                	.2byte	0x7a10
80004db2:	3f7a                	.2byte	0x3f7a
80004db4:	c3d2                	sw	s4,196(sp)
80004db6:	3e98                	.2byte	0x3e98
80004db8:	c4a4                	sw	s1,72(s1)
80004dba:	3ea6                	.2byte	0x3ea6
80004dbc:	78e2                	.2byte	0x78e2
80004dbe:	3dfe                	.2byte	0x3dfe
80004dc0:	f3f1                	bnez	a5,80004d84 <coeffs+0x20>
80004dc2:	6cf03f3f 4aae3f1b 	.8byte	0x4aae3f1b6cf03f3f
80004dca:	3f0e                	.2byte	0x3f0e
80004dcc:	3548                	.2byte	0x3548
80004dce:	3e3c                	.2byte	0x3e3c
80004dd0:	8805                	andi	s0,s0,1
80004dd2:	3e62                	.2byte	0x3e62
80004dd4:	47d8                	lw	a4,12(a5)
80004dd6:	aa933f17          	auipc	t5,0xaa933
80004dda:	3d8d                	jal	80004c4c <data+0x1e28>
80004ddc:	4320                	lw	s0,64(a4)
80004dde:	ad693f67          	.4byte	0xad693f67
80004de2:	3ee0                	.2byte	0x3ee0
80004de4:	3001                	jal	800045e4 <data+0x17c0>
80004de6:	3f06                	.2byte	0x3f06
80004de8:	9171                	srli	a0,a0,0x3c
80004dea:	850a3efb          	.4byte	0x850a3efb
80004dee:	3f34                	.2byte	0x3f34
80004df0:	0429                	addi	s0,s0,10
80004df2:	3f66                	.2byte	0x3f66
80004df4:	3e5b599b          	.4byte	0x3e5b599b
80004df8:	9a20                	.2byte	0x9a20
80004dfa:	3f05                	jal	80004d2a <data+0x1f06>
80004dfc:	3eea6a87          	.4byte	0x3eea6a87
80004e00:	2435                	jal	8000502c <coeffs+0x2c8>
80004e02:	3e5e                	.2byte	0x3e5e
80004e04:	a776                	.2byte	0xa776
80004e06:	6a623e2b          	.4byte	0x6a623e2b
80004e0a:	fe483e0b          	.4byte	0xfe483e0b
80004e0e:	3d80                	.2byte	0x3d80
80004e10:	48aa                	lw	a7,136(sp)
80004e12:	3f65                	jal	80004dca <coeffs+0x66>
80004e14:	6380                	.2byte	0x6380
80004e16:	c9863f73          	csrrc	t5,hpmcounter24h,a2
80004e1a:	3e74                	.2byte	0x3e74
80004e1c:	4fc2                	lw	t6,16(sp)
80004e1e:	3d1c                	.2byte	0x3d1c
80004e20:	3eb9ceaf          	.4byte	0x3eb9ceaf
80004e24:	3f12641b          	.4byte	0x3f12641b
80004e28:	3f6df4c3          	.4byte	0x3f6df4c3
80004e2c:	c2ce                	sw	s3,68(sp)
80004e2e:	3eae                	.2byte	0x3eae
80004e30:	c604                	sw	s1,8(a2)
80004e32:	3f5e                	.2byte	0x3f5e
80004e34:	ae08                	.2byte	0xae08
80004e36:	3e82                	.2byte	0x3e82
80004e38:	3eee6107          	.4byte	0x3eee6107
80004e3c:	ba06                	.2byte	0xba06
80004e3e:	3f1e                	.2byte	0x3f1e
80004e40:	c3f4                	sw	a3,68(a5)
80004e42:	3f5c                	.2byte	0x3f5c
80004e44:	6406                	.2byte	0x6406
80004e46:	c7583caf          	.4byte	0xc7583caf
80004e4a:	3f4d                	jal	80004dfc <coeffs+0x98>
80004e4c:	2fa9                	jal	800055a6 <coeffs+0x842>
80004e4e:	c2f83dab          	.4byte	0xc2f83dab
80004e52:	3f1c                	.2byte	0x3f1c
80004e54:	7caa                	.2byte	0x7caa
80004e56:	3f5f a915 3f7c      	.byte	0x5f, 0x3f, 0x15, 0xa9, 0x7c, 0x3f
80004e5c:	9ac8                	.2byte	0x9ac8
80004e5e:	3d51                	jal	80004cf2 <data+0x1ece>
80004e60:	5958                	lw	a4,52(a0)
80004e62:	e39b3ecb          	.4byte	0xe39b3ecb
80004e66:	3ef4                	.2byte	0x3ef4
80004e68:	9eb6                	add	t4,t4,a3
80004e6a:	3f41                	jal	80004dfa <coeffs+0x96>
80004e6c:	61aa                	.2byte	0x61aa
80004e6e:	48343e97          	auipc	t4,0x48343
80004e72:	3f31                	jal	80004d8e <coeffs+0x2a>
80004e74:	3e8e718b          	.4byte	0x3e8e718b
80004e78:	e619                	bnez	a2,80004e86 <coeffs+0x122>
80004e7a:	3f40                	.2byte	0x3f40
80004e7c:	d142                	sw	a6,160(sp)
80004e7e:	3f68                	.2byte	0x3f68
80004e80:	3ee44567          	.4byte	0x3ee44567
80004e84:	c0c2                	sw	a6,64(sp)
80004e86:	f0fa3f63          	.4byte	0xf0fa3f63
80004e8a:	3f78                	.2byte	0x3f78
80004e8c:	d699                	beqz	a3,80004d9a <coeffs+0x36>
80004e8e:	3eae                	.2byte	0x3eae
80004e90:	2442                	.2byte	0x2442
80004e92:	8db03f57          	.4byte	0x8db03f57
80004e96:	3e58                	.2byte	0x3e58
80004e98:	3ec260b3          	.4byte	0x3ec260b3
80004e9c:	2e66                	.2byte	0x2e66
80004e9e:	3e50                	.2byte	0x3e50
80004ea0:	3f488787          	.4byte	0x3f488787
80004ea4:	3e9e4a17          	auipc	s4,0x3e9e4
80004ea8:	6cf0                	.2byte	0x6cf0
80004eaa:	4d8c3f0b          	.4byte	0x4d8c3f0b
80004eae:	7c203f27          	.4byte	0x7c203f27
80004eb2:	3f10                	.2byte	0x3f10
80004eb4:	5cd1                	li	s9,-12
80004eb6:	0f023c27          	.4byte	0xf023c27
80004eba:	3e8c                	.2byte	0x3e8c
80004ebc:	8028                	.2byte	0x8028
80004ebe:	3eda                	.2byte	0x3eda
80004ec0:	8a44                	.2byte	0x8a44
80004ec2:	3d01                	jal	80004cd2 <data+0x1eae>
80004ec4:	76c9                	lui	a3,0xffff2
80004ec6:	3d9e                	.2byte	0x3d9e
80004ec8:	a5f8                	.2byte	0xa5f8
80004eca:	3f02                	.2byte	0x3f02
80004ecc:	db9c                	sw	a5,48(a5)
80004ece:	3f24                	.2byte	0x3f24
80004ed0:	4b94                	lw	a3,16(a5)
80004ed2:	9e1b3f73          	csrrc	t5,0x9e1,s6
80004ed6:	3efe                	.2byte	0x3efe
80004ed8:	f538                	.2byte	0xf538
80004eda:	3f31                	jal	80004df6 <coeffs+0x92>
80004edc:	f080                	.2byte	0xf080
80004ede:	3eb1                	jal	80004a3a <data+0x1c16>
80004ee0:	3f79c0db          	.4byte	0x3f79c0db
80004ee4:	27dd                	jal	800056ca <coeffs+0x966>
80004ee6:	a9153ee7          	.4byte	0xa9153ee7
80004eea:	3f24                	.2byte	0x3f24
80004eec:	08ff                	.2byte	0x8ff
80004eee:	ccc43f2b          	.4byte	0xccc43f2b
80004ef2:	3f3a                	.2byte	0x3f3a
80004ef4:	1e5c                	addi	a5,sp,820
80004ef6:	da403ecb          	.4byte	0xda403ecb
80004efa:	bd9d3f13          	sltiu	t5,s10,-1063
80004efe:	9fe03e33          	.4byte	0x9fe03e33
80004f02:	3e92                	.2byte	0x3e92
80004f04:	cb3a                	sw	a4,148(sp)
80004f06:	3f0c                	.2byte	0x3f0c
80004f08:	5ac4                	lw	s1,52(a3)
80004f0a:	3f04                	.2byte	0x3f04
80004f0c:	d0c8                	sw	a0,36(s1)
80004f0e:	3e01                	jal	80004a1e <data+0x1bfa>
80004f10:	eea6                	.2byte	0xeea6
80004f12:	3f42                	.2byte	0x3f42
80004f14:	8b0d                	andi	a4,a4,3
80004f16:	3f65                	jal	80004ece <coeffs+0x16a>
80004f18:	ff76                	.2byte	0xff76
80004f1a:	3ea8                	.2byte	0x3ea8
80004f1c:	762e                	.2byte	0x762e
80004f1e:	c0a53f0b          	.4byte	0xc0a53f0b
80004f22:	3e52                	.2byte	0x3e52
80004f24:	3f5fecbb          	.4byte	0x3f5fecbb
80004f28:	0ee5                	addi	t4,t4,25 # c8347e87 <__global_pointer$+0x48341983>
80004f2a:	2c493e4b          	.4byte	0x2c493e4b
80004f2e:	3f45                	jal	80004ede <coeffs+0x17a>
80004f30:	3f628a2f          	.4byte	0x3f628a2f
80004f34:	9674                	.2byte	0x9674
80004f36:	3ef1                	jal	80004b12 <data+0x1cee>
80004f38:	b131                	j	80004b44 <data+0x1d20>
80004f3a:	3e49                	jal	80004acc <data+0x1ca8>
80004f3c:	3f6aa2d3          	.4byte	0x3f6aa2d3
80004f40:	3f0c9a13          	.4byte	0x3f0c9a13
80004f44:	1255                	addi	tp,tp,-11 # fffffff5 <__global_pointer$+0x7fff9af1>
80004f46:	3f35                	jal	80004e82 <coeffs+0x11e>
80004f48:	3f0f7e6f          	jal	t3,800fc338 <__global_pointer$+0xf5e34>
80004f4c:	3effcb4f          	.4byte	0x3effcb4f
80004f50:	858c                	.2byte	0x858c
80004f52:	3e51                	jal	80004ae6 <data+0x1cc2>
80004f54:	3e82e74f          	.4byte	0x3e82e74f
80004f58:	dde8                	sw	a0,124(a1)
80004f5a:	3f58                	.2byte	0x3f58
80004f5c:	88b5                	andi	s1,s1,13
80004f5e:	3e38                	.2byte	0x3e38
80004f60:	0796                	slli	a5,a5,0x5
80004f62:	3f35                	jal	80004e9e <coeffs+0x13a>
80004f64:	0dd8                	addi	a4,sp,724
80004f66:	2b3d3efb          	.4byte	0x2b3d3efb
80004f6a:	3f59                	jal	80004f00 <coeffs+0x19c>
80004f6c:	a8b5                	j	80004fe8 <coeffs+0x284>
80004f6e:	3edf 161a 3f63      	.byte	0xdf, 0x3e, 0x1a, 0x16, 0x63, 0x3f
80004f74:	0afa                	slli	s5,s5,0x1e
80004f76:	3eda                	.2byte	0x3eda
80004f78:	c3c2                	sw	a6,196(sp)
80004f7a:	3f1c                	.2byte	0x3f1c
80004f7c:	9829                	andi	s0,s0,-22
80004f7e:	3e31                	jal	80004a9a <data+0x1c76>
80004f80:	3f79d0b7          	lui	ra,0x3f79d
80004f84:	7a18                	.2byte	0x7a18
80004f86:	3e04                	.2byte	0x3e04
80004f88:	b478                	.2byte	0xb478
80004f8a:	3e99                	jal	80004ae0 <data+0x1cbc>
80004f8c:	bf5d                	j	80004f42 <coeffs+0x1de>
80004f8e:	3f3c                	.2byte	0x3f3c
80004f90:	347a                	.2byte	0x347a
80004f92:	3cd5                	jal	80004a86 <data+0x1c62>
80004f94:	5a08                	lw	a0,48(a2)
80004f96:	3f21                	jal	80004eae <coeffs+0x14a>
80004f98:	6b16                	.2byte	0x6b16
80004f9a:	3e90                	.2byte	0x3e90
80004f9c:	66f1                	lui	a3,0x1c
80004f9e:	3e6d                	jal	80004b58 <data+0x1d34>
80004fa0:	3f0146c3          	.4byte	0x3f0146c3
80004fa4:	f288                	.2byte	0xf288
80004fa6:	3ef5                	jal	80004ba2 <data+0x1d7e>
80004fa8:	0568                	addi	a0,sp,652
80004faa:	3b06                	.2byte	0x3b06
80004fac:	a1e4                	.2byte	0xa1e4
80004fae:	c47e3ec7          	.4byte	0xc47e3ec7
80004fb2:	c9473f73          	csrrc	t5,hpmcounter20h,a4
80004fb6:	e78a3e4b          	.4byte	0xe78a3e4b
80004fba:	3e9c                	.2byte	0x3e9c
80004fbc:	5e92                	lw	t4,36(sp)
80004fbe:	3f00                	.2byte	0x3f00
80004fc0:	3f6804a7          	.4byte	0x3f6804a7
80004fc4:	f234                	.2byte	0xf234
80004fc6:	3f5d                	jal	80004f7c <coeffs+0x218>
80004fc8:	722a                	.2byte	0x722a
80004fca:	3a88                	.2byte	0x3a88
80004fcc:	3051                	jal	80004850 <data+0x1a2c>
80004fce:	2ee03de3          	.4byte	0x2ee03de3
80004fd2:	22213dfb          	.4byte	0x22213dfb
80004fd6:	3f59                	jal	80004f6c <coeffs+0x208>
80004fd8:	3e95106f          	j	80056bc0 <__global_pointer$+0x506bc>
80004fdc:	6d72                	.2byte	0x6d72
80004fde:	3f54                	.2byte	0x3f54
80004fe0:	521a                	lw	tp,164(sp)
80004fe2:	3ead                	jal	80004b5c <data+0x1d38>
80004fe4:	cdd1                	beqz	a1,80005080 <coeffs+0x31c>
80004fe6:	3e0e                	.2byte	0x3e0e
80004fe8:	8399                	srli	a5,a5,0x6
80004fea:	3e88                	.2byte	0x3e88
80004fec:	fc9c                	.2byte	0xfc9c
80004fee:	3e66                	.2byte	0x3e66
80004ff0:	b8e1                	j	800048c8 <data+0x1aa4>
80004ff2:	3f10                	.2byte	0x3f10
80004ff4:	059f 3f61 4a84      	.byte	0x9f, 0x05, 0x61, 0x3f, 0x84, 0x4a
80004ffa:	3ecc                	.2byte	0x3ecc
80004ffc:	8998                	.2byte	0x8998
80004ffe:	3f0a                	.2byte	0x3f0a
80005000:	0929                	addi	s2,s2,10
80005002:	3c09                	jal	80004a14 <data+0x1bf0>
80005004:	ff7e                	.2byte	0xff7e
80005006:	3f32                	.2byte	0x3f32
80005008:	920c                	.2byte	0x920c
8000500a:	3e8e                	.2byte	0x3e8e
8000500c:	3d0cdc87          	.4byte	0x3d0cdc87
80005010:	b2ea                	.2byte	0xb2ea
80005012:	3ea8                	.2byte	0x3ea8
80005014:	7e91                	lui	t4,0xfffe4
80005016:	4f093f0f          	.4byte	0x4f093f0f
8000501a:	3e88                	.2byte	0x3e88
8000501c:	a038                	.2byte	0xa038
8000501e:	3f55                	jal	80004fd2 <coeffs+0x26e>
80005020:	7c46                	.2byte	0x7c46
80005022:	5b143d27          	.4byte	0x5b143d27
80005026:	3e89                	jal	80004b78 <data+0x1d54>
80005028:	c4a8                	sw	a0,72(s1)
8000502a:	3e65                	jal	80004be2 <data+0x1dbe>
8000502c:	3f7e3c43          	.4byte	0x3f7e3c43
80005030:	3fb8                	.2byte	0x3fb8
80005032:	e4ef3eef          	jal	t4,7fff8680 <buflen.3+0x7fff8600>
80005036:	35a83f07          	.4byte	0x35a83f07
8000503a:	3efd                	jal	80004c38 <data+0x1e14>
8000503c:	4906                	lw	s2,64(sp)
8000503e:	ae473ebf be1b3ecb 	.8byte	0xbe1b3ecbae473ebf
80005046:	3efd                	jal	80004c44 <data+0x1e20>
80005048:	151a                	slli	a0,a0,0x26
8000504a:	3ef8                	.2byte	0x3ef8
8000504c:	3cff                	.2byte	0x3cff
8000504e:	3f05                	jal	80004f7e <coeffs+0x21a>
80005050:	025c                	addi	a5,sp,260
80005052:	3eb0                	.2byte	0x3eb0
80005054:	92c5                	srli	a3,a3,0x31
80005056:	3f46                	.2byte	0x3f46
80005058:	3eb354e3          	bge	t1,a1,80005c40 <coeffs+0xedc>
8000505c:	3f2eaa3b          	.4byte	0x3f2eaa3b
80005060:	4628                	lw	a0,72(a2)
80005062:	3f6a                	.2byte	0x3f6a
80005064:	ec4e                	.2byte	0xec4e
80005066:	3f1d                	jal	80004f9c <coeffs+0x238>
80005068:	6962                	.2byte	0x6962
8000506a:	3f68                	.2byte	0x3f68
8000506c:	3ef5fe33          	.4byte	0x3ef5fe33
80005070:	e3b9                	bnez	a5,800050b6 <coeffs+0x352>
80005072:	3efd                	jal	80004c70 <data+0x1e4c>
80005074:	1d26                	slli	s10,s10,0x29
80005076:	3e9d                	jal	80004bec <data+0x1dc8>
80005078:	3cb11623          	sh	a1,972(sp)
8000507c:	1601                	addi	a2,a2,-32 # ffffcfe0 <__global_pointer$+0x7fff6adc>
8000507e:	3f01                	jal	80004f8e <coeffs+0x22a>
80005080:	0868                	addi	a0,sp,28
80005082:	a36e3bc7          	.4byte	0xa36e3bc7
80005086:	3e99                	jal	80004bdc <data+0x1db8>
80005088:	e3c9                	bnez	a5,8000510a <coeffs+0x3a6>
8000508a:	3f09                	jal	80004f9c <coeffs+0x238>
8000508c:	cf2d                	beqz	a4,80005106 <coeffs+0x3a2>
8000508e:	50483eab          	.4byte	0x50483eab
80005092:	3f5c                	.2byte	0x3f5c
80005094:	0b4e                	slli	s6,s6,0x13
80005096:	3f4e                	.2byte	0x3f4e
80005098:	1f3a                	slli	t5,t5,0x2e
8000509a:	3e2e                	.2byte	0x3e2e
8000509c:	c80c                	sw	a1,16(s0)
8000509e:	3f66                	.2byte	0x3f66
800050a0:	c6c1                	beqz	a3,80005128 <coeffs+0x3c4>
800050a2:	3d95                	jal	80004f16 <coeffs+0x1b2>
800050a4:	f1d0                	.2byte	0xf1d0
800050a6:	3ec9                	jal	80004c78 <data+0x1e54>
800050a8:	3f65044f          	.4byte	0x3f65044f
800050ac:	58c5                	li	a7,-15
800050ae:	3f0a                	.2byte	0x3f0a
800050b0:	3f6cddd7          	.4byte	0x3f6cddd7
800050b4:	3ec73e47          	.4byte	0x3ec73e47
800050b8:	fd48                	.2byte	0xfd48
800050ba:	3f69                	jal	80005054 <coeffs+0x2f0>
800050bc:	69f5                	lui	s3,0x1d
800050be:	3ea5                	jal	80004c36 <data+0x1e12>
800050c0:	7e41                	lui	t3,0xffff0
800050c2:	3f62                	.2byte	0x3f62
800050c4:	0faa                	slli	t6,t6,0xa
800050c6:	3ecc                	.2byte	0x3ecc
800050c8:	f1fa                	.2byte	0xf1fa
800050ca:	fd7a3f57          	.4byte	0xfd7a3f57
800050ce:	3e69                	jal	80004c68 <data+0x1e44>
800050d0:	6a66                	.2byte	0x6a66
800050d2:	3e32                	.2byte	0x3e32
800050d4:	71ac                	.2byte	0x71ac
800050d6:	3e46                	.2byte	0x3e46
800050d8:	2999                	jal	8000552e <coeffs+0x7ca>
800050da:	3f69                	jal	80005074 <coeffs+0x310>
800050dc:	060c                	addi	a1,sp,768
800050de:	88b93db7          	lui	s11,0x88b93
800050e2:	92fb3f4f          	.4byte	0x92fb3f4f
800050e6:	3f51                	jal	8000507a <coeffs+0x316>
800050e8:	3f11dfdb          	.4byte	0x3f11dfdb
800050ec:	f52c                	.2byte	0xf52c
800050ee:	3e9c                	.2byte	0x3e9c
800050f0:	8638                	.2byte	0x8638
800050f2:	3e00                	.2byte	0x3e00
800050f4:	688c                	.2byte	0x688c
800050f6:	90a83f17          	auipc	t5,0x90a83
800050fa:	be7b3f4f          	.4byte	0xbe7b3f4f
800050fe:	3e06                	.2byte	0x3e06
80005100:	3f643a43          	.4byte	0x3f643a43
80005104:	e8e2                	.2byte	0xe8e2
80005106:	3eb2                	.2byte	0x3eb2
80005108:	2e6a                	.2byte	0x2e6a
8000510a:	8a7a3eef          	jal	t4,7ffa89b0 <buflen.3+0x7ffa8930>
8000510e:	3f40                	.2byte	0x3f40
80005110:	fefc                	.2byte	0xfefc
80005112:	3e1d                	jal	80004c48 <data+0x1e24>
80005114:	3f231ef3          	csrrw	t4,0x3f2,t1
80005118:	3f275297          	auipc	t0,0x3f275
8000511c:	e25d                	bnez	a2,800051c2 <coeffs+0x45e>
8000511e:	3e68                	.2byte	0x3e68
80005120:	3d017ebb          	.4byte	0x3d017ebb
80005124:	3f0c56e7          	.4byte	0x3f0c56e7
80005128:	915c                	.2byte	0x915c
8000512a:	3f44                	.2byte	0x3f44
8000512c:	3f74f5c3          	.4byte	0x3f74f5c3
80005130:	f60a                	.2byte	0xf60a
80005132:	8ea43f6f          	jal	t5,7ff4821c <buflen.3+0x7ff4819c>
80005136:	3f2e                	.2byte	0x3f2e
80005138:	3e8f559b          	.4byte	0x3e8f559b
8000513c:	3f52744b          	.4byte	0x3f52744b
80005140:	b3c4                	.2byte	0xb3c4
80005142:	3da4                	.2byte	0x3da4
80005144:	e63a                	.2byte	0xe63a
80005146:	3dfc                	.2byte	0x3dfc
80005148:	3d4f3a9b          	.4byte	0x3d4f3a9b
8000514c:	6202                	.2byte	0x6202
8000514e:	3e82                	.2byte	0x3e82
80005150:	7265                	lui	tp,0xffff9
80005152:	3ea2                	.2byte	0x3ea2
80005154:	3f761d43          	.4byte	0x3f761d43
80005158:	2385                	jal	800056b8 <coeffs+0x954>
8000515a:	3eb0                	.2byte	0x3eb0
8000515c:	076c                	addi	a1,sp,908
8000515e:	b02d3e03          	.4byte	0xb02d3e03
80005162:	f19d3f47          	.4byte	0xf19d3f47
80005166:	3f69                	jal	80005100 <coeffs+0x39c>
80005168:	3ede7903          	.4byte	0x3ede7903
8000516c:	3f67d1bb          	.4byte	0x3f67d1bb
80005170:	5a29                	li	s4,-22
80005172:	3f01                	jal	80005082 <coeffs+0x31e>
80005174:	3461                	jal	80004bfc <data+0x1dd8>
80005176:	16ad3e7b          	.4byte	0x16ad3e7b
8000517a:	3d18                	.2byte	0x3d18
8000517c:	28d8                	.2byte	0x28d8
8000517e:	41893ecb          	.4byte	0x41893ecb
80005182:	3f18                	.2byte	0x3f18
80005184:	3f01188f          	.4byte	0x3f01188f
80005188:	7b9a                	.2byte	0x7b9a
8000518a:	3e18                	.2byte	0x3e18
8000518c:	c148                	sw	a0,4(a0)
8000518e:	de4c3f3f 717e3e10 	.8byte	0x717e3e10de4c3f3f
80005196:	3f4d                	jal	80005148 <coeffs+0x3e4>
80005198:	f9df 3f79 3dfb      	.byte	0xdf, 0xf9, 0x79, 0x3f, 0xfb, 0x3d
8000519e:	3e31                	jal	80004cba <data+0x1e96>
800051a0:	90c9                	srli	s1,s1,0x32
800051a2:	8b3b3eb3          	.4byte	0x8b3b3eb3
800051a6:	3f3e                	.2byte	0x3f3e
800051a8:	1505                	addi	a0,a0,-31 # fffe7fe1 <__global_pointer$+0x7ffe1add>
800051aa:	3e05                	jal	80004cda <data+0x1eb6>
800051ac:	7cdd                	lui	s9,0xffff7
800051ae:	33be3e93          	sltiu	t4,t3,827
800051b2:	3eda                	.2byte	0x3eda
800051b4:	e01e                	.2byte	0xe01e
800051b6:	3ed1                	jal	80004d8a <coeffs+0x26>
800051b8:	95cd                	srai	a1,a1,0x33
800051ba:	3de1                	jal	80005092 <coeffs+0x32e>
800051bc:	3f01b057          	.4byte	0x3f01b057
800051c0:	8cc5                	or	s1,s1,s1
800051c2:	3f08                	.2byte	0x3f08
800051c4:	998d                	andi	a1,a1,-29
800051c6:	3e24                	.2byte	0x3e24
800051c8:	e158                	.2byte	0xe158
800051ca:	3f42                	.2byte	0x3f42
800051cc:	c5f8                	sw	a4,76(a1)
800051ce:	3f59                	jal	80005164 <coeffs+0x400>
800051d0:	1d32                	slli	s10,s10,0x2c
800051d2:	3dfa                	.2byte	0x3dfa
800051d4:	995f 3dd7 87e4      	.byte	0x5f, 0x99, 0xd7, 0x3d, 0xe4, 0x87
800051da:	3f7a                	.2byte	0x3f7a
800051dc:	f3d4                	.2byte	0xf3d4
800051de:	3f66                	.2byte	0x3f66
800051e0:	9928                	.2byte	0x9928
800051e2:	3c9c                	.2byte	0x3c9c
800051e4:	88a9                	andi	s1,s1,10
800051e6:	c58f3ed3          	.4byte	0xc58f3ed3
800051ea:	3f4e                	.2byte	0x3f4e
800051ec:	3f063ef3          	csrrc	t4,0x3f0,a2
800051f0:	916d                	srli	a0,a0,0x3b
800051f2:	3f28                	.2byte	0x3f28
800051f4:	46fa                	lw	a3,156(sp)
800051f6:	3f58                	.2byte	0x3f58
800051f8:	d34e                	sw	s3,164(sp)
800051fa:	a5ec3f6b          	.4byte	0xa5ec3f6b
800051fe:	3e81                	jal	80004d4e <data+0x1f2a>
80005200:	bf12                	.2byte	0xbf12
80005202:	3eb2                	.2byte	0x3eb2
80005204:	3d8f91a3          	sh	s8,963(t6)
80005208:	3e10                	.2byte	0x3e10
8000520a:	3b14                	.2byte	0x3b14
8000520c:	2e38                	.2byte	0x2e38
8000520e:	63b23efb          	.4byte	0x63b23efb
80005212:	3f5f 8e1d 3f7a      	.byte	0x5f, 0x3f, 0x1d, 0x8e, 0x7a, 0x3f
80005218:	3f29e69b          	.4byte	0x3f29e69b
8000521c:	3e64b05b          	.4byte	0x3e64b05b
80005220:	1959                	addi	s2,s2,-10
80005222:	3f39                	jal	80005140 <coeffs+0x3dc>
80005224:	2bdc                	.2byte	0x2bdc
80005226:	ea853f4b          	.4byte	0xea853f4b
8000522a:	3f02                	.2byte	0x3f02
8000522c:	ccde                	sw	s7,88(sp)
8000522e:	3e18                	.2byte	0x3e18
80005230:	6fac                	.2byte	0x6fac
80005232:	3e50                	.2byte	0x3e50
80005234:	3f1f1d3f 3f27e37e 	.8byte	0x3f27e37e3f1f1d3f
8000523c:	a8b1                	j	80005298 <coeffs+0x534>
8000523e:	3f3c                	.2byte	0x3f3c
80005240:	43a2                	lw	t2,8(sp)
80005242:	3f48                	.2byte	0x3f48
80005244:	89ad                	andi	a1,a1,11
80005246:	3ed5                	jal	80004e3a <coeffs+0xd6>
80005248:	6ea8                	.2byte	0x6ea8
8000524a:	3f16                	.2byte	0x3f16
8000524c:	8748                	.2byte	0x8748
8000524e:	b8023f67          	.4byte	0xb8023f67
80005252:	3f05                	jal	80005182 <coeffs+0x41e>
80005254:	f68c                	.2byte	0xf68c
80005256:	3f10                	.2byte	0x3f10
80005258:	7b1c                	.2byte	0x7b1c
8000525a:	3f4e                	.2byte	0x3f4e
8000525c:	3f0a9ccb          	.4byte	0x3f0a9ccb
80005260:	bae0                	.2byte	0xbae0
80005262:	3f7a                	.2byte	0x3f7a
80005264:	40bc                	lw	a5,64(s1)
80005266:	3f1d                	jal	8000519c <coeffs+0x438>
80005268:	dd6a                	sw	s10,184(sp)
8000526a:	3d86                	.2byte	0x3d86
8000526c:	4c5e                	lw	s8,212(sp)
8000526e:	0f6b3f23          	.4byte	0xf6b3f23
80005272:	af0c3eeb          	.4byte	0xaf0c3eeb
80005276:	3f7c                	.2byte	0x3f7c
80005278:	1f54                	addi	a3,sp,948
8000527a:	3f64                	.2byte	0x3f64
8000527c:	e73e                	.2byte	0xe73e
8000527e:	3f4e                	.2byte	0x3f4e
80005280:	1405                	addi	s0,s0,-31
80005282:	3d6a                	.2byte	0x3d6a
80005284:	b392                	.2byte	0xb392
80005286:	3f64                	.2byte	0x3f64
80005288:	fcb5                	bnez	s1,80005204 <coeffs+0x4a0>
8000528a:	3e98                	.2byte	0x3e98
8000528c:	3f6e04f3          	.4byte	0x3f6e04f3
80005290:	3f5f41af          	.4byte	0x3f5f41af
80005294:	64f5                	lui	s1,0x1d
80005296:	3f76                	.2byte	0x3f76
80005298:	c426                	sw	s1,8(sp)
8000529a:	3e1c                	.2byte	0x3e1c
8000529c:	5b08                	lw	a0,48(a4)
8000529e:	3f18                	.2byte	0x3f18
800052a0:	90d1                	srli	s1,s1,0x34
800052a2:	3f41                	jal	80005232 <coeffs+0x4ce>
800052a4:	3f2a1b8f          	.4byte	0x3f2a1b8f
800052a8:	3f3e8e3f 3f75acbd 	.8byte	0x3f75acbd3f3e8e3f
800052b0:	3e92719b          	.4byte	0x3e92719b
800052b4:	e37a                	.2byte	0xe37a
800052b6:	3ecc                	.2byte	0x3ecc
800052b8:	556d                	li	a0,-5
800052ba:	3f32                	.2byte	0x3f32
800052bc:	e404                	.2byte	0xe404
800052be:	36933d8b          	.4byte	0x36933d8b
800052c2:	3f51                	jal	80005256 <coeffs+0x4f2>
800052c4:	884c                	.2byte	0x884c
800052c6:	3e91                	jal	80004e1a <coeffs+0xb6>
800052c8:	03c9                	addi	t2,t2,18 # 7012 <buflen.3+0x6f92>
800052ca:	3f79                	jal	80005268 <coeffs+0x504>
800052cc:	3eaddd2b          	.4byte	0x3eaddd2b
800052d0:	bab2                	.2byte	0xbab2
800052d2:	3f59                	jal	80005268 <coeffs+0x504>
800052d4:	7ee5                	lui	t4,0xffff9
800052d6:	8b613f47          	.4byte	0x8b613f47
800052da:	3f61                	jal	80005272 <coeffs+0x50e>
800052dc:	7592                	.2byte	0x7592
800052de:	3f54                	.2byte	0x3f54
800052e0:	7f41                	lui	t5,0xffff0
800052e2:	3ec9                	jal	80004eb4 <coeffs+0x150>
800052e4:	670e                	.2byte	0x670e
800052e6:	3f72                	.2byte	0x3f72
800052e8:	83e0                	.2byte	0x83e0
800052ea:	47453eef          	jal	t4,8005875e <__global_pointer$+0x5225a>
800052ee:	3f5a                	.2byte	0x3f5a
800052f0:	161a                	slli	a2,a2,0x26
800052f2:	c2653f6f          	jal	t5,7ff58718 <buflen.3+0x7ff58698>
800052f6:	2e843eb7          	lui	t4,0x2e843
800052fa:	3f29                	jal	80005214 <coeffs+0x4b0>
800052fc:	b74a                	.2byte	0xb74a
800052fe:	3f7d                	jal	800052bc <coeffs+0x558>
80005300:	2989                	jal	80005752 <coeffs+0x9ee>
80005302:	3e81                	jal	80004e52 <coeffs+0xee>
80005304:	acde                	.2byte	0xacde
80005306:	3f75                	jal	800052c2 <coeffs+0x55e>
80005308:	bc3c                	.2byte	0xbc3c
8000530a:	b39a3f6b          	.4byte	0xb39a3f6b
8000530e:	3dfe                	.2byte	0x3dfe
80005310:	3f6c11d3          	.4byte	0x3f6c11d3
80005314:	3d976a2f          	.4byte	0x3d976a2f
80005318:	3f38317b          	.4byte	0x3f38317b
8000531c:	a2a5                	j	80005484 <coeffs+0x720>
8000531e:	3f2d                	jal	80005258 <coeffs+0x4f4>
80005320:	08d5                	addi	a7,a7,21 # 1000015 <buflen.3+0xffff95>
80005322:	3f3d                	jal	80005260 <coeffs+0x4fc>
80005324:	3eed7f73          	csrrci	t5,0x3ee,26
80005328:	4f51                	li	t5,20
8000532a:	344c3f23          	.4byte	0x344c3f23
8000532e:	3cc8                	.2byte	0x3cc8
80005330:	3166                	.2byte	0x3166
80005332:	3f5d                	jal	800052e8 <coeffs+0x584>
80005334:	3eab497b          	.4byte	0x3eab497b
80005338:	3dbdf117          	auipc	sp,0x3dbdf
8000533c:	680a                	.2byte	0x680a
8000533e:	3f2e                	.2byte	0x3f2e
80005340:	68e4                	.2byte	0x68e4
80005342:	3f1e                	.2byte	0x3f1e
80005344:	0f5e                	slli	t5,t5,0x17
80005346:	3d86                	.2byte	0x3d86
80005348:	d3e9                	beqz	a5,8000530a <coeffs+0x5a6>
8000534a:	3caa                	.2byte	0x3caa
8000534c:	472c                	lw	a1,72(a4)
8000534e:	3ef0                	.2byte	0x3ef0
80005350:	40d1                	li	ra,20
80005352:	3f58                	.2byte	0x3f58
80005354:	e200                	.2byte	0xe200
80005356:	3f66                	.2byte	0x3f66
80005358:	3e99322f          	.4byte	0x3e99322f
8000535c:	01c5                	addi	gp,gp,17 # 80006515 <__global_pointer$+0x11>
8000535e:	3e74                	.2byte	0x3e74
80005360:	490e                	lw	s2,192(sp)
80005362:	3f59                	jal	800052f8 <coeffs+0x594>
80005364:	5b08                	lw	a0,48(a4)
80005366:	3f44                	.2byte	0x3f44
80005368:	3db4                	.2byte	0x3db4
8000536a:	3dba                	.2byte	0x3dba
8000536c:	5f18                	lw	a4,56(a4)
8000536e:	3f48                	.2byte	0x3f48
80005370:	f12c                	.2byte	0xf12c
80005372:	3e00                	.2byte	0x3e00
80005374:	763a                	.2byte	0x763a
80005376:	3f40                	.2byte	0x3f40
80005378:	1672                	slli	a2,a2,0x3c
8000537a:	3f46                	.2byte	0x3f46
8000537c:	a21f 3ec1 2318      	.byte	0x1f, 0xa2, 0xc1, 0x3e, 0x18, 0x23
80005382:	3f36                	.2byte	0x3f36
80005384:	3f31d2af          	.4byte	0x3f31d2af
80005388:	3f00a783          	lw	a5,1008(ra) # 3f79d3f0 <buflen.3+0x3f79d370>
8000538c:	34ec                	.2byte	0x34ec
8000538e:	3f22                	.2byte	0x3f22
80005390:	bff4                	.2byte	0xbff4
80005392:	3f44                	.2byte	0x3f44
80005394:	63f5                	lui	t2,0x1d
80005396:	af213e63          	.4byte	0xaf213e63
8000539a:	3e9f c8c9 3f01      	.byte	0x9f, 0x3e, 0xc9, 0xc8, 0x01, 0x3f
800053a0:	3f2f98b7          	lui	a7,0x3f2f9
800053a4:	26e1                	jal	8000576c <coeffs+0xa08>
800053a6:	0a7c3f73          	csrrc	t5,0xa7,s8
800053aa:	3f08                	.2byte	0x3f08
800053ac:	ca1d                	beqz	a2,800053e2 <coeffs+0x67e>
800053ae:	3f0c                	.2byte	0x3f0c
800053b0:	975f 3e91 c89f      	.byte	0x5f, 0x97, 0x91, 0x3e, 0x9f, 0xc8
800053b6:	3f1f c89b 3e6c      	.byte	0x1f, 0x3f, 0x9b, 0xc8, 0x6c, 0x3e
800053bc:	3494                	.2byte	0x3494
800053be:	8a8b3f67          	.4byte	0x8a8b3f67
800053c2:	3f30                	.2byte	0x3f30
800053c4:	118c                	addi	a1,sp,224
800053c6:	3e81                	jal	80004f16 <coeffs+0x1b2>
800053c8:	b032                	.2byte	0xb032
800053ca:	3ebe                	.2byte	0x3ebe
800053cc:	cb5c                	sw	a5,20(a4)
800053ce:	3f08                	.2byte	0x3f08
800053d0:	aad6                	.2byte	0xaad6
800053d2:	3e1d                	jal	80004f08 <coeffs+0x1a4>
800053d4:	f141                	bnez	a0,80005354 <coeffs+0x5f0>
800053d6:	cbcd3f2b          	.4byte	0xcbcd3f2b
800053da:	3f45                	jal	8000538a <coeffs+0x626>
800053dc:	3b33c3e7          	.4byte	0x3b33c3e7
800053e0:	9891                	andi	s1,s1,-28
800053e2:	3ee0                	.2byte	0x3ee0
800053e4:	3f5d1383          	lh	t2,1013(s10) # 3e7d83f5 <buflen.3+0x3e7d8375>
800053e8:	12dc                	addi	a5,sp,356
800053ea:	3f49                	jal	8000537c <coeffs+0x618>
800053ec:	3f108883          	lb	a7,1009(ra)
800053f0:	89be                	mv	s3,a5
800053f2:	3f1d                	jal	80005328 <coeffs+0x5c4>
800053f4:	294e                	.2byte	0x294e
800053f6:	59923f0f          	.4byte	0x59923f0f
800053fa:	3f71                	jal	80005396 <coeffs+0x632>
800053fc:	59cd                	li	s3,-13
800053fe:	f7f93ea7          	.4byte	0xf7f93ea7
80005402:	3e81                	jal	80004f52 <coeffs+0x1ee>
80005404:	3ee4024b          	.4byte	0x3ee4024b
80005408:	e1d2                	.2byte	0xe1d2
8000540a:	3f75                	jal	800053c6 <coeffs+0x662>
8000540c:	7e1c                	.2byte	0x7e1c
8000540e:	da233cb7          	lui	s9,0xda233
80005412:	3f2a                	.2byte	0x3f2a
80005414:	72c5                	lui	t0,0xffff1
80005416:	84ba3e8b          	.4byte	0x84ba3e8b
8000541a:	e5b43f07          	.4byte	0xe5b43f07
8000541e:	3eb4                	.2byte	0x3eb4
80005420:	3e63810f          	.4byte	0x3e63810f
80005424:	3d78f367          	.4byte	0x3d78f367
80005428:	3f673cf7          	.4byte	0x3f673cf7
8000542c:	3f01abf3          	csrrs	s7,0x3f0,gp
80005430:	57d6                	lw	a5,116(sp)
80005432:	bc773f2f          	.4byte	0xbc773f2f
80005436:	3e09                	jal	80004f48 <coeffs+0x1e4>
80005438:	c0ec                	sw	a1,68(s1)
8000543a:	3ed1                	jal	8000500e <coeffs+0x2aa>
8000543c:	c4c1                	beqz	s1,800054c4 <coeffs+0x760>
8000543e:	efc83ebf 388f3ec5 	.8byte	0x388f3ec5efc83ebf
80005446:	3f48                	.2byte	0x3f48
80005448:	adac                	.2byte	0xadac
8000544a:	3f68                	.2byte	0x3f68
8000544c:	6299                	lui	t0,0x6
8000544e:	3f0a                	.2byte	0x3f0a
80005450:	53a0                	lw	s0,96(a5)
80005452:	3ee8                	.2byte	0x3ee8
80005454:	7979                	lui	s2,0xffffe
80005456:	3f2e                	.2byte	0x3f2e
80005458:	165d                	addi	a2,a2,-9
8000545a:	76193f0b          	.4byte	0x76193f0b
8000545e:	3f64                	.2byte	0x3f64
80005460:	8cfc                	.2byte	0x8cfc
80005462:	52723f0b          	.4byte	0x52723f0b
80005466:	3ea8                	.2byte	0x3ea8
80005468:	3ee9fd37          	lui	s10,0x3ee9f
8000546c:	5b29                	li	s6,-22
8000546e:	3e24                	.2byte	0x3e24
80005470:	3f635287          	.4byte	0x3f635287
80005474:	b07d                	j	80004d22 <data+0x1efe>
80005476:	3ecc                	.2byte	0x3ecc
80005478:	8740                	.2byte	0x8740
8000547a:	3ef9                	jal	80005058 <coeffs+0x2f4>
8000547c:	39c9                	jal	8000514e <coeffs+0x3ea>
8000547e:	3e11                	jal	80004f92 <coeffs+0x22e>
80005480:	3f585953          	.4byte	0x3f585953
80005484:	4ae4                	lw	s1,84(a3)
80005486:	3ee5                	jal	8000507e <coeffs+0x31a>
80005488:	298d                	jal	800058fa <coeffs+0xb96>
8000548a:	3e28                	.2byte	0x3e28
8000548c:	3376                	.2byte	0x3376
8000548e:	5ed53f03          	.4byte	0x5ed53f03
80005492:	3f38                	.2byte	0x3f38
80005494:	8f1d                	sub	a4,a4,a5
80005496:	3f31                	jal	800053b2 <coeffs+0x64e>
80005498:	a650                	.2byte	0xa650
8000549a:	3f5d                	jal	80005450 <coeffs+0x6ec>
8000549c:	3f713f07          	.4byte	0x3f713f07
800054a0:	1e54                	addi	a3,sp,820
800054a2:	3f41                	jal	80005432 <coeffs+0x6ce>
800054a4:	e358                	.2byte	0xe358
800054a6:	3f44                	.2byte	0x3f44
800054a8:	d5f5                	beqz	a1,80005494 <coeffs+0x730>
800054aa:	3ee5                	jal	800050a2 <coeffs+0x33e>
800054ac:	3ee0ec53          	.4byte	0x3ee0ec53
800054b0:	5276                	lw	tp,124(sp)
800054b2:	cb713f67          	.4byte	0xcb713f67
800054b6:	588a3f5b          	.4byte	0x588a3f5b
800054ba:	3f50                	.2byte	0x3f50
800054bc:	94b4                	.2byte	0x94b4
800054be:	3e94                	.2byte	0x3e94
800054c0:	03ff                	.2byte	0x3ff
800054c2:	3f24                	.2byte	0x3f24
800054c4:	0636                	slli	a2,a2,0xd
800054c6:	3f39                	jal	800053e4 <coeffs+0x680>
800054c8:	3f54acf3          	csrrs	s9,0x3f5,s1
800054cc:	6e7a                	.2byte	0x6e7a
800054ce:	3dc1                	jal	8000539e <coeffs+0x63a>
800054d0:	ff5c                	.2byte	0xff5c
800054d2:	3ece                	.2byte	0x3ece
800054d4:	86a1                	srai	a3,a3,0x8
800054d6:	a3e83ebf 0cbb3f7c 	.8byte	0xcbb3f7ca3e83ebf
800054de:	ec893f73          	csrrc	t5,0xec8,s2
800054e2:	45073f33          	.4byte	0x45073f33
800054e6:	1ba43ee3          	.4byte	0x1ba43ee3
800054ea:	3de1                	jal	800053c2 <coeffs+0x65e>
800054ec:	3f10                	.2byte	0x3f10
800054ee:	fac23f17          	auipc	t5,0xfac23
800054f2:	e7143f57          	.4byte	0xe7143f57
800054f6:	3f18                	.2byte	0x3f18
800054f8:	3f3b8d93          	addi	s11,s7,1011
800054fc:	5415                	li	s0,-27
800054fe:	3f30                	.2byte	0x3f30
80005500:	c869                	beqz	s0,800055d2 <coeffs+0x86e>
80005502:	3d38                	.2byte	0x3d38
80005504:	97f6                	add	a5,a5,t4
80005506:	3f65                	jal	800054be <coeffs+0x75a>
80005508:	1e2e                	slli	t3,t3,0x2b
8000550a:	3e4e                	.2byte	0x3e4e
8000550c:	3f43eb5b          	.4byte	0x3f43eb5b
80005510:	3f172713          	slti	a4,a4,1009
80005514:	6f65                	lui	t5,0x19
80005516:	3d89                	jal	80005368 <coeffs+0x604>
80005518:	3f352a63          	.4byte	0x3f352a63
8000551c:	8af0                	.2byte	0x8af0
8000551e:	3eb0                	.2byte	0x3eb0
80005520:	1134                	addi	a3,sp,168
80005522:	3f56                	.2byte	0x3f56
80005524:	5575                	li	a0,-3
80005526:	3e20                	.2byte	0x3e20
80005528:	bba1                	j	80005280 <coeffs+0x51c>
8000552a:	3f48                	.2byte	0x3f48
8000552c:	63aa                	.2byte	0x63aa
8000552e:	3f3d                	jal	8000546c <coeffs+0x708>
80005530:	3c783383          	.4byte	0x3c783383
80005534:	3f19142b          	.4byte	0x3f19142b
80005538:	c076                	sw	t4,0(sp)
8000553a:	3cf5                	jal	80005036 <coeffs+0x2d2>
8000553c:	e4de                	.2byte	0xe4de
8000553e:	34c23f27          	.4byte	0x34c23f27
80005542:	3ea4                	.2byte	0x3ea4
80005544:	3f5c5af7          	.4byte	0x3f5c5af7
80005548:	12ae                	slli	t0,t0,0x2b
8000554a:	3f40                	.2byte	0x3f40
8000554c:	9a20                	.2byte	0x9a20
8000554e:	3f39                	jal	8000546c <coeffs+0x708>
80005550:	795f 3e70 b6a6      	.byte	0x5f, 0x79, 0x70, 0x3e, 0xa6, 0xb6
80005556:	3f3c                	.2byte	0x3f3c
80005558:	a6ca                	.2byte	0xa6ca
8000555a:	3f2c                	.2byte	0x3f2c
8000555c:	0ae1                	addi	s5,s5,24 # 3efa0018 <buflen.3+0x3ef9ff98>
8000555e:	3f70                	.2byte	0x3f70
80005560:	64a6                	.2byte	0x64a6
80005562:	3e39                	jal	80005080 <coeffs+0x31c>
80005564:	ca3e                	sw	a5,20(sp)
80005566:	3f48                	.2byte	0x3f48
80005568:	49f1                	li	s3,28
8000556a:	7d673f07          	.4byte	0x7d673f07
8000556e:	3cca                	.2byte	0x3cca
80005570:	62a6                	.2byte	0x62a6
80005572:	af083ec3          	.4byte	0xaf083ec3
80005576:	3e85                	jal	800050e6 <coeffs+0x382>
80005578:	a800                	.2byte	0xa800
8000557a:	3f36                	.2byte	0x3f36
8000557c:	7bd5                	lui	s7,0xffff5
8000557e:	3eda                	.2byte	0x3eda
80005580:	bde8                	.2byte	0xbde8
80005582:	3e21                	jal	8000509a <coeffs+0x336>
80005584:	2f9d                	jal	80005cfa <coeffs+0xf96>
80005586:	3f6a                	.2byte	0x3f6a
80005588:	3e44a4d3          	.4byte	0x3e44a4d3
8000558c:	968d                	srai	a3,a3,0x23
8000558e:	5d793f3f 53a83f7b 	.8byte	0x53a83f7b5d793f3f
80005596:	3f66                	.2byte	0x3f66
80005598:	e02a                	.2byte	0xe02a
8000559a:	3dbe                	.2byte	0x3dbe
8000559c:	6ebd                	lui	t4,0xf
8000559e:	3f51                	jal	80005532 <coeffs+0x7ce>
800055a0:	9058                	.2byte	0x9058
800055a2:	3d66                	.2byte	0x3d66
800055a4:	97a6                	add	a5,a5,s1
800055a6:	3f60                	.2byte	0x3f60
800055a8:	3f0ed267          	.4byte	0x3f0ed267
800055ac:	4f22                	lw	t5,8(sp)
800055ae:	3d92                	.2byte	0x3d92
800055b0:	3ef357a3          	.4byte	0x3ef357a3
800055b4:	3f16806b          	.4byte	0x3f16806b
800055b8:	2eb2                	.2byte	0x2eb2
800055ba:	3f3a                	.2byte	0x3f3a
800055bc:	c632                	sw	a2,12(sp)
800055be:	b6c33f4b          	.4byte	0xb6c33f4b
800055c2:	3ee5                	jal	800051ba <coeffs+0x456>
800055c4:	82e0                	.2byte	0x82e0
800055c6:	3ef4                	.2byte	0x3ef4
800055c8:	6052                	.2byte	0x6052
800055ca:	3f05                	jal	800054fa <coeffs+0x796>
800055cc:	f9a9                	bnez	a1,8000551e <coeffs+0x7ba>
800055ce:	3f2e                	.2byte	0x3f2e
800055d0:	e015                	bnez	s0,800055f4 <coeffs+0x890>
800055d2:	1c713e5b          	.4byte	0x1c713e5b
800055d6:	3e48                	.2byte	0x3e48
800055d8:	048a                	slli	s1,s1,0x2
800055da:	3f1f a25e 3eca      	.byte	0x1f, 0x3f, 0x5e, 0xa2, 0xca, 0x3e
800055e0:	3f7ad15b          	.4byte	0x3f7ad15b
800055e4:	3a2e                	.2byte	0x3a2e
800055e6:	3e19                	jal	800050fc <coeffs+0x398>
800055e8:	4a56                	lw	s4,84(sp)
800055ea:	055c3ed7          	.4byte	0x55c3ed7
800055ee:	3eb9                	jal	8000514c <coeffs+0x3e8>
800055f0:	4bfd                	li	s7,31
800055f2:	3ed2                	.2byte	0x3ed2
800055f4:	34ad                	jal	8000505e <coeffs+0x2fa>
800055f6:	3e09                	jal	80005108 <coeffs+0x3a4>
800055f8:	c098                	sw	a4,0(s1)
800055fa:	3f49                	jal	8000558c <coeffs+0x828>
800055fc:	9579                	srai	a0,a0,0x3e
800055fe:	3f11                	jal	80005512 <coeffs+0x7ae>
80005600:	cc7d                	beqz	s0,800056fe <coeffs+0x99a>
80005602:	e9cd3d47          	.4byte	0xe9cd3d47
80005606:	3f7a                	.2byte	0x3f7a
80005608:	582e                	lw	a6,232(sp)
8000560a:	3ea2                	.2byte	0x3ea2
8000560c:	480a                	lw	a6,128(sp)
8000560e:	3d753cfb          	.4byte	0x3d753cfb
80005612:	3f61                	jal	800055aa <coeffs+0x846>
80005614:	1038                	addi	a4,sp,40
80005616:	3ed2                	.2byte	0x3ed2
80005618:	48ed                	li	a7,27
8000561a:	3f59                	jal	800055b0 <coeffs+0x84c>
8000561c:	a67a                	.2byte	0xa67a
8000561e:	3f853f6f          	jal	t5,80058a16 <__global_pointer$+0x52512>
80005622:	36a83e93          	sltiu	t4,a6,874
80005626:	3ed0                	.2byte	0x3ed0
80005628:	2f51                	jal	80005dbc <_end+0x7c>
8000562a:	3bf8                	.2byte	0x3bf8
8000562c:	4b94                	lw	a3,16(a5)
8000562e:	9bbf3f43          	.4byte	0x9bbf3f43
80005632:	3f7e                	.2byte	0x3f7e
80005634:	1f10                	addi	a2,sp,944
80005636:	3f3c                	.2byte	0x3f3c
80005638:	3f0f11c7          	.4byte	0x3f0f11c7
8000563c:	ee42                	.2byte	0xee42
8000563e:	3ee2                	.2byte	0x3ee2
80005640:	8202                	jr	tp
80005642:	3e59                	jal	800051d8 <coeffs+0x474>
80005644:	90c9                	srli	s1,s1,0x32
80005646:	c3263da3          	.4byte	0xc3263da3
8000564a:	3e01                	jal	8000515a <coeffs+0x3f6>
8000564c:	b12d                	j	80005276 <coeffs+0x512>
8000564e:	3eda                	.2byte	0x3eda
80005650:	3e8cf26b          	.4byte	0x3e8cf26b
80005654:	7564                	.2byte	0x7564
80005656:	a9c53f3f 95213f52 	.8byte	0x95213f52a9c53f3f
8000565e:	3e82                	.2byte	0x3e82
80005660:	c3df 3f65 3bc1      	.byte	0xdf, 0xc3, 0x65, 0x3f, 0xc1, 0x3b
80005666:	3e79                	jal	80005204 <coeffs+0x4a0>
80005668:	cd3e                	sw	a5,152(sp)
8000566a:	3f1d                	jal	800055a0 <coeffs+0x83c>
8000566c:	d3dd                	beqz	a5,80005612 <coeffs+0x8ae>
8000566e:	3e9d                	jal	800051e4 <coeffs+0x480>
80005670:	3815                	jal	80004ea4 <coeffs+0x140>
80005672:	3ec1                	jal	80005242 <coeffs+0x4de>
80005674:	1bac                	addi	a1,sp,504
80005676:	7f673ecf          	.4byte	0x7f673ecf
8000567a:	3f60                	.2byte	0x3f60
8000567c:	31a5                	jal	800052e4 <coeffs+0x580>
8000567e:	3eda                	.2byte	0x3eda
80005680:	ef46                	.2byte	0xef46
80005682:	3ec4                	.2byte	0x3ec4
80005684:	adb4                	.2byte	0xadb4
80005686:	3e46                	.2byte	0x3e46
80005688:	e625                	bnez	a2,800056f0 <coeffs+0x98c>
8000568a:	3ee9                	jal	80005264 <coeffs+0x500>
8000568c:	3e876a2f          	.4byte	0x3e876a2f
80005690:	b389                	j	800053d2 <coeffs+0x66e>
80005692:	3f1a                	.2byte	0x3f1a
80005694:	77ff                	.2byte	0x77ff
80005696:	3e9c                	.2byte	0x3e9c
80005698:	6e48                	.2byte	0x6e48
8000569a:	3e4d                	jal	8000524c <coeffs+0x4e8>
8000569c:	534c                	lw	a1,36(a4)
8000569e:	3f64                	.2byte	0x3f64
800056a0:	5754                	lw	a3,44(a4)
800056a2:	3f36                	.2byte	0x3f36
800056a4:	2fc2                	.2byte	0x2fc2
800056a6:	3e55                	jal	8000525a <coeffs+0x4f6>
800056a8:	9ee0                	.2byte	0x9ee0
800056aa:	f3133f27          	.4byte	0xf3133f27
800056ae:	3f34                	.2byte	0x3f34
800056b0:	6b12                	.2byte	0x6b12
800056b2:	3f71                	jal	8000564e <coeffs+0x8ea>
800056b4:	c29c                	sw	a5,0(a3)
800056b6:	3e5a                	.2byte	0x3e5a
800056b8:	a8ce                	.2byte	0xa8ce
800056ba:	3e19                	jal	800051d0 <coeffs+0x46c>
800056bc:	2e49                	jal	80005a4e <coeffs+0xcea>
800056be:	3e1f 45a2 3e96      	.byte	0x1f, 0x3e, 0xa2, 0x45, 0x96, 0x3e
800056c4:	b5fa                	.2byte	0xb5fa
800056c6:	3e8d                	jal	80005238 <coeffs+0x4d4>
800056c8:	2418                	.2byte	0x2418
800056ca:	3f15                	jal	800055fe <coeffs+0x89a>
800056cc:	9c06                	add	s8,s8,ra
800056ce:	3f11                	jal	800055e2 <coeffs+0x87e>
800056d0:	0c28                	addi	a0,sp,536
800056d2:	3cca                	.2byte	0x3cca
800056d4:	3ecf9bbb          	.4byte	0x3ecf9bbb
800056d8:	3f52e697          	auipc	a3,0x3f52e
800056dc:	1440                	addi	s0,sp,548
800056de:	3f6c                	.2byte	0x3f6c
800056e0:	1cce                	slli	s9,s9,0x33
800056e2:	3f26                	.2byte	0x3f26
800056e4:	67a9                	lui	a5,0xa
800056e6:	3ee1                	jal	800052be <coeffs+0x55a>
800056e8:	3e6bf877          	.4byte	0x3e6bf877
800056ec:	1b04                	addi	s1,sp,432
800056ee:	41ab3cd7          	.4byte	0x41ab3cd7
800056f2:	3f58                	.2byte	0x3f58
800056f4:	ec25                	bnez	s0,8000576c <coeffs+0xa08>
800056f6:	a3553ddb          	.4byte	0xa3553ddb
800056fa:	e5363ee7          	.4byte	0xe5363ee7
800056fe:	3e6a                	.2byte	0x3e6a
80005700:	5205                	li	tp,-31
80005702:	3e9a                	.2byte	0x3e9a
80005704:	c4bd                	beqz	s1,80005772 <coeffs+0xa0e>
80005706:	3f68                	.2byte	0x3f68
80005708:	dcca                	sw	s2,120(sp)
8000570a:	3efc                	.2byte	0x3efc
8000570c:	dc8c                	sw	a1,56(s1)
8000570e:	02f33f67          	.4byte	0x2f33f67
80005712:	3e5c                	.2byte	0x3e5c
80005714:	ca08                	sw	a0,16(a2)
80005716:	3f31                	jal	80005632 <coeffs+0x8ce>
80005718:	3f4c2fd7          	.4byte	0x3f4c2fd7
8000571c:	5821                	li	a6,-24
8000571e:	3f6d                	jal	800056d8 <coeffs+0x974>
80005720:	15f9                	addi	a1,a1,-2
80005722:	9d6f3f67          	.4byte	0x9d6f3f67
80005726:	4b343ee7          	.4byte	0x4b343ee7
8000572a:	3f22                	.2byte	0x3f22
8000572c:	810a                	mv	sp,sp
8000572e:	3f58                	.2byte	0x3f58
80005730:	7f5f 3f2a b557      	.byte	0x5f, 0x7f, 0x2a, 0x3f, 0x57, 0xb5
80005736:	3f48                	.2byte	0x3f48
80005738:	1794                	addi	a3,sp,992
8000573a:	3a99                	jal	80005090 <coeffs+0x32c>
8000573c:	3f75a22f          	.4byte	0x3f75a22f
80005740:	053a                	slli	a0,a0,0xe
80005742:	3d79                	jal	800055e0 <coeffs+0x87c>
80005744:	70b5                	lui	ra,0xfffed
80005746:	3f15                	jal	8000567a <coeffs+0x916>
80005748:	3e36                	.2byte	0x3e36
8000574a:	05a73f07          	.4byte	0x5a73f07
8000574e:	3e923daf          	.4byte	0x3e923daf
80005752:	3f7d                	jal	80005710 <coeffs+0x9ac>
80005754:	3eb44977          	.4byte	0x3eb44977
80005758:	7a85                	lui	s5,0xfffe1
8000575a:	3bfa                	.2byte	0x3bfa
8000575c:	5b60                	lw	s0,116(a4)
8000575e:	d8903f23          	.4byte	0xd8903f23
80005762:	3f4a                	.2byte	0x3f4a
80005764:	3e73cc4b          	.4byte	0x3e73cc4b
80005768:	1449                	addi	s0,s0,-14
8000576a:	3f2a                	.2byte	0x3f2a
8000576c:	3f231a3b          	.4byte	0x3f231a3b
80005770:	e150                	.2byte	0xe150
80005772:	3eb0                	.2byte	0x3eb0
80005774:	2f98                	.2byte	0x2f98
80005776:	d3893def          	jal	s11,7ff98cae <buflen.3+0x7ff98c2e>
8000577a:	3f5d                	jal	80005730 <coeffs+0x9cc>
8000577c:	999a                	add	s3,s3,t1
8000577e:	3f25                	jal	800056b6 <coeffs+0x952>
80005780:	5608                	lw	a0,40(a2)
80005782:	3cd5                	jal	80005276 <coeffs+0x512>
80005784:	83dc                	.2byte	0x83dc
80005786:	3eb8                	.2byte	0x3eb8
80005788:	7625                	lui	a2,0xfffe9
8000578a:	3f0d                	jal	800056bc <coeffs+0x958>
8000578c:	3e76adf7          	.4byte	0x3e76adf7
80005790:	bf5d                	j	80005746 <coeffs+0x9e2>
80005792:	3d60                	.2byte	0x3d60
80005794:	4bf9                	li	s7,30
80005796:	0e393eb3          	.4byte	0xe393eb3
8000579a:	3e2c                	.2byte	0x3e2c
8000579c:	21de                	.2byte	0x21de
8000579e:	3f75                	jal	8000575a <coeffs+0x9f6>
800057a0:	74b4                	.2byte	0x74b4
800057a2:	3f4d                	jal	80005754 <coeffs+0x9f0>
800057a4:	4ec2                	lw	t4,16(sp)
800057a6:	3f4d                	jal	80005758 <coeffs+0x9f4>
800057a8:	a2e8                	.2byte	0xa2e8
800057aa:	3f4d                	jal	8000575c <coeffs+0x9f8>
800057ac:	e825                	bnez	s0,8000581c <coeffs+0xab8>
800057ae:	04193eef          	jal	t4,80098fee <__global_pointer$+0x92aea>
800057b2:	3f16                	.2byte	0x3f16
800057b4:	ef74                	.2byte	0xef74
800057b6:	3f4d                	jal	80005768 <coeffs+0xa04>
800057b8:	2c84                	.2byte	0x2c84
800057ba:	946c3edb          	.4byte	0x946c3edb
800057be:	3f25                	jal	800056f6 <coeffs+0x992>
800057c0:	c051                	beqz	s0,80005844 <coeffs+0xae0>
800057c2:	3ec6                	.2byte	0x3ec6
800057c4:	3f74d467          	.4byte	0x3f74d467
800057c8:	7521                	lui	a0,0xfffe8
800057ca:	3d753f3b          	.4byte	0x3d753f3b
800057ce:	3ec1                	jal	8000539e <coeffs+0x63a>
800057d0:	3e9df267          	.4byte	0x3e9df267
800057d4:	6a16                	.2byte	0x6a16
800057d6:	3f3d                	jal	80005714 <coeffs+0x9b0>
800057d8:	3c7e8683          	lb	a3,967(t4) # f3c7 <buflen.3+0xf347>
800057dc:	8e1d                	sub	a2,a2,a5
800057de:	3dce                	.2byte	0x3dce
800057e0:	5d29                	li	s10,-22
800057e2:	3f7a                	.2byte	0x3f7a
800057e4:	3f2e0e63          	beq	t3,s2,80005be0 <coeffs+0xe7c>
800057e8:	ebff                	.2byte	0xebff
800057ea:	3f3c                	.2byte	0x3f3c
800057ec:	9ba2                	add	s7,s7,s0
800057ee:	3ea5                	jal	80005366 <coeffs+0x602>
800057f0:	f456                	.2byte	0xf456
800057f2:	bf873f4b          	.4byte	0xbf873f4b
800057f6:	3f1a                	.2byte	0x3f1a
800057f8:	676a                	.2byte	0x676a
800057fa:	3f78                	.2byte	0x3f78
800057fc:	9f06                	add	t5,t5,ra
800057fe:	3f52                	.2byte	0x3f52
80005800:	0175                	addi	sp,sp,29 # bdbe4355 <__global_pointer$+0x3dbdde51>
80005802:	dd903f77          	.4byte	0xdd903f77
80005806:	3f05                	jal	80005736 <coeffs+0x9d2>
80005808:	3d825397          	auipc	t2,0x3d825
8000580c:	3ca1ab4b          	.4byte	0x3ca1ab4b
80005810:	838c                	.2byte	0x838c
80005812:	3f5f 3804 3e6d      	.byte	0x5f, 0x3f, 0x04, 0x38, 0x6d, 0x3e
80005818:	2f49                	jal	80005faa <_tbss_end+0x1e6>
8000581a:	3f7a                	.2byte	0x3f7a
8000581c:	3f2cf82f          	.4byte	0x3f2cf82f
80005820:	cc32                	sw	a2,24(sp)
80005822:	3d09                	jal	80005634 <coeffs+0x8d0>
80005824:	d231                	beqz	a2,80005768 <coeffs+0xa04>
80005826:	b1073f47          	.4byte	0xb1073f47
8000582a:	a0dc3e13          	sltiu	t3,s8,-1523
8000582e:	3f1e                	.2byte	0x3f1e
80005830:	c1a4                	sw	s1,64(a1)
80005832:	3f15                	jal	80005766 <coeffs+0xa02>
80005834:	8284                	.2byte	0x8284
80005836:	3f12                	.2byte	0x3f12
80005838:	6a90                	.2byte	0x6a90
8000583a:	3e88                	.2byte	0x3e88
8000583c:	21cd                	jal	80005d1e <_tdata_begin+0x2>
8000583e:	3f79                	jal	800057dc <coeffs+0xa78>
80005840:	3f0756eb          	.4byte	0x3f0756eb
80005844:	aa7a                	.2byte	0xaa7a
80005846:	3f7f                	.2byte	0x3f7f
80005848:	3eb3810f          	.4byte	0x3eb3810f
8000584c:	501e                	.2byte	0x501e
8000584e:	3f56                	.2byte	0x3f56
80005850:	1490                	addi	a2,sp,608
80005852:	3f3d                	jal	80005790 <coeffs+0xa2c>
80005854:	3ebb7543          	.4byte	0x3ebb7543
80005858:	21e2                	.2byte	0x21e2
8000585a:	3f70                	.2byte	0x3f70
8000585c:	71b9                	lui	gp,0xfffee
8000585e:	903f3f37          	lui	t5,0x903f3
80005862:	3d3c                	.2byte	0x3d3c
80005864:	0de1                	addi	s11,s11,24 # 88b93018 <__global_pointer$+0x8b8cb14>
80005866:	3f2d                	jal	800057a0 <coeffs+0xa3c>
80005868:	f898                	.2byte	0xf898
8000586a:	bd5a3d23          	.4byte	0xbd5a3d23
8000586e:	9ad03f57          	.4byte	0x9ad03f57
80005872:	b8cc3e8f          	.4byte	0xb8cc3e8f
80005876:	3c29                	jal	80005290 <coeffs+0x52c>
80005878:	5c5f 3f2a 3b75      	.byte	0x5f, 0x5c, 0x2a, 0x3f, 0x75, 0x3b
8000587e:	84733e7b          	.4byte	0x84733e7b
80005882:	3f08                	.2byte	0x3f08
80005884:	a6d2                	.2byte	0xa6d2
80005886:	3f3a                	.2byte	0x3f3a
80005888:	3e87b86f          	jal	a6,80080c70 <__global_pointer$+0x7a76c>
8000588c:	0ffe                	slli	t6,t6,0x1f
8000588e:	3ed0                	.2byte	0x3ed0
80005890:	f4e4                	.2byte	0xf4e4
80005892:	3f75                	jal	8000584e <coeffs+0xaea>
80005894:	2e02                	.2byte	0x2e02
80005896:	3e78                	.2byte	0x3e78
80005898:	0171                	addi	sp,sp,28
8000589a:	3da8                	.2byte	0x3da8
8000589c:	3f7e91a7          	.4byte	0x3f7e91a7
800058a0:	b624                	.2byte	0xb624
800058a2:	b1c03cbb          	.4byte	0xb1c03cbb
800058a6:	32833e67          	.4byte	0x32833e67
800058aa:	3f1d                	jal	800057e0 <coeffs+0xa7c>
800058ac:	9f56                	add	t5,t5,s5
800058ae:	6ef43f1b          	.4byte	0x6ef43f1b
800058b2:	3f4c                	.2byte	0x3f4c
800058b4:	3f6167cb          	.4byte	0x3f6167cb
800058b8:	c122                	sw	s0,128(sp)
800058ba:	3f14                	.2byte	0x3f14
800058bc:	8bbd                	andi	a5,a5,15
800058be:	12453ea7          	.4byte	0x12453ea7
800058c2:	3f61                	jal	8000585a <coeffs+0xaf6>
800058c4:	81aa                	mv	gp,a0
800058c6:	3f6e                	.2byte	0x3f6e
800058c8:	3e2857f3          	csrrwi	a5,0x3e2,16
800058cc:	26d5                	jal	80005cb0 <coeffs+0xf4c>
800058ce:	3f1e                	.2byte	0x3f1e
800058d0:	78b8                	.2byte	0x78b8
800058d2:	3e98                	.2byte	0x3e98
800058d4:	bef5                	j	800054d0 <coeffs+0x76c>
800058d6:	3dd1                	jal	800057aa <coeffs+0xa46>
800058d8:	30f9                	jal	800051a6 <coeffs+0x442>
800058da:	0abf3eab          	.4byte	0xabf3eab
800058de:	3eb0                	.2byte	0x3eb0
800058e0:	3f4745bf 3ebfb00c 	.8byte	0x3ebfb00c3f4745bf
800058e8:	0ae5                	addi	s5,s5,25 # fffe1019 <__global_pointer$+0x7ffdab15>
800058ea:	337f3e3f fdd23d71 	.8byte	0xfdd23d71337f3e3f
800058f2:	3ec4                	.2byte	0x3ec4
800058f4:	1f08                	addi	a0,sp,944
800058f6:	3f5a                	.2byte	0x3f5a
800058f8:	c42a                	sw	a0,8(sp)
800058fa:	036d3e9b          	.4byte	0x36d3e9b
800058fe:	c5eb3f6b          	.4byte	0xc5eb3f6b
80005902:	3f14                	.2byte	0x3f14
80005904:	be4d                	j	800054b6 <coeffs+0x752>
80005906:	3f11                	jal	8000581a <coeffs+0xab6>
80005908:	16b5                	addi	a3,a3,-19 # bf5336c5 <__global_pointer$+0x3f52d1c1>
8000590a:	3ea6                	.2byte	0x3ea6
8000590c:	3f0ababf 3f4fc9cd 	.8byte	0x3f4fc9cd3f0ababf
80005914:	1712                	slli	a4,a4,0x24
80005916:	3ed0                	.2byte	0x3ed0
80005918:	4c66                	lw	s8,88(sp)
8000591a:	3f09                	jal	8000582c <coeffs+0xac8>
8000591c:	a77e                	.2byte	0xa77e
8000591e:	3f55                	jal	800058d2 <coeffs+0xb6e>
80005920:	f7f9                	bnez	a5,800058ee <coeffs+0xb8a>
80005922:	3f21                	jal	8000583a <coeffs+0xad6>
80005924:	fba4                	.2byte	0xfba4
80005926:	3e19                	jal	8000543c <coeffs+0x6d8>
80005928:	8da8                	.2byte	0x8da8
8000592a:	3ee2                	.2byte	0x3ee2
8000592c:	cdd9                	beqz	a1,800059ca <coeffs+0xc66>
8000592e:	3edc                	.2byte	0x3edc
80005930:	d680                	sw	s0,40(a3)
80005932:	3cfc                	.2byte	0x3cfc
80005934:	fece                	.2byte	0xfece
80005936:	3cc0                	.2byte	0x3cc0
80005938:	3f422ccb          	.4byte	0x3f422ccb
8000593c:	f8f9                	bnez	s1,80005912 <coeffs+0xbae>
8000593e:	3f68                	.2byte	0x3f68
80005940:	89b1                	andi	a1,a1,12
80005942:	3f74                	.2byte	0x3f74
80005944:	42c8                	lw	a0,4(a3)
80005946:	3f6c                	.2byte	0x3f6c
80005948:	1fcd                	addi	t6,t6,-13
8000594a:	8bf83f07          	.4byte	0x8bf83f07
8000594e:	3e81                	jal	8000549e <coeffs+0x73a>
80005950:	54d2                	lw	s1,52(sp)
80005952:	b84a3ccf          	.4byte	0xb84a3ccf
80005956:	3f5c                	.2byte	0x3f5c
80005958:	cb5c                	sw	a5,20(a4)
8000595a:	3f18                	.2byte	0x3f18
8000595c:	c076                	sw	t4,0(sp)
8000595e:	3f4d                	jal	80005910 <coeffs+0xbac>
80005960:	413e                	lw	sp,204(sp)
80005962:	3e72                	.2byte	0x3e72
80005964:	8e15                	sub	a2,a2,a3
80005966:	3f48                	.2byte	0x3f48
80005968:	d39e                	sw	t2,228(sp)
8000596a:	3f5c                	.2byte	0x3f5c
8000596c:	0f39                	addi	t5,t5,14 # 903f300e <__global_pointer$+0x103ecb0a>
8000596e:	3f1f ad1d 3f22      	.byte	0x1f, 0x3f, 0x1d, 0xad, 0x22, 0x3f
80005974:	3e2ad6cb          	.4byte	0x3e2ad6cb
80005978:	12a5                	addi	t0,t0,-23 # 5fe9 <buflen.3+0x5f69>
8000597a:	3f0a                	.2byte	0x3f0a
8000597c:	cc21                	beqz	s0,800059d4 <coeffs+0xc70>
8000597e:	3e5d                	jal	80005534 <coeffs+0x7d0>
80005980:	7400                	.2byte	0x7400
80005982:	3f3c                	.2byte	0x3f3c
80005984:	1e00                	addi	s0,sp,816
80005986:	3f5d                	jal	8000593c <coeffs+0xbd8>
80005988:	3f422dc7          	.4byte	0x3f422dc7
8000598c:	3dcd                	jal	8000587e <coeffs+0xb1a>
8000598e:	3f0c                	.2byte	0x3f0c
80005990:	3e8a5333          	.4byte	0x3e8a5333
80005994:	f45a                	.2byte	0xf45a
80005996:	3e96                	.2byte	0x3e96
80005998:	cab8                	sw	a4,80(a3)
8000599a:	21923ec3          	.4byte	0x21923ec3
8000599e:	f22c3f67          	.4byte	0xf22c3f67
800059a2:	2c303ee3          	.4byte	0x2c303ee3
800059a6:	10fd3f53          	.4byte	0x10fd3f53
800059aa:	bf943eab          	.4byte	0xbf943eab
800059ae:	34263ef3          	csrrc	t4,mcause,a2
800059b2:	3f59                	jal	80005948 <coeffs+0xbe4>
800059b4:	aa50                	.2byte	0xaa50
800059b6:	3dbd                	jal	80005834 <coeffs+0xad0>
800059b8:	b185                	j	80005618 <coeffs+0x8b4>
800059ba:	3ec5                	jal	800055aa <coeffs+0x846>
800059bc:	3f4dbdd7          	.4byte	0x3f4dbdd7
800059c0:	047d                	addi	s0,s0,31
800059c2:	3c7e                	.2byte	0x3c7e
800059c4:	f890                	.2byte	0xf890
800059c6:	3f69                	jal	80005960 <coeffs+0xbfc>
800059c8:	3d36                	.2byte	0x3d36
800059ca:	3d68                	.2byte	0x3d68
800059cc:	2b88                	.2byte	0x2b88
800059ce:	b0d93d27          	.4byte	0xb0d93d27
800059d2:	3f46                	.2byte	0x3f46
800059d4:	3f274f2f          	.4byte	0x3f274f2f
800059d8:	331e                	.2byte	0x331e
800059da:	3f58                	.2byte	0x3f58
800059dc:	4e62                	lw	t3,24(sp)
800059de:	3c50                	.2byte	0x3c50
800059e0:	ba88                	.2byte	0xba88
800059e2:	3edf 06cd 3f35      	.byte	0xdf, 0x3e, 0xcd, 0x06, 0x35, 0x3f
800059e8:	5072                	.2byte	0x5072
800059ea:	3f22                	.2byte	0x3f22
800059ec:	5309                	li	t1,-30
800059ee:	3d94                	.2byte	0x3d94
800059f0:	bc7f                	.2byte	0xbc7f
800059f2:	3f5f 8c5d 3e31      	.byte	0x5f, 0x3f, 0x5d, 0x8c, 0x31, 0x3e
800059f8:	3e93fad3          	.4byte	0x3e93fad3
800059fc:	307f                	.2byte	0x307f
800059fe:	3f1c                	.2byte	0x3f1c
80005a00:	3d18116f          	jal	sp,800875d0 <__global_pointer$+0x810cc>
80005a04:	3d42b303          	.4byte	0x3d42b303
80005a08:	b930                	.2byte	0xb930
80005a0a:	3e21                	jal	80005522 <coeffs+0x7be>
80005a0c:	5561                	li	a0,-8
80005a0e:	3e9d                	jal	80005584 <coeffs+0x820>
80005a10:	4aba                	lw	s5,140(sp)
80005a12:	53a83eaf          	.4byte	0x53a83eaf
80005a16:	3f0a                	.2byte	0x3f0a
80005a18:	310a                	.2byte	0x310a
80005a1a:	9e843e57          	.4byte	0x9e843e57
80005a1e:	3f49                	jal	800059b0 <coeffs+0xc4c>
80005a20:	3ebaff8f          	.4byte	0x3ebaff8f
80005a24:	54c1                	li	s1,-16
80005a26:	fc9c3f0b          	.4byte	0xfc9c3f0b
80005a2a:	3e86                	.2byte	0x3e86
80005a2c:	cffa                	sw	t5,220(sp)
80005a2e:	3e5a                	.2byte	0x3e5a
80005a30:	3f230a0b          	.4byte	0x3f230a0b
80005a34:	5711                	li	a4,-28
80005a36:	3f26                	.2byte	0x3f26
80005a38:	38a8                	.2byte	0x38a8
80005a3a:	3c8e                	.2byte	0x3c8e
80005a3c:	021d                	addi	tp,tp,7 # ffff9007 <__global_pointer$+0x7fff2b03>
80005a3e:	4fa03f27          	.4byte	0x4fa03f27
80005a42:	3f10                	.2byte	0x3f10
80005a44:	acc5                	j	80005d34 <_tdata_begin+0x18>
80005a46:	74c53d97          	auipc	s11,0x74c53
80005a4a:	3f31                	jal	80005966 <coeffs+0xc02>
80005a4c:	0115                	addi	sp,sp,5
80005a4e:	3eae                	.2byte	0x3eae
80005a50:	44c8                	lw	a0,12(s1)
80005a52:	3f3a                	.2byte	0x3f3a
80005a54:	a7f4                	.2byte	0xa7f4
80005a56:	3f09                	jal	80005968 <coeffs+0xc04>
80005a58:	8366                	mv	t1,s9
80005a5a:	3eb4                	.2byte	0x3eb4
80005a5c:	3e28882f          	.4byte	0x3e28882f
80005a60:	bb02                	.2byte	0xbb02
80005a62:	3e7a                	.2byte	0x3e7a
80005a64:	9225                	srli	a2,a2,0x29
80005a66:	3f7c                	.2byte	0x3f7c
80005a68:	3e72b1f7          	.4byte	0x3e72b1f7
80005a6c:	5979                	li	s2,-2
80005a6e:	d4f13df3          	csrrc	s11,0xd4f,sp
80005a72:	a9e73e23          	.4byte	0xa9e73e23
80005a76:	3f06                	.2byte	0x3f06
80005a78:	9bae                	add	s7,s7,a1
80005a7a:	3f3a                	.2byte	0x3f3a
80005a7c:	d990                	sw	a2,48(a1)
80005a7e:	3e49                	jal	80005610 <coeffs+0x8ac>
80005a80:	3f12d517          	auipc	a0,0x3f12d
80005a84:	09fa                	slli	s3,s3,0x1e
80005a86:	21143f63          	.4byte	0x21143f63
80005a8a:	3f01                	jal	8000599a <coeffs+0xc36>
80005a8c:	7a85                	lui	s5,0xfffe1
80005a8e:	3f6a                	.2byte	0x3f6a
80005a90:	bb45                	j	80005840 <coeffs+0xadc>
80005a92:	3eda                	.2byte	0x3eda
80005a94:	3f36ed57          	.4byte	0x3f36ed57
80005a98:	18f8                	addi	a4,sp,124
80005a9a:	3f34                	.2byte	0x3f34
80005a9c:	dd6a                	sw	s10,184(sp)
80005a9e:	3f4a                	.2byte	0x3f4a
80005aa0:	8430                	.2byte	0x8430
80005aa2:	3e84                	.2byte	0x3e84
80005aa4:	9746                	add	a4,a4,a7
80005aa6:	b4393f77          	.4byte	0xb4393f77
80005aaa:	3bc8                	.2byte	0x3bc8
80005aac:	3f654c23          	.4byte	0x3f654c23
80005ab0:	3f1dee57          	.4byte	0x3f1dee57
80005ab4:	65b6                	.2byte	0x65b6
80005ab6:	3cc0                	.2byte	0x3cc0
80005ab8:	4e40                	lw	s0,28(a2)
80005aba:	3f0c                	.2byte	0x3f0c
80005abc:	f81f 3e38 c632      	.byte	0x1f, 0xf8, 0x38, 0x3e, 0x32, 0xc6
80005ac2:	0c133dc7          	.4byte	0xc133dc7
80005ac6:	3e813e77          	.4byte	0x3e813e77
80005aca:	3f05                	jal	800059fa <coeffs+0xc96>
80005acc:	3d9f 3f53 6af9      	.byte	0x9f, 0x3d, 0x53, 0x3f, 0xf9, 0x6a
80005ad2:	80453f47          	.4byte	0x80453f47
80005ad6:	3f5f 5fab 3f7d      	.byte	0x5f, 0x3f, 0xab, 0x5f, 0x7d, 0x3f
80005adc:	3722                	.2byte	0x3722
80005ade:	126a3cc3          	.4byte	0x126a3cc3
80005ae2:	3f5c                	.2byte	0x3f5c
80005ae4:	30a1                	jal	8000532c <coeffs+0x5c8>
80005ae6:	3e68                	.2byte	0x3e68
80005ae8:	13a1                	addi	t2,t2,-24 # bd82a7f0 <__global_pointer$+0x3d8242ec>
80005aea:	3e12                	.2byte	0x3e12
80005aec:	f6f1                	bnez	a3,80005ab8 <coeffs+0xd54>
80005aee:	3ca0                	.2byte	0x3ca0
80005af0:	b5fe                	.2byte	0xb5fe
80005af2:	3f40                	.2byte	0x3f40
80005af4:	2096                	.2byte	0x2096
80005af6:	3f5f f86e 3e5d      	.byte	0x5f, 0x3f, 0x6e, 0xf8, 0x5d, 0x3e
80005afc:	3ea7162b          	.4byte	0x3ea7162b
80005b00:	2a91                	jal	80005c54 <coeffs+0xef0>
80005b02:	3f42                	.2byte	0x3f42
80005b04:	9f30                	.2byte	0x9f30
80005b06:	3f38                	.2byte	0x3f38
80005b08:	166a                	slli	a2,a2,0x3a
80005b0a:	3e78                	.2byte	0x3e78
80005b0c:	20cd                	jal	80005bee <coeffs+0xe8a>
80005b0e:	3e3e                	.2byte	0x3e3e
80005b10:	190d                	addi	s2,s2,-29 # ffffdfe3 <__global_pointer$+0x7fff7adf>
80005b12:	3edf 1e93 3f72      	.byte	0xdf, 0x3e, 0x93, 0x1e, 0x72, 0x3f
80005b18:	659d                	lui	a1,0x7
80005b1a:	3f7a                	.2byte	0x3f7a
80005b1c:	3f31ceaf          	.4byte	0x3f31ceaf
80005b20:	b5d9                	j	800059e6 <coeffs+0xc82>
80005b22:	3f69                	jal	80005abc <coeffs+0xd58>
80005b24:	f706                	.2byte	0xf706
80005b26:	1ad23f7b          	.4byte	0x1ad23f7b
80005b2a:	a42f3f17          	auipc	t5,0xa42f3
80005b2e:	199c3f07          	.4byte	0x199c3f07
80005b32:	3bfd                	jal	80005930 <coeffs+0xbcc>
80005b34:	a448                	.2byte	0xa448
80005b36:	3e0d                	jal	80005668 <coeffs+0x904>
80005b38:	e226                	.2byte	0xe226
80005b3a:	3f35                	jal	80005a76 <coeffs+0xd12>
80005b3c:	97cc                	.2byte	0x97cc
80005b3e:	582e3dd7          	.4byte	0x582e3dd7
80005b42:	3ec2                	.2byte	0x3ec2
80005b44:	82e0                	.2byte	0x82e0
80005b46:	3e6c                	.2byte	0x3e6c
80005b48:	3098                	.2byte	0x3098
80005b4a:	3f6e                	.2byte	0x3f6e
80005b4c:	5c3e                	lw	s8,236(sp)
80005b4e:	3e22                	.2byte	0x3e22
80005b50:	07ea                	slli	a5,a5,0x1a
80005b52:	3dd5                	jal	80005a46 <coeffs+0xce2>
80005b54:	3f6b9043          	.4byte	0x3f6b9043
80005b58:	c2df 3e3a b368      	.byte	0xdf, 0xc2, 0x3a, 0x3e, 0x68, 0xb3
80005b5e:	3f76                	.2byte	0x3f76
80005b60:	71ac                	.2byte	0x71ac
80005b62:	3e16                	.2byte	0x3e16
80005b64:	6b40                	.2byte	0x6b40
80005b66:	3ea6                	.2byte	0x3ea6
80005b68:	bb1f 3f7b 5269      	.byte	0x1f, 0xbb, 0x7b, 0x3f, 0x69, 0x52
80005b6e:	3f66                	.2byte	0x3f66
80005b70:	58da                	lw	a7,180(sp)
80005b72:	3e49                	jal	80005704 <coeffs+0x9a0>
80005b74:	3e4ce4eb          	.4byte	0x3e4ce4eb
80005b78:	763e                	.2byte	0x763e
80005b7a:	80c73e67          	.4byte	0x80c73e67
80005b7e:	3f74                	.2byte	0x3f74
80005b80:	3f6bd86b          	.4byte	0x3f6bd86b
80005b84:	c654                	sw	a3,12(a2)
80005b86:	23ea3eef          	jal	t4,800a8dc4 <__global_pointer$+0xa28c0>
80005b8a:	3e10                	.2byte	0x3e10
80005b8c:	c9e2                	sw	s8,208(sp)
80005b8e:	3eb6                	.2byte	0x3eb6
80005b90:	0379                	addi	t1,t1,30
80005b92:	3ed4                	.2byte	0x3ed4
80005b94:	3df37543          	.4byte	0x3df37543
80005b98:	3a04                	.2byte	0x3a04
80005b9a:	6f093d53          	.4byte	0x6f093d53
80005b9e:	2ce93ea7          	.4byte	0x2ce93ea7
80005ba2:	4e723dd3          	.4byte	0x4e723dd3
80005ba6:	3f24                	.2byte	0x3f24
80005ba8:	5bb4                	lw	a3,112(a5)
80005baa:	fe823f5b          	.4byte	0xfe823f5b
80005bae:	3de2                	.2byte	0x3de2
80005bb0:	b774                	.2byte	0xb774
80005bb2:	3dea3f47          	.4byte	0x3dea3f47
80005bb6:	3f11                	jal	80005aca <coeffs+0xd66>
80005bb8:	4b6a                	lw	s6,152(sp)
80005bba:	3e5d                	jal	80005770 <coeffs+0xa0c>
80005bbc:	8e2a                	mv	t3,a0
80005bbe:	5ea23e23          	.4byte	0x5ea23e23
80005bc2:	3f4c                	.2byte	0x3f4c
80005bc4:	0dcc                	addi	a1,sp,724
80005bc6:	3e16                	.2byte	0x3e16
80005bc8:	f534                	.2byte	0xf534
80005bca:	3ea2                	.2byte	0x3ea2
80005bcc:	3f66ff8f          	.4byte	0x3f66ff8f
80005bd0:	9e34                	.2byte	0x9e34
80005bd2:	3d88                	.2byte	0x3d88
80005bd4:	2b52                	.2byte	0x2b52
80005bd6:	3f00                	.2byte	0x3f00
80005bd8:	3f5db307          	.4byte	0x3f5db307
80005bdc:	c0c6                	sw	a7,64(sp)
80005bde:	3e5a                	.2byte	0x3e5a
80005be0:	60f2                	.2byte	0x60f2
80005be2:	6e263f53          	.4byte	0x6e263f53
80005be6:	3f59                	jal	80005b7c <coeffs+0xe18>
80005be8:	3de814d7          	.4byte	0x3de814d7
80005bec:	e71d                	bnez	a4,80005c1a <coeffs+0xeb6>
80005bee:	3cb6                	.2byte	0x3cb6
80005bf0:	7610                	.2byte	0x7610
80005bf2:	3d4a                	.2byte	0x3d4a
80005bf4:	c055                	beqz	s0,80005c98 <coeffs+0xf34>
80005bf6:	3ead                	jal	80005770 <coeffs+0xa0c>
80005bf8:	3800                	.2byte	0x3800
80005bfa:	3f7a                	.2byte	0x3f7a
80005bfc:	7fcc                	.2byte	0x7fcc
80005bfe:	3f78                	.2byte	0x3f78
80005c00:	c344                	sw	s1,4(a4)
80005c02:	3f4e                	.2byte	0x3f4e
80005c04:	07d5                	addi	a5,a5,21 # a015 <buflen.3+0x9f95>
80005c06:	3df2                	.2byte	0x3df2
80005c08:	c979                	beqz	a0,80005cde <coeffs+0xf7a>
80005c0a:	14013ea7          	.4byte	0x14013ea7
80005c0e:	be8c3e63          	.4byte	0xbe8c3e63
80005c12:	3e72                	.2byte	0x3e72
80005c14:	30ba                	.2byte	0x30ba
80005c16:	3ec2                	.2byte	0x3ec2
80005c18:	7c85                	lui	s9,0xfffe1
80005c1a:	3f0c                	.2byte	0x3f0c
80005c1c:	2a80                	.2byte	0x2a80
80005c1e:	3eae                	.2byte	0x3eae
80005c20:	d9e8                	sw	a0,116(a1)
80005c22:	3cac                	.2byte	0x3cac
80005c24:	b092                	.2byte	0xb092
80005c26:	ea423ecf          	.4byte	0xea423ecf
80005c2a:	3ee6                	.2byte	0x3ee6
80005c2c:	3f4d1e43          	.4byte	0x3f4d1e43
80005c30:	3f791633          	.4byte	0x3f791633
80005c34:	c7fc                	sw	a5,76(a5)
80005c36:	3f2a                	.2byte	0x3f2a
80005c38:	01cd                	addi	gp,gp,19 # fffee013 <__global_pointer$+0x7ffe7b0f>
80005c3a:	3f76                	.2byte	0x3f76
80005c3c:	74c5                	lui	s1,0xffff1
80005c3e:	3f45                	jal	80005bee <coeffs+0xe8a>
80005c40:	3f504b6f          	jal	s6,8000a834 <__global_pointer$+0x4330>
80005c44:	3e8ef8cf          	.4byte	0x3e8ef8cf
80005c48:	7464                	.2byte	0x7464
80005c4a:	3f2c                	.2byte	0x3f2c
80005c4c:	5f35                	li	t5,-19
80005c4e:	3f61                	jal	80005be6 <coeffs+0xe82>
80005c50:	a7b9                	j	8000639e <_tbss_end+0x5da>
80005c52:	275b3f47          	.4byte	0x275b3f47
80005c56:	3f0a                	.2byte	0x3f0a
80005c58:	3dc07aaf          	.4byte	0x3dc07aaf
80005c5c:	3f1b08ab          	.4byte	0x3f1b08ab
80005c60:	2b02                	.2byte	0x2b02
80005c62:	47c33ec7          	.4byte	0x47c33ec7
80005c66:	3e54                	.2byte	0x3e54
80005c68:	bfe4                	.2byte	0xbfe4
80005c6a:	3f20                	.2byte	0x3f20
80005c6c:	79c4                	.2byte	0x79c4
80005c6e:	3ee0                	.2byte	0x3ee0
80005c70:	3f0bf21b          	.4byte	0x3f0bf21b
80005c74:	f7e4                	.2byte	0xf7e4
80005c76:	3f1a                	.2byte	0x3f1a
80005c78:	3ed1795b          	.4byte	0x3ed1795b
80005c7c:	6abe                	.2byte	0x6abe
80005c7e:	3eb5                	jal	800057fa <coeffs+0xa96>
80005c80:	38de                	.2byte	0x38de
80005c82:	3f39                	jal	80005ba0 <coeffs+0xe3c>
80005c84:	a16a                	.2byte	0xa16a
80005c86:	3f3c                	.2byte	0x3f3c
80005c88:	7a5f 3f13 e881      	.byte	0x5f, 0x7a, 0x13, 0x3f, 0x81, 0xe8
80005c8e:	3f75                	jal	80005c4a <coeffs+0xee6>
80005c90:	cec0                	sw	s0,28(a3)
80005c92:	3ded                	jal	80005b8c <coeffs+0xe28>
80005c94:	b7a6                	.2byte	0xb7a6
80005c96:	3dff                	.2byte	0x3dff
80005c98:	3e99fb83          	.4byte	0x3e99fb83
80005c9c:	825a                	mv	tp,s6
80005c9e:	3e0c                	.2byte	0x3e0c
80005ca0:	cf2d                	beqz	a4,80005d1a <sense.1+0x2>
80005ca2:	72e23f07          	.4byte	0x72e23f07
80005ca6:	3f40                	.2byte	0x3f40
80005ca8:	3ed9                	jal	8000587e <coeffs+0xb1a>
80005caa:	3f70                	.2byte	0x3f70
80005cac:	e560                	.2byte	0xe560
80005cae:	3f00                	.2byte	0x3f00
80005cb0:	75bc                	.2byte	0x75bc
80005cb2:	3ed6                	.2byte	0x3ed6
80005cb4:	3f6640a7          	.4byte	0x3f6640a7
80005cb8:	b44a                	.2byte	0xb44a
80005cba:	3e8c                	.2byte	0x3e8c
80005cbc:	3e6e1933          	.4byte	0x3e6e1933
80005cc0:	f438                	.2byte	0xf438
80005cc2:	3e36                	.2byte	0x3e36
80005cc4:	ce89                	beqz	a3,80005cde <coeffs+0xf7a>
80005cc6:	3f72                	.2byte	0x3f72
80005cc8:	2c0e                	.2byte	0x2c0e
80005cca:	64c73de7          	.4byte	0x64c73de7
80005cce:	3f75                	jal	80005c8a <coeffs+0xf26>
80005cd0:	ebc8                	.2byte	0xebc8
80005cd2:	3ef9                	jal	800058b0 <coeffs+0xb4c>
80005cd4:	d35f 3e53 6d72      	.byte	0x5f, 0xd3, 0x53, 0x3e, 0x72, 0x6d
80005cda:	3f10                	.2byte	0x3f10
80005cdc:	8b65                	andi	a4,a4,25
80005cde:	3f60                	.2byte	0x3f60
80005ce0:	0d91                	addi	s11,s11,4 # f4c58a4a <__global_pointer$+0x74c52546>
80005ce2:	3ed4                	.2byte	0x3ed4
80005ce4:	3e44b513          	sltiu	a0,s1,996
80005ce8:	908e                	add	ra,ra,gp
80005cea:	3ea1                	jal	80005842 <coeffs+0xade>
80005cec:	f8e4                	.2byte	0xf8e4
80005cee:	3f75                	jal	80005caa <coeffs+0xf46>
80005cf0:	2529                	jal	800062fa <_tbss_end+0x536>
80005cf2:	3f4c                	.2byte	0x3f4c
80005cf4:	84f5                	srai	s1,s1,0x1d
80005cf6:	3f39                	jal	80005c14 <coeffs+0xeb0>
80005cf8:	5c85                	li	s9,-31
80005cfa:	3ea1                	jal	80005852 <coeffs+0xaee>
80005cfc:	3f055e07          	.4byte	0x3f055e07
80005d00:	4ce0                	lw	s0,92(s1)
80005d02:	3eec                	.2byte	0x3eec
