
test_benchmark.riscv:     file format elf32-littleriscv


Disassembly of section .text.init:

80000000 <_start>:
80000000:	4081                	li	ra,0
80000002:	4101                	li	sp,0
80000004:	4181                	li	gp,0
80000006:	4201                	li	tp,0
80000008:	4281                	li	t0,0
8000000a:	4301                	li	t1,0
8000000c:	4381                	li	t2,0
8000000e:	4401                	li	s0,0
80000010:	4481                	li	s1,0
80000012:	4501                	li	a0,0
80000014:	4581                	li	a1,0
80000016:	4601                	li	a2,0
80000018:	4681                	li	a3,0
8000001a:	4701                	li	a4,0
8000001c:	4781                	li	a5,0
8000001e:	4801                	li	a6,0
80000020:	4881                	li	a7,0
80000022:	4901                	li	s2,0
80000024:	4981                	li	s3,0
80000026:	4a01                	li	s4,0
80000028:	4a81                	li	s5,0
8000002a:	4b01                	li	s6,0
8000002c:	4b81                	li	s7,0
8000002e:	4c01                	li	s8,0
80000030:	4c81                	li	s9,0
80000032:	4d01                	li	s10,0
80000034:	4d81                	li	s11,0
80000036:	4e01                	li	t3,0
80000038:	4e81                	li	t4,0
8000003a:	4f01                	li	t5,0
8000003c:	4f81                	li	t6,0
8000003e:	62f9                	lui	t0,0x1e
80000040:	3002a073          	csrs	mstatus,t0
80000044:	4285                	li	t0,1
80000046:	02fe                	slli	t0,t0,0x1f
80000048:	0002c863          	bltz	t0,80000058 <_start+0x58>
8000004c:	4505                	li	a0,1
8000004e:	00001297          	auipc	t0,0x1
80000052:	faa2a923          	sw	a0,-78(t0) # 80001000 <tohost>
80000056:	bfdd                	j	8000004c <_start+0x4c>
80000058:	00000297          	auipc	t0,0x0
8000005c:	03828293          	addi	t0,t0,56 # 80000090 <trap_entry>
80000060:	30529073          	csrw	mtvec,t0
80000064:	00004197          	auipc	gp,0x4
80000068:	23818193          	addi	gp,gp,568 # 8000429c <__global_pointer$>
8000006c:	86318213          	addi	tp,gp,-1949 # 80003aff <_end+0x3f>
80000070:	fc027213          	andi	tp,tp,-64
80000074:	f1402573          	csrr	a0,mhartid
80000078:	4585                	li	a1,1
8000007a:	00b57063          	bgeu	a0,a1,8000007a <_start+0x7a>
8000007e:	00150113          	addi	sp,a0,1
80000082:	0146                	slli	sp,sp,0x11
80000084:	9112                	add	sp,sp,tp
80000086:	01151613          	slli	a2,a0,0x11
8000008a:	9232                	add	tp,tp,a2
8000008c:	7540106f          	j	800017e0 <_init>

80000090 <trap_entry>:
80000090:	716d                	addi	sp,sp,-272
80000092:	c206                	sw	ra,4(sp)
80000094:	c40a                	sw	sp,8(sp)
80000096:	c60e                	sw	gp,12(sp)
80000098:	c812                	sw	tp,16(sp)
8000009a:	ca16                	sw	t0,20(sp)
8000009c:	cc1a                	sw	t1,24(sp)
8000009e:	ce1e                	sw	t2,28(sp)
800000a0:	d022                	sw	s0,32(sp)
800000a2:	d226                	sw	s1,36(sp)
800000a4:	d42a                	sw	a0,40(sp)
800000a6:	d62e                	sw	a1,44(sp)
800000a8:	d832                	sw	a2,48(sp)
800000aa:	da36                	sw	a3,52(sp)
800000ac:	dc3a                	sw	a4,56(sp)
800000ae:	de3e                	sw	a5,60(sp)
800000b0:	c0c2                	sw	a6,64(sp)
800000b2:	c2c6                	sw	a7,68(sp)
800000b4:	c4ca                	sw	s2,72(sp)
800000b6:	c6ce                	sw	s3,76(sp)
800000b8:	c8d2                	sw	s4,80(sp)
800000ba:	cad6                	sw	s5,84(sp)
800000bc:	ccda                	sw	s6,88(sp)
800000be:	cede                	sw	s7,92(sp)
800000c0:	d0e2                	sw	s8,96(sp)
800000c2:	d2e6                	sw	s9,100(sp)
800000c4:	d4ea                	sw	s10,104(sp)
800000c6:	d6ee                	sw	s11,108(sp)
800000c8:	d8f2                	sw	t3,112(sp)
800000ca:	daf6                	sw	t4,116(sp)
800000cc:	dcfa                	sw	t5,120(sp)
800000ce:	defe                	sw	t6,124(sp)
800000d0:	34202573          	csrr	a0,mcause
800000d4:	341025f3          	csrr	a1,mepc
800000d8:	860a                	mv	a2,sp
800000da:	5d0010ef          	jal	ra,800016aa <handle_trap>
800000de:	34151073          	csrw	mepc,a0
800000e2:	6289                	lui	t0,0x2
800000e4:	80028293          	addi	t0,t0,-2048 # 1800 <buflen.3+0x1780>
800000e8:	3002a073          	csrs	mstatus,t0
800000ec:	4092                	lw	ra,4(sp)
800000ee:	4122                	lw	sp,8(sp)
800000f0:	41b2                	lw	gp,12(sp)
800000f2:	4242                	lw	tp,16(sp)
800000f4:	42d2                	lw	t0,20(sp)
800000f6:	4362                	lw	t1,24(sp)
800000f8:	43f2                	lw	t2,28(sp)
800000fa:	5402                	lw	s0,32(sp)
800000fc:	5492                	lw	s1,36(sp)
800000fe:	5522                	lw	a0,40(sp)
80000100:	55b2                	lw	a1,44(sp)
80000102:	5642                	lw	a2,48(sp)
80000104:	56d2                	lw	a3,52(sp)
80000106:	5762                	lw	a4,56(sp)
80000108:	57f2                	lw	a5,60(sp)
8000010a:	4806                	lw	a6,64(sp)
8000010c:	4896                	lw	a7,68(sp)
8000010e:	4926                	lw	s2,72(sp)
80000110:	49b6                	lw	s3,76(sp)
80000112:	4a46                	lw	s4,80(sp)
80000114:	4ad6                	lw	s5,84(sp)
80000116:	4b66                	lw	s6,88(sp)
80000118:	4bf6                	lw	s7,92(sp)
8000011a:	5c06                	lw	s8,96(sp)
8000011c:	5c96                	lw	s9,100(sp)
8000011e:	5d26                	lw	s10,104(sp)
80000120:	5db6                	lw	s11,108(sp)
80000122:	5e46                	lw	t3,112(sp)
80000124:	5ed6                	lw	t4,116(sp)
80000126:	5f66                	lw	t5,120(sp)
80000128:	5ff6                	lw	t6,124(sp)
8000012a:	6151                	addi	sp,sp,272
8000012c:	30200073          	mret
80000130:	0000                	unimp

Disassembly of section .text:

80001048 <main>:
80001048:	715d                	addi	sp,sp,-80
8000104a:	c686                	sw	ra,76(sp)
8000104c:	c4a2                	sw	s0,72(sp)
8000104e:	0880                	addi	s0,sp,80
80001050:	faa42e23          	sw	a0,-68(s0)
80001054:	fab42c23          	sw	a1,-72(s0)
80001058:	fe042623          	sw	zero,-20(s0)
8000105c:	00002517          	auipc	a0,0x2
80001060:	b1050513          	addi	a0,a0,-1264 # 80002b6c <__eqdf2+0x6a>
80001064:	6f9000ef          	jal	ra,80001f5c <printf>
80001068:	b80027f3          	csrr	a5,mcycleh
8000106c:	fef42223          	sw	a5,-28(s0)
80001070:	b00027f3          	csrr	a5,mcycle
80001074:	fef42023          	sw	a5,-32(s0)
80001078:	06400793          	li	a5,100
8000107c:	fef42423          	sw	a5,-24(s0)
80001080:	a085                	j	800010e0 <main+0x98>
80001082:	fc042623          	sw	zero,-52(s0)
80001086:	a091                	j	800010ca <main+0x82>
80001088:	00003717          	auipc	a4,0x3
8000108c:	81470713          	addi	a4,a4,-2028 # 8000389c <coeffs>
80001090:	fcc42783          	lw	a5,-52(s0)
80001094:	078a                	slli	a5,a5,0x2
80001096:	97ba                	add	a5,a5,a4
80001098:	4398                	lw	a4,0(a5)
8000109a:	fe842683          	lw	a3,-24(s0)
8000109e:	fcc42783          	lw	a5,-52(s0)
800010a2:	97b6                	add	a5,a5,a3
800010a4:	00002697          	auipc	a3,0x2
800010a8:	df868693          	addi	a3,a3,-520 # 80002e9c <data>
800010ac:	078a                	slli	a5,a5,0x2
800010ae:	97b6                	add	a5,a5,a3
800010b0:	439c                	lw	a5,0(a5)
800010b2:	02f707b3          	mul	a5,a4,a5
800010b6:	fec42703          	lw	a4,-20(s0)
800010ba:	97ba                	add	a5,a5,a4
800010bc:	fef42623          	sw	a5,-20(s0)
800010c0:	fe842783          	lw	a5,-24(s0)
800010c4:	0785                	addi	a5,a5,1
800010c6:	fef42423          	sw	a5,-24(s0)
800010ca:	fcc42703          	lw	a4,-52(s0)
800010ce:	06300793          	li	a5,99
800010d2:	fae7dbe3          	bge	a5,a4,80001088 <main+0x40>
800010d6:	fe842783          	lw	a5,-24(s0)
800010da:	0785                	addi	a5,a5,1
800010dc:	fef42423          	sw	a5,-24(s0)
800010e0:	fe842703          	lw	a4,-24(s0)
800010e4:	21b00793          	li	a5,539
800010e8:	f8e7dde3          	bge	a5,a4,80001082 <main+0x3a>
800010ec:	b80027f3          	csrr	a5,mcycleh
800010f0:	fcf42e23          	sw	a5,-36(s0)
800010f4:	b00027f3          	csrr	a5,mcycle
800010f8:	fcf42c23          	sw	a5,-40(s0)
800010fc:	fdc42703          	lw	a4,-36(s0)
80001100:	fe442783          	lw	a5,-28(s0)
80001104:	40f707b3          	sub	a5,a4,a5
80001108:	fcf42a23          	sw	a5,-44(s0)
8000110c:	fd842703          	lw	a4,-40(s0)
80001110:	fe042783          	lw	a5,-32(s0)
80001114:	40f707b3          	sub	a5,a4,a5
80001118:	fcf42823          	sw	a5,-48(s0)
8000111c:	fec42583          	lw	a1,-20(s0)
80001120:	00002517          	auipc	a0,0x2
80001124:	a6850513          	addi	a0,a0,-1432 # 80002b88 <__eqdf2+0x86>
80001128:	635000ef          	jal	ra,80001f5c <printf>
8000112c:	fd042583          	lw	a1,-48(s0)
80001130:	00002517          	auipc	a0,0x2
80001134:	a6850513          	addi	a0,a0,-1432 # 80002b98 <__eqdf2+0x96>
80001138:	625000ef          	jal	ra,80001f5c <printf>
8000113c:	00002517          	auipc	a0,0x2
80001140:	a7050513          	addi	a0,a0,-1424 # 80002bac <__eqdf2+0xaa>
80001144:	619000ef          	jal	ra,80001f5c <printf>
80001148:	4781                	li	a5,0
8000114a:	853e                	mv	a0,a5
8000114c:	40b6                	lw	ra,76(sp)
8000114e:	4426                	lw	s0,72(sp)
80001150:	6161                	addi	sp,sp,80
80001152:	8082                	ret

80001154 <verify>:
80001154:	7139                	addi	sp,sp,-64
80001156:	de22                	sw	s0,60(sp)
80001158:	0080                	addi	s0,sp,64
8000115a:	fca42623          	sw	a0,-52(s0)
8000115e:	fcb42423          	sw	a1,-56(s0)
80001162:	fcc42223          	sw	a2,-60(s0)
80001166:	fe042623          	sw	zero,-20(s0)
8000116a:	a041                	j	800011ea <verify+0x96>
8000116c:	fec42783          	lw	a5,-20(s0)
80001170:	078a                	slli	a5,a5,0x2
80001172:	fc842703          	lw	a4,-56(s0)
80001176:	97ba                	add	a5,a5,a4
80001178:	439c                	lw	a5,0(a5)
8000117a:	fef42423          	sw	a5,-24(s0)
8000117e:	fec42783          	lw	a5,-20(s0)
80001182:	0785                	addi	a5,a5,1
80001184:	078a                	slli	a5,a5,0x2
80001186:	fc842703          	lw	a4,-56(s0)
8000118a:	97ba                	add	a5,a5,a4
8000118c:	439c                	lw	a5,0(a5)
8000118e:	fef42223          	sw	a5,-28(s0)
80001192:	fec42783          	lw	a5,-20(s0)
80001196:	078a                	slli	a5,a5,0x2
80001198:	fc442703          	lw	a4,-60(s0)
8000119c:	97ba                	add	a5,a5,a4
8000119e:	439c                	lw	a5,0(a5)
800011a0:	fef42023          	sw	a5,-32(s0)
800011a4:	fec42783          	lw	a5,-20(s0)
800011a8:	0785                	addi	a5,a5,1
800011aa:	078a                	slli	a5,a5,0x2
800011ac:	fc442703          	lw	a4,-60(s0)
800011b0:	97ba                	add	a5,a5,a4
800011b2:	439c                	lw	a5,0(a5)
800011b4:	fcf42e23          	sw	a5,-36(s0)
800011b8:	fe842703          	lw	a4,-24(s0)
800011bc:	fe042783          	lw	a5,-32(s0)
800011c0:	00f70663          	beq	a4,a5,800011cc <verify+0x78>
800011c4:	fec42783          	lw	a5,-20(s0)
800011c8:	0785                	addi	a5,a5,1
800011ca:	a89d                	j	80001240 <verify+0xec>
800011cc:	fe442703          	lw	a4,-28(s0)
800011d0:	fdc42783          	lw	a5,-36(s0)
800011d4:	00f70663          	beq	a4,a5,800011e0 <verify+0x8c>
800011d8:	fec42783          	lw	a5,-20(s0)
800011dc:	0789                	addi	a5,a5,2
800011de:	a08d                	j	80001240 <verify+0xec>
800011e0:	fec42783          	lw	a5,-20(s0)
800011e4:	0789                	addi	a5,a5,2
800011e6:	fef42623          	sw	a5,-20(s0)
800011ea:	fcc42783          	lw	a5,-52(s0)
800011ee:	01f7d713          	srli	a4,a5,0x1f
800011f2:	97ba                	add	a5,a5,a4
800011f4:	8785                	srai	a5,a5,0x1
800011f6:	0786                	slli	a5,a5,0x1
800011f8:	fec42703          	lw	a4,-20(s0)
800011fc:	f6f748e3          	blt	a4,a5,8000116c <verify+0x18>
80001200:	fcc42783          	lw	a5,-52(s0)
80001204:	8b85                	andi	a5,a5,1
80001206:	cf85                	beqz	a5,8000123e <verify+0xea>
80001208:	fcc42703          	lw	a4,-52(s0)
8000120c:	400007b7          	lui	a5,0x40000
80001210:	17fd                	addi	a5,a5,-1
80001212:	97ba                	add	a5,a5,a4
80001214:	078a                	slli	a5,a5,0x2
80001216:	fc842703          	lw	a4,-56(s0)
8000121a:	97ba                	add	a5,a5,a4
8000121c:	4398                	lw	a4,0(a5)
8000121e:	fcc42683          	lw	a3,-52(s0)
80001222:	400007b7          	lui	a5,0x40000
80001226:	17fd                	addi	a5,a5,-1
80001228:	97b6                	add	a5,a5,a3
8000122a:	078a                	slli	a5,a5,0x2
8000122c:	fc442683          	lw	a3,-60(s0)
80001230:	97b6                	add	a5,a5,a3
80001232:	439c                	lw	a5,0(a5)
80001234:	00f70563          	beq	a4,a5,8000123e <verify+0xea>
80001238:	fcc42783          	lw	a5,-52(s0)
8000123c:	a011                	j	80001240 <verify+0xec>
8000123e:	4781                	li	a5,0
80001240:	853e                	mv	a0,a5
80001242:	5472                	lw	s0,60(sp)
80001244:	6121                	addi	sp,sp,64
80001246:	8082                	ret

80001248 <verifyDouble>:
80001248:	715d                	addi	sp,sp,-80
8000124a:	c686                	sw	ra,76(sp)
8000124c:	c4a2                	sw	s0,72(sp)
8000124e:	c2a6                	sw	s1,68(sp)
80001250:	0880                	addi	s0,sp,80
80001252:	faa42e23          	sw	a0,-68(s0)
80001256:	fab42c23          	sw	a1,-72(s0)
8000125a:	fac42a23          	sw	a2,-76(s0)
8000125e:	fe042623          	sw	zero,-20(s0)
80001262:	a8d1                	j	80001336 <verifyDouble+0xee>
80001264:	fec42783          	lw	a5,-20(s0)
80001268:	078e                	slli	a5,a5,0x3
8000126a:	fb842703          	lw	a4,-72(s0)
8000126e:	97ba                	add	a5,a5,a4
80001270:	4398                	lw	a4,0(a5)
80001272:	43dc                	lw	a5,4(a5)
80001274:	fee42023          	sw	a4,-32(s0)
80001278:	fef42223          	sw	a5,-28(s0)
8000127c:	fec42783          	lw	a5,-20(s0)
80001280:	0785                	addi	a5,a5,1
80001282:	078e                	slli	a5,a5,0x3
80001284:	fb842703          	lw	a4,-72(s0)
80001288:	97ba                	add	a5,a5,a4
8000128a:	4398                	lw	a4,0(a5)
8000128c:	43dc                	lw	a5,4(a5)
8000128e:	fce42c23          	sw	a4,-40(s0)
80001292:	fcf42e23          	sw	a5,-36(s0)
80001296:	fec42783          	lw	a5,-20(s0)
8000129a:	078e                	slli	a5,a5,0x3
8000129c:	fb442703          	lw	a4,-76(s0)
800012a0:	97ba                	add	a5,a5,a4
800012a2:	4398                	lw	a4,0(a5)
800012a4:	43dc                	lw	a5,4(a5)
800012a6:	fce42823          	sw	a4,-48(s0)
800012aa:	fcf42a23          	sw	a5,-44(s0)
800012ae:	fec42783          	lw	a5,-20(s0)
800012b2:	0785                	addi	a5,a5,1
800012b4:	078e                	slli	a5,a5,0x3
800012b6:	fb442703          	lw	a4,-76(s0)
800012ba:	97ba                	add	a5,a5,a4
800012bc:	4398                	lw	a4,0(a5)
800012be:	43dc                	lw	a5,4(a5)
800012c0:	fce42423          	sw	a4,-56(s0)
800012c4:	fcf42623          	sw	a5,-52(s0)
800012c8:	4485                	li	s1,1
800012ca:	fd042603          	lw	a2,-48(s0)
800012ce:	fd442683          	lw	a3,-44(s0)
800012d2:	fe042503          	lw	a0,-32(s0)
800012d6:	fe442583          	lw	a1,-28(s0)
800012da:	029010ef          	jal	ra,80002b02 <__eqdf2>
800012de:	87aa                	mv	a5,a0
800012e0:	c391                	beqz	a5,800012e4 <verifyDouble+0x9c>
800012e2:	4481                	li	s1,0
800012e4:	0ff4f793          	zext.b	a5,s1
800012e8:	fcf42223          	sw	a5,-60(s0)
800012ec:	4485                	li	s1,1
800012ee:	fc842603          	lw	a2,-56(s0)
800012f2:	fcc42683          	lw	a3,-52(s0)
800012f6:	fd842503          	lw	a0,-40(s0)
800012fa:	fdc42583          	lw	a1,-36(s0)
800012fe:	005010ef          	jal	ra,80002b02 <__eqdf2>
80001302:	87aa                	mv	a5,a0
80001304:	c391                	beqz	a5,80001308 <verifyDouble+0xc0>
80001306:	4481                	li	s1,0
80001308:	0ff4f793          	zext.b	a5,s1
8000130c:	fcf42023          	sw	a5,-64(s0)
80001310:	fc442703          	lw	a4,-60(s0)
80001314:	fc042783          	lw	a5,-64(s0)
80001318:	8ff9                	and	a5,a5,a4
8000131a:	eb89                	bnez	a5,8000132c <verifyDouble+0xe4>
8000131c:	fec42783          	lw	a5,-20(s0)
80001320:	00178713          	addi	a4,a5,1 # 40000001 <buflen.3+0x3fffff81>
80001324:	fc442783          	lw	a5,-60(s0)
80001328:	97ba                	add	a5,a5,a4
8000132a:	a0bd                	j	80001398 <verifyDouble+0x150>
8000132c:	fec42783          	lw	a5,-20(s0)
80001330:	0789                	addi	a5,a5,2
80001332:	fef42623          	sw	a5,-20(s0)
80001336:	fbc42783          	lw	a5,-68(s0)
8000133a:	01f7d713          	srli	a4,a5,0x1f
8000133e:	97ba                	add	a5,a5,a4
80001340:	8785                	srai	a5,a5,0x1
80001342:	0786                	slli	a5,a5,0x1
80001344:	fec42703          	lw	a4,-20(s0)
80001348:	f0f74ee3          	blt	a4,a5,80001264 <verifyDouble+0x1c>
8000134c:	fbc42783          	lw	a5,-68(s0)
80001350:	8b85                	andi	a5,a5,1
80001352:	c3b1                	beqz	a5,80001396 <verifyDouble+0x14e>
80001354:	fbc42703          	lw	a4,-68(s0)
80001358:	200007b7          	lui	a5,0x20000
8000135c:	17fd                	addi	a5,a5,-1
8000135e:	97ba                	add	a5,a5,a4
80001360:	078e                	slli	a5,a5,0x3
80001362:	fb842703          	lw	a4,-72(s0)
80001366:	97ba                	add	a5,a5,a4
80001368:	4398                	lw	a4,0(a5)
8000136a:	43dc                	lw	a5,4(a5)
8000136c:	fbc42603          	lw	a2,-68(s0)
80001370:	200006b7          	lui	a3,0x20000
80001374:	16fd                	addi	a3,a3,-1
80001376:	96b2                	add	a3,a3,a2
80001378:	068e                	slli	a3,a3,0x3
8000137a:	fb442603          	lw	a2,-76(s0)
8000137e:	96b2                	add	a3,a3,a2
80001380:	4290                	lw	a2,0(a3)
80001382:	42d4                	lw	a3,4(a3)
80001384:	853a                	mv	a0,a4
80001386:	85be                	mv	a1,a5
80001388:	77a010ef          	jal	ra,80002b02 <__eqdf2>
8000138c:	87aa                	mv	a5,a0
8000138e:	c781                	beqz	a5,80001396 <verifyDouble+0x14e>
80001390:	fbc42783          	lw	a5,-68(s0)
80001394:	a011                	j	80001398 <verifyDouble+0x150>
80001396:	4781                	li	a5,0
80001398:	853e                	mv	a0,a5
8000139a:	40b6                	lw	ra,76(sp)
8000139c:	4426                	lw	s0,72(sp)
8000139e:	4496                	lw	s1,68(sp)
800013a0:	6161                	addi	sp,sp,80
800013a2:	8082                	ret

800013a4 <barrier>:
800013a4:	1101                	addi	sp,sp,-32
800013a6:	ce22                	sw	s0,28(sp)
800013a8:	1000                	addi	s0,sp,32
800013aa:	fea42623          	sw	a0,-20(s0)
800013ae:	0ff0000f          	fence
800013b2:	00022783          	lw	a5,0(tp) # 0 <threadsense.5>
800013b6:	0017b793          	seqz	a5,a5
800013ba:	0ff7f793          	zext.b	a5,a5
800013be:	873e                	mv	a4,a5
800013c0:	00e22023          	sw	a4,0(tp) # 0 <threadsense.5>
800013c4:	00002797          	auipc	a5,0x2
800013c8:	6e878793          	addi	a5,a5,1768 # 80003aac <count.2>
800013cc:	4705                	li	a4,1
800013ce:	0f50000f          	fence	iorw,ow
800013d2:	04e7a6af          	amoadd.w.aq	a3,a4,(a5)
800013d6:	8736                	mv	a4,a3
800013d8:	fec42783          	lw	a5,-20(s0)
800013dc:	17fd                	addi	a5,a5,-1
800013de:	02f71063          	bne	a4,a5,800013fe <barrier+0x5a>
800013e2:	00002797          	auipc	a5,0x2
800013e6:	6ca78793          	addi	a5,a5,1738 # 80003aac <count.2>
800013ea:	0007a023          	sw	zero,0(a5)
800013ee:	00022703          	lw	a4,0(tp) # 0 <threadsense.5>
800013f2:	00002797          	auipc	a5,0x2
800013f6:	6be78793          	addi	a5,a5,1726 # 80003ab0 <sense.1>
800013fa:	c398                	sw	a4,0(a5)
800013fc:	a819                	j	80001412 <barrier+0x6e>
800013fe:	0001                	nop
80001400:	00002797          	auipc	a5,0x2
80001404:	6b078793          	addi	a5,a5,1712 # 80003ab0 <sense.1>
80001408:	4398                	lw	a4,0(a5)
8000140a:	00022783          	lw	a5,0(tp) # 0 <threadsense.5>
8000140e:	fef719e3          	bne	a4,a5,80001400 <barrier+0x5c>
80001412:	0ff0000f          	fence
80001416:	0001                	nop
80001418:	4472                	lw	s0,28(sp)
8000141a:	6105                	addi	sp,sp,32
8000141c:	8082                	ret

8000141e <lfsr>:
8000141e:	7179                	addi	sp,sp,-48
80001420:	d622                	sw	s0,44(sp)
80001422:	1800                	addi	s0,sp,48
80001424:	fca42c23          	sw	a0,-40(s0)
80001428:	fcb42e23          	sw	a1,-36(s0)
8000142c:	fdc42583          	lw	a1,-36(s0)
80001430:	05fe                	slli	a1,a1,0x1f
80001432:	fd842503          	lw	a0,-40(s0)
80001436:	00155613          	srli	a2,a0,0x1
8000143a:	8e4d                	or	a2,a2,a1
8000143c:	fdc42583          	lw	a1,-36(s0)
80001440:	0015d693          	srli	a3,a1,0x1
80001444:	fd842583          	lw	a1,-40(s0)
80001448:	00c5c833          	xor	a6,a1,a2
8000144c:	fdc42583          	lw	a1,-36(s0)
80001450:	00d5c8b3          	xor	a7,a1,a3
80001454:	00187693          	andi	a3,a6,1
80001458:	fed42423          	sw	a3,-24(s0)
8000145c:	0008f693          	andi	a3,a7,0
80001460:	fed42623          	sw	a3,-20(s0)
80001464:	fdc42683          	lw	a3,-36(s0)
80001468:	06fe                	slli	a3,a3,0x1f
8000146a:	fd842603          	lw	a2,-40(s0)
8000146e:	00165713          	srli	a4,a2,0x1
80001472:	8f55                	or	a4,a4,a3
80001474:	fdc42683          	lw	a3,-36(s0)
80001478:	0016d793          	srli	a5,a3,0x1
8000147c:	fe842683          	lw	a3,-24(s0)
80001480:	01e69393          	slli	t2,a3,0x1e
80001484:	4301                	li	t1,0
80001486:	00676e33          	or	t3,a4,t1
8000148a:	0077eeb3          	or	t4,a5,t2
8000148e:	8772                	mv	a4,t3
80001490:	87f6                	mv	a5,t4
80001492:	853a                	mv	a0,a4
80001494:	85be                	mv	a1,a5
80001496:	5432                	lw	s0,44(sp)
80001498:	6145                	addi	sp,sp,48
8000149a:	8082                	ret

8000149c <insn_len>:
8000149c:	1101                	addi	sp,sp,-32
8000149e:	ce22                	sw	s0,28(sp)
800014a0:	1000                	addi	s0,sp,32
800014a2:	fea42623          	sw	a0,-20(s0)
800014a6:	fec42783          	lw	a5,-20(s0)
800014aa:	0007d783          	lhu	a5,0(a5)
800014ae:	8b8d                	andi	a5,a5,3
800014b0:	c399                	beqz	a5,800014b6 <insn_len+0x1a>
800014b2:	4791                	li	a5,4
800014b4:	a011                	j	800014b8 <insn_len+0x1c>
800014b6:	4789                	li	a5,2
800014b8:	853e                	mv	a0,a5
800014ba:	4472                	lw	s0,28(sp)
800014bc:	6105                	addi	sp,sp,32
800014be:	8082                	ret

800014c0 <syscall>:
800014c0:	7171                	addi	sp,sp,-176
800014c2:	d722                	sw	s0,172(sp)
800014c4:	1900                	addi	s0,sp,176
800014c6:	f6a42623          	sw	a0,-148(s0)
800014ca:	f6b42023          	sw	a1,-160(s0)
800014ce:	f6c42223          	sw	a2,-156(s0)
800014d2:	f4d42c23          	sw	a3,-168(s0)
800014d6:	f4e42e23          	sw	a4,-164(s0)
800014da:	f4f42823          	sw	a5,-176(s0)
800014de:	f5042a23          	sw	a6,-172(s0)
800014e2:	ff040793          	addi	a5,s0,-16
800014e6:	f6f42423          	sw	a5,-152(s0)
800014ea:	f6842783          	lw	a5,-152(s0)
800014ee:	f8078793          	addi	a5,a5,-128
800014f2:	03f78793          	addi	a5,a5,63
800014f6:	8399                	srli	a5,a5,0x6
800014f8:	079a                	slli	a5,a5,0x6
800014fa:	f6c42703          	lw	a4,-148(s0)
800014fe:	8e3a                	mv	t3,a4
80001500:	4e81                	li	t4,0
80001502:	01c7a023          	sw	t3,0(a5)
80001506:	01d7a223          	sw	t4,4(a5)
8000150a:	f6042603          	lw	a2,-160(s0)
8000150e:	f6442683          	lw	a3,-156(s0)
80001512:	c790                	sw	a2,8(a5)
80001514:	c7d4                	sw	a3,12(a5)
80001516:	f5842603          	lw	a2,-168(s0)
8000151a:	f5c42683          	lw	a3,-164(s0)
8000151e:	cb90                	sw	a2,16(a5)
80001520:	cbd4                	sw	a3,20(a5)
80001522:	f5042603          	lw	a2,-176(s0)
80001526:	f5442683          	lw	a3,-172(s0)
8000152a:	cf90                	sw	a2,24(a5)
8000152c:	cfd4                	sw	a3,28(a5)
8000152e:	0ff0000f          	fence
80001532:	873e                	mv	a4,a5
80001534:	833a                	mv	t1,a4
80001536:	4381                	li	t2,0
80001538:	00000717          	auipc	a4,0x0
8000153c:	ac870713          	addi	a4,a4,-1336 # 80001000 <tohost>
80001540:	00672023          	sw	t1,0(a4)
80001544:	00772223          	sw	t2,4(a4)
80001548:	0001                	nop
8000154a:	00000717          	auipc	a4,0x0
8000154e:	af670713          	addi	a4,a4,-1290 # 80001040 <fromhost>
80001552:	4310                	lw	a2,0(a4)
80001554:	4354                	lw	a3,4(a4)
80001556:	8732                	mv	a4,a2
80001558:	8f55                	or	a4,a4,a3
8000155a:	db65                	beqz	a4,8000154a <syscall+0x8a>
8000155c:	00000717          	auipc	a4,0x0
80001560:	ae470713          	addi	a4,a4,-1308 # 80001040 <fromhost>
80001564:	4601                	li	a2,0
80001566:	4681                	li	a3,0
80001568:	c310                	sw	a2,0(a4)
8000156a:	c354                	sw	a3,4(a4)
8000156c:	0ff0000f          	fence
80001570:	4398                	lw	a4,0(a5)
80001572:	43dc                	lw	a5,4(a5)
80001574:	87ba                	mv	a5,a4
80001576:	853e                	mv	a0,a5
80001578:	543a                	lw	s0,172(sp)
8000157a:	614d                	addi	sp,sp,176
8000157c:	8082                	ret

8000157e <setStats>:
8000157e:	7139                	addi	sp,sp,-64
80001580:	de22                	sw	s0,60(sp)
80001582:	0080                	addi	s0,sp,64
80001584:	fca42623          	sw	a0,-52(s0)
80001588:	fe042223          	sw	zero,-28(s0)
8000158c:	0001                	nop
8000158e:	fe442703          	lw	a4,-28(s0)
80001592:	4785                	li	a5,1
80001594:	fee7cde3          	blt	a5,a4,8000158e <setStats+0x10>
80001598:	b00027f3          	csrr	a5,mcycle
8000159c:	fef42023          	sw	a5,-32(s0)
800015a0:	fe042783          	lw	a5,-32(s0)
800015a4:	fef42623          	sw	a5,-20(s0)
800015a8:	fcc42783          	lw	a5,-52(s0)
800015ac:	ef8d                	bnez	a5,800015e6 <setStats+0x68>
800015ae:	00002717          	auipc	a4,0x2
800015b2:	4ee70713          	addi	a4,a4,1262 # 80003a9c <counters>
800015b6:	fe442783          	lw	a5,-28(s0)
800015ba:	078a                	slli	a5,a5,0x2
800015bc:	97ba                	add	a5,a5,a4
800015be:	439c                	lw	a5,0(a5)
800015c0:	fec42703          	lw	a4,-20(s0)
800015c4:	40f707b3          	sub	a5,a4,a5
800015c8:	fef42623          	sw	a5,-20(s0)
800015cc:	00002717          	auipc	a4,0x2
800015d0:	4d870713          	addi	a4,a4,1240 # 80003aa4 <counter_names>
800015d4:	fe442783          	lw	a5,-28(s0)
800015d8:	078a                	slli	a5,a5,0x2
800015da:	97ba                	add	a5,a5,a4
800015dc:	00001717          	auipc	a4,0x1
800015e0:	5ec70713          	addi	a4,a4,1516 # 80002bc8 <__eqdf2+0xc6>
800015e4:	c398                	sw	a4,0(a5)
800015e6:	fe442783          	lw	a5,-28(s0)
800015ea:	00178713          	addi	a4,a5,1
800015ee:	fee42223          	sw	a4,-28(s0)
800015f2:	00002717          	auipc	a4,0x2
800015f6:	4aa70713          	addi	a4,a4,1194 # 80003a9c <counters>
800015fa:	078a                	slli	a5,a5,0x2
800015fc:	97ba                	add	a5,a5,a4
800015fe:	fec42703          	lw	a4,-20(s0)
80001602:	c398                	sw	a4,0(a5)
80001604:	0001                	nop
80001606:	fe442703          	lw	a4,-28(s0)
8000160a:	4785                	li	a5,1
8000160c:	fee7cde3          	blt	a5,a4,80001606 <setStats+0x88>
80001610:	b02027f3          	csrr	a5,minstret
80001614:	fcf42e23          	sw	a5,-36(s0)
80001618:	fdc42783          	lw	a5,-36(s0)
8000161c:	fef42423          	sw	a5,-24(s0)
80001620:	fcc42783          	lw	a5,-52(s0)
80001624:	ef8d                	bnez	a5,8000165e <setStats+0xe0>
80001626:	00002717          	auipc	a4,0x2
8000162a:	47670713          	addi	a4,a4,1142 # 80003a9c <counters>
8000162e:	fe442783          	lw	a5,-28(s0)
80001632:	078a                	slli	a5,a5,0x2
80001634:	97ba                	add	a5,a5,a4
80001636:	439c                	lw	a5,0(a5)
80001638:	fe842703          	lw	a4,-24(s0)
8000163c:	40f707b3          	sub	a5,a4,a5
80001640:	fef42423          	sw	a5,-24(s0)
80001644:	00002717          	auipc	a4,0x2
80001648:	46070713          	addi	a4,a4,1120 # 80003aa4 <counter_names>
8000164c:	fe442783          	lw	a5,-28(s0)
80001650:	078a                	slli	a5,a5,0x2
80001652:	97ba                	add	a5,a5,a4
80001654:	00001717          	auipc	a4,0x1
80001658:	57c70713          	addi	a4,a4,1404 # 80002bd0 <__eqdf2+0xce>
8000165c:	c398                	sw	a4,0(a5)
8000165e:	fe442783          	lw	a5,-28(s0)
80001662:	00178713          	addi	a4,a5,1
80001666:	fee42223          	sw	a4,-28(s0)
8000166a:	00002717          	auipc	a4,0x2
8000166e:	43270713          	addi	a4,a4,1074 # 80003a9c <counters>
80001672:	078a                	slli	a5,a5,0x2
80001674:	97ba                	add	a5,a5,a4
80001676:	fe842703          	lw	a4,-24(s0)
8000167a:	c398                	sw	a4,0(a5)
8000167c:	0001                	nop
8000167e:	5472                	lw	s0,60(sp)
80001680:	6121                	addi	sp,sp,64
80001682:	8082                	ret

80001684 <tohost_exit>:
80001684:	1101                	addi	sp,sp,-32
80001686:	ce22                	sw	s0,28(sp)
80001688:	1000                	addi	s0,sp,32
8000168a:	fea42623          	sw	a0,-20(s0)
8000168e:	fec42683          	lw	a3,-20(s0)
80001692:	0686                	slli	a3,a3,0x1
80001694:	0016e693          	ori	a3,a3,1
80001698:	8736                	mv	a4,a3
8000169a:	4781                	li	a5,0
8000169c:	00000697          	auipc	a3,0x0
800016a0:	96468693          	addi	a3,a3,-1692 # 80001000 <tohost>
800016a4:	c298                	sw	a4,0(a3)
800016a6:	c2dc                	sw	a5,4(a3)
800016a8:	a001                	j	800016a8 <tohost_exit+0x24>

800016aa <handle_trap>:
800016aa:	1101                	addi	sp,sp,-32
800016ac:	ce06                	sw	ra,28(sp)
800016ae:	cc22                	sw	s0,24(sp)
800016b0:	1000                	addi	s0,sp,32
800016b2:	fea42623          	sw	a0,-20(s0)
800016b6:	feb42423          	sw	a1,-24(s0)
800016ba:	fec42223          	sw	a2,-28(s0)
800016be:	53900513          	li	a0,1337
800016c2:	37c9                	jal	80001684 <tohost_exit>

800016c4 <exit>:
800016c4:	1101                	addi	sp,sp,-32
800016c6:	ce06                	sw	ra,28(sp)
800016c8:	cc22                	sw	s0,24(sp)
800016ca:	1000                	addi	s0,sp,32
800016cc:	fea42623          	sw	a0,-20(s0)
800016d0:	fec42783          	lw	a5,-20(s0)
800016d4:	853e                	mv	a0,a5
800016d6:	377d                	jal	80001684 <tohost_exit>

800016d8 <abort>:
800016d8:	1141                	addi	sp,sp,-16
800016da:	c606                	sw	ra,12(sp)
800016dc:	c422                	sw	s0,8(sp)
800016de:	0800                	addi	s0,sp,16
800016e0:	08600513          	li	a0,134
800016e4:	37c5                	jal	800016c4 <exit>

800016e6 <printstr>:
800016e6:	7179                	addi	sp,sp,-48
800016e8:	d606                	sw	ra,44(sp)
800016ea:	d422                	sw	s0,40(sp)
800016ec:	d24a                	sw	s2,36(sp)
800016ee:	d04e                	sw	s3,32(sp)
800016f0:	ce52                	sw	s4,28(sp)
800016f2:	cc56                	sw	s5,24(sp)
800016f4:	1800                	addi	s0,sp,48
800016f6:	fca42e23          	sw	a0,-36(s0)
800016fa:	fdc42783          	lw	a5,-36(s0)
800016fe:	893e                	mv	s2,a5
80001700:	4981                	li	s3,0
80001702:	fdc42503          	lw	a0,-36(s0)
80001706:	343000ef          	jal	ra,80002248 <strlen>
8000170a:	87aa                	mv	a5,a0
8000170c:	8a3e                	mv	s4,a5
8000170e:	4a81                	li	s5,0
80001710:	87d2                	mv	a5,s4
80001712:	8856                	mv	a6,s5
80001714:	86ca                	mv	a3,s2
80001716:	874e                	mv	a4,s3
80001718:	4585                	li	a1,1
8000171a:	4601                	li	a2,0
8000171c:	04000513          	li	a0,64
80001720:	3345                	jal	800014c0 <syscall>
80001722:	0001                	nop
80001724:	50b2                	lw	ra,44(sp)
80001726:	5422                	lw	s0,40(sp)
80001728:	5912                	lw	s2,36(sp)
8000172a:	5982                	lw	s3,32(sp)
8000172c:	4a72                	lw	s4,28(sp)
8000172e:	4ae2                	lw	s5,24(sp)
80001730:	6145                	addi	sp,sp,48
80001732:	8082                	ret

80001734 <thread_entry>:
80001734:	1101                	addi	sp,sp,-32
80001736:	ce22                	sw	s0,28(sp)
80001738:	1000                	addi	s0,sp,32
8000173a:	fea42623          	sw	a0,-20(s0)
8000173e:	feb42423          	sw	a1,-24(s0)
80001742:	0001                	nop
80001744:	fec42783          	lw	a5,-20(s0)
80001748:	fff5                	bnez	a5,80001744 <thread_entry+0x10>
8000174a:	0001                	nop
8000174c:	0001                	nop
8000174e:	4472                	lw	s0,28(sp)
80001750:	6105                	addi	sp,sp,32
80001752:	8082                	ret
80001754:	1101                	addi	sp,sp,-32
80001756:	ce06                	sw	ra,28(sp)
80001758:	cc22                	sw	s0,24(sp)
8000175a:	1000                	addi	s0,sp,32
8000175c:	fea42623          	sw	a0,-20(s0)
80001760:	feb42423          	sw	a1,-24(s0)
80001764:	00001517          	auipc	a0,0x1
80001768:	47850513          	addi	a0,a0,1144 # 80002bdc <__eqdf2+0xda>
8000176c:	3fad                	jal	800016e6 <printstr>
8000176e:	57fd                	li	a5,-1
80001770:	853e                	mv	a0,a5
80001772:	40f2                	lw	ra,28(sp)
80001774:	4462                	lw	s0,24(sp)
80001776:	6105                	addi	sp,sp,32
80001778:	8082                	ret

8000177a <init_tls>:
8000177a:	1101                	addi	sp,sp,-32
8000177c:	ce06                	sw	ra,28(sp)
8000177e:	cc22                	sw	s0,24(sp)
80001780:	1000                	addi	s0,sp,32
80001782:	00002717          	auipc	a4,0x2
80001786:	33270713          	addi	a4,a4,818 # 80003ab4 <_tdata_begin>
8000178a:	00002797          	auipc	a5,0x2
8000178e:	32a78793          	addi	a5,a5,810 # 80003ab4 <_tdata_begin>
80001792:	40f707b3          	sub	a5,a4,a5
80001796:	fef42623          	sw	a5,-20(s0)
8000179a:	8792                	mv	a5,tp
8000179c:	fec42603          	lw	a2,-20(s0)
800017a0:	00002597          	auipc	a1,0x2
800017a4:	31458593          	addi	a1,a1,788 # 80003ab4 <_tdata_begin>
800017a8:	853e                	mv	a0,a5
800017aa:	12b000ef          	jal	ra,800020d4 <memcpy>
800017ae:	8a818713          	addi	a4,gp,-1880 # 80003b44 <_tbss_end>
800017b2:	00002797          	auipc	a5,0x2
800017b6:	30278793          	addi	a5,a5,770 # 80003ab4 <_tdata_begin>
800017ba:	40f707b3          	sub	a5,a4,a5
800017be:	fef42423          	sw	a5,-24(s0)
800017c2:	8712                	mv	a4,tp
800017c4:	fec42783          	lw	a5,-20(s0)
800017c8:	97ba                	add	a5,a5,a4
800017ca:	fe842603          	lw	a2,-24(s0)
800017ce:	4581                	li	a1,0
800017d0:	853e                	mv	a0,a5
800017d2:	1bb000ef          	jal	ra,8000218c <memset>
800017d6:	0001                	nop
800017d8:	40f2                	lw	ra,28(sp)
800017da:	4462                	lw	s0,24(sp)
800017dc:	6105                	addi	sp,sp,32
800017de:	8082                	ret

800017e0 <_init>:
800017e0:	7171                	addi	sp,sp,-176
800017e2:	d706                	sw	ra,172(sp)
800017e4:	d522                	sw	s0,168(sp)
800017e6:	d326                	sw	s1,164(sp)
800017e8:	1900                	addi	s0,sp,176
800017ea:	f4a42e23          	sw	a0,-164(s0)
800017ee:	f4b42c23          	sw	a1,-168(s0)
800017f2:	ff040793          	addi	a5,s0,-16
800017f6:	f4f42a23          	sw	a5,-172(s0)
800017fa:	f5442783          	lw	a5,-172(s0)
800017fe:	f7078793          	addi	a5,a5,-144
80001802:	03f78793          	addi	a5,a5,63
80001806:	8399                	srli	a5,a5,0x6
80001808:	00679493          	slli	s1,a5,0x6
8000180c:	37bd                	jal	8000177a <init_tls>
8000180e:	f5842583          	lw	a1,-168(s0)
80001812:	f5c42503          	lw	a0,-164(s0)
80001816:	3f39                	jal	80001734 <thread_entry>
80001818:	4581                	li	a1,0
8000181a:	4501                	li	a0,0
8000181c:	3035                	jal	80001048 <main>
8000181e:	fea42223          	sw	a0,-28(s0)
80001822:	fe942623          	sw	s1,-20(s0)
80001826:	fe042423          	sw	zero,-24(s0)
8000182a:	a08d                	j	8000188c <_init+0xac>
8000182c:	00002717          	auipc	a4,0x2
80001830:	27070713          	addi	a4,a4,624 # 80003a9c <counters>
80001834:	fe842783          	lw	a5,-24(s0)
80001838:	078a                	slli	a5,a5,0x2
8000183a:	97ba                	add	a5,a5,a4
8000183c:	439c                	lw	a5,0(a5)
8000183e:	c3b1                	beqz	a5,80001882 <_init+0xa2>
80001840:	00002717          	auipc	a4,0x2
80001844:	26470713          	addi	a4,a4,612 # 80003aa4 <counter_names>
80001848:	fe842783          	lw	a5,-24(s0)
8000184c:	078a                	slli	a5,a5,0x2
8000184e:	97ba                	add	a5,a5,a4
80001850:	4390                	lw	a2,0(a5)
80001852:	00002717          	auipc	a4,0x2
80001856:	24a70713          	addi	a4,a4,586 # 80003a9c <counters>
8000185a:	fe842783          	lw	a5,-24(s0)
8000185e:	078a                	slli	a5,a5,0x2
80001860:	97ba                	add	a5,a5,a4
80001862:	439c                	lw	a5,0(a5)
80001864:	86be                	mv	a3,a5
80001866:	00001597          	auipc	a1,0x1
8000186a:	38e58593          	addi	a1,a1,910 # 80002bf4 <__eqdf2+0xf2>
8000186e:	fec42503          	lw	a0,-20(s0)
80001872:	2741                	jal	80001ff2 <sprintf>
80001874:	87aa                	mv	a5,a0
80001876:	873e                	mv	a4,a5
80001878:	fec42783          	lw	a5,-20(s0)
8000187c:	97ba                	add	a5,a5,a4
8000187e:	fef42623          	sw	a5,-20(s0)
80001882:	fe842783          	lw	a5,-24(s0)
80001886:	0785                	addi	a5,a5,1
80001888:	fef42423          	sw	a5,-24(s0)
8000188c:	fe842703          	lw	a4,-24(s0)
80001890:	4785                	li	a5,1
80001892:	f8e7dde3          	bge	a5,a4,8000182c <_init+0x4c>
80001896:	fec42783          	lw	a5,-20(s0)
8000189a:	00f48463          	beq	s1,a5,800018a2 <_init+0xc2>
8000189e:	8526                	mv	a0,s1
800018a0:	3599                	jal	800016e6 <printstr>
800018a2:	fe442503          	lw	a0,-28(s0)
800018a6:	3d39                	jal	800016c4 <exit>

800018a8 <putchar>:
800018a8:	1101                	addi	sp,sp,-32
800018aa:	ce06                	sw	ra,28(sp)
800018ac:	cc22                	sw	s0,24(sp)
800018ae:	1000                	addi	s0,sp,32
800018b0:	fea42623          	sw	a0,-20(s0)
800018b4:	08022783          	lw	a5,128(tp) # 80 <buflen.3>
800018b8:	00178593          	addi	a1,a5,1
800018bc:	08b22023          	sw	a1,128(tp) # 80 <buflen.3>
800018c0:	fec42703          	lw	a4,-20(s0)
800018c4:	0ff77713          	zext.b	a4,a4
800018c8:	04020593          	addi	a1,tp,64 # 40 <buf.4>
800018cc:	97ae                	add	a5,a5,a1
800018ce:	00e78023          	sb	a4,0(a5)
800018d2:	fec42703          	lw	a4,-20(s0)
800018d6:	47a9                	li	a5,10
800018d8:	00f70863          	beq	a4,a5,800018e8 <putchar+0x40>
800018dc:	08022703          	lw	a4,128(tp) # 80 <buflen.3>
800018e0:	04000793          	li	a5,64
800018e4:	02f71663          	bne	a4,a5,80001910 <putchar+0x68>
800018e8:	04020793          	addi	a5,tp,64 # 40 <buf.4>
800018ec:	863e                	mv	a2,a5
800018ee:	4681                	li	a3,0
800018f0:	08022783          	lw	a5,128(tp) # 80 <buflen.3>
800018f4:	883e                	mv	a6,a5
800018f6:	87fd                	srai	a5,a5,0x1f
800018f8:	88be                	mv	a7,a5
800018fa:	87c2                	mv	a5,a6
800018fc:	8846                	mv	a6,a7
800018fe:	8736                	mv	a4,a3
80001900:	86b2                	mv	a3,a2
80001902:	4585                	li	a1,1
80001904:	4601                	li	a2,0
80001906:	04000513          	li	a0,64
8000190a:	3e5d                	jal	800014c0 <syscall>
8000190c:	08022023          	sw	zero,128(tp) # 80 <buflen.3>
80001910:	4781                	li	a5,0
80001912:	853e                	mv	a0,a5
80001914:	40f2                	lw	ra,28(sp)
80001916:	4462                	lw	s0,24(sp)
80001918:	6105                	addi	sp,sp,32
8000191a:	8082                	ret

8000191c <printhex>:
8000191c:	7139                	addi	sp,sp,-64
8000191e:	de06                	sw	ra,60(sp)
80001920:	dc22                	sw	s0,56(sp)
80001922:	0080                	addi	s0,sp,64
80001924:	fca42423          	sw	a0,-56(s0)
80001928:	fcb42623          	sw	a1,-52(s0)
8000192c:	fe042623          	sw	zero,-20(s0)
80001930:	a8ad                	j	800019aa <printhex+0x8e>
80001932:	fc844583          	lbu	a1,-56(s0)
80001936:	89bd                	andi	a1,a1,15
80001938:	0ff5f513          	zext.b	a0,a1
8000193c:	fc842583          	lw	a1,-56(s0)
80001940:	00f5f613          	andi	a2,a1,15
80001944:	fcc42583          	lw	a1,-52(s0)
80001948:	0005f693          	andi	a3,a1,0
8000194c:	85b6                	mv	a1,a3
8000194e:	e991                	bnez	a1,80001962 <printhex+0x46>
80001950:	85b6                	mv	a1,a3
80001952:	e589                	bnez	a1,8000195c <printhex+0x40>
80001954:	8832                	mv	a6,a2
80001956:	45a5                	li	a1,9
80001958:	0105e563          	bltu	a1,a6,80001962 <printhex+0x46>
8000195c:	03000593          	li	a1,48
80001960:	a019                	j	80001966 <printhex+0x4a>
80001962:	05700593          	li	a1,87
80001966:	48bd                	li	a7,15
80001968:	fec42803          	lw	a6,-20(s0)
8000196c:	41088833          	sub	a6,a7,a6
80001970:	95aa                	add	a1,a1,a0
80001972:	0ff5f513          	zext.b	a0,a1
80001976:	ff080593          	addi	a1,a6,-16
8000197a:	95a2                	add	a1,a1,s0
8000197c:	fea58423          	sb	a0,-24(a1)
80001980:	fcc42583          	lw	a1,-52(s0)
80001984:	05f2                	slli	a1,a1,0x1c
80001986:	fc842503          	lw	a0,-56(s0)
8000198a:	00455713          	srli	a4,a0,0x4
8000198e:	8f4d                	or	a4,a4,a1
80001990:	fcc42583          	lw	a1,-52(s0)
80001994:	0045d793          	srli	a5,a1,0x4
80001998:	fce42423          	sw	a4,-56(s0)
8000199c:	fcf42623          	sw	a5,-52(s0)
800019a0:	fec42583          	lw	a1,-20(s0)
800019a4:	0585                	addi	a1,a1,1
800019a6:	feb42623          	sw	a1,-20(s0)
800019aa:	fec42503          	lw	a0,-20(s0)
800019ae:	45bd                	li	a1,15
800019b0:	f8a5d1e3          	bge	a1,a0,80001932 <printhex+0x16>
800019b4:	fe040423          	sb	zero,-24(s0)
800019b8:	fd840793          	addi	a5,s0,-40
800019bc:	853e                	mv	a0,a5
800019be:	3325                	jal	800016e6 <printstr>
800019c0:	0001                	nop
800019c2:	50f2                	lw	ra,60(sp)
800019c4:	5462                	lw	s0,56(sp)
800019c6:	6121                	addi	sp,sp,64
800019c8:	8082                	ret

800019ca <printnum>:
800019ca:	714d                	addi	sp,sp,-336
800019cc:	14112623          	sw	ra,332(sp)
800019d0:	14812423          	sw	s0,328(sp)
800019d4:	15212223          	sw	s2,324(sp)
800019d8:	15312023          	sw	s3,320(sp)
800019dc:	13412e23          	sw	s4,316(sp)
800019e0:	13512c23          	sw	s5,312(sp)
800019e4:	13612a23          	sw	s6,308(sp)
800019e8:	13712823          	sw	s7,304(sp)
800019ec:	0a80                	addi	s0,sp,336
800019ee:	eca42623          	sw	a0,-308(s0)
800019f2:	ecb42423          	sw	a1,-312(s0)
800019f6:	ecc42023          	sw	a2,-320(s0)
800019fa:	ecd42223          	sw	a3,-316(s0)
800019fe:	eae42e23          	sw	a4,-324(s0)
80001a02:	eaf42c23          	sw	a5,-328(s0)
80001a06:	eb042a23          	sw	a6,-332(s0)
80001a0a:	fc042e23          	sw	zero,-36(s0)
80001a0e:	ebc42783          	lw	a5,-324(s0)
80001a12:	8b3e                	mv	s6,a5
80001a14:	4b81                	li	s7,0
80001a16:	ec042703          	lw	a4,-320(s0)
80001a1a:	ec442783          	lw	a5,-316(s0)
80001a1e:	865a                	mv	a2,s6
80001a20:	86de                	mv	a3,s7
80001a22:	853a                	mv	a0,a4
80001a24:	85be                	mv	a1,a5
80001a26:	5bf000ef          	jal	ra,800027e4 <__umoddi3>
80001a2a:	872a                	mv	a4,a0
80001a2c:	87ae                	mv	a5,a1
80001a2e:	863a                	mv	a2,a4
80001a30:	86be                	mv	a3,a5
80001a32:	fdc42783          	lw	a5,-36(s0)
80001a36:	00178713          	addi	a4,a5,1
80001a3a:	fce42e23          	sw	a4,-36(s0)
80001a3e:	8732                	mv	a4,a2
80001a40:	078a                	slli	a5,a5,0x2
80001a42:	1781                	addi	a5,a5,-32
80001a44:	97a2                	add	a5,a5,s0
80001a46:	eee7ae23          	sw	a4,-260(a5)
80001a4a:	ebc42783          	lw	a5,-324(s0)
80001a4e:	893e                	mv	s2,a5
80001a50:	4981                	li	s3,0
80001a52:	ec442783          	lw	a5,-316(s0)
80001a56:	874e                	mv	a4,s3
80001a58:	02e7ef63          	bltu	a5,a4,80001a96 <printnum+0xcc>
80001a5c:	ec442783          	lw	a5,-316(s0)
80001a60:	874e                	mv	a4,s3
80001a62:	00e79763          	bne	a5,a4,80001a70 <printnum+0xa6>
80001a66:	ec042783          	lw	a5,-320(s0)
80001a6a:	874a                	mv	a4,s2
80001a6c:	02e7e563          	bltu	a5,a4,80001a96 <printnum+0xcc>
80001a70:	ebc42783          	lw	a5,-324(s0)
80001a74:	8a3e                	mv	s4,a5
80001a76:	4a81                	li	s5,0
80001a78:	8652                	mv	a2,s4
80001a7a:	86d6                	mv	a3,s5
80001a7c:	ec042503          	lw	a0,-320(s0)
80001a80:	ec442583          	lw	a1,-316(s0)
80001a84:	203000ef          	jal	ra,80002486 <__udivdi3>
80001a88:	872a                	mv	a4,a0
80001a8a:	87ae                	mv	a5,a1
80001a8c:	ece42023          	sw	a4,-320(s0)
80001a90:	ecf42223          	sw	a5,-316(s0)
80001a94:	bfad                	j	80001a0e <printnum+0x44>
80001a96:	0001                	nop
80001a98:	a801                	j	80001aa8 <printnum+0xde>
80001a9a:	ecc42783          	lw	a5,-308(s0)
80001a9e:	ec842583          	lw	a1,-312(s0)
80001aa2:	eb442503          	lw	a0,-332(s0)
80001aa6:	9782                	jalr	a5
80001aa8:	eb842783          	lw	a5,-328(s0)
80001aac:	fff78713          	addi	a4,a5,-1
80001ab0:	eae42c23          	sw	a4,-328(s0)
80001ab4:	fdc42703          	lw	a4,-36(s0)
80001ab8:	fef741e3          	blt	a4,a5,80001a9a <printnum+0xd0>
80001abc:	a835                	j	80001af8 <printnum+0x12e>
80001abe:	fdc42783          	lw	a5,-36(s0)
80001ac2:	078a                	slli	a5,a5,0x2
80001ac4:	1781                	addi	a5,a5,-32
80001ac6:	97a2                	add	a5,a5,s0
80001ac8:	efc7a703          	lw	a4,-260(a5)
80001acc:	fdc42783          	lw	a5,-36(s0)
80001ad0:	078a                	slli	a5,a5,0x2
80001ad2:	1781                	addi	a5,a5,-32
80001ad4:	97a2                	add	a5,a5,s0
80001ad6:	efc7a683          	lw	a3,-260(a5)
80001ada:	47a5                	li	a5,9
80001adc:	00d7f563          	bgeu	a5,a3,80001ae6 <printnum+0x11c>
80001ae0:	05700793          	li	a5,87
80001ae4:	a019                	j	80001aea <printnum+0x120>
80001ae6:	03000793          	li	a5,48
80001aea:	97ba                	add	a5,a5,a4
80001aec:	ecc42703          	lw	a4,-308(s0)
80001af0:	ec842583          	lw	a1,-312(s0)
80001af4:	853e                	mv	a0,a5
80001af6:	9702                	jalr	a4
80001af8:	fdc42783          	lw	a5,-36(s0)
80001afc:	fff78713          	addi	a4,a5,-1
80001b00:	fce42e23          	sw	a4,-36(s0)
80001b04:	faf04de3          	bgtz	a5,80001abe <printnum+0xf4>
80001b08:	0001                	nop
80001b0a:	0001                	nop
80001b0c:	14c12083          	lw	ra,332(sp)
80001b10:	14812403          	lw	s0,328(sp)
80001b14:	14412903          	lw	s2,324(sp)
80001b18:	14012983          	lw	s3,320(sp)
80001b1c:	13c12a03          	lw	s4,316(sp)
80001b20:	13812a83          	lw	s5,312(sp)
80001b24:	13412b03          	lw	s6,308(sp)
80001b28:	13012b83          	lw	s7,304(sp)
80001b2c:	6171                	addi	sp,sp,336
80001b2e:	8082                	ret

80001b30 <getuint>:
80001b30:	1101                	addi	sp,sp,-32
80001b32:	ce22                	sw	s0,28(sp)
80001b34:	1000                	addi	s0,sp,32
80001b36:	fea42623          	sw	a0,-20(s0)
80001b3a:	feb42423          	sw	a1,-24(s0)
80001b3e:	fe842603          	lw	a2,-24(s0)
80001b42:	4685                	li	a3,1
80001b44:	00c6df63          	bge	a3,a2,80001b62 <getuint+0x32>
80001b48:	fec42783          	lw	a5,-20(s0)
80001b4c:	439c                	lw	a5,0(a5)
80001b4e:	079d                	addi	a5,a5,7
80001b50:	9be1                	andi	a5,a5,-8
80001b52:	00878693          	addi	a3,a5,8
80001b56:	fec42703          	lw	a4,-20(s0)
80001b5a:	c314                	sw	a3,0(a4)
80001b5c:	4398                	lw	a4,0(a5)
80001b5e:	43dc                	lw	a5,4(a5)
80001b60:	a81d                	j	80001b96 <getuint+0x66>
80001b62:	fe842683          	lw	a3,-24(s0)
80001b66:	ce89                	beqz	a3,80001b80 <getuint+0x50>
80001b68:	fec42683          	lw	a3,-20(s0)
80001b6c:	4294                	lw	a3,0(a3)
80001b6e:	00468593          	addi	a1,a3,4
80001b72:	fec42603          	lw	a2,-20(s0)
80001b76:	c20c                	sw	a1,0(a2)
80001b78:	4294                	lw	a3,0(a3)
80001b7a:	8736                	mv	a4,a3
80001b7c:	4781                	li	a5,0
80001b7e:	a821                	j	80001b96 <getuint+0x66>
80001b80:	fec42683          	lw	a3,-20(s0)
80001b84:	4294                	lw	a3,0(a3)
80001b86:	00468593          	addi	a1,a3,4
80001b8a:	fec42603          	lw	a2,-20(s0)
80001b8e:	c20c                	sw	a1,0(a2)
80001b90:	4294                	lw	a3,0(a3)
80001b92:	8736                	mv	a4,a3
80001b94:	4781                	li	a5,0
80001b96:	853a                	mv	a0,a4
80001b98:	85be                	mv	a1,a5
80001b9a:	4472                	lw	s0,28(sp)
80001b9c:	6105                	addi	sp,sp,32
80001b9e:	8082                	ret

80001ba0 <getint>:
80001ba0:	1101                	addi	sp,sp,-32
80001ba2:	ce22                	sw	s0,28(sp)
80001ba4:	1000                	addi	s0,sp,32
80001ba6:	fea42623          	sw	a0,-20(s0)
80001baa:	feb42423          	sw	a1,-24(s0)
80001bae:	fe842603          	lw	a2,-24(s0)
80001bb2:	4685                	li	a3,1
80001bb4:	00c6df63          	bge	a3,a2,80001bd2 <getint+0x32>
80001bb8:	fec42783          	lw	a5,-20(s0)
80001bbc:	439c                	lw	a5,0(a5)
80001bbe:	079d                	addi	a5,a5,7
80001bc0:	9be1                	andi	a5,a5,-8
80001bc2:	00878693          	addi	a3,a5,8
80001bc6:	fec42703          	lw	a4,-20(s0)
80001bca:	c314                	sw	a3,0(a4)
80001bcc:	4398                	lw	a4,0(a5)
80001bce:	43dc                	lw	a5,4(a5)
80001bd0:	a82d                	j	80001c0a <getint+0x6a>
80001bd2:	fe842683          	lw	a3,-24(s0)
80001bd6:	ce91                	beqz	a3,80001bf2 <getint+0x52>
80001bd8:	fec42683          	lw	a3,-20(s0)
80001bdc:	4294                	lw	a3,0(a3)
80001bde:	00468593          	addi	a1,a3,4
80001be2:	fec42603          	lw	a2,-20(s0)
80001be6:	c20c                	sw	a1,0(a2)
80001be8:	4294                	lw	a3,0(a3)
80001bea:	8736                	mv	a4,a3
80001bec:	86fd                	srai	a3,a3,0x1f
80001bee:	87b6                	mv	a5,a3
80001bf0:	a829                	j	80001c0a <getint+0x6a>
80001bf2:	fec42683          	lw	a3,-20(s0)
80001bf6:	4294                	lw	a3,0(a3)
80001bf8:	00468593          	addi	a1,a3,4
80001bfc:	fec42603          	lw	a2,-20(s0)
80001c00:	c20c                	sw	a1,0(a2)
80001c02:	4294                	lw	a3,0(a3)
80001c04:	8736                	mv	a4,a3
80001c06:	86fd                	srai	a3,a3,0x1f
80001c08:	87b6                	mv	a5,a3
80001c0a:	853a                	mv	a0,a4
80001c0c:	85be                	mv	a1,a5
80001c0e:	4472                	lw	s0,28(sp)
80001c10:	6105                	addi	sp,sp,32
80001c12:	8082                	ret

80001c14 <vprintfmt>:
80001c14:	715d                	addi	sp,sp,-80
80001c16:	c686                	sw	ra,76(sp)
80001c18:	c4a2                	sw	s0,72(sp)
80001c1a:	c2a6                	sw	s1,68(sp)
80001c1c:	c0ca                	sw	s2,64(sp)
80001c1e:	0880                	addi	s0,sp,80
80001c20:	faa42e23          	sw	a0,-68(s0)
80001c24:	fab42c23          	sw	a1,-72(s0)
80001c28:	fac42a23          	sw	a2,-76(s0)
80001c2c:	fad42823          	sw	a3,-80(s0)
80001c30:	a831                	j	80001c4c <vprintfmt+0x38>
80001c32:	30048e63          	beqz	s1,80001f4e <vprintfmt+0x33a>
80001c36:	fb442783          	lw	a5,-76(s0)
80001c3a:	0785                	addi	a5,a5,1
80001c3c:	faf42a23          	sw	a5,-76(s0)
80001c40:	fbc42783          	lw	a5,-68(s0)
80001c44:	fb842583          	lw	a1,-72(s0)
80001c48:	8526                	mv	a0,s1
80001c4a:	9782                	jalr	a5
80001c4c:	fb442783          	lw	a5,-76(s0)
80001c50:	0007c783          	lbu	a5,0(a5)
80001c54:	84be                	mv	s1,a5
80001c56:	02500793          	li	a5,37
80001c5a:	fcf49ce3          	bne	s1,a5,80001c32 <vprintfmt+0x1e>
80001c5e:	fb442783          	lw	a5,-76(s0)
80001c62:	0785                	addi	a5,a5,1
80001c64:	faf42a23          	sw	a5,-76(s0)
80001c68:	fb442783          	lw	a5,-76(s0)
80001c6c:	fcf42823          	sw	a5,-48(s0)
80001c70:	02000793          	li	a5,32
80001c74:	fcf40ba3          	sb	a5,-41(s0)
80001c78:	57fd                	li	a5,-1
80001c7a:	fcf42e23          	sw	a5,-36(s0)
80001c7e:	57fd                	li	a5,-1
80001c80:	fcf42c23          	sw	a5,-40(s0)
80001c84:	fe042023          	sw	zero,-32(s0)
80001c88:	fc042623          	sw	zero,-52(s0)
80001c8c:	fb442783          	lw	a5,-76(s0)
80001c90:	00178713          	addi	a4,a5,1
80001c94:	fae42a23          	sw	a4,-76(s0)
80001c98:	0007c783          	lbu	a5,0(a5)
80001c9c:	84be                	mv	s1,a5
80001c9e:	fdd48793          	addi	a5,s1,-35
80001ca2:	05500713          	li	a4,85
80001ca6:	28f76763          	bltu	a4,a5,80001f34 <vprintfmt+0x320>
80001caa:	00279713          	slli	a4,a5,0x2
80001cae:	00001797          	auipc	a5,0x1
80001cb2:	f5a78793          	addi	a5,a5,-166 # 80002c08 <__eqdf2+0x106>
80001cb6:	97ba                	add	a5,a5,a4
80001cb8:	4398                	lw	a4,0(a5)
80001cba:	00001797          	auipc	a5,0x1
80001cbe:	f4e78793          	addi	a5,a5,-178 # 80002c08 <__eqdf2+0x106>
80001cc2:	97ba                	add	a5,a5,a4
80001cc4:	8782                	jr	a5
80001cc6:	02d00793          	li	a5,45
80001cca:	fcf40ba3          	sb	a5,-41(s0)
80001cce:	bf7d                	j	80001c8c <vprintfmt+0x78>
80001cd0:	03000793          	li	a5,48
80001cd4:	fcf40ba3          	sb	a5,-41(s0)
80001cd8:	bf55                	j	80001c8c <vprintfmt+0x78>
80001cda:	fc042c23          	sw	zero,-40(s0)
80001cde:	fd842703          	lw	a4,-40(s0)
80001ce2:	87ba                	mv	a5,a4
80001ce4:	078a                	slli	a5,a5,0x2
80001ce6:	97ba                	add	a5,a5,a4
80001ce8:	0786                	slli	a5,a5,0x1
80001cea:	97a6                	add	a5,a5,s1
80001cec:	fd078793          	addi	a5,a5,-48
80001cf0:	fcf42c23          	sw	a5,-40(s0)
80001cf4:	fb442783          	lw	a5,-76(s0)
80001cf8:	0007c783          	lbu	a5,0(a5)
80001cfc:	84be                	mv	s1,a5
80001cfe:	02f00793          	li	a5,47
80001d02:	0497d163          	bge	a5,s1,80001d44 <vprintfmt+0x130>
80001d06:	03900793          	li	a5,57
80001d0a:	0297cd63          	blt	a5,s1,80001d44 <vprintfmt+0x130>
80001d0e:	fb442783          	lw	a5,-76(s0)
80001d12:	0785                	addi	a5,a5,1
80001d14:	faf42a23          	sw	a5,-76(s0)
80001d18:	b7d9                	j	80001cde <vprintfmt+0xca>
80001d1a:	fb042783          	lw	a5,-80(s0)
80001d1e:	00478713          	addi	a4,a5,4
80001d22:	fae42823          	sw	a4,-80(s0)
80001d26:	439c                	lw	a5,0(a5)
80001d28:	fcf42c23          	sw	a5,-40(s0)
80001d2c:	a829                	j	80001d46 <vprintfmt+0x132>
80001d2e:	fdc42783          	lw	a5,-36(s0)
80001d32:	f407dde3          	bgez	a5,80001c8c <vprintfmt+0x78>
80001d36:	fc042e23          	sw	zero,-36(s0)
80001d3a:	bf89                	j	80001c8c <vprintfmt+0x78>
80001d3c:	4785                	li	a5,1
80001d3e:	fcf42623          	sw	a5,-52(s0)
80001d42:	b7a9                	j	80001c8c <vprintfmt+0x78>
80001d44:	0001                	nop
80001d46:	fdc42783          	lw	a5,-36(s0)
80001d4a:	f407d1e3          	bgez	a5,80001c8c <vprintfmt+0x78>
80001d4e:	fd842783          	lw	a5,-40(s0)
80001d52:	fcf42e23          	sw	a5,-36(s0)
80001d56:	57fd                	li	a5,-1
80001d58:	fcf42c23          	sw	a5,-40(s0)
80001d5c:	bf05                	j	80001c8c <vprintfmt+0x78>
80001d5e:	fe042783          	lw	a5,-32(s0)
80001d62:	0785                	addi	a5,a5,1
80001d64:	fef42023          	sw	a5,-32(s0)
80001d68:	b715                	j	80001c8c <vprintfmt+0x78>
80001d6a:	fb042783          	lw	a5,-80(s0)
80001d6e:	00478713          	addi	a4,a5,4
80001d72:	fae42823          	sw	a4,-80(s0)
80001d76:	439c                	lw	a5,0(a5)
80001d78:	fbc42703          	lw	a4,-68(s0)
80001d7c:	fb842583          	lw	a1,-72(s0)
80001d80:	853e                	mv	a0,a5
80001d82:	9702                	jalr	a4
80001d84:	a2e1                	j	80001f4c <vprintfmt+0x338>
80001d86:	fb042783          	lw	a5,-80(s0)
80001d8a:	00478713          	addi	a4,a5,4
80001d8e:	fae42823          	sw	a4,-80(s0)
80001d92:	0007a903          	lw	s2,0(a5)
80001d96:	00091663          	bnez	s2,80001da2 <vprintfmt+0x18e>
80001d9a:	00001917          	auipc	s2,0x1
80001d9e:	e6690913          	addi	s2,s2,-410 # 80002c00 <__eqdf2+0xfe>
80001da2:	fdc42783          	lw	a5,-36(s0)
80001da6:	06f05363          	blez	a5,80001e0c <vprintfmt+0x1f8>
80001daa:	fd744703          	lbu	a4,-41(s0)
80001dae:	02d00793          	li	a5,45
80001db2:	04f70d63          	beq	a4,a5,80001e0c <vprintfmt+0x1f8>
80001db6:	fdc42483          	lw	s1,-36(s0)
80001dba:	fd842783          	lw	a5,-40(s0)
80001dbe:	85be                	mv	a1,a5
80001dc0:	854a                	mv	a0,s2
80001dc2:	21c9                	jal	80002284 <strnlen>
80001dc4:	87aa                	mv	a5,a0
80001dc6:	40f487b3          	sub	a5,s1,a5
80001dca:	fcf42e23          	sw	a5,-36(s0)
80001dce:	a831                	j	80001dea <vprintfmt+0x1d6>
80001dd0:	fd744783          	lbu	a5,-41(s0)
80001dd4:	fbc42703          	lw	a4,-68(s0)
80001dd8:	fb842583          	lw	a1,-72(s0)
80001ddc:	853e                	mv	a0,a5
80001dde:	9702                	jalr	a4
80001de0:	fdc42783          	lw	a5,-36(s0)
80001de4:	17fd                	addi	a5,a5,-1
80001de6:	fcf42e23          	sw	a5,-36(s0)
80001dea:	fdc42783          	lw	a5,-36(s0)
80001dee:	fef041e3          	bgtz	a5,80001dd0 <vprintfmt+0x1bc>
80001df2:	a829                	j	80001e0c <vprintfmt+0x1f8>
80001df4:	fbc42783          	lw	a5,-68(s0)
80001df8:	fb842583          	lw	a1,-72(s0)
80001dfc:	8526                	mv	a0,s1
80001dfe:	9782                	jalr	a5
80001e00:	0905                	addi	s2,s2,1
80001e02:	fdc42783          	lw	a5,-36(s0)
80001e06:	17fd                	addi	a5,a5,-1
80001e08:	fcf42e23          	sw	a5,-36(s0)
80001e0c:	00094783          	lbu	a5,0(s2)
80001e10:	84be                	mv	s1,a5
80001e12:	c89d                	beqz	s1,80001e48 <vprintfmt+0x234>
80001e14:	fd842783          	lw	a5,-40(s0)
80001e18:	fc07cee3          	bltz	a5,80001df4 <vprintfmt+0x1e0>
80001e1c:	fd842783          	lw	a5,-40(s0)
80001e20:	17fd                	addi	a5,a5,-1
80001e22:	fcf42c23          	sw	a5,-40(s0)
80001e26:	fd842783          	lw	a5,-40(s0)
80001e2a:	fc07d5e3          	bgez	a5,80001df4 <vprintfmt+0x1e0>
80001e2e:	a829                	j	80001e48 <vprintfmt+0x234>
80001e30:	fbc42783          	lw	a5,-68(s0)
80001e34:	fb842583          	lw	a1,-72(s0)
80001e38:	02000513          	li	a0,32
80001e3c:	9782                	jalr	a5
80001e3e:	fdc42783          	lw	a5,-36(s0)
80001e42:	17fd                	addi	a5,a5,-1
80001e44:	fcf42e23          	sw	a5,-36(s0)
80001e48:	fdc42783          	lw	a5,-36(s0)
80001e4c:	fef042e3          	bgtz	a5,80001e30 <vprintfmt+0x21c>
80001e50:	a8f5                	j	80001f4c <vprintfmt+0x338>
80001e52:	fb040793          	addi	a5,s0,-80
80001e56:	fe042583          	lw	a1,-32(s0)
80001e5a:	853e                	mv	a0,a5
80001e5c:	3391                	jal	80001ba0 <getint>
80001e5e:	872a                	mv	a4,a0
80001e60:	87ae                	mv	a5,a1
80001e62:	fee42423          	sw	a4,-24(s0)
80001e66:	fef42623          	sw	a5,-20(s0)
80001e6a:	fe842703          	lw	a4,-24(s0)
80001e6e:	fec42783          	lw	a5,-20(s0)
80001e72:	0207df63          	bgez	a5,80001eb0 <vprintfmt+0x29c>
80001e76:	fbc42783          	lw	a5,-68(s0)
80001e7a:	fb842583          	lw	a1,-72(s0)
80001e7e:	02d00513          	li	a0,45
80001e82:	9782                	jalr	a5
80001e84:	fe842503          	lw	a0,-24(s0)
80001e88:	fec42583          	lw	a1,-20(s0)
80001e8c:	4701                	li	a4,0
80001e8e:	4781                	li	a5,0
80001e90:	40a70633          	sub	a2,a4,a0
80001e94:	8832                	mv	a6,a2
80001e96:	01073833          	sltu	a6,a4,a6
80001e9a:	40b786b3          	sub	a3,a5,a1
80001e9e:	410687b3          	sub	a5,a3,a6
80001ea2:	86be                	mv	a3,a5
80001ea4:	8732                	mv	a4,a2
80001ea6:	87b6                	mv	a5,a3
80001ea8:	fee42423          	sw	a4,-24(s0)
80001eac:	fef42623          	sw	a5,-20(s0)
80001eb0:	47a9                	li	a5,10
80001eb2:	fef42223          	sw	a5,-28(s0)
80001eb6:	a0b9                	j	80001f04 <vprintfmt+0x2f0>
80001eb8:	47a9                	li	a5,10
80001eba:	fef42223          	sw	a5,-28(s0)
80001ebe:	a80d                	j	80001ef0 <vprintfmt+0x2dc>
80001ec0:	47a1                	li	a5,8
80001ec2:	fef42223          	sw	a5,-28(s0)
80001ec6:	a02d                	j	80001ef0 <vprintfmt+0x2dc>
80001ec8:	4785                	li	a5,1
80001eca:	fef42023          	sw	a5,-32(s0)
80001ece:	fbc42783          	lw	a5,-68(s0)
80001ed2:	fb842583          	lw	a1,-72(s0)
80001ed6:	03000513          	li	a0,48
80001eda:	9782                	jalr	a5
80001edc:	fbc42783          	lw	a5,-68(s0)
80001ee0:	fb842583          	lw	a1,-72(s0)
80001ee4:	07800513          	li	a0,120
80001ee8:	9782                	jalr	a5
80001eea:	47c1                	li	a5,16
80001eec:	fef42223          	sw	a5,-28(s0)
80001ef0:	fb040793          	addi	a5,s0,-80
80001ef4:	fe042583          	lw	a1,-32(s0)
80001ef8:	853e                	mv	a0,a5
80001efa:	391d                	jal	80001b30 <getuint>
80001efc:	fea42423          	sw	a0,-24(s0)
80001f00:	feb42623          	sw	a1,-20(s0)
80001f04:	fe442703          	lw	a4,-28(s0)
80001f08:	fd744783          	lbu	a5,-41(s0)
80001f0c:	883e                	mv	a6,a5
80001f0e:	fdc42783          	lw	a5,-36(s0)
80001f12:	fe842603          	lw	a2,-24(s0)
80001f16:	fec42683          	lw	a3,-20(s0)
80001f1a:	fb842583          	lw	a1,-72(s0)
80001f1e:	fbc42503          	lw	a0,-68(s0)
80001f22:	3465                	jal	800019ca <printnum>
80001f24:	a025                	j	80001f4c <vprintfmt+0x338>
80001f26:	fbc42783          	lw	a5,-68(s0)
80001f2a:	fb842583          	lw	a1,-72(s0)
80001f2e:	8526                	mv	a0,s1
80001f30:	9782                	jalr	a5
80001f32:	a829                	j	80001f4c <vprintfmt+0x338>
80001f34:	fbc42783          	lw	a5,-68(s0)
80001f38:	fb842583          	lw	a1,-72(s0)
80001f3c:	02500513          	li	a0,37
80001f40:	9782                	jalr	a5
80001f42:	fd042783          	lw	a5,-48(s0)
80001f46:	faf42a23          	sw	a5,-76(s0)
80001f4a:	0001                	nop
80001f4c:	b301                	j	80001c4c <vprintfmt+0x38>
80001f4e:	0001                	nop
80001f50:	40b6                	lw	ra,76(sp)
80001f52:	4426                	lw	s0,72(sp)
80001f54:	4496                	lw	s1,68(sp)
80001f56:	4906                	lw	s2,64(sp)
80001f58:	6161                	addi	sp,sp,80
80001f5a:	8082                	ret

80001f5c <printf>:
80001f5c:	715d                	addi	sp,sp,-80
80001f5e:	d606                	sw	ra,44(sp)
80001f60:	d422                	sw	s0,40(sp)
80001f62:	1800                	addi	s0,sp,48
80001f64:	fca42e23          	sw	a0,-36(s0)
80001f68:	c04c                	sw	a1,4(s0)
80001f6a:	c410                	sw	a2,8(s0)
80001f6c:	c454                	sw	a3,12(s0)
80001f6e:	c818                	sw	a4,16(s0)
80001f70:	c85c                	sw	a5,20(s0)
80001f72:	01042c23          	sw	a6,24(s0)
80001f76:	01142e23          	sw	a7,28(s0)
80001f7a:	02040793          	addi	a5,s0,32
80001f7e:	fcf42c23          	sw	a5,-40(s0)
80001f82:	fd842783          	lw	a5,-40(s0)
80001f86:	1791                	addi	a5,a5,-28
80001f88:	fef42623          	sw	a5,-20(s0)
80001f8c:	fec42783          	lw	a5,-20(s0)
80001f90:	86be                	mv	a3,a5
80001f92:	fdc42603          	lw	a2,-36(s0)
80001f96:	4581                	li	a1,0
80001f98:	00000517          	auipc	a0,0x0
80001f9c:	91050513          	addi	a0,a0,-1776 # 800018a8 <putchar>
80001fa0:	3995                	jal	80001c14 <vprintfmt>
80001fa2:	4781                	li	a5,0
80001fa4:	853e                	mv	a0,a5
80001fa6:	50b2                	lw	ra,44(sp)
80001fa8:	5422                	lw	s0,40(sp)
80001faa:	6161                	addi	sp,sp,80
80001fac:	8082                	ret

80001fae <sprintf_putch.0>:
80001fae:	7179                	addi	sp,sp,-48
80001fb0:	d622                	sw	s0,44(sp)
80001fb2:	1800                	addi	s0,sp,48
80001fb4:	fca42e23          	sw	a0,-36(s0)
80001fb8:	fcb42c23          	sw	a1,-40(s0)
80001fbc:	fc742a23          	sw	t2,-44(s0)
80001fc0:	fd842783          	lw	a5,-40(s0)
80001fc4:	fef42623          	sw	a5,-20(s0)
80001fc8:	fec42783          	lw	a5,-20(s0)
80001fcc:	439c                	lw	a5,0(a5)
80001fce:	fdc42703          	lw	a4,-36(s0)
80001fd2:	0ff77713          	zext.b	a4,a4
80001fd6:	00e78023          	sb	a4,0(a5)
80001fda:	fec42783          	lw	a5,-20(s0)
80001fde:	439c                	lw	a5,0(a5)
80001fe0:	00178713          	addi	a4,a5,1
80001fe4:	fec42783          	lw	a5,-20(s0)
80001fe8:	c398                	sw	a4,0(a5)
80001fea:	0001                	nop
80001fec:	5432                	lw	s0,44(sp)
80001fee:	6145                	addi	sp,sp,48
80001ff0:	8082                	ret

80001ff2 <sprintf>:
80001ff2:	711d                	addi	sp,sp,-96
80001ff4:	de06                	sw	ra,60(sp)
80001ff6:	dc22                	sw	s0,56(sp)
80001ff8:	0080                	addi	s0,sp,64
80001ffa:	fca42623          	sw	a0,-52(s0)
80001ffe:	fcb42423          	sw	a1,-56(s0)
80002002:	c410                	sw	a2,8(s0)
80002004:	c454                	sw	a3,12(s0)
80002006:	c818                	sw	a4,16(s0)
80002008:	c85c                	sw	a5,20(s0)
8000200a:	01042c23          	sw	a6,24(s0)
8000200e:	01142e23          	sw	a7,28(s0)
80002012:	02040793          	addi	a5,s0,32
80002016:	fcf42223          	sw	a5,-60(s0)
8000201a:	fc442783          	lw	a5,-60(s0)
8000201e:	fef42223          	sw	a5,-28(s0)
80002022:	fd440793          	addi	a5,s0,-44
80002026:	fd440593          	addi	a1,s0,-44
8000202a:	00000617          	auipc	a2,0x0
8000202e:	f8460613          	addi	a2,a2,-124 # 80001fae <sprintf_putch.0>
80002032:	777d                	lui	a4,0xfffff
80002034:	fff74693          	not	a3,a4
80002038:	6505                	lui	a0,0x1
8000203a:	80050513          	addi	a0,a0,-2048 # 800 <buflen.3+0x780>
8000203e:	00a58833          	add	a6,a1,a0
80002042:	00e87833          	and	a6,a6,a4
80002046:	3b786813          	ori	a6,a6,951
8000204a:	0107a023          	sw	a6,0(a5)
8000204e:	9532                	add	a0,a0,a2
80002050:	8f69                	and	a4,a4,a0
80002052:	2b776713          	ori	a4,a4,695
80002056:	c3d8                	sw	a4,4(a5)
80002058:	00d5f733          	and	a4,a1,a3
8000205c:	01471593          	slli	a1,a4,0x14
80002060:	00038737          	lui	a4,0x38
80002064:	39370713          	addi	a4,a4,915 # 38393 <buflen.3+0x38313>
80002068:	8f4d                	or	a4,a4,a1
8000206a:	c798                	sw	a4,8(a5)
8000206c:	00d67733          	and	a4,a2,a3
80002070:	01471693          	slli	a3,a4,0x14
80002074:	00028737          	lui	a4,0x28
80002078:	06770713          	addi	a4,a4,103 # 28067 <buflen.3+0x27fe7>
8000207c:	8f55                	or	a4,a4,a3
8000207e:	c7d8                	sw	a4,12(a5)
80002080:	0000100f          	fence.i
80002084:	fcc42783          	lw	a5,-52(s0)
80002088:	fef42623          	sw	a5,-20(s0)
8000208c:	02040793          	addi	a5,s0,32
80002090:	fcf42223          	sw	a5,-60(s0)
80002094:	fc442783          	lw	a5,-60(s0)
80002098:	17a1                	addi	a5,a5,-24
8000209a:	fef42423          	sw	a5,-24(s0)
8000209e:	fe842703          	lw	a4,-24(s0)
800020a2:	fd440793          	addi	a5,s0,-44
800020a6:	853e                	mv	a0,a5
800020a8:	fcc40793          	addi	a5,s0,-52
800020ac:	86ba                	mv	a3,a4
800020ae:	fc842603          	lw	a2,-56(s0)
800020b2:	85be                	mv	a1,a5
800020b4:	3685                	jal	80001c14 <vprintfmt>
800020b6:	fcc42783          	lw	a5,-52(s0)
800020ba:	00078023          	sb	zero,0(a5)
800020be:	fcc42703          	lw	a4,-52(s0)
800020c2:	fec42783          	lw	a5,-20(s0)
800020c6:	40f707b3          	sub	a5,a4,a5
800020ca:	853e                	mv	a0,a5
800020cc:	50f2                	lw	ra,60(sp)
800020ce:	5462                	lw	s0,56(sp)
800020d0:	6125                	addi	sp,sp,96
800020d2:	8082                	ret

800020d4 <memcpy>:
800020d4:	7179                	addi	sp,sp,-48
800020d6:	d622                	sw	s0,44(sp)
800020d8:	1800                	addi	s0,sp,48
800020da:	fca42e23          	sw	a0,-36(s0)
800020de:	fcb42c23          	sw	a1,-40(s0)
800020e2:	fcc42a23          	sw	a2,-44(s0)
800020e6:	fdc42703          	lw	a4,-36(s0)
800020ea:	fd842783          	lw	a5,-40(s0)
800020ee:	8f5d                	or	a4,a4,a5
800020f0:	fd442783          	lw	a5,-44(s0)
800020f4:	8fd9                	or	a5,a5,a4
800020f6:	8b8d                	andi	a5,a5,3
800020f8:	e3b1                	bnez	a5,8000213c <memcpy+0x68>
800020fa:	fd842783          	lw	a5,-40(s0)
800020fe:	fef42623          	sw	a5,-20(s0)
80002102:	fdc42783          	lw	a5,-36(s0)
80002106:	fef42423          	sw	a5,-24(s0)
8000210a:	a839                	j	80002128 <memcpy+0x54>
8000210c:	fec42703          	lw	a4,-20(s0)
80002110:	00470793          	addi	a5,a4,4
80002114:	fef42623          	sw	a5,-20(s0)
80002118:	fe842783          	lw	a5,-24(s0)
8000211c:	00478693          	addi	a3,a5,4
80002120:	fed42423          	sw	a3,-24(s0)
80002124:	4318                	lw	a4,0(a4)
80002126:	c398                	sw	a4,0(a5)
80002128:	fdc42703          	lw	a4,-36(s0)
8000212c:	fd442783          	lw	a5,-44(s0)
80002130:	97ba                	add	a5,a5,a4
80002132:	fe842703          	lw	a4,-24(s0)
80002136:	fcf76be3          	bltu	a4,a5,8000210c <memcpy+0x38>
8000213a:	a099                	j	80002180 <memcpy+0xac>
8000213c:	fd842783          	lw	a5,-40(s0)
80002140:	fef42223          	sw	a5,-28(s0)
80002144:	fdc42783          	lw	a5,-36(s0)
80002148:	fef42023          	sw	a5,-32(s0)
8000214c:	a00d                	j	8000216e <memcpy+0x9a>
8000214e:	fe442703          	lw	a4,-28(s0)
80002152:	00170793          	addi	a5,a4,1
80002156:	fef42223          	sw	a5,-28(s0)
8000215a:	fe042783          	lw	a5,-32(s0)
8000215e:	00178693          	addi	a3,a5,1
80002162:	fed42023          	sw	a3,-32(s0)
80002166:	00074703          	lbu	a4,0(a4)
8000216a:	00e78023          	sb	a4,0(a5)
8000216e:	fdc42703          	lw	a4,-36(s0)
80002172:	fd442783          	lw	a5,-44(s0)
80002176:	97ba                	add	a5,a5,a4
80002178:	fe042703          	lw	a4,-32(s0)
8000217c:	fcf769e3          	bltu	a4,a5,8000214e <memcpy+0x7a>
80002180:	fdc42783          	lw	a5,-36(s0)
80002184:	853e                	mv	a0,a5
80002186:	5432                	lw	s0,44(sp)
80002188:	6145                	addi	sp,sp,48
8000218a:	8082                	ret

8000218c <memset>:
8000218c:	7179                	addi	sp,sp,-48
8000218e:	d622                	sw	s0,44(sp)
80002190:	1800                	addi	s0,sp,48
80002192:	fca42e23          	sw	a0,-36(s0)
80002196:	fcb42c23          	sw	a1,-40(s0)
8000219a:	fcc42a23          	sw	a2,-44(s0)
8000219e:	fdc42703          	lw	a4,-36(s0)
800021a2:	fd442783          	lw	a5,-44(s0)
800021a6:	8fd9                	or	a5,a5,a4
800021a8:	8b8d                	andi	a5,a5,3
800021aa:	efb9                	bnez	a5,80002208 <memset+0x7c>
800021ac:	fd842783          	lw	a5,-40(s0)
800021b0:	0ff7f793          	zext.b	a5,a5
800021b4:	fef42223          	sw	a5,-28(s0)
800021b8:	fe442783          	lw	a5,-28(s0)
800021bc:	07a2                	slli	a5,a5,0x8
800021be:	fe442703          	lw	a4,-28(s0)
800021c2:	8fd9                	or	a5,a5,a4
800021c4:	fef42223          	sw	a5,-28(s0)
800021c8:	fe442783          	lw	a5,-28(s0)
800021cc:	07c2                	slli	a5,a5,0x10
800021ce:	fe442703          	lw	a4,-28(s0)
800021d2:	8fd9                	or	a5,a5,a4
800021d4:	fef42223          	sw	a5,-28(s0)
800021d8:	fdc42783          	lw	a5,-36(s0)
800021dc:	fef42623          	sw	a5,-20(s0)
800021e0:	a811                	j	800021f4 <memset+0x68>
800021e2:	fec42783          	lw	a5,-20(s0)
800021e6:	00478713          	addi	a4,a5,4
800021ea:	fee42623          	sw	a4,-20(s0)
800021ee:	fe442703          	lw	a4,-28(s0)
800021f2:	c398                	sw	a4,0(a5)
800021f4:	fdc42703          	lw	a4,-36(s0)
800021f8:	fd442783          	lw	a5,-44(s0)
800021fc:	97ba                	add	a5,a5,a4
800021fe:	fec42703          	lw	a4,-20(s0)
80002202:	fef760e3          	bltu	a4,a5,800021e2 <memset+0x56>
80002206:	a81d                	j	8000223c <memset+0xb0>
80002208:	fdc42783          	lw	a5,-36(s0)
8000220c:	fef42423          	sw	a5,-24(s0)
80002210:	a829                	j	8000222a <memset+0x9e>
80002212:	fe842783          	lw	a5,-24(s0)
80002216:	00178713          	addi	a4,a5,1
8000221a:	fee42423          	sw	a4,-24(s0)
8000221e:	fd842703          	lw	a4,-40(s0)
80002222:	0ff77713          	zext.b	a4,a4
80002226:	00e78023          	sb	a4,0(a5)
8000222a:	fdc42703          	lw	a4,-36(s0)
8000222e:	fd442783          	lw	a5,-44(s0)
80002232:	97ba                	add	a5,a5,a4
80002234:	fe842703          	lw	a4,-24(s0)
80002238:	fcf76de3          	bltu	a4,a5,80002212 <memset+0x86>
8000223c:	fdc42783          	lw	a5,-36(s0)
80002240:	853e                	mv	a0,a5
80002242:	5432                	lw	s0,44(sp)
80002244:	6145                	addi	sp,sp,48
80002246:	8082                	ret

80002248 <strlen>:
80002248:	7179                	addi	sp,sp,-48
8000224a:	d622                	sw	s0,44(sp)
8000224c:	1800                	addi	s0,sp,48
8000224e:	fca42e23          	sw	a0,-36(s0)
80002252:	fdc42783          	lw	a5,-36(s0)
80002256:	fef42623          	sw	a5,-20(s0)
8000225a:	a031                	j	80002266 <strlen+0x1e>
8000225c:	fec42783          	lw	a5,-20(s0)
80002260:	0785                	addi	a5,a5,1
80002262:	fef42623          	sw	a5,-20(s0)
80002266:	fec42783          	lw	a5,-20(s0)
8000226a:	0007c783          	lbu	a5,0(a5)
8000226e:	f7fd                	bnez	a5,8000225c <strlen+0x14>
80002270:	fec42703          	lw	a4,-20(s0)
80002274:	fdc42783          	lw	a5,-36(s0)
80002278:	40f707b3          	sub	a5,a4,a5
8000227c:	853e                	mv	a0,a5
8000227e:	5432                	lw	s0,44(sp)
80002280:	6145                	addi	sp,sp,48
80002282:	8082                	ret

80002284 <strnlen>:
80002284:	7179                	addi	sp,sp,-48
80002286:	d622                	sw	s0,44(sp)
80002288:	1800                	addi	s0,sp,48
8000228a:	fca42e23          	sw	a0,-36(s0)
8000228e:	fcb42c23          	sw	a1,-40(s0)
80002292:	fdc42783          	lw	a5,-36(s0)
80002296:	fef42623          	sw	a5,-20(s0)
8000229a:	a031                	j	800022a6 <strnlen+0x22>
8000229c:	fec42783          	lw	a5,-20(s0)
800022a0:	0785                	addi	a5,a5,1
800022a2:	fef42623          	sw	a5,-20(s0)
800022a6:	fd842783          	lw	a5,-40(s0)
800022aa:	fff78713          	addi	a4,a5,-1
800022ae:	fce42c23          	sw	a4,-40(s0)
800022b2:	c791                	beqz	a5,800022be <strnlen+0x3a>
800022b4:	fec42783          	lw	a5,-20(s0)
800022b8:	0007c783          	lbu	a5,0(a5)
800022bc:	f3e5                	bnez	a5,8000229c <strnlen+0x18>
800022be:	fec42703          	lw	a4,-20(s0)
800022c2:	fdc42783          	lw	a5,-36(s0)
800022c6:	40f707b3          	sub	a5,a4,a5
800022ca:	853e                	mv	a0,a5
800022cc:	5432                	lw	s0,44(sp)
800022ce:	6145                	addi	sp,sp,48
800022d0:	8082                	ret

800022d2 <strcmp>:
800022d2:	7179                	addi	sp,sp,-48
800022d4:	d622                	sw	s0,44(sp)
800022d6:	1800                	addi	s0,sp,48
800022d8:	fca42e23          	sw	a0,-36(s0)
800022dc:	fcb42c23          	sw	a1,-40(s0)
800022e0:	fdc42783          	lw	a5,-36(s0)
800022e4:	00178713          	addi	a4,a5,1
800022e8:	fce42e23          	sw	a4,-36(s0)
800022ec:	0007c783          	lbu	a5,0(a5)
800022f0:	fef407a3          	sb	a5,-17(s0)
800022f4:	fd842783          	lw	a5,-40(s0)
800022f8:	00178713          	addi	a4,a5,1
800022fc:	fce42c23          	sw	a4,-40(s0)
80002300:	0007c783          	lbu	a5,0(a5)
80002304:	fef40723          	sb	a5,-18(s0)
80002308:	fef44783          	lbu	a5,-17(s0)
8000230c:	c799                	beqz	a5,8000231a <strcmp+0x48>
8000230e:	fef44703          	lbu	a4,-17(s0)
80002312:	fee44783          	lbu	a5,-18(s0)
80002316:	fcf705e3          	beq	a4,a5,800022e0 <strcmp+0xe>
8000231a:	fef44703          	lbu	a4,-17(s0)
8000231e:	fee44783          	lbu	a5,-18(s0)
80002322:	40f707b3          	sub	a5,a4,a5
80002326:	853e                	mv	a0,a5
80002328:	5432                	lw	s0,44(sp)
8000232a:	6145                	addi	sp,sp,48
8000232c:	8082                	ret

8000232e <strcpy>:
8000232e:	7179                	addi	sp,sp,-48
80002330:	d622                	sw	s0,44(sp)
80002332:	1800                	addi	s0,sp,48
80002334:	fca42e23          	sw	a0,-36(s0)
80002338:	fcb42c23          	sw	a1,-40(s0)
8000233c:	fdc42783          	lw	a5,-36(s0)
80002340:	fef42623          	sw	a5,-20(s0)
80002344:	0001                	nop
80002346:	fd842703          	lw	a4,-40(s0)
8000234a:	00170793          	addi	a5,a4,1
8000234e:	fcf42c23          	sw	a5,-40(s0)
80002352:	fec42783          	lw	a5,-20(s0)
80002356:	00178693          	addi	a3,a5,1
8000235a:	fed42623          	sw	a3,-20(s0)
8000235e:	00074703          	lbu	a4,0(a4)
80002362:	00e78023          	sb	a4,0(a5)
80002366:	0007c783          	lbu	a5,0(a5)
8000236a:	fff1                	bnez	a5,80002346 <strcpy+0x18>
8000236c:	fdc42783          	lw	a5,-36(s0)
80002370:	853e                	mv	a0,a5
80002372:	5432                	lw	s0,44(sp)
80002374:	6145                	addi	sp,sp,48
80002376:	8082                	ret

80002378 <atol>:
80002378:	7179                	addi	sp,sp,-48
8000237a:	d622                	sw	s0,44(sp)
8000237c:	1800                	addi	s0,sp,48
8000237e:	fca42e23          	sw	a0,-36(s0)
80002382:	fe042623          	sw	zero,-20(s0)
80002386:	fe042423          	sw	zero,-24(s0)
8000238a:	a031                	j	80002396 <atol+0x1e>
8000238c:	fdc42783          	lw	a5,-36(s0)
80002390:	0785                	addi	a5,a5,1
80002392:	fcf42e23          	sw	a5,-36(s0)
80002396:	fdc42783          	lw	a5,-36(s0)
8000239a:	0007c703          	lbu	a4,0(a5)
8000239e:	02000793          	li	a5,32
800023a2:	fef705e3          	beq	a4,a5,8000238c <atol+0x14>
800023a6:	fdc42783          	lw	a5,-36(s0)
800023aa:	0007c703          	lbu	a4,0(a5)
800023ae:	02d00793          	li	a5,45
800023b2:	00f70a63          	beq	a4,a5,800023c6 <atol+0x4e>
800023b6:	fdc42783          	lw	a5,-36(s0)
800023ba:	0007c703          	lbu	a4,0(a5)
800023be:	02b00793          	li	a5,43
800023c2:	04f71b63          	bne	a4,a5,80002418 <atol+0xa0>
800023c6:	fdc42783          	lw	a5,-36(s0)
800023ca:	0007c783          	lbu	a5,0(a5)
800023ce:	fd378793          	addi	a5,a5,-45
800023d2:	0017b793          	seqz	a5,a5
800023d6:	0ff7f793          	zext.b	a5,a5
800023da:	fef42423          	sw	a5,-24(s0)
800023de:	fdc42783          	lw	a5,-36(s0)
800023e2:	0785                	addi	a5,a5,1
800023e4:	fcf42e23          	sw	a5,-36(s0)
800023e8:	a805                	j	80002418 <atol+0xa0>
800023ea:	fec42703          	lw	a4,-20(s0)
800023ee:	87ba                	mv	a5,a4
800023f0:	078a                	slli	a5,a5,0x2
800023f2:	97ba                	add	a5,a5,a4
800023f4:	0786                	slli	a5,a5,0x1
800023f6:	fef42623          	sw	a5,-20(s0)
800023fa:	fdc42783          	lw	a5,-36(s0)
800023fe:	00178713          	addi	a4,a5,1
80002402:	fce42e23          	sw	a4,-36(s0)
80002406:	0007c783          	lbu	a5,0(a5)
8000240a:	fd078793          	addi	a5,a5,-48
8000240e:	fec42703          	lw	a4,-20(s0)
80002412:	97ba                	add	a5,a5,a4
80002414:	fef42623          	sw	a5,-20(s0)
80002418:	fdc42783          	lw	a5,-36(s0)
8000241c:	0007c783          	lbu	a5,0(a5)
80002420:	f7e9                	bnez	a5,800023ea <atol+0x72>
80002422:	fe842783          	lw	a5,-24(s0)
80002426:	c791                	beqz	a5,80002432 <atol+0xba>
80002428:	fec42783          	lw	a5,-20(s0)
8000242c:	40f007b3          	neg	a5,a5
80002430:	a019                	j	80002436 <atol+0xbe>
80002432:	fec42783          	lw	a5,-20(s0)
80002436:	853e                	mv	a0,a5
80002438:	5432                	lw	s0,44(sp)
8000243a:	6145                	addi	sp,sp,48
8000243c:	8082                	ret

8000243e <random>:
8000243e:	1101                	addi	sp,sp,-32
80002440:	ce22                	sw	s0,28(sp)
80002442:	1000                	addi	s0,sp,32
80002444:	fea42623          	sw	a0,-20(s0)
80002448:	fec42703          	lw	a4,-20(s0)
8000244c:	41c657b7          	lui	a5,0x41c65
80002450:	e6d78793          	addi	a5,a5,-403 # 41c64e6d <buflen.3+0x41c64ded>
80002454:	02f70733          	mul	a4,a4,a5
80002458:	678d                	lui	a5,0x3
8000245a:	03978793          	addi	a5,a5,57 # 3039 <buflen.3+0x2fb9>
8000245e:	97ba                	add	a5,a5,a4
80002460:	fef42623          	sw	a5,-20(s0)
80002464:	fec42783          	lw	a5,-20(s0)
80002468:	41f7d693          	srai	a3,a5,0x1f
8000246c:	6741                	lui	a4,0x10
8000246e:	177d                	addi	a4,a4,-1
80002470:	8f75                	and	a4,a4,a3
80002472:	97ba                	add	a5,a5,a4
80002474:	87c1                	srai	a5,a5,0x10
80002476:	873e                	mv	a4,a5
80002478:	67a1                	lui	a5,0x8
8000247a:	17fd                	addi	a5,a5,-1
8000247c:	8ff9                	and	a5,a5,a4
8000247e:	853e                	mv	a0,a5
80002480:	4472                	lw	s0,28(sp)
80002482:	6105                	addi	sp,sp,32
80002484:	8082                	ret

80002486 <__udivdi3>:
80002486:	832a                	mv	t1,a0
80002488:	88ae                	mv	a7,a1
8000248a:	8732                	mv	a4,a2
8000248c:	882a                	mv	a6,a0
8000248e:	87ae                	mv	a5,a1
80002490:	20069663          	bnez	a3,8000269c <__udivdi3+0x216>
80002494:	800035b7          	lui	a1,0x80003
80002498:	d6058593          	addi	a1,a1,-672 # 80002d60 <__global_pointer$+0xffffeac4>
8000249c:	0cc8f163          	bgeu	a7,a2,8000255e <__udivdi3+0xd8>
800024a0:	66c1                	lui	a3,0x10
800024a2:	0ad67763          	bgeu	a2,a3,80002550 <__udivdi3+0xca>
800024a6:	10063693          	sltiu	a3,a2,256
800024aa:	0016c693          	xori	a3,a3,1
800024ae:	068e                	slli	a3,a3,0x3
800024b0:	00d65533          	srl	a0,a2,a3
800024b4:	95aa                	add	a1,a1,a0
800024b6:	0005c583          	lbu	a1,0(a1)
800024ba:	02000513          	li	a0,32
800024be:	96ae                	add	a3,a3,a1
800024c0:	40d505b3          	sub	a1,a0,a3
800024c4:	00d50b63          	beq	a0,a3,800024da <__udivdi3+0x54>
800024c8:	00b897b3          	sll	a5,a7,a1
800024cc:	00d356b3          	srl	a3,t1,a3
800024d0:	00b61733          	sll	a4,a2,a1
800024d4:	8fd5                	or	a5,a5,a3
800024d6:	00b31833          	sll	a6,t1,a1
800024da:	01075593          	srli	a1,a4,0x10
800024de:	02b7d333          	divu	t1,a5,a1
800024e2:	01071613          	slli	a2,a4,0x10
800024e6:	8241                	srli	a2,a2,0x10
800024e8:	02b7f7b3          	remu	a5,a5,a1
800024ec:	851a                	mv	a0,t1
800024ee:	026608b3          	mul	a7,a2,t1
800024f2:	01079693          	slli	a3,a5,0x10
800024f6:	01085793          	srli	a5,a6,0x10
800024fa:	8fd5                	or	a5,a5,a3
800024fc:	0117fc63          	bgeu	a5,a7,80002514 <__udivdi3+0x8e>
80002500:	97ba                	add	a5,a5,a4
80002502:	fff30513          	addi	a0,t1,-1
80002506:	00e7e763          	bltu	a5,a4,80002514 <__udivdi3+0x8e>
8000250a:	0117f563          	bgeu	a5,a7,80002514 <__udivdi3+0x8e>
8000250e:	ffe30513          	addi	a0,t1,-2
80002512:	97ba                	add	a5,a5,a4
80002514:	411787b3          	sub	a5,a5,a7
80002518:	02b7d8b3          	divu	a7,a5,a1
8000251c:	0842                	slli	a6,a6,0x10
8000251e:	01085813          	srli	a6,a6,0x10
80002522:	02b7f7b3          	remu	a5,a5,a1
80002526:	031606b3          	mul	a3,a2,a7
8000252a:	07c2                	slli	a5,a5,0x10
8000252c:	00f86833          	or	a6,a6,a5
80002530:	87c6                	mv	a5,a7
80002532:	00d87b63          	bgeu	a6,a3,80002548 <__udivdi3+0xc2>
80002536:	983a                	add	a6,a6,a4
80002538:	fff88793          	addi	a5,a7,-1
8000253c:	00e86663          	bltu	a6,a4,80002548 <__udivdi3+0xc2>
80002540:	00d87463          	bgeu	a6,a3,80002548 <__udivdi3+0xc2>
80002544:	ffe88793          	addi	a5,a7,-2
80002548:	0542                	slli	a0,a0,0x10
8000254a:	8d5d                	or	a0,a0,a5
8000254c:	4581                	li	a1,0
8000254e:	8082                	ret
80002550:	01000537          	lui	a0,0x1000
80002554:	46c1                	li	a3,16
80002556:	f4a66de3          	bltu	a2,a0,800024b0 <__udivdi3+0x2a>
8000255a:	46e1                	li	a3,24
8000255c:	bf91                	j	800024b0 <__udivdi3+0x2a>
8000255e:	e211                	bnez	a2,80002562 <__udivdi3+0xdc>
80002560:	9002                	ebreak
80002562:	67c1                	lui	a5,0x10
80002564:	08f67f63          	bgeu	a2,a5,80002602 <__udivdi3+0x17c>
80002568:	10063693          	sltiu	a3,a2,256
8000256c:	0016c693          	xori	a3,a3,1
80002570:	068e                	slli	a3,a3,0x3
80002572:	00d657b3          	srl	a5,a2,a3
80002576:	95be                	add	a1,a1,a5
80002578:	0005c783          	lbu	a5,0(a1)
8000257c:	97b6                	add	a5,a5,a3
8000257e:	02000693          	li	a3,32
80002582:	40f685b3          	sub	a1,a3,a5
80002586:	08f69563          	bne	a3,a5,80002610 <__udivdi3+0x18a>
8000258a:	40c887b3          	sub	a5,a7,a2
8000258e:	4585                	li	a1,1
80002590:	01075893          	srli	a7,a4,0x10
80002594:	0317de33          	divu	t3,a5,a7
80002598:	01071613          	slli	a2,a4,0x10
8000259c:	8241                	srli	a2,a2,0x10
8000259e:	01085693          	srli	a3,a6,0x10
800025a2:	0317f7b3          	remu	a5,a5,a7
800025a6:	8572                	mv	a0,t3
800025a8:	03c60333          	mul	t1,a2,t3
800025ac:	07c2                	slli	a5,a5,0x10
800025ae:	8fd5                	or	a5,a5,a3
800025b0:	0067fc63          	bgeu	a5,t1,800025c8 <__udivdi3+0x142>
800025b4:	97ba                	add	a5,a5,a4
800025b6:	fffe0513          	addi	a0,t3,-1
800025ba:	00e7e763          	bltu	a5,a4,800025c8 <__udivdi3+0x142>
800025be:	0067f563          	bgeu	a5,t1,800025c8 <__udivdi3+0x142>
800025c2:	ffee0513          	addi	a0,t3,-2
800025c6:	97ba                	add	a5,a5,a4
800025c8:	406787b3          	sub	a5,a5,t1
800025cc:	0317d333          	divu	t1,a5,a7
800025d0:	0842                	slli	a6,a6,0x10
800025d2:	01085813          	srli	a6,a6,0x10
800025d6:	0317f7b3          	remu	a5,a5,a7
800025da:	026606b3          	mul	a3,a2,t1
800025de:	07c2                	slli	a5,a5,0x10
800025e0:	00f86833          	or	a6,a6,a5
800025e4:	879a                	mv	a5,t1
800025e6:	00d87b63          	bgeu	a6,a3,800025fc <__udivdi3+0x176>
800025ea:	983a                	add	a6,a6,a4
800025ec:	fff30793          	addi	a5,t1,-1
800025f0:	00e86663          	bltu	a6,a4,800025fc <__udivdi3+0x176>
800025f4:	00d87463          	bgeu	a6,a3,800025fc <__udivdi3+0x176>
800025f8:	ffe30793          	addi	a5,t1,-2
800025fc:	0542                	slli	a0,a0,0x10
800025fe:	8d5d                	or	a0,a0,a5
80002600:	8082                	ret
80002602:	010007b7          	lui	a5,0x1000
80002606:	46c1                	li	a3,16
80002608:	f6f665e3          	bltu	a2,a5,80002572 <__udivdi3+0xec>
8000260c:	46e1                	li	a3,24
8000260e:	b795                	j	80002572 <__udivdi3+0xec>
80002610:	00b61733          	sll	a4,a2,a1
80002614:	00f8d6b3          	srl	a3,a7,a5
80002618:	01075513          	srli	a0,a4,0x10
8000261c:	00f357b3          	srl	a5,t1,a5
80002620:	00b31833          	sll	a6,t1,a1
80002624:	02a6d333          	divu	t1,a3,a0
80002628:	01071613          	slli	a2,a4,0x10
8000262c:	00b898b3          	sll	a7,a7,a1
80002630:	8241                	srli	a2,a2,0x10
80002632:	0117e7b3          	or	a5,a5,a7
80002636:	02a6f6b3          	remu	a3,a3,a0
8000263a:	026608b3          	mul	a7,a2,t1
8000263e:	01069593          	slli	a1,a3,0x10
80002642:	0107d693          	srli	a3,a5,0x10
80002646:	8ecd                	or	a3,a3,a1
80002648:	859a                	mv	a1,t1
8000264a:	0116fc63          	bgeu	a3,a7,80002662 <__udivdi3+0x1dc>
8000264e:	96ba                	add	a3,a3,a4
80002650:	fff30593          	addi	a1,t1,-1
80002654:	00e6e763          	bltu	a3,a4,80002662 <__udivdi3+0x1dc>
80002658:	0116f563          	bgeu	a3,a7,80002662 <__udivdi3+0x1dc>
8000265c:	ffe30593          	addi	a1,t1,-2
80002660:	96ba                	add	a3,a3,a4
80002662:	411686b3          	sub	a3,a3,a7
80002666:	02a6d8b3          	divu	a7,a3,a0
8000266a:	07c2                	slli	a5,a5,0x10
8000266c:	83c1                	srli	a5,a5,0x10
8000266e:	02a6f6b3          	remu	a3,a3,a0
80002672:	03160633          	mul	a2,a2,a7
80002676:	06c2                	slli	a3,a3,0x10
80002678:	8fd5                	or	a5,a5,a3
8000267a:	86c6                	mv	a3,a7
8000267c:	00c7fc63          	bgeu	a5,a2,80002694 <__udivdi3+0x20e>
80002680:	97ba                	add	a5,a5,a4
80002682:	fff88693          	addi	a3,a7,-1
80002686:	00e7e763          	bltu	a5,a4,80002694 <__udivdi3+0x20e>
8000268a:	00c7f563          	bgeu	a5,a2,80002694 <__udivdi3+0x20e>
8000268e:	ffe88693          	addi	a3,a7,-2
80002692:	97ba                	add	a5,a5,a4
80002694:	05c2                	slli	a1,a1,0x10
80002696:	8f91                	sub	a5,a5,a2
80002698:	8dd5                	or	a1,a1,a3
8000269a:	bddd                	j	80002590 <__udivdi3+0x10a>
8000269c:	14d5e163          	bltu	a1,a3,800027de <__udivdi3+0x358>
800026a0:	67c1                	lui	a5,0x10
800026a2:	02f6ff63          	bgeu	a3,a5,800026e0 <__udivdi3+0x25a>
800026a6:	1006b713          	sltiu	a4,a3,256
800026aa:	00174713          	xori	a4,a4,1
800026ae:	070e                	slli	a4,a4,0x3
800026b0:	800037b7          	lui	a5,0x80003
800026b4:	00e6d5b3          	srl	a1,a3,a4
800026b8:	d6078793          	addi	a5,a5,-672 # 80002d60 <__global_pointer$+0xffffeac4>
800026bc:	97ae                	add	a5,a5,a1
800026be:	0007c783          	lbu	a5,0(a5)
800026c2:	97ba                	add	a5,a5,a4
800026c4:	02000713          	li	a4,32
800026c8:	40f705b3          	sub	a1,a4,a5
800026cc:	02f71163          	bne	a4,a5,800026ee <__udivdi3+0x268>
800026d0:	4505                	li	a0,1
800026d2:	e716eee3          	bltu	a3,a7,8000254e <__udivdi3+0xc8>
800026d6:	00c33533          	sltu	a0,t1,a2
800026da:	00154513          	xori	a0,a0,1
800026de:	8082                	ret
800026e0:	010007b7          	lui	a5,0x1000
800026e4:	4741                	li	a4,16
800026e6:	fcf6e5e3          	bltu	a3,a5,800026b0 <__udivdi3+0x22a>
800026ea:	4761                	li	a4,24
800026ec:	b7d1                	j	800026b0 <__udivdi3+0x22a>
800026ee:	00f65733          	srl	a4,a2,a5
800026f2:	00b696b3          	sll	a3,a3,a1
800026f6:	8ed9                	or	a3,a3,a4
800026f8:	00f8d733          	srl	a4,a7,a5
800026fc:	00b898b3          	sll	a7,a7,a1
80002700:	00f357b3          	srl	a5,t1,a5
80002704:	0117e7b3          	or	a5,a5,a7
80002708:	0106d893          	srli	a7,a3,0x10
8000270c:	03175eb3          	divu	t4,a4,a7
80002710:	01069813          	slli	a6,a3,0x10
80002714:	01085813          	srli	a6,a6,0x10
80002718:	00b61633          	sll	a2,a2,a1
8000271c:	03177733          	remu	a4,a4,a7
80002720:	03d80e33          	mul	t3,a6,t4
80002724:	01071513          	slli	a0,a4,0x10
80002728:	0107d713          	srli	a4,a5,0x10
8000272c:	8f49                	or	a4,a4,a0
8000272e:	8576                	mv	a0,t4
80002730:	01c77c63          	bgeu	a4,t3,80002748 <__udivdi3+0x2c2>
80002734:	9736                	add	a4,a4,a3
80002736:	fffe8513          	addi	a0,t4,-1
8000273a:	00d76763          	bltu	a4,a3,80002748 <__udivdi3+0x2c2>
8000273e:	01c77563          	bgeu	a4,t3,80002748 <__udivdi3+0x2c2>
80002742:	ffee8513          	addi	a0,t4,-2
80002746:	9736                	add	a4,a4,a3
80002748:	41c70733          	sub	a4,a4,t3
8000274c:	03175e33          	divu	t3,a4,a7
80002750:	07c2                	slli	a5,a5,0x10
80002752:	83c1                	srli	a5,a5,0x10
80002754:	03177733          	remu	a4,a4,a7
80002758:	03c80833          	mul	a6,a6,t3
8000275c:	0742                	slli	a4,a4,0x10
8000275e:	8fd9                	or	a5,a5,a4
80002760:	8772                	mv	a4,t3
80002762:	0107fc63          	bgeu	a5,a6,8000277a <__udivdi3+0x2f4>
80002766:	97b6                	add	a5,a5,a3
80002768:	fffe0713          	addi	a4,t3,-1
8000276c:	00d7e763          	bltu	a5,a3,8000277a <__udivdi3+0x2f4>
80002770:	0107f563          	bgeu	a5,a6,8000277a <__udivdi3+0x2f4>
80002774:	ffee0713          	addi	a4,t3,-2
80002778:	97b6                	add	a5,a5,a3
8000277a:	0542                	slli	a0,a0,0x10
8000277c:	6e41                	lui	t3,0x10
8000277e:	8d59                	or	a0,a0,a4
80002780:	fffe0693          	addi	a3,t3,-1 # ffff <buflen.3+0xff7f>
80002784:	00d57733          	and	a4,a0,a3
80002788:	410787b3          	sub	a5,a5,a6
8000278c:	8ef1                	and	a3,a3,a2
8000278e:	01055813          	srli	a6,a0,0x10
80002792:	8241                	srli	a2,a2,0x10
80002794:	02d708b3          	mul	a7,a4,a3
80002798:	02d806b3          	mul	a3,a6,a3
8000279c:	02c70733          	mul	a4,a4,a2
800027a0:	02c80833          	mul	a6,a6,a2
800027a4:	00d70633          	add	a2,a4,a3
800027a8:	0108d713          	srli	a4,a7,0x10
800027ac:	9732                	add	a4,a4,a2
800027ae:	00d77363          	bgeu	a4,a3,800027b4 <__udivdi3+0x32e>
800027b2:	9872                	add	a6,a6,t3
800027b4:	01075693          	srli	a3,a4,0x10
800027b8:	96c2                	add	a3,a3,a6
800027ba:	02d7e063          	bltu	a5,a3,800027da <__udivdi3+0x354>
800027be:	d8d797e3          	bne	a5,a3,8000254c <__udivdi3+0xc6>
800027c2:	67c1                	lui	a5,0x10
800027c4:	17fd                	addi	a5,a5,-1
800027c6:	8f7d                	and	a4,a4,a5
800027c8:	0742                	slli	a4,a4,0x10
800027ca:	00f8f8b3          	and	a7,a7,a5
800027ce:	00b31333          	sll	t1,t1,a1
800027d2:	9746                	add	a4,a4,a7
800027d4:	4581                	li	a1,0
800027d6:	d6e37ce3          	bgeu	t1,a4,8000254e <__udivdi3+0xc8>
800027da:	157d                	addi	a0,a0,-1
800027dc:	bb85                	j	8000254c <__udivdi3+0xc6>
800027de:	4581                	li	a1,0
800027e0:	4501                	li	a0,0
800027e2:	8082                	ret

800027e4 <__umoddi3>:
800027e4:	8832                	mv	a6,a2
800027e6:	87aa                	mv	a5,a0
800027e8:	872e                	mv	a4,a1
800027ea:	1a069363          	bnez	a3,80002990 <__umoddi3+0x1ac>
800027ee:	800038b7          	lui	a7,0x80003
800027f2:	d6088893          	addi	a7,a7,-672 # 80002d60 <__global_pointer$+0xffffeac4>
800027f6:	0ac5f663          	bgeu	a1,a2,800028a2 <__umoddi3+0xbe>
800027fa:	66c1                	lui	a3,0x10
800027fc:	08d67c63          	bgeu	a2,a3,80002894 <__umoddi3+0xb0>
80002800:	10063693          	sltiu	a3,a2,256
80002804:	0016c693          	xori	a3,a3,1
80002808:	068e                	slli	a3,a3,0x3
8000280a:	00d65333          	srl	t1,a2,a3
8000280e:	989a                	add	a7,a7,t1
80002810:	0008c883          	lbu	a7,0(a7)
80002814:	02000313          	li	t1,32
80002818:	96c6                	add	a3,a3,a7
8000281a:	40d308b3          	sub	a7,t1,a3
8000281e:	00d30b63          	beq	t1,a3,80002834 <__umoddi3+0x50>
80002822:	01159733          	sll	a4,a1,a7
80002826:	00d556b3          	srl	a3,a0,a3
8000282a:	01161833          	sll	a6,a2,a7
8000282e:	8f55                	or	a4,a4,a3
80002830:	011517b3          	sll	a5,a0,a7
80002834:	01085613          	srli	a2,a6,0x10
80002838:	02c756b3          	divu	a3,a4,a2
8000283c:	01081513          	slli	a0,a6,0x10
80002840:	8141                	srli	a0,a0,0x10
80002842:	02c77733          	remu	a4,a4,a2
80002846:	02a686b3          	mul	a3,a3,a0
8000284a:	01071593          	slli	a1,a4,0x10
8000284e:	0107d713          	srli	a4,a5,0x10
80002852:	8f4d                	or	a4,a4,a1
80002854:	00d77863          	bgeu	a4,a3,80002864 <__umoddi3+0x80>
80002858:	9742                	add	a4,a4,a6
8000285a:	01076563          	bltu	a4,a6,80002864 <__umoddi3+0x80>
8000285e:	00d77363          	bgeu	a4,a3,80002864 <__umoddi3+0x80>
80002862:	9742                	add	a4,a4,a6
80002864:	8f15                	sub	a4,a4,a3
80002866:	02c756b3          	divu	a3,a4,a2
8000286a:	02c77733          	remu	a4,a4,a2
8000286e:	02a686b3          	mul	a3,a3,a0
80002872:	07c2                	slli	a5,a5,0x10
80002874:	0742                	slli	a4,a4,0x10
80002876:	83c1                	srli	a5,a5,0x10
80002878:	8fd9                	or	a5,a5,a4
8000287a:	00d7f863          	bgeu	a5,a3,8000288a <__umoddi3+0xa6>
8000287e:	97c2                	add	a5,a5,a6
80002880:	0107e563          	bltu	a5,a6,8000288a <__umoddi3+0xa6>
80002884:	00d7f363          	bgeu	a5,a3,8000288a <__umoddi3+0xa6>
80002888:	97c2                	add	a5,a5,a6
8000288a:	8f95                	sub	a5,a5,a3
8000288c:	0117d533          	srl	a0,a5,a7
80002890:	4581                	li	a1,0
80002892:	8082                	ret
80002894:	01000337          	lui	t1,0x1000
80002898:	46c1                	li	a3,16
8000289a:	f66668e3          	bltu	a2,t1,8000280a <__umoddi3+0x26>
8000289e:	46e1                	li	a3,24
800028a0:	b7ad                	j	8000280a <__umoddi3+0x26>
800028a2:	e211                	bnez	a2,800028a6 <__umoddi3+0xc2>
800028a4:	9002                	ebreak
800028a6:	6741                	lui	a4,0x10
800028a8:	06e67463          	bgeu	a2,a4,80002910 <__umoddi3+0x12c>
800028ac:	10063693          	sltiu	a3,a2,256
800028b0:	0016c693          	xori	a3,a3,1
800028b4:	068e                	slli	a3,a3,0x3
800028b6:	00d65733          	srl	a4,a2,a3
800028ba:	98ba                	add	a7,a7,a4
800028bc:	0008c703          	lbu	a4,0(a7)
800028c0:	9736                	add	a4,a4,a3
800028c2:	02000693          	li	a3,32
800028c6:	40e688b3          	sub	a7,a3,a4
800028ca:	04e69a63          	bne	a3,a4,8000291e <__umoddi3+0x13a>
800028ce:	40c58733          	sub	a4,a1,a2
800028d2:	01085593          	srli	a1,a6,0x10
800028d6:	02b75633          	divu	a2,a4,a1
800028da:	01081513          	slli	a0,a6,0x10
800028de:	8141                	srli	a0,a0,0x10
800028e0:	0107d693          	srli	a3,a5,0x10
800028e4:	02b77733          	remu	a4,a4,a1
800028e8:	02a60633          	mul	a2,a2,a0
800028ec:	0742                	slli	a4,a4,0x10
800028ee:	8f55                	or	a4,a4,a3
800028f0:	00c77863          	bgeu	a4,a2,80002900 <__umoddi3+0x11c>
800028f4:	9742                	add	a4,a4,a6
800028f6:	01076563          	bltu	a4,a6,80002900 <__umoddi3+0x11c>
800028fa:	00c77363          	bgeu	a4,a2,80002900 <__umoddi3+0x11c>
800028fe:	9742                	add	a4,a4,a6
80002900:	8f11                	sub	a4,a4,a2
80002902:	02b756b3          	divu	a3,a4,a1
80002906:	02b77733          	remu	a4,a4,a1
8000290a:	02a686b3          	mul	a3,a3,a0
8000290e:	b795                	j	80002872 <__umoddi3+0x8e>
80002910:	01000737          	lui	a4,0x1000
80002914:	46c1                	li	a3,16
80002916:	fae660e3          	bltu	a2,a4,800028b6 <__umoddi3+0xd2>
8000291a:	46e1                	li	a3,24
8000291c:	bf69                	j	800028b6 <__umoddi3+0xd2>
8000291e:	01161833          	sll	a6,a2,a7
80002922:	00e5d6b3          	srl	a3,a1,a4
80002926:	011517b3          	sll	a5,a0,a7
8000292a:	011595b3          	sll	a1,a1,a7
8000292e:	00e55733          	srl	a4,a0,a4
80002932:	01085513          	srli	a0,a6,0x10
80002936:	8f4d                	or	a4,a4,a1
80002938:	02a6d5b3          	divu	a1,a3,a0
8000293c:	01081313          	slli	t1,a6,0x10
80002940:	01035313          	srli	t1,t1,0x10
80002944:	02a6f6b3          	remu	a3,a3,a0
80002948:	026585b3          	mul	a1,a1,t1
8000294c:	01069613          	slli	a2,a3,0x10
80002950:	01075693          	srli	a3,a4,0x10
80002954:	8ed1                	or	a3,a3,a2
80002956:	00b6f863          	bgeu	a3,a1,80002966 <__umoddi3+0x182>
8000295a:	96c2                	add	a3,a3,a6
8000295c:	0106e563          	bltu	a3,a6,80002966 <__umoddi3+0x182>
80002960:	00b6f363          	bgeu	a3,a1,80002966 <__umoddi3+0x182>
80002964:	96c2                	add	a3,a3,a6
80002966:	8e8d                	sub	a3,a3,a1
80002968:	02a6d633          	divu	a2,a3,a0
8000296c:	0742                	slli	a4,a4,0x10
8000296e:	8341                	srli	a4,a4,0x10
80002970:	02a6f6b3          	remu	a3,a3,a0
80002974:	02660633          	mul	a2,a2,t1
80002978:	06c2                	slli	a3,a3,0x10
8000297a:	8f55                	or	a4,a4,a3
8000297c:	00c77863          	bgeu	a4,a2,8000298c <__umoddi3+0x1a8>
80002980:	9742                	add	a4,a4,a6
80002982:	01076563          	bltu	a4,a6,8000298c <__umoddi3+0x1a8>
80002986:	00c77363          	bgeu	a4,a2,8000298c <__umoddi3+0x1a8>
8000298a:	9742                	add	a4,a4,a6
8000298c:	8f11                	sub	a4,a4,a2
8000298e:	b791                	j	800028d2 <__umoddi3+0xee>
80002990:	16d5e863          	bltu	a1,a3,80002b00 <__umoddi3+0x31c>
80002994:	6841                	lui	a6,0x10
80002996:	0506f763          	bgeu	a3,a6,800029e4 <__umoddi3+0x200>
8000299a:	1006b813          	sltiu	a6,a3,256
8000299e:	00184813          	xori	a6,a6,1
800029a2:	080e                	slli	a6,a6,0x3
800029a4:	800038b7          	lui	a7,0x80003
800029a8:	0106d333          	srl	t1,a3,a6
800029ac:	d6088893          	addi	a7,a7,-672 # 80002d60 <__global_pointer$+0xffffeac4>
800029b0:	989a                	add	a7,a7,t1
800029b2:	0008c883          	lbu	a7,0(a7)
800029b6:	02000313          	li	t1,32
800029ba:	98c2                	add	a7,a7,a6
800029bc:	41130833          	sub	a6,t1,a7
800029c0:	03131963          	bne	t1,a7,800029f2 <__umoddi3+0x20e>
800029c4:	00b6e463          	bltu	a3,a1,800029cc <__umoddi3+0x1e8>
800029c8:	00c56b63          	bltu	a0,a2,800029de <__umoddi3+0x1fa>
800029cc:	40c50633          	sub	a2,a0,a2
800029d0:	40d586b3          	sub	a3,a1,a3
800029d4:	00c53733          	sltu	a4,a0,a2
800029d8:	40e68733          	sub	a4,a3,a4
800029dc:	87b2                	mv	a5,a2
800029de:	853e                	mv	a0,a5
800029e0:	85ba                	mv	a1,a4
800029e2:	8082                	ret
800029e4:	010008b7          	lui	a7,0x1000
800029e8:	4841                	li	a6,16
800029ea:	fb16ede3          	bltu	a3,a7,800029a4 <__umoddi3+0x1c0>
800029ee:	4861                	li	a6,24
800029f0:	bf55                	j	800029a4 <__umoddi3+0x1c0>
800029f2:	010696b3          	sll	a3,a3,a6
800029f6:	01165333          	srl	t1,a2,a7
800029fa:	00d36333          	or	t1,t1,a3
800029fe:	01035e13          	srli	t3,t1,0x10
80002a02:	0115d6b3          	srl	a3,a1,a7
80002a06:	03c6df33          	divu	t5,a3,t3
80002a0a:	01031713          	slli	a4,t1,0x10
80002a0e:	8341                	srli	a4,a4,0x10
80002a10:	010597b3          	sll	a5,a1,a6
80002a14:	011555b3          	srl	a1,a0,a7
80002a18:	8ddd                	or	a1,a1,a5
80002a1a:	0105d793          	srli	a5,a1,0x10
80002a1e:	01061633          	sll	a2,a2,a6
80002a22:	01051533          	sll	a0,a0,a6
80002a26:	03c6f6b3          	remu	a3,a3,t3
80002a2a:	03e70eb3          	mul	t4,a4,t5
80002a2e:	06c2                	slli	a3,a3,0x10
80002a30:	8fd5                	or	a5,a5,a3
80002a32:	86fa                	mv	a3,t5
80002a34:	01d7fc63          	bgeu	a5,t4,80002a4c <__umoddi3+0x268>
80002a38:	979a                	add	a5,a5,t1
80002a3a:	ffff0693          	addi	a3,t5,-1
80002a3e:	0067e763          	bltu	a5,t1,80002a4c <__umoddi3+0x268>
80002a42:	01d7f563          	bgeu	a5,t4,80002a4c <__umoddi3+0x268>
80002a46:	ffef0693          	addi	a3,t5,-2
80002a4a:	979a                	add	a5,a5,t1
80002a4c:	41d787b3          	sub	a5,a5,t4
80002a50:	03c7deb3          	divu	t4,a5,t3
80002a54:	05c2                	slli	a1,a1,0x10
80002a56:	81c1                	srli	a1,a1,0x10
80002a58:	03c7f7b3          	remu	a5,a5,t3
80002a5c:	03d70733          	mul	a4,a4,t4
80002a60:	07c2                	slli	a5,a5,0x10
80002a62:	8ddd                	or	a1,a1,a5
80002a64:	87f6                	mv	a5,t4
80002a66:	00e5fc63          	bgeu	a1,a4,80002a7e <__umoddi3+0x29a>
80002a6a:	959a                	add	a1,a1,t1
80002a6c:	fffe8793          	addi	a5,t4,-1
80002a70:	0065e763          	bltu	a1,t1,80002a7e <__umoddi3+0x29a>
80002a74:	00e5f563          	bgeu	a1,a4,80002a7e <__umoddi3+0x29a>
80002a78:	ffee8793          	addi	a5,t4,-2
80002a7c:	959a                	add	a1,a1,t1
80002a7e:	06c2                	slli	a3,a3,0x10
80002a80:	6f41                	lui	t5,0x10
80002a82:	8edd                	or	a3,a3,a5
80002a84:	ffff0793          	addi	a5,t5,-1 # ffff <buflen.3+0xff7f>
80002a88:	01065e13          	srli	t3,a2,0x10
80002a8c:	8d99                	sub	a1,a1,a4
80002a8e:	00f6f733          	and	a4,a3,a5
80002a92:	82c1                	srli	a3,a3,0x10
80002a94:	8ff1                	and	a5,a5,a2
80002a96:	02f70eb3          	mul	t4,a4,a5
80002a9a:	02f687b3          	mul	a5,a3,a5
80002a9e:	03c70733          	mul	a4,a4,t3
80002aa2:	03c686b3          	mul	a3,a3,t3
80002aa6:	00f70e33          	add	t3,a4,a5
80002aaa:	010ed713          	srli	a4,t4,0x10
80002aae:	9772                	add	a4,a4,t3
80002ab0:	00f77363          	bgeu	a4,a5,80002ab6 <__umoddi3+0x2d2>
80002ab4:	96fa                	add	a3,a3,t5
80002ab6:	01075793          	srli	a5,a4,0x10
80002aba:	97b6                	add	a5,a5,a3
80002abc:	66c1                	lui	a3,0x10
80002abe:	16fd                	addi	a3,a3,-1
80002ac0:	8f75                	and	a4,a4,a3
80002ac2:	0742                	slli	a4,a4,0x10
80002ac4:	00defeb3          	and	t4,t4,a3
80002ac8:	9776                	add	a4,a4,t4
80002aca:	00f5e663          	bltu	a1,a5,80002ad6 <__umoddi3+0x2f2>
80002ace:	00f59b63          	bne	a1,a5,80002ae4 <__umoddi3+0x300>
80002ad2:	00e57963          	bgeu	a0,a4,80002ae4 <__umoddi3+0x300>
80002ad6:	40c70633          	sub	a2,a4,a2
80002ada:	00c73733          	sltu	a4,a4,a2
80002ade:	971a                	add	a4,a4,t1
80002ae0:	8f99                	sub	a5,a5,a4
80002ae2:	8732                	mv	a4,a2
80002ae4:	40e50733          	sub	a4,a0,a4
80002ae8:	00e53533          	sltu	a0,a0,a4
80002aec:	8d9d                	sub	a1,a1,a5
80002aee:	8d89                	sub	a1,a1,a0
80002af0:	011598b3          	sll	a7,a1,a7
80002af4:	01075733          	srl	a4,a4,a6
80002af8:	00e8e533          	or	a0,a7,a4
80002afc:	0105d5b3          	srl	a1,a1,a6
80002b00:	8082                	ret

80002b02 <__eqdf2>:
80002b02:	0145d713          	srli	a4,a1,0x14
80002b06:	001007b7          	lui	a5,0x100
80002b0a:	17fd                	addi	a5,a5,-1
80002b0c:	0146d813          	srli	a6,a3,0x14
80002b10:	832a                	mv	t1,a0
80002b12:	8eaa                	mv	t4,a0
80002b14:	7ff77713          	andi	a4,a4,2047
80002b18:	7ff00513          	li	a0,2047
80002b1c:	00b7f8b3          	and	a7,a5,a1
80002b20:	8f32                	mv	t5,a2
80002b22:	8ff5                	and	a5,a5,a3
80002b24:	81fd                	srli	a1,a1,0x1f
80002b26:	7ff87813          	andi	a6,a6,2047
80002b2a:	82fd                	srli	a3,a3,0x1f
80002b2c:	00a71a63          	bne	a4,a0,80002b40 <__eqdf2+0x3e>
80002b30:	0068ee33          	or	t3,a7,t1
80002b34:	4505                	li	a0,1
80002b36:	000e1463          	bnez	t3,80002b3e <__eqdf2+0x3c>
80002b3a:	00e80563          	beq	a6,a4,80002b44 <__eqdf2+0x42>
80002b3e:	8082                	ret
80002b40:	00a81563          	bne	a6,a0,80002b4a <__eqdf2+0x48>
80002b44:	8e5d                	or	a2,a2,a5
80002b46:	4505                	li	a0,1
80002b48:	fa7d                	bnez	a2,80002b3e <__eqdf2+0x3c>
80002b4a:	4505                	li	a0,1
80002b4c:	ff0719e3          	bne	a4,a6,80002b3e <__eqdf2+0x3c>
80002b50:	fef897e3          	bne	a7,a5,80002b3e <__eqdf2+0x3c>
80002b54:	ffee95e3          	bne	t4,t5,80002b3e <__eqdf2+0x3c>
80002b58:	00d58863          	beq	a1,a3,80002b68 <__eqdf2+0x66>
80002b5c:	f36d                	bnez	a4,80002b3e <__eqdf2+0x3c>
80002b5e:	0068e8b3          	or	a7,a7,t1
80002b62:	01103533          	snez	a0,a7
80002b66:	8082                	ret
80002b68:	4501                	li	a0,0
80002b6a:	8082                	ret

Disassembly of section .data:

80002e9c <data>:
80002e9c:	0061                	c.nop	24
80002e9e:	0000                	unimp
80002ea0:	0015                	c.nop	5
80002ea2:	0000                	unimp
80002ea4:	0055                	c.nop	21
80002ea6:	0000                	unimp
80002ea8:	0009                	c.nop	2
80002eaa:	0000                	unimp
80002eac:	0051                	c.nop	20
80002eae:	0000                	unimp
80002eb0:	001c                	0x1c
80002eb2:	0000                	unimp
80002eb4:	0026                	c.slli	zero,0x9
80002eb6:	0000                	unimp
80002eb8:	001e                	c.slli	zero,0x7
80002eba:	0000                	unimp
80002ebc:	002c                	addi	a1,sp,8
80002ebe:	0000                	unimp
80002ec0:	0011                	c.nop	4
80002ec2:	0000                	unimp
80002ec4:	005f 0000 005f      	0x5f0000005f
80002eca:	0000                	unimp
80002ecc:	000d                	c.nop	3
80002ece:	0000                	unimp
80002ed0:	0042                	c.slli	zero,0x10
80002ed2:	0000                	unimp
80002ed4:	00000017          	auipc	zero,0x0
80002ed8:	0001                	nop
80002eda:	0000                	unimp
80002edc:	0000004f          	fnmadd.s	ft0,ft0,ft0,ft0,rne
80002ee0:	00000023          	sb	zero,0(zero) # 0 <threadsense.5>
80002ee4:	00000027          	0x27
80002ee8:	0000002f          	0x2f
80002eec:	00000023          	sb	zero,0(zero) # 0 <threadsense.5>
80002ef0:	00000063          	beqz	zero,80002ef0 <data+0x54>
80002ef4:	0054                	addi	a3,sp,4
80002ef6:	0000                	unimp
80002ef8:	00000053          	fadd.s	ft0,ft0,ft0,rne
80002efc:	003a                	c.slli	zero,0xe
80002efe:	0000                	unimp
80002f00:	002c                	addi	a1,sp,8
80002f02:	0000                	unimp
80002f04:	0000001b          	0x1b
80002f08:	0014                	0x14
80002f0a:	0000                	unimp
80002f0c:	00000047          	fmsub.s	ft0,ft0,ft0,ft0,rne
80002f10:	0005                	c.nop	1
80002f12:	0000                	unimp
80002f14:	00000037          	lui	zero,0x0
80002f18:	0014                	0x14
80002f1a:	0000                	unimp
80002f1c:	0019                	c.nop	6
80002f1e:	0000                	unimp
80002f20:	0000005b          	0x5b
80002f24:	0050                	addi	a2,sp,4
80002f26:	0000                	unimp
80002f28:	0039                	c.nop	14
80002f2a:	0000                	unimp
80002f2c:	00000013          	nop
80002f30:	0046                	c.slli	zero,0x11
80002f32:	0000                	unimp
80002f34:	00000057          	0x57
80002f38:	003e                	c.slli	zero,0xf
80002f3a:	0000                	unimp
80002f3c:	0056                	c.slli	zero,0x15
80002f3e:	0000                	unimp
80002f40:	0021                	c.nop	8
80002f42:	0000                	unimp
80002f44:	0038                	addi	a4,sp,8
80002f46:	0000                	unimp
80002f48:	0062                	c.slli	zero,0x18
80002f4a:	0000                	unimp
80002f4c:	0032                	c.slli	zero,0xc
80002f4e:	0000                	unimp
80002f50:	001f 0000 0032      	0x320000001f
80002f56:	0000                	unimp
80002f58:	001c                	0x1c
80002f5a:	0000                	unimp
80002f5c:	0041                	c.nop	16
80002f5e:	0000                	unimp
80002f60:	0058                	addi	a4,sp,4
80002f62:	0000                	unimp
80002f64:	0000001b          	0x1b
80002f68:	0034                	addi	a3,sp,8
80002f6a:	0000                	unimp
80002f6c:	0026                	c.slli	zero,0x9
80002f6e:	0000                	unimp
80002f70:	003e                	c.slli	zero,0xf
80002f72:	0000                	unimp
80002f74:	0022                	c.slli	zero,0x8
80002f76:	0000                	unimp
80002f78:	0060                	addi	s0,sp,12
80002f7a:	0000                	unimp
80002f7c:	0005                	c.nop	1
80002f7e:	0000                	unimp
80002f80:	003c                	addi	a5,sp,8
80002f82:	0000                	unimp
80002f84:	00000043          	fmadd.s	ft0,ft0,ft0,ft0,rne
80002f88:	0000001b          	0x1b
80002f8c:	0010                	0x10
80002f8e:	0000                	unimp
80002f90:	004a                	c.slli	zero,0x12
80002f92:	0000                	unimp
80002f94:	0062                	c.slli	zero,0x18
80002f96:	0000                	unimp
80002f98:	005d                	c.nop	23
80002f9a:	0000                	unimp
80002f9c:	0010                	0x10
80002f9e:	0000                	unimp
80002fa0:	004e                	c.slli	zero,0x13
80002fa2:	0000                	unimp
80002fa4:	0031                	c.nop	12
80002fa6:	0000                	unimp
80002fa8:	0022                	c.slli	zero,0x8
80002faa:	0000                	unimp
80002fac:	0000002f          	0x2f
80002fb0:	00000057          	0x57
80002fb4:	0030                	addi	a2,sp,8
80002fb6:	0000                	unimp
80002fb8:	0054                	addi	a3,sp,4
80002fba:	0000                	unimp
80002fbc:	0048                	addi	a0,sp,4
80002fbe:	0000                	unimp
80002fc0:	00000037          	lui	zero,0x0
80002fc4:	0051                	c.nop	20
80002fc6:	0000                	unimp
80002fc8:	0015                	c.nop	5
80002fca:	0000                	unimp
80002fcc:	0055                	c.nop	21
80002fce:	0000                	unimp
80002fd0:	00000053          	fadd.s	ft0,ft0,ft0,rne
80002fd4:	0001                	nop
80002fd6:	0000                	unimp
80002fd8:	0002                	c.slli64	zero
80002fda:	0000                	unimp
80002fdc:	0046                	c.slli	zero,0x11
80002fde:	0000                	unimp
80002fe0:	0000001b          	0x1b
80002fe4:	0005                	c.nop	1
80002fe6:	0000                	unimp
80002fe8:	003c                	addi	a5,sp,8
80002fea:	0000                	unimp
80002fec:	0058                	addi	a4,sp,4
80002fee:	0000                	unimp
80002ff0:	0026                	c.slli	zero,0x9
80002ff2:	0000                	unimp
80002ff4:	00000007          	0x7
80002ff8:	002c                	addi	a1,sp,8
80002ffa:	0000                	unimp
80002ffc:	0032                	c.slli	zero,0xc
80002ffe:	0000                	unimp
80003000:	0049                	c.nop	18
80003002:	0000                	unimp
80003004:	0046                	c.slli	zero,0x11
80003006:	0000                	unimp
80003008:	0011                	c.nop	4
8000300a:	0000                	unimp
8000300c:	0062                	c.slli	zero,0x18
8000300e:	0000                	unimp
80003010:	0044                	addi	s1,sp,4
80003012:	0000                	unimp
80003014:	0009                	c.nop	2
80003016:	0000                	unimp
80003018:	000e                	c.slli	zero,0x3
8000301a:	0000                	unimp
8000301c:	0061                	c.nop	24
8000301e:	0000                	unimp
80003020:	000a                	c.slli	zero,0x2
80003022:	0000                	unimp
80003024:	0000002f          	0x2f
80003028:	0000002b          	0x2b
8000302c:	0030                	addi	a2,sp,8
8000302e:	0000                	unimp
80003030:	002e                	c.slli	zero,0xb
80003032:	0000                	unimp
80003034:	001a                	c.slli	zero,0x6
80003036:	0000                	unimp
80003038:	00000013          	nop
8000303c:	0001                	nop
8000303e:	0000                	unimp
80003040:	003a                	c.slli	zero,0xe
80003042:	0000                	unimp
80003044:	005c                	addi	a5,sp,4
80003046:	0000                	unimp
80003048:	0025                	c.nop	9
8000304a:	0000                	unimp
8000304c:	005c                	addi	a5,sp,4
8000304e:	0000                	unimp
80003050:	005c                	addi	a5,sp,4
80003052:	0000                	unimp
80003054:	005a                	c.slli	zero,0x16
80003056:	0000                	unimp
80003058:	000e                	c.slli	zero,0x3
8000305a:	0000                	unimp
8000305c:	0046                	c.slli	zero,0x11
8000305e:	0000                	unimp
80003060:	005e                	c.slli	zero,0x17
80003062:	0000                	unimp
80003064:	0049                	c.nop	18
80003066:	0000                	unimp
80003068:	0009                	c.nop	2
8000306a:	0000                	unimp
8000306c:	0054                	addi	a3,sp,4
8000306e:	0000                	unimp
80003070:	0000004f          	fnmadd.s	ft0,ft0,ft0,ft0,rne
80003074:	0034                	addi	a3,sp,8
80003076:	0000                	unimp
80003078:	0055                	c.nop	21
8000307a:	0000                	unimp
8000307c:	00000003          	lb	zero,0(zero) # 0 <threadsense.5>
80003080:	0049                	c.nop	18
80003082:	0000                	unimp
80003084:	0001                	nop
80003086:	0000                	unimp
80003088:	0001                	nop
8000308a:	0000                	unimp
8000308c:	005c                	addi	a5,sp,4
8000308e:	0000                	unimp
80003090:	000a                	c.slli	zero,0x2
80003092:	0000                	unimp
80003094:	000e                	c.slli	zero,0x3
80003096:	0000                	unimp
80003098:	0058                	addi	a4,sp,4
8000309a:	0000                	unimp
8000309c:	0061                	c.nop	24
8000309e:	0000                	unimp
800030a0:	0015                	c.nop	5
800030a2:	0000                	unimp
800030a4:	0055                	c.nop	21
800030a6:	0000                	unimp
800030a8:	0009                	c.nop	2
800030aa:	0000                	unimp
800030ac:	0051                	c.nop	20
800030ae:	0000                	unimp
800030b0:	001c                	0x1c
800030b2:	0000                	unimp
800030b4:	0026                	c.slli	zero,0x9
800030b6:	0000                	unimp
800030b8:	001e                	c.slli	zero,0x7
800030ba:	0000                	unimp
800030bc:	002c                	addi	a1,sp,8
800030be:	0000                	unimp
800030c0:	0011                	c.nop	4
800030c2:	0000                	unimp
800030c4:	005f 0000 005f      	0x5f0000005f
800030ca:	0000                	unimp
800030cc:	000d                	c.nop	3
800030ce:	0000                	unimp
800030d0:	0042                	c.slli	zero,0x10
800030d2:	0000                	unimp
800030d4:	00000017          	auipc	zero,0x0
800030d8:	0001                	nop
800030da:	0000                	unimp
800030dc:	0000004f          	fnmadd.s	ft0,ft0,ft0,ft0,rne
800030e0:	00000023          	sb	zero,0(zero) # 0 <threadsense.5>
800030e4:	00000027          	0x27
800030e8:	0000002f          	0x2f
800030ec:	00000023          	sb	zero,0(zero) # 0 <threadsense.5>
800030f0:	00000063          	beqz	zero,800030f0 <data+0x254>
800030f4:	0054                	addi	a3,sp,4
800030f6:	0000                	unimp
800030f8:	00000053          	fadd.s	ft0,ft0,ft0,rne
800030fc:	003a                	c.slli	zero,0xe
800030fe:	0000                	unimp
80003100:	002c                	addi	a1,sp,8
80003102:	0000                	unimp
80003104:	0000001b          	0x1b
80003108:	0014                	0x14
8000310a:	0000                	unimp
8000310c:	00000047          	fmsub.s	ft0,ft0,ft0,ft0,rne
80003110:	0005                	c.nop	1
80003112:	0000                	unimp
80003114:	00000037          	lui	zero,0x0
80003118:	0014                	0x14
8000311a:	0000                	unimp
8000311c:	0019                	c.nop	6
8000311e:	0000                	unimp
80003120:	0000005b          	0x5b
80003124:	0050                	addi	a2,sp,4
80003126:	0000                	unimp
80003128:	0039                	c.nop	14
8000312a:	0000                	unimp
8000312c:	00000013          	nop
80003130:	0046                	c.slli	zero,0x11
80003132:	0000                	unimp
80003134:	00000057          	0x57
80003138:	003e                	c.slli	zero,0xf
8000313a:	0000                	unimp
8000313c:	0056                	c.slli	zero,0x15
8000313e:	0000                	unimp
80003140:	0021                	c.nop	8
80003142:	0000                	unimp
80003144:	0038                	addi	a4,sp,8
80003146:	0000                	unimp
80003148:	0062                	c.slli	zero,0x18
8000314a:	0000                	unimp
8000314c:	0032                	c.slli	zero,0xc
8000314e:	0000                	unimp
80003150:	001f 0000 0032      	0x320000001f
80003156:	0000                	unimp
80003158:	001c                	0x1c
8000315a:	0000                	unimp
8000315c:	0041                	c.nop	16
8000315e:	0000                	unimp
80003160:	0058                	addi	a4,sp,4
80003162:	0000                	unimp
80003164:	0000001b          	0x1b
80003168:	0034                	addi	a3,sp,8
8000316a:	0000                	unimp
8000316c:	0026                	c.slli	zero,0x9
8000316e:	0000                	unimp
80003170:	003e                	c.slli	zero,0xf
80003172:	0000                	unimp
80003174:	0022                	c.slli	zero,0x8
80003176:	0000                	unimp
80003178:	0060                	addi	s0,sp,12
8000317a:	0000                	unimp
8000317c:	0005                	c.nop	1
8000317e:	0000                	unimp
80003180:	003c                	addi	a5,sp,8
80003182:	0000                	unimp
80003184:	00000043          	fmadd.s	ft0,ft0,ft0,ft0,rne
80003188:	0000001b          	0x1b
8000318c:	0010                	0x10
8000318e:	0000                	unimp
80003190:	004a                	c.slli	zero,0x12
80003192:	0000                	unimp
80003194:	0062                	c.slli	zero,0x18
80003196:	0000                	unimp
80003198:	005d                	c.nop	23
8000319a:	0000                	unimp
8000319c:	0010                	0x10
8000319e:	0000                	unimp
800031a0:	004e                	c.slli	zero,0x13
800031a2:	0000                	unimp
800031a4:	0031                	c.nop	12
800031a6:	0000                	unimp
800031a8:	0022                	c.slli	zero,0x8
800031aa:	0000                	unimp
800031ac:	0000002f          	0x2f
800031b0:	00000057          	0x57
800031b4:	0030                	addi	a2,sp,8
800031b6:	0000                	unimp
800031b8:	0054                	addi	a3,sp,4
800031ba:	0000                	unimp
800031bc:	0048                	addi	a0,sp,4
800031be:	0000                	unimp
800031c0:	00000037          	lui	zero,0x0
800031c4:	0051                	c.nop	20
800031c6:	0000                	unimp
800031c8:	0015                	c.nop	5
800031ca:	0000                	unimp
800031cc:	0055                	c.nop	21
800031ce:	0000                	unimp
800031d0:	00000053          	fadd.s	ft0,ft0,ft0,rne
800031d4:	0001                	nop
800031d6:	0000                	unimp
800031d8:	0002                	c.slli64	zero
800031da:	0000                	unimp
800031dc:	0046                	c.slli	zero,0x11
800031de:	0000                	unimp
800031e0:	0000001b          	0x1b
800031e4:	0005                	c.nop	1
800031e6:	0000                	unimp
800031e8:	003c                	addi	a5,sp,8
800031ea:	0000                	unimp
800031ec:	0058                	addi	a4,sp,4
800031ee:	0000                	unimp
800031f0:	0026                	c.slli	zero,0x9
800031f2:	0000                	unimp
800031f4:	00000007          	0x7
800031f8:	002c                	addi	a1,sp,8
800031fa:	0000                	unimp
800031fc:	0032                	c.slli	zero,0xc
800031fe:	0000                	unimp
80003200:	0049                	c.nop	18
80003202:	0000                	unimp
80003204:	0046                	c.slli	zero,0x11
80003206:	0000                	unimp
80003208:	0011                	c.nop	4
8000320a:	0000                	unimp
8000320c:	0062                	c.slli	zero,0x18
8000320e:	0000                	unimp
80003210:	0044                	addi	s1,sp,4
80003212:	0000                	unimp
80003214:	0009                	c.nop	2
80003216:	0000                	unimp
80003218:	000e                	c.slli	zero,0x3
8000321a:	0000                	unimp
8000321c:	0061                	c.nop	24
8000321e:	0000                	unimp
80003220:	000a                	c.slli	zero,0x2
80003222:	0000                	unimp
80003224:	0000002f          	0x2f
80003228:	0000002b          	0x2b
8000322c:	0030                	addi	a2,sp,8
8000322e:	0000                	unimp
80003230:	002e                	c.slli	zero,0xb
80003232:	0000                	unimp
80003234:	001a                	c.slli	zero,0x6
80003236:	0000                	unimp
80003238:	00000013          	nop
8000323c:	0001                	nop
8000323e:	0000                	unimp
80003240:	003a                	c.slli	zero,0xe
80003242:	0000                	unimp
80003244:	005c                	addi	a5,sp,4
80003246:	0000                	unimp
80003248:	0025                	c.nop	9
8000324a:	0000                	unimp
8000324c:	005c                	addi	a5,sp,4
8000324e:	0000                	unimp
80003250:	005c                	addi	a5,sp,4
80003252:	0000                	unimp
80003254:	005a                	c.slli	zero,0x16
80003256:	0000                	unimp
80003258:	000e                	c.slli	zero,0x3
8000325a:	0000                	unimp
8000325c:	0046                	c.slli	zero,0x11
8000325e:	0000                	unimp
80003260:	005e                	c.slli	zero,0x17
80003262:	0000                	unimp
80003264:	0049                	c.nop	18
80003266:	0000                	unimp
80003268:	0009                	c.nop	2
8000326a:	0000                	unimp
8000326c:	0054                	addi	a3,sp,4
8000326e:	0000                	unimp
80003270:	0000004f          	fnmadd.s	ft0,ft0,ft0,ft0,rne
80003274:	0034                	addi	a3,sp,8
80003276:	0000                	unimp
80003278:	0055                	c.nop	21
8000327a:	0000                	unimp
8000327c:	00000003          	lb	zero,0(zero) # 0 <threadsense.5>
80003280:	0049                	c.nop	18
80003282:	0000                	unimp
80003284:	0001                	nop
80003286:	0000                	unimp
80003288:	0001                	nop
8000328a:	0000                	unimp
8000328c:	005c                	addi	a5,sp,4
8000328e:	0000                	unimp
80003290:	000a                	c.slli	zero,0x2
80003292:	0000                	unimp
80003294:	000e                	c.slli	zero,0x3
80003296:	0000                	unimp
80003298:	0058                	addi	a4,sp,4
8000329a:	0000                	unimp
8000329c:	0061                	c.nop	24
8000329e:	0000                	unimp
800032a0:	0015                	c.nop	5
800032a2:	0000                	unimp
800032a4:	0055                	c.nop	21
800032a6:	0000                	unimp
800032a8:	0009                	c.nop	2
800032aa:	0000                	unimp
800032ac:	0051                	c.nop	20
800032ae:	0000                	unimp
800032b0:	001c                	0x1c
800032b2:	0000                	unimp
800032b4:	0026                	c.slli	zero,0x9
800032b6:	0000                	unimp
800032b8:	001e                	c.slli	zero,0x7
800032ba:	0000                	unimp
800032bc:	002c                	addi	a1,sp,8
800032be:	0000                	unimp
800032c0:	0011                	c.nop	4
800032c2:	0000                	unimp
800032c4:	005f 0000 005f      	0x5f0000005f
800032ca:	0000                	unimp
800032cc:	000d                	c.nop	3
800032ce:	0000                	unimp
800032d0:	0042                	c.slli	zero,0x10
800032d2:	0000                	unimp
800032d4:	00000017          	auipc	zero,0x0
800032d8:	0001                	nop
800032da:	0000                	unimp
800032dc:	0000004f          	fnmadd.s	ft0,ft0,ft0,ft0,rne
800032e0:	00000023          	sb	zero,0(zero) # 0 <threadsense.5>
800032e4:	00000027          	0x27
800032e8:	0000002f          	0x2f
800032ec:	00000023          	sb	zero,0(zero) # 0 <threadsense.5>
800032f0:	00000063          	beqz	zero,800032f0 <data+0x454>
800032f4:	0054                	addi	a3,sp,4
800032f6:	0000                	unimp
800032f8:	00000053          	fadd.s	ft0,ft0,ft0,rne
800032fc:	003a                	c.slli	zero,0xe
800032fe:	0000                	unimp
80003300:	002c                	addi	a1,sp,8
80003302:	0000                	unimp
80003304:	0000001b          	0x1b
80003308:	0014                	0x14
8000330a:	0000                	unimp
8000330c:	00000047          	fmsub.s	ft0,ft0,ft0,ft0,rne
80003310:	0005                	c.nop	1
80003312:	0000                	unimp
80003314:	00000037          	lui	zero,0x0
80003318:	0014                	0x14
8000331a:	0000                	unimp
8000331c:	0019                	c.nop	6
8000331e:	0000                	unimp
80003320:	0000005b          	0x5b
80003324:	0050                	addi	a2,sp,4
80003326:	0000                	unimp
80003328:	0039                	c.nop	14
8000332a:	0000                	unimp
8000332c:	00000013          	nop
80003330:	0046                	c.slli	zero,0x11
80003332:	0000                	unimp
80003334:	00000057          	0x57
80003338:	003e                	c.slli	zero,0xf
8000333a:	0000                	unimp
8000333c:	0056                	c.slli	zero,0x15
8000333e:	0000                	unimp
80003340:	0021                	c.nop	8
80003342:	0000                	unimp
80003344:	0038                	addi	a4,sp,8
80003346:	0000                	unimp
80003348:	0062                	c.slli	zero,0x18
8000334a:	0000                	unimp
8000334c:	0032                	c.slli	zero,0xc
8000334e:	0000                	unimp
80003350:	001f 0000 0032      	0x320000001f
80003356:	0000                	unimp
80003358:	001c                	0x1c
8000335a:	0000                	unimp
8000335c:	0041                	c.nop	16
8000335e:	0000                	unimp
80003360:	0058                	addi	a4,sp,4
80003362:	0000                	unimp
80003364:	0000001b          	0x1b
80003368:	0034                	addi	a3,sp,8
8000336a:	0000                	unimp
8000336c:	0026                	c.slli	zero,0x9
8000336e:	0000                	unimp
80003370:	003e                	c.slli	zero,0xf
80003372:	0000                	unimp
80003374:	0022                	c.slli	zero,0x8
80003376:	0000                	unimp
80003378:	0060                	addi	s0,sp,12
8000337a:	0000                	unimp
8000337c:	0005                	c.nop	1
8000337e:	0000                	unimp
80003380:	003c                	addi	a5,sp,8
80003382:	0000                	unimp
80003384:	00000043          	fmadd.s	ft0,ft0,ft0,ft0,rne
80003388:	0000001b          	0x1b
8000338c:	0010                	0x10
8000338e:	0000                	unimp
80003390:	004a                	c.slli	zero,0x12
80003392:	0000                	unimp
80003394:	0062                	c.slli	zero,0x18
80003396:	0000                	unimp
80003398:	005d                	c.nop	23
8000339a:	0000                	unimp
8000339c:	0010                	0x10
8000339e:	0000                	unimp
800033a0:	004e                	c.slli	zero,0x13
800033a2:	0000                	unimp
800033a4:	0031                	c.nop	12
800033a6:	0000                	unimp
800033a8:	0022                	c.slli	zero,0x8
800033aa:	0000                	unimp
800033ac:	0000002f          	0x2f
800033b0:	00000057          	0x57
800033b4:	0030                	addi	a2,sp,8
800033b6:	0000                	unimp
800033b8:	0054                	addi	a3,sp,4
800033ba:	0000                	unimp
800033bc:	0048                	addi	a0,sp,4
800033be:	0000                	unimp
800033c0:	00000037          	lui	zero,0x0
800033c4:	0051                	c.nop	20
800033c6:	0000                	unimp
800033c8:	0015                	c.nop	5
800033ca:	0000                	unimp
800033cc:	0055                	c.nop	21
800033ce:	0000                	unimp
800033d0:	00000053          	fadd.s	ft0,ft0,ft0,rne
800033d4:	0001                	nop
800033d6:	0000                	unimp
800033d8:	0002                	c.slli64	zero
800033da:	0000                	unimp
800033dc:	0046                	c.slli	zero,0x11
800033de:	0000                	unimp
800033e0:	0000001b          	0x1b
800033e4:	0005                	c.nop	1
800033e6:	0000                	unimp
800033e8:	003c                	addi	a5,sp,8
800033ea:	0000                	unimp
800033ec:	0058                	addi	a4,sp,4
800033ee:	0000                	unimp
800033f0:	0026                	c.slli	zero,0x9
800033f2:	0000                	unimp
800033f4:	00000007          	0x7
800033f8:	002c                	addi	a1,sp,8
800033fa:	0000                	unimp
800033fc:	0032                	c.slli	zero,0xc
800033fe:	0000                	unimp
80003400:	0049                	c.nop	18
80003402:	0000                	unimp
80003404:	0046                	c.slli	zero,0x11
80003406:	0000                	unimp
80003408:	0011                	c.nop	4
8000340a:	0000                	unimp
8000340c:	0062                	c.slli	zero,0x18
8000340e:	0000                	unimp
80003410:	0044                	addi	s1,sp,4
80003412:	0000                	unimp
80003414:	0009                	c.nop	2
80003416:	0000                	unimp
80003418:	000e                	c.slli	zero,0x3
8000341a:	0000                	unimp
8000341c:	0061                	c.nop	24
8000341e:	0000                	unimp
80003420:	000a                	c.slli	zero,0x2
80003422:	0000                	unimp
80003424:	0000002f          	0x2f
80003428:	0000002b          	0x2b
8000342c:	0030                	addi	a2,sp,8
8000342e:	0000                	unimp
80003430:	002e                	c.slli	zero,0xb
80003432:	0000                	unimp
80003434:	001a                	c.slli	zero,0x6
80003436:	0000                	unimp
80003438:	00000013          	nop
8000343c:	0001                	nop
8000343e:	0000                	unimp
80003440:	003a                	c.slli	zero,0xe
80003442:	0000                	unimp
80003444:	005c                	addi	a5,sp,4
80003446:	0000                	unimp
80003448:	0025                	c.nop	9
8000344a:	0000                	unimp
8000344c:	005c                	addi	a5,sp,4
8000344e:	0000                	unimp
80003450:	005c                	addi	a5,sp,4
80003452:	0000                	unimp
80003454:	005a                	c.slli	zero,0x16
80003456:	0000                	unimp
80003458:	000e                	c.slli	zero,0x3
8000345a:	0000                	unimp
8000345c:	0046                	c.slli	zero,0x11
8000345e:	0000                	unimp
80003460:	005e                	c.slli	zero,0x17
80003462:	0000                	unimp
80003464:	0049                	c.nop	18
80003466:	0000                	unimp
80003468:	0009                	c.nop	2
8000346a:	0000                	unimp
8000346c:	0054                	addi	a3,sp,4
8000346e:	0000                	unimp
80003470:	0000004f          	fnmadd.s	ft0,ft0,ft0,ft0,rne
80003474:	0034                	addi	a3,sp,8
80003476:	0000                	unimp
80003478:	0055                	c.nop	21
8000347a:	0000                	unimp
8000347c:	00000003          	lb	zero,0(zero) # 0 <threadsense.5>
80003480:	0049                	c.nop	18
80003482:	0000                	unimp
80003484:	0001                	nop
80003486:	0000                	unimp
80003488:	0001                	nop
8000348a:	0000                	unimp
8000348c:	005c                	addi	a5,sp,4
8000348e:	0000                	unimp
80003490:	000a                	c.slli	zero,0x2
80003492:	0000                	unimp
80003494:	000e                	c.slli	zero,0x3
80003496:	0000                	unimp
80003498:	0058                	addi	a4,sp,4
8000349a:	0000                	unimp
8000349c:	0061                	c.nop	24
8000349e:	0000                	unimp
800034a0:	0015                	c.nop	5
800034a2:	0000                	unimp
800034a4:	0055                	c.nop	21
800034a6:	0000                	unimp
800034a8:	0009                	c.nop	2
800034aa:	0000                	unimp
800034ac:	0051                	c.nop	20
800034ae:	0000                	unimp
800034b0:	001c                	0x1c
800034b2:	0000                	unimp
800034b4:	0026                	c.slli	zero,0x9
800034b6:	0000                	unimp
800034b8:	001e                	c.slli	zero,0x7
800034ba:	0000                	unimp
800034bc:	002c                	addi	a1,sp,8
800034be:	0000                	unimp
800034c0:	0011                	c.nop	4
800034c2:	0000                	unimp
800034c4:	005f 0000 005f      	0x5f0000005f
800034ca:	0000                	unimp
800034cc:	000d                	c.nop	3
800034ce:	0000                	unimp
800034d0:	0042                	c.slli	zero,0x10
800034d2:	0000                	unimp
800034d4:	00000017          	auipc	zero,0x0
800034d8:	0001                	nop
800034da:	0000                	unimp
800034dc:	0000004f          	fnmadd.s	ft0,ft0,ft0,ft0,rne
800034e0:	00000023          	sb	zero,0(zero) # 0 <threadsense.5>
800034e4:	00000027          	0x27
800034e8:	0000002f          	0x2f
800034ec:	00000023          	sb	zero,0(zero) # 0 <threadsense.5>
800034f0:	00000063          	beqz	zero,800034f0 <data+0x654>
800034f4:	0054                	addi	a3,sp,4
800034f6:	0000                	unimp
800034f8:	00000053          	fadd.s	ft0,ft0,ft0,rne
800034fc:	003a                	c.slli	zero,0xe
800034fe:	0000                	unimp
80003500:	002c                	addi	a1,sp,8
80003502:	0000                	unimp
80003504:	0000001b          	0x1b
80003508:	0014                	0x14
8000350a:	0000                	unimp
8000350c:	00000047          	fmsub.s	ft0,ft0,ft0,ft0,rne
80003510:	0005                	c.nop	1
80003512:	0000                	unimp
80003514:	00000037          	lui	zero,0x0
80003518:	0014                	0x14
8000351a:	0000                	unimp
8000351c:	0019                	c.nop	6
8000351e:	0000                	unimp
80003520:	0000005b          	0x5b
80003524:	0050                	addi	a2,sp,4
80003526:	0000                	unimp
80003528:	0039                	c.nop	14
8000352a:	0000                	unimp
8000352c:	00000013          	nop
80003530:	0046                	c.slli	zero,0x11
80003532:	0000                	unimp
80003534:	00000057          	0x57
80003538:	003e                	c.slli	zero,0xf
8000353a:	0000                	unimp
8000353c:	0056                	c.slli	zero,0x15
8000353e:	0000                	unimp
80003540:	0021                	c.nop	8
80003542:	0000                	unimp
80003544:	0038                	addi	a4,sp,8
80003546:	0000                	unimp
80003548:	0062                	c.slli	zero,0x18
8000354a:	0000                	unimp
8000354c:	0032                	c.slli	zero,0xc
8000354e:	0000                	unimp
80003550:	001f 0000 0032      	0x320000001f
80003556:	0000                	unimp
80003558:	001c                	0x1c
8000355a:	0000                	unimp
8000355c:	0041                	c.nop	16
8000355e:	0000                	unimp
80003560:	0058                	addi	a4,sp,4
80003562:	0000                	unimp
80003564:	0000001b          	0x1b
80003568:	0034                	addi	a3,sp,8
8000356a:	0000                	unimp
8000356c:	0026                	c.slli	zero,0x9
8000356e:	0000                	unimp
80003570:	003e                	c.slli	zero,0xf
80003572:	0000                	unimp
80003574:	0022                	c.slli	zero,0x8
80003576:	0000                	unimp
80003578:	0060                	addi	s0,sp,12
8000357a:	0000                	unimp
8000357c:	0005                	c.nop	1
8000357e:	0000                	unimp
80003580:	003c                	addi	a5,sp,8
80003582:	0000                	unimp
80003584:	00000043          	fmadd.s	ft0,ft0,ft0,ft0,rne
80003588:	0000001b          	0x1b
8000358c:	0010                	0x10
8000358e:	0000                	unimp
80003590:	004a                	c.slli	zero,0x12
80003592:	0000                	unimp
80003594:	0062                	c.slli	zero,0x18
80003596:	0000                	unimp
80003598:	005d                	c.nop	23
8000359a:	0000                	unimp
8000359c:	0010                	0x10
8000359e:	0000                	unimp
800035a0:	004e                	c.slli	zero,0x13
800035a2:	0000                	unimp
800035a4:	0031                	c.nop	12
800035a6:	0000                	unimp
800035a8:	0022                	c.slli	zero,0x8
800035aa:	0000                	unimp
800035ac:	0000002f          	0x2f
800035b0:	00000057          	0x57
800035b4:	0030                	addi	a2,sp,8
800035b6:	0000                	unimp
800035b8:	0054                	addi	a3,sp,4
800035ba:	0000                	unimp
800035bc:	0048                	addi	a0,sp,4
800035be:	0000                	unimp
800035c0:	00000037          	lui	zero,0x0
800035c4:	0051                	c.nop	20
800035c6:	0000                	unimp
800035c8:	0015                	c.nop	5
800035ca:	0000                	unimp
800035cc:	0055                	c.nop	21
800035ce:	0000                	unimp
800035d0:	00000053          	fadd.s	ft0,ft0,ft0,rne
800035d4:	0001                	nop
800035d6:	0000                	unimp
800035d8:	0002                	c.slli64	zero
800035da:	0000                	unimp
800035dc:	0046                	c.slli	zero,0x11
800035de:	0000                	unimp
800035e0:	0000001b          	0x1b
800035e4:	0005                	c.nop	1
800035e6:	0000                	unimp
800035e8:	003c                	addi	a5,sp,8
800035ea:	0000                	unimp
800035ec:	0058                	addi	a4,sp,4
800035ee:	0000                	unimp
800035f0:	0026                	c.slli	zero,0x9
800035f2:	0000                	unimp
800035f4:	00000007          	0x7
800035f8:	002c                	addi	a1,sp,8
800035fa:	0000                	unimp
800035fc:	0032                	c.slli	zero,0xc
800035fe:	0000                	unimp
80003600:	0049                	c.nop	18
80003602:	0000                	unimp
80003604:	0046                	c.slli	zero,0x11
80003606:	0000                	unimp
80003608:	0011                	c.nop	4
8000360a:	0000                	unimp
8000360c:	0062                	c.slli	zero,0x18
8000360e:	0000                	unimp
80003610:	0044                	addi	s1,sp,4
80003612:	0000                	unimp
80003614:	0009                	c.nop	2
80003616:	0000                	unimp
80003618:	000e                	c.slli	zero,0x3
8000361a:	0000                	unimp
8000361c:	0061                	c.nop	24
8000361e:	0000                	unimp
80003620:	000a                	c.slli	zero,0x2
80003622:	0000                	unimp
80003624:	0000002f          	0x2f
80003628:	0000002b          	0x2b
8000362c:	0030                	addi	a2,sp,8
8000362e:	0000                	unimp
80003630:	002e                	c.slli	zero,0xb
80003632:	0000                	unimp
80003634:	001a                	c.slli	zero,0x6
80003636:	0000                	unimp
80003638:	00000013          	nop
8000363c:	0001                	nop
8000363e:	0000                	unimp
80003640:	003a                	c.slli	zero,0xe
80003642:	0000                	unimp
80003644:	005c                	addi	a5,sp,4
80003646:	0000                	unimp
80003648:	0025                	c.nop	9
8000364a:	0000                	unimp
8000364c:	005c                	addi	a5,sp,4
8000364e:	0000                	unimp
80003650:	005c                	addi	a5,sp,4
80003652:	0000                	unimp
80003654:	005a                	c.slli	zero,0x16
80003656:	0000                	unimp
80003658:	000e                	c.slli	zero,0x3
8000365a:	0000                	unimp
8000365c:	0046                	c.slli	zero,0x11
8000365e:	0000                	unimp
80003660:	005e                	c.slli	zero,0x17
80003662:	0000                	unimp
80003664:	0049                	c.nop	18
80003666:	0000                	unimp
80003668:	0009                	c.nop	2
8000366a:	0000                	unimp
8000366c:	0054                	addi	a3,sp,4
8000366e:	0000                	unimp
80003670:	0000004f          	fnmadd.s	ft0,ft0,ft0,ft0,rne
80003674:	0034                	addi	a3,sp,8
80003676:	0000                	unimp
80003678:	0055                	c.nop	21
8000367a:	0000                	unimp
8000367c:	00000003          	lb	zero,0(zero) # 0 <threadsense.5>
80003680:	0049                	c.nop	18
80003682:	0000                	unimp
80003684:	0001                	nop
80003686:	0000                	unimp
80003688:	0001                	nop
8000368a:	0000                	unimp
8000368c:	005c                	addi	a5,sp,4
8000368e:	0000                	unimp
80003690:	000a                	c.slli	zero,0x2
80003692:	0000                	unimp
80003694:	000e                	c.slli	zero,0x3
80003696:	0000                	unimp
80003698:	0058                	addi	a4,sp,4
8000369a:	0000                	unimp
8000369c:	0061                	c.nop	24
8000369e:	0000                	unimp
800036a0:	0015                	c.nop	5
800036a2:	0000                	unimp
800036a4:	0055                	c.nop	21
800036a6:	0000                	unimp
800036a8:	0009                	c.nop	2
800036aa:	0000                	unimp
800036ac:	0051                	c.nop	20
800036ae:	0000                	unimp
800036b0:	001c                	0x1c
800036b2:	0000                	unimp
800036b4:	0026                	c.slli	zero,0x9
800036b6:	0000                	unimp
800036b8:	001e                	c.slli	zero,0x7
800036ba:	0000                	unimp
800036bc:	002c                	addi	a1,sp,8
800036be:	0000                	unimp
800036c0:	0011                	c.nop	4
800036c2:	0000                	unimp
800036c4:	005f 0000 005f      	0x5f0000005f
800036ca:	0000                	unimp
800036cc:	000d                	c.nop	3
800036ce:	0000                	unimp
800036d0:	0042                	c.slli	zero,0x10
800036d2:	0000                	unimp
800036d4:	00000017          	auipc	zero,0x0
800036d8:	0001                	nop
800036da:	0000                	unimp
800036dc:	0000004f          	fnmadd.s	ft0,ft0,ft0,ft0,rne
800036e0:	00000023          	sb	zero,0(zero) # 0 <threadsense.5>
800036e4:	00000027          	0x27
800036e8:	0000002f          	0x2f
800036ec:	00000023          	sb	zero,0(zero) # 0 <threadsense.5>
800036f0:	00000063          	beqz	zero,800036f0 <data+0x854>
800036f4:	0054                	addi	a3,sp,4
800036f6:	0000                	unimp
800036f8:	00000053          	fadd.s	ft0,ft0,ft0,rne
800036fc:	003a                	c.slli	zero,0xe
800036fe:	0000                	unimp
80003700:	002c                	addi	a1,sp,8
80003702:	0000                	unimp
80003704:	0000001b          	0x1b
80003708:	0014                	0x14
8000370a:	0000                	unimp
8000370c:	00000047          	fmsub.s	ft0,ft0,ft0,ft0,rne
80003710:	0005                	c.nop	1
80003712:	0000                	unimp
80003714:	00000037          	lui	zero,0x0
80003718:	0014                	0x14
8000371a:	0000                	unimp
8000371c:	0019                	c.nop	6
8000371e:	0000                	unimp
80003720:	0000005b          	0x5b
80003724:	0050                	addi	a2,sp,4
80003726:	0000                	unimp
80003728:	0039                	c.nop	14
8000372a:	0000                	unimp
8000372c:	00000013          	nop
80003730:	0046                	c.slli	zero,0x11
80003732:	0000                	unimp
80003734:	00000057          	0x57
80003738:	003e                	c.slli	zero,0xf
8000373a:	0000                	unimp
8000373c:	0056                	c.slli	zero,0x15
8000373e:	0000                	unimp
80003740:	0021                	c.nop	8
80003742:	0000                	unimp
80003744:	0038                	addi	a4,sp,8
80003746:	0000                	unimp
80003748:	0062                	c.slli	zero,0x18
8000374a:	0000                	unimp
8000374c:	0032                	c.slli	zero,0xc
8000374e:	0000                	unimp
80003750:	001f 0000 0032      	0x320000001f
80003756:	0000                	unimp
80003758:	001c                	0x1c
8000375a:	0000                	unimp
8000375c:	0041                	c.nop	16
8000375e:	0000                	unimp
80003760:	0058                	addi	a4,sp,4
80003762:	0000                	unimp
80003764:	0000001b          	0x1b
80003768:	0034                	addi	a3,sp,8
8000376a:	0000                	unimp
8000376c:	0026                	c.slli	zero,0x9
8000376e:	0000                	unimp
80003770:	003e                	c.slli	zero,0xf
80003772:	0000                	unimp
80003774:	0022                	c.slli	zero,0x8
80003776:	0000                	unimp
80003778:	0060                	addi	s0,sp,12
8000377a:	0000                	unimp
8000377c:	0005                	c.nop	1
8000377e:	0000                	unimp
80003780:	003c                	addi	a5,sp,8
80003782:	0000                	unimp
80003784:	00000043          	fmadd.s	ft0,ft0,ft0,ft0,rne
80003788:	0000001b          	0x1b
8000378c:	0010                	0x10
8000378e:	0000                	unimp
80003790:	004a                	c.slli	zero,0x12
80003792:	0000                	unimp
80003794:	0062                	c.slli	zero,0x18
80003796:	0000                	unimp
80003798:	005d                	c.nop	23
8000379a:	0000                	unimp
8000379c:	0010                	0x10
8000379e:	0000                	unimp
800037a0:	004e                	c.slli	zero,0x13
800037a2:	0000                	unimp
800037a4:	0031                	c.nop	12
800037a6:	0000                	unimp
800037a8:	0022                	c.slli	zero,0x8
800037aa:	0000                	unimp
800037ac:	0000002f          	0x2f
800037b0:	00000057          	0x57
800037b4:	0030                	addi	a2,sp,8
800037b6:	0000                	unimp
800037b8:	0054                	addi	a3,sp,4
800037ba:	0000                	unimp
800037bc:	0048                	addi	a0,sp,4
800037be:	0000                	unimp
800037c0:	00000037          	lui	zero,0x0
800037c4:	0051                	c.nop	20
800037c6:	0000                	unimp
800037c8:	0015                	c.nop	5
800037ca:	0000                	unimp
800037cc:	0055                	c.nop	21
800037ce:	0000                	unimp
800037d0:	00000053          	fadd.s	ft0,ft0,ft0,rne
800037d4:	0001                	nop
800037d6:	0000                	unimp
800037d8:	0002                	c.slli64	zero
800037da:	0000                	unimp
800037dc:	0046                	c.slli	zero,0x11
800037de:	0000                	unimp
800037e0:	0000001b          	0x1b
800037e4:	0005                	c.nop	1
800037e6:	0000                	unimp
800037e8:	003c                	addi	a5,sp,8
800037ea:	0000                	unimp
800037ec:	0058                	addi	a4,sp,4
800037ee:	0000                	unimp
800037f0:	0026                	c.slli	zero,0x9
800037f2:	0000                	unimp
800037f4:	00000007          	0x7
800037f8:	002c                	addi	a1,sp,8
800037fa:	0000                	unimp
800037fc:	0032                	c.slli	zero,0xc
800037fe:	0000                	unimp
80003800:	0049                	c.nop	18
80003802:	0000                	unimp
80003804:	0046                	c.slli	zero,0x11
80003806:	0000                	unimp
80003808:	0011                	c.nop	4
8000380a:	0000                	unimp
8000380c:	0062                	c.slli	zero,0x18
8000380e:	0000                	unimp
80003810:	0044                	addi	s1,sp,4
80003812:	0000                	unimp
80003814:	0009                	c.nop	2
80003816:	0000                	unimp
80003818:	000e                	c.slli	zero,0x3
8000381a:	0000                	unimp
8000381c:	0061                	c.nop	24
8000381e:	0000                	unimp
80003820:	000a                	c.slli	zero,0x2
80003822:	0000                	unimp
80003824:	0000002f          	0x2f
80003828:	0000002b          	0x2b
8000382c:	0030                	addi	a2,sp,8
8000382e:	0000                	unimp
80003830:	002e                	c.slli	zero,0xb
80003832:	0000                	unimp
80003834:	001a                	c.slli	zero,0x6
80003836:	0000                	unimp
80003838:	00000013          	nop
8000383c:	0001                	nop
8000383e:	0000                	unimp
80003840:	003a                	c.slli	zero,0xe
80003842:	0000                	unimp
80003844:	005c                	addi	a5,sp,4
80003846:	0000                	unimp
80003848:	0025                	c.nop	9
8000384a:	0000                	unimp
8000384c:	005c                	addi	a5,sp,4
8000384e:	0000                	unimp
80003850:	005c                	addi	a5,sp,4
80003852:	0000                	unimp
80003854:	005a                	c.slli	zero,0x16
80003856:	0000                	unimp
80003858:	000e                	c.slli	zero,0x3
8000385a:	0000                	unimp
8000385c:	0046                	c.slli	zero,0x11
8000385e:	0000                	unimp
80003860:	005e                	c.slli	zero,0x17
80003862:	0000                	unimp
80003864:	0049                	c.nop	18
80003866:	0000                	unimp
80003868:	0009                	c.nop	2
8000386a:	0000                	unimp
8000386c:	0054                	addi	a3,sp,4
8000386e:	0000                	unimp
80003870:	0000004f          	fnmadd.s	ft0,ft0,ft0,ft0,rne
80003874:	0034                	addi	a3,sp,8
80003876:	0000                	unimp
80003878:	0055                	c.nop	21
8000387a:	0000                	unimp
8000387c:	00000003          	lb	zero,0(zero) # 0 <threadsense.5>
80003880:	0049                	c.nop	18
80003882:	0000                	unimp
80003884:	0001                	nop
80003886:	0000                	unimp
80003888:	0001                	nop
8000388a:	0000                	unimp
8000388c:	005c                	addi	a5,sp,4
8000388e:	0000                	unimp
80003890:	000a                	c.slli	zero,0x2
80003892:	0000                	unimp
80003894:	000e                	c.slli	zero,0x3
80003896:	0000                	unimp
80003898:	0058                	addi	a4,sp,4
8000389a:	0000                	unimp

8000389c <coeffs>:
8000389c:	000d                	c.nop	3
8000389e:	0000                	unimp
800038a0:	0050                	addi	a2,sp,4
800038a2:	0000                	unimp
800038a4:	004c                	addi	a1,sp,4
800038a6:	0000                	unimp
800038a8:	004d                	c.nop	19
800038aa:	0000                	unimp
800038ac:	0034                	addi	a3,sp,8
800038ae:	0000                	unimp
800038b0:	003e                	c.slli	zero,0xf
800038b2:	0000                	unimp
800038b4:	0000002f          	0x2f
800038b8:	0019                	c.nop	6
800038ba:	0000                	unimp
800038bc:	005c                	addi	a5,sp,4
800038be:	0000                	unimp
800038c0:	0006                	c.slli	zero,0x1
800038c2:	0000                	unimp
800038c4:	0064                	addi	s1,sp,12
800038c6:	0000                	unimp
800038c8:	0064                	addi	s1,sp,12
800038ca:	0000                	unimp
800038cc:	0046                	c.slli	zero,0x11
800038ce:	0000                	unimp
800038d0:	0019                	c.nop	6
800038d2:	0000                	unimp
800038d4:	005f 0000 0003      	0x30000005f
800038da:	0000                	unimp
800038dc:	00000043          	fmadd.s	ft0,ft0,ft0,ft0,rne
800038e0:	0028                	addi	a0,sp,8
800038e2:	0000                	unimp
800038e4:	0000003f 00000039 	0x390000003f
800038ec:	0000003b          	0x3b
800038f0:	0000004b          	fnmsub.s	ft0,ft0,ft0,ft0,rne
800038f4:	00000043          	fmadd.s	ft0,ft0,ft0,ft0,rne
800038f8:	005a                	c.slli	zero,0x16
800038fa:	0000                	unimp
800038fc:	0012                	c.slli	zero,0x4
800038fe:	0000                	unimp
80003900:	005c                	addi	a5,sp,4
80003902:	0000                	unimp
80003904:	002e                	c.slli	zero,0xb
80003906:	0000                	unimp
80003908:	0009                	c.nop	2
8000390a:	0000                	unimp
8000390c:	001c                	0x1c
8000390e:	0000                	unimp
80003910:	0000004f          	fnmadd.s	ft0,ft0,ft0,ft0,rne
80003914:	0000003b          	0x3b
80003918:	0028                	addi	a0,sp,8
8000391a:	0000                	unimp
8000391c:	003a                	c.slli	zero,0xe
8000391e:	0000                	unimp
80003920:	0056                	c.slli	zero,0x15
80003922:	0000                	unimp
80003924:	0045                	c.nop	17
80003926:	0000                	unimp
80003928:	0009                	c.nop	2
8000392a:	0000                	unimp
8000392c:	0000002f          	0x2f
80003930:	0000000f          	fence	unknown,unknown
80003934:	0055                	c.nop	21
80003936:	0000                	unimp
80003938:	005a                	c.slli	zero,0x16
8000393a:	0000                	unimp
8000393c:	0048                	addi	a0,sp,4
8000393e:	0000                	unimp
80003940:	0055                	c.nop	21
80003942:	0000                	unimp
80003944:	002a                	c.slli	zero,0xa
80003946:	0000                	unimp
80003948:	0029                	c.nop	10
8000394a:	0000                	unimp
8000394c:	0009                	c.nop	2
8000394e:	0000                	unimp
80003950:	0024                	addi	s1,sp,8
80003952:	0000                	unimp
80003954:	005f 0000 001c      	0x1c0000005f
8000395a:	0000                	unimp
8000395c:	0000001b          	0x1b
80003960:	0039                	c.nop	14
80003962:	0000                	unimp
80003964:	0054                	addi	a3,sp,4
80003966:	0000                	unimp
80003968:	0026                	c.slli	zero,0x9
8000396a:	0000                	unimp
8000396c:	00000053          	fadd.s	ft0,ft0,ft0,rne
80003970:	0002                	c.slli64	zero
80003972:	0000                	unimp
80003974:	0000001b          	0x1b
80003978:	0064                	addi	s1,sp,12
8000397a:	0000                	unimp
8000397c:	002e                	c.slli	zero,0xb
8000397e:	0000                	unimp
80003980:	0019                	c.nop	6
80003982:	0000                	unimp
80003984:	003c                	addi	a5,sp,8
80003986:	0000                	unimp
80003988:	0049                	c.nop	18
8000398a:	0000                	unimp
8000398c:	00000003          	lb	zero,0(zero) # 0 <threadsense.5>
80003990:	00000047          	fmsub.s	ft0,ft0,ft0,ft0,rne
80003994:	0041                	c.nop	16
80003996:	0000                	unimp
80003998:	000c                	0xc
8000399a:	0000                	unimp
8000399c:	0038                	addi	a4,sp,8
8000399e:	0000                	unimp
800039a0:	0021                	c.nop	8
800039a2:	0000                	unimp
800039a4:	0048                	addi	a0,sp,4
800039a6:	0000                	unimp
800039a8:	00000037          	lui	zero,0x0
800039ac:	00000063          	beqz	zero,800039ac <coeffs+0x110>
800039b0:	0039                	c.nop	14
800039b2:	0000                	unimp
800039b4:	002c                	addi	a1,sp,8
800039b6:	0000                	unimp
800039b8:	0046                	c.slli	zero,0x11
800039ba:	0000                	unimp
800039bc:	0029                	c.nop	10
800039be:	0000                	unimp
800039c0:	0055                	c.nop	21
800039c2:	0000                	unimp
800039c4:	003e                	c.slli	zero,0xf
800039c6:	0000                	unimp
800039c8:	0001                	nop
800039ca:	0000                	unimp
800039cc:	0048                	addi	a0,sp,4
800039ce:	0000                	unimp
800039d0:	0038                	addi	a4,sp,8
800039d2:	0000                	unimp
800039d4:	001c                	0x1c
800039d6:	0000                	unimp
800039d8:	00000063          	beqz	zero,800039d8 <coeffs+0x13c>
800039dc:	0040                	addi	s0,sp,4
800039de:	0000                	unimp
800039e0:	0000003f 00000058 	0x580000003f
800039e8:	0000002f          	0x2f
800039ec:	0041                	c.nop	16
800039ee:	0000                	unimp
800039f0:	0042                	c.slli	zero,0x10
800039f2:	0000                	unimp
800039f4:	0062                	c.slli	zero,0x18
800039f6:	0000                	unimp
800039f8:	003e                	c.slli	zero,0xf
800039fa:	0000                	unimp
800039fc:	005a                	c.slli	zero,0x16
800039fe:	0000                	unimp
80003a00:	003a                	c.slli	zero,0xe
80003a02:	0000                	unimp
80003a04:	0022                	c.slli	zero,0x8
80003a06:	0000                	unimp
80003a08:	005c                	addi	a5,sp,4
80003a0a:	0000                	unimp
80003a0c:	0050                	addi	a2,sp,4
80003a0e:	0000                	unimp
80003a10:	0032                	c.slli	zero,0xc
80003a12:	0000                	unimp
80003a14:	00000003          	lb	zero,0(zero) # 0 <threadsense.5>
80003a18:	00000023          	sb	zero,0(zero) # 0 <threadsense.5>
80003a1c:	0022                	c.slli	zero,0x8
80003a1e:	0000                	unimp
80003a20:	0000001b          	0x1b
80003a24:	0059                	c.nop	22
80003a26:	0000                	unimp
80003a28:	0020                	addi	s0,sp,8
80003a2a:	0000                	unimp
80003a2c:	00000053          	fadd.s	ft0,ft0,ft0,rne
80003a30:	0055                	c.nop	21
80003a32:	0000                	unimp
80003a34:	0035                	c.nop	13
80003a36:	0000                	unimp
80003a38:	0000004b          	fnmsub.s	ft0,ft0,ft0,ft0,rne
80003a3c:	0045                	c.nop	17
80003a3e:	0000                	unimp
80003a40:	000e                	c.slli	zero,0x3
80003a42:	0000                	unimp
80003a44:	0000004b          	fnmsub.s	ft0,ft0,ft0,ft0,rne
80003a48:	005d                	c.nop	23
80003a4a:	0000                	unimp
80003a4c:	0045                	c.nop	17
80003a4e:	0000                	unimp
80003a50:	00000003          	lb	zero,0(zero) # 0 <threadsense.5>
80003a54:	0000002b          	0x2b
80003a58:	0055                	c.nop	21
80003a5a:	0000                	unimp
80003a5c:	0011                	c.nop	4
80003a5e:	0000                	unimp
80003a60:	001e                	c.slli	zero,0x7
80003a62:	0000                	unimp
80003a64:	001f 0000 0021      	0x210000001f
80003a6a:	0000                	unimp
80003a6c:	005f 0000 001c      	0x1c0000005f
80003a72:	0000                	unimp
80003a74:	005e                	c.slli	zero,0x17
80003a76:	0000                	unimp
80003a78:	0055                	c.nop	21
80003a7a:	0000                	unimp
80003a7c:	0025                	c.nop	9
80003a7e:	0000                	unimp
80003a80:	001c                	0x1c
80003a82:	0000                	unimp
80003a84:	001c                	0x1c
80003a86:	0000                	unimp
80003a88:	0010                	0x10
80003a8a:	0000                	unimp
80003a8c:	001d                	c.nop	7
80003a8e:	0000                	unimp
80003a90:	00000053          	fadd.s	ft0,ft0,ft0,rne
80003a94:	00000003          	lb	zero,0(zero) # 0 <threadsense.5>
80003a98:	0000003f  	0x3f
